
/nfs/site/disks/zsc14.xne_abc_fe_001/users/chandrbi/emulval_0p8_17Jun/abc_emul-srvrgen4/src/rcs_fw/out/bin/ana_sim.elf:     file format elf32-xtensa-le


Disassembly of section .ana_ext_info_section:

00010000 <ana_ext_info>:
	...

Disassembly of section .rtos.rodata:

00010250 <Xthal_intlevel>:
   10250:	00010001 00010001 00010001 00020004     ................
   10260:	00020002 00020002 00020002 00020002     ................
   10270:	00020002 00000002 00000000 00000000     ................
	...

00010290 <Xthal_intlevel+0x40>:
   10290:	00000000 fffffff9 00000000 00000000     ................
   102a0:	00000001 00000001 00000001 00000001     ................
   102b0:	00000000 00000001 00000001 00000001     ................
   102c0:	00000001 00000001 00000001 00000001     ................
   102d0:	00000000 fffffff9 00000000 00000000     ................
	...
   102e8:	00000001 00000001 00000001 00000001     ................
   102f8:	00000001 00000001 00000000 00000000     ................
   10308:	00000001 00000001 00000000 fffffff9     ................
   10318:	00000001 00000000 00000000 00000001     ................
   10328:	00000000 00000001 00000000 00000000     ................
   10338:	00000000 00000001 00000000 00000001     ................
   10348:	00000000 00000001 00000000 fffffff9     ................
	...
   10374:	00000001 00000001 00000001 00000001     ................
   10384:	00000001 00000001 00000001 00000000     ................
   10394:	fffffff9 00000000 00000000 00000000     ................
	...
   103b0:	00000001 00000001 00000000 00000000     ................
	...
   103c8:	00000001 00000001                       ........

000103d0 <Xthal_intlevel+0x180>:
   103d0:	00000000 fffffff9 00000000 00000001     ................
	...
   103f4:	00000001 00000000 00000001 00000000     ................
   10404:	00000001 00000000 00000001              ............

00010410 <Xthal_mpu_bgmap>:
   10410:	00000001 00006700 80000001 00006700     .....g.......g..

Disassembly of section .rodata:

00010420 <__switchjump_table_xp_temp_0_0>:
   10420:	0002161e 00021632 00021641 00021650     ....2...A...P...
	...
   1043c:	00000001 00000000 00000001 00000001     ................
   1044c:	00000001 3f800000 bf800000 00000000     .......?........

0001045c <__FRAME_END__>:
   1045c:	00000000                                ....

00010460 <__CTOR_LIST__>:
   10460:	ffffffff                                ....

00010464 <__CTOR_END__>:
   10464:	00000000                                ....

00010468 <__DTOR_LIST__>:
   10468:	ffffffff                                ....

0001046c <__DTOR_END__>:
   1046c:	00000000 00010c90 00010f10 00030000     ................
   1047c:	00030000                                ....

Disassembly of section .dram0.debug.rodata:

00010480 <com_heap_create.debug_str_0>:
   10480:	5f6d6f63 70616568 393a632e 6f423a38     com_heap.c:98:Bo
   10490:	70206874 746e696f 74207265 6874206f     th pointer to th
   104a0:	65682065 73207061 61726f74 61206567     e heap storage a
   104b0:	20616572 20646e61 20656874 70616568     rea and the heap
   104c0:	7a697320 756d2065 62207473 756d2065      size must be mu
   104d0:	7069746c 6f20656c 32332066 00202020     ltiple of 32   .

000104e0 <com_heap_create.debug_str_1>:
   104e0:	5f6d6f63 70616568 313a632e 483a3032     com_heap.c:120:H
   104f0:	20706165 657a6973 20736920 75206425     eap size is %d u
   10500:	7374696e 2020200a                        nits.   .

00010509 <com_heap_create.debug_str_1+0x29>:
   10509:	00000000                                 .......

00010510 <com_calloc.debug_str_2>:
   10510:	5f6d6f63 70616568 313a632e 523a3234     com_heap.c:142:R
   10520:	65757165 64657473 696e7520 3d207374     equested units =
   10530:	0a642520 00202020                        %d.   .

00010538 <com_calloc.debug_str_2+0x28>:
	...

00010540 <com_calloc.debug_str_3>:
   10540:	5f6d6f63 70616568 313a632e 523a3835     com_heap.c:158:R
   10550:	69616d65 676e696e 696e7520 3d207374     emaining units =
   10560:	0a642520 00202020                        %d.   .

00010568 <com_calloc.debug_str_3+0x28>:
	...

00010570 <com_calloc.debug_str_4>:
   10570:	5f6d6f63 70616568 313a632e 413a3137     com_heap.c:171:A
   10580:	636f6c6c 64657461 696e7520 3d207374     llocated units =
   10590:	0a642520 00202020                        %d.   .

00010598 <com_calloc.debug_str_4+0x28>:
	...

000105a0 <com_calloc.debug_str_5>:
   105a0:	5f6d6f63 70616568 313a632e 413a3637     com_heap.c:176:A
   105b0:	636f6c6c 64657461 696e7520 3d207374     llocated units =
   105c0:	0a642520 00202020                        %d.   .

000105c8 <com_calloc.debug_str_5+0x28>:
	...

000105d0 <com_free.debug_str_6>:
   105d0:	5f6d6f63 70616568 323a632e 543a3130     com_heap.c:201:T
   105e0:	4d206568 6f6c6c61 20646563 6e696f70     he Malloced poin
   105f0:	20726574 7473756d 20656220 62203233     ter must be 32 b
   10600:	20657479 67696c61 2064656e               yte aligned   .

0001060f <com_free.debug_str_6+0x3f>:
	...

00010610 <com_free.debug_str_7>:
   10610:	5f6d6f63 70616568 323a632e 483a3630     com_heap.c:206:H
   10620:	20706165 72726f63 65747075 202d2064     eap corrupted - 
   10630:	636f6c62 756f206b 64697374 68742065     block outside th
   10640:	65682065 61207061 20616572               e heap area   .

0001064f <com_free.debug_str_7+0x3f>:
	...

00010650 <com_free.debug_str_8>:
   10650:	5f6d6f63 70616568 323a632e 483a3131     com_heap.c:211:H
   10660:	20706165 72726f63 65747075 4d202e64     eap corrupted. M
   10670:	63696761 6c617620 20736575 7265766f     agic values over
   10680:	74697277 206e6574                        written   .

0001068b <com_free.debug_str_8+0x3b>:
   1068b:	00000000                                 .....

00010690 <com_free.debug_str_9>:
   10690:	5f6d6f63 70616568 323a632e 483a3631     com_heap.c:216:H
   106a0:	20706165 657a6973 656c6520 746e656d     eap size element
   106b0:	726f6320 74707572 2d206465 6f727720      corrupted - wro
   106c0:	7320676e 20657a69                        ng size   .

000106cb <com_free.debug_str_9+0x3b>:
   106cb:	00000000                                 .....

000106d0 <com_free.debug_str_10>:
   106d0:	5f6d6f63 70616568 323a632e 0a3a3032     com_heap.c:220:.
   106e0:	65657266 20676e69 75206425 7374696e     freeing %d units
   106f0:	2020200a                                 .   .

000106f5 <com_free.debug_str_10+0x25>:
	...

00010700 <com_free.debug_str_11>:
   10700:	5f6d6f63 70616568 323a632e 523a3632     com_heap.c:226:R
   10710:	69616d65 676e696e 696e7520 3d207374     emaining units =
   10720:	0a642520 00202020                        %d.   .

00010728 <com_free.debug_str_11+0x28>:
	...

00010730 <com_free.debug_str_12>:
   10730:	5f6d6f63 70616568 323a632e 523a3634     com_heap.c:246:R
   10740:	69616d65 676e696e 696e7520 3d207374     emaining units =
   10750:	0a642520 00202020 00000000 00000000      %d.   .........

00010760 <ana_isr_event.debug_str_1>:
   10760:	5f616e61 2e727369 34313a63 4e413a31     ana_isr.c:141:AN
   10770:	53495f41 56455f52 2e544e45 00202020     A_ISR_EVENT.   .

00010780 <ana_rcs2cpu_mb_handler.debug_str_2>:
   10780:	5f616e61 2e727369 30323a63 44413a37     ana_isr.c:207:AD
   10790:	41432043 6e69204c 72726574 0a747075     C CAL interrupt.
   107a0:	00202020                                   .

000107a4 <ana_rcs2cpu_mb_handler.debug_str_2+0x24>:
	...

000107b0 <ana_start_cal_handler.debug_str_3>:
   107b0:	5f616e61 2e727369 31323a63 44413a32     ana_isr.c:212:AD
   107c0:	54532043 20545241 204c4143 65746e69     C START CAL inte
   107d0:	70757272 20200a74                        rrupt.   .

000107da <ana_start_cal_handler.debug_str_3+0x2a>:
   107da:	00000000                                 ......

000107e0 <ana_atsa_start_cal_handler.debug_str_4>:
   107e0:	5f616e61 2e727369 31323a63 44413a37     ana_isr.c:217:AD
   107f0:	54412043 43204153 69204c41 7265746e     C ATSA CAL inter
   10800:	74707572 2020200a                        rupt.   .

00010809 <ana_atsa_start_cal_handler.debug_str_4+0x29>:
   10809:	00000000                                 .......

00010810 <ana_hw_seq_done_handler.debug_str_5>:
   10810:	5f616e61 2e727369 32323a63 44413a32     ana_isr.c:222:AD
   10820:	57482043 51455320 4e4f4420 6e692045     C HW SEQ DONE in
   10830:	72726574 0a747075 00202020              terrupt.   .

0001083c <ana_hw_seq_done_handler.debug_str_5+0x2c>:
   1083c:	00000000                                ....

00010840 <ana_cmff_fifo_err_handler.debug_str_6>:
   10840:	5f616e61 2e727369 32323a63 44413a37     ana_isr.c:227:AD
   10850:	4d432043 46204646 204f4649 4f525245     C CMFF FIFO ERRO
   10860:	6e692052 72726574 0a747075 00202020     R interrupt.   .

00010870 <ana_cal_int_handler.debug_str_0>:
   10870:	5f616e61 2e727369 32393a63 4344413a     ana_isr.c:92:ADC
   10880:	4c414320 20642520 646e6168 2072656c      CAL %d handler 
   10890:	00002020 00000000 00000000 00000000       ..............

000108a0 <main.debug_str_0>:
   108a0:	5f616e61 6e69616d 373a632e 4e413a36     ana_main.c:76:AN
   108b0:	616d2041 25206e69 20202064               A main %d   .

000108bd <main.debug_str_0+0x1d>:
   108bd:	000000                                        ...

000108c0 <main.debug_str_3>:
   108c0:	5f616e61 6e69616d 313a632e 203a3631     ana_main.c:116: 
   108d0:	3a414e41 61745320 63207472 62696c61     ANA: Start calib
   108e0:	69746172 20206e6f 00000020 00000000     ration   .......

000108f0 <init_asc_wrap.debug_str_0>:
   108f0:	63696c73 6c616365 313a632e 203a3239     slicecal.c:192: 
   10900:	73696854 55504320 20444920 77207369     This CPU ID is w
   10910:	676e6f72 00202020                       rong   .

Disassembly of section .clib.data:

00010918 <_Nats>:
   10918:	00000040                                @...

0001091c <_Atcount>:
   1091c:	00000040                                @...

00010920 <environ>:
   10920:	00010e14                                ....

Disassembly of section .rtos.percpu.data:

00010928 <xtos_enabled>:
   10928:	00000000                                ....

0001092c <xtos_vpri_enabled>:
   1092c:	ffffffff                                ....

00010930 <xtos_interrupt_table>:
   10930:	00023a84 00000012 00023a84 00000011     .:.......:......
   10940:	00023a84 00000010 00023a84 0000000f     .:.......:......
   10950:	00023a84 0000000e 00023a84 0000000d     .:.......:......
   10960:	00023a84 0000000c 00023a84 0000000b     .:.......:......
   10970:	00023a84 0000000a 00023a84 00000009     .:.......:......
   10980:	00023a84 00000008 00023a84 00000007     .:.......:......
   10990:	00023a84 00000006 00023a84 00000005     .:.......:......
   109a0:	00023a84 00000004 00023a84 00000003     .:.......:......
   109b0:	00023a84 00000002 00023a84 00000001     .:.......:......
   109c0:	00023a84 00000000                       .:......

000109c8 <xtos_interrupt_mask_table>:
   109c8:	ffffffc0 00040000 ffffffc0 00020000     ................
   109d8:	ffffffc0 00010000 ffffffc0 00008000     ................
   109e8:	ffffffc0 00004000 ffffffc0 00002000     .....@....... ..
   109f8:	ffffffc0 00001000 ffffffc0 00000800     ................
   10a08:	ffffffc0 00000400 ffffffc0 00000200     ................
   10a18:	ffffffc0 00000100 ffffffc0 00000080     ................
   10a28:	ffffffc0 00000040 ffffffc0 00000020     ....@....... ...
   10a38:	ffffffe0 00000010 fffffff0 00000008     ................
   10a48:	fffffff8 00000004 fffffffc 00000002     ................
   10a58:	fffffffe 00000001                       ........

00010a60 <xtos_exc_handler_table>:
   10a60:	00023a8c 00022dc4 00023a8c 00023a8c     .:...-...:...:..
   10a70:	00022c08 00020810 00023a8c 00023a8c     .,.......:...:..
   10a80:	00023a8c 00023a8c 00023a8c 00023a8c     .:...:...:...:..
   10a90:	00023a8c 00023a8c 00023a8c 00023a8c     .:...:...:...:..
   10aa0:	00023a8c 00023a8c 00023a8c 00023a8c     .:...:...:...:..
   10ab0:	00023a8c 00023a8c 00023a8c 00023a8c     .:...:...:...:..
   10ac0:	00023a8c 00023a8c 00023a8c 00023a8c     .:...:...:...:..
   10ad0:	00023a8c 00023a8c 00023a8c 00023a8c     .:...:...:...:..
   10ae0:	00023a8c 00023a8c 00023a8c 00023a8c     .:...:...:...:..
   10af0:	00023a8c 00023a8c 00023a8c 00023a8c     .:...:...:...:..
   10b00:	00023a8c 00023a8c 00023a8c 00023a8c     .:...:...:...:..
   10b10:	00023a8c 00023a8c 00023a8c 00023a8c     .:...:...:...:..
   10b20:	00023a8c 00023a8c 00023a8c 00023a8c     .:...:...:...:..
   10b30:	00023a8c 00023a8c 00023a8c 00023a8c     .:...:...:...:..
   10b40:	00023a8c 00023a8c 00023a8c 00023a8c     .:...:...:...:..
   10b50:	00023a8c 00023a8c 00023a8c 00023a8c     .:...:...:...:..

Disassembly of section .data:

00010b60 <_start_envp>:
   10b60:	00000000                                ....

00010b64 <__dso_handle>:
   10b64:	00000000                                ....

00010b68 <frame_dummy.object>:
	...

00010b80 <__do_global_dtors_aux.completed>:
   10b80:	00000000                                ....

00010b84 <__do_global_dtors_aux.p>:
   10b84:	0001046c                                l...

00010b88 <_reftb_exit_location>:
   10b88:	bddad000                                ....

00010b8c <_reftb_power_toggle>:
   10b8c:	bddad00c                                ....

00010b90 <_reftb_stl_info_location>:
   10b90:	9ffffffc                                ....

00010b94 <ver_fw>:
   10b94:	00461a80                                ..F.

00010b98 <g_com_print_level>:
   10b98:	00000003 00000000                       ........

00010ba0 <adc_cpu_irq_handler_map>:
   10ba0:	00000006 00000000 00000000 00000007     ................
	...
   10bb8:	00000008 00000000 00000000 00000009     ................
	...
   10bd0:	0000000a 00000000 00000000 0000000b     ................
	...
   10be8:	0000000c 00000000 00000000 0000000d     ................
	...
   10c00:	0000000e 00000000 00000000 0000000f     ................
	...
   10c18:	00000010 00000000 00000000 00000011     ................
	...
   10c30:	00000012 00000000 00000000 00000000     ................
	...
   10c48:	00000001 00000000 00000000 00000002     ................
	...
   10c60:	00000003 00000000 00000000 00000004     ................
	...
   10c78:	00000005 00000000 00000000              ............

Disassembly of section .bss:

00010c90 <_reftb_int_deassert>:
   10c90:	00000000                                ....

00010c94 <_reftb_xtmem_scratch>:
   10c94:	00000000                                ....

00010c98 <heap>:
	...

00010cc4 <g_trace_base>:
   10cc4:	00000000                                ....

00010cc8 <com_print_index>:
   10cc8:	00000000                                ....

00010ccc <csr_base>:
   10ccc:	00000000                                ....

00010cd0 <ant_cpu_base>:
	...

00010ce0 <dither_coeff>:
	...

00010d00 <w0_w11>:
	...

00010d30 <sar_lut>:
	...

00010db0 <p_dither_lut>:
   10db0:	00000000                                ....

00010db4 <p_wgt_combination>:
   10db4:	00000000                                ....

00010db8 <p_combinations>:
   10db8:	00000000                                ....

00010dbc <p_wgt_cal_lut>:
   10dbc:	00000000                                ....

00010dc0 <p_acc>:
   10dc0:	00000000                                ....

00010dc4 <p_cnt>:
   10dc4:	00000000                                ....

00010dc8 <p_valid_flag>:
   10dc8:	00000000                                ....

00010dcc <p_Rn_running_sum>:
   10dcc:	00000000                                ....

00010dd0 <p_Rn_running_idx>:
   10dd0:	00000000                                ....

00010dd4 <p_dither_acc>:
   10dd4:	00000000                                ....

00010dd8 <p_dither_acc_cnt>:
   10dd8:	00000000                                ....

00010ddc <p_dither_cal_valid_flag>:
   10ddc:	00000000                                ....

00010de0 <p_majority_vote_lut>:
   10de0:	00000000                                ....

00010de4 <offset_coeff>:
   10de4:	00000000                                ....

00010de8 <asc_quad_ant>:
	...

00010dfc <_MemErrorSave>:
	...

00010e04 <__progname>:
   10e04:	00000000                                ....

00010e08 <_Atcount0>:
   10e08:	00000000                                ....

00010e0c <_atexitfns>:
   10e0c:	00000000                                ....

00010e10 <_atexitfree>:
   10e10:	00000000                                ....

00010e14 <__environ_term>:
   10e14:	00000000                                ....

00010e18 <g_reent>:
	...

00010f0c <_reent_ptr>:
   10f0c:	00000000                                ....

Disassembly of section .dram0_calib_heap:

00012d00 <ana_Heap>:
	...

Disassembly of section .ResetVector.text:

00020000 <_ResetVector>:
   20000:	001106        	j	20048 <_ResetHandler>

00020003 <_ResetVector+0x3>:
	...

00020004 <_ResetVector+0x4>:
   20004:	00000000 00020800 00000000 00000000     ................
   20014:	00000000 44444444 00020034 20000000     ....DDDD4...... 
   20024:	00000001 00000000 00022d08              .........-..

00020030 <_ResetVector+0x30>:
   20030:	00000000                                ....

00020034 <_xtos_mpu_attribs>:
   20034:	00006018 000f7718 000d5718 000c4718     .`...w...W...G..
   20044:	00006718                                .g..

00020048 <_ResetHandler>:
   20048:	ffef21        	l32r	a2, 20004 (0 <_Level2HandlerLabel>)
   2004b:	128c      	beqz.n	a2, 20050 <_ResetHandler+0x8>
   2004d:	0002c0        	callx0	a2
   20050:	000c      	movi.n	a0, 0
   20052:	13e400        	wsr.intenable	a0
   20055:	ffec21        	l32r	a2, 20008 (20800 <_WindowOverflow4>)
   20058:	13e720        	wsr.vecbase	a2
   2005b:	006120        	rsil	a2, 1
   2005e:	ffeb21        	l32r	a2, 2000c (0 <_Level2HandlerLabel>)
   20061:	ffeb31        	l32r	a3, 20010 (0 <_Level2HandlerLabel>)
   20064:	ffec41        	l32r	a4, 20014 (0 <_Level2HandlerLabel>)
   20067:	073216        	beqz	a2, 200de <_ResetHandler+0x96>
   2006a:	070316        	beqz	a3, 200de <_ResetHandler+0x96>
   2006d:	0338      	l32i.n	a3, a3, 0
   2006f:	06b316        	beqz	a3, 200de <_ResetHandler+0x96>
   20072:	090c      	movi.n	a9, 0
   20074:	136290        	wsr.cacheadrdis	a9
   20077:	135a90        	wsr.mpuenb	a9
   2007a:	0a0c      	movi.n	a10, 0
   2007c:	fb1c      	movi.n	a11, 31
   2007e:	000386        	j	20090 <_ResetHandler+0x48>

00020081 <_ResetHandler+0x39>:
	...

00020090 <_ResetHandler+0x48>:
   20090:	0020c0        	memw
   20093:	50e9a0        	wptlb	a10, a9
   20096:	aa1b      	addi.n	a10, a10, 1
   20098:	f43ab7        	bltu	a10, a11, 20090 <_ResetHandler+0x48>
   2009b:	23bc      	beqz.n	a3, 200d1 <_ResetHandler+0x89>
   2009d:	b02320        	addx8	a2, a3, a2
   200a0:	000606        	j	200bc <_ResetHandler+0x74>

000200a3 <_ResetHandler+0x5b>:
	...

000200b0 <_ResetHandler+0x68>:
   200b0:	0020c0        	memw
   200b3:	50eca0        	wptlb	a10, a12
   200b6:	ffcbb2        	addi	a11, a11, -1
   200b9:	014316        	beqz	a3, 200d1 <_ResetHandler+0x89>
   200bc:	f8c222        	addi	a2, a2, -8
   200bf:	12a8      	l32i.n	a10, a2, 4
   200c1:	02c8      	l32i.n	a12, a2, 0
   200c3:	330b      	addi.n	a3, a3, -1
   200c5:	4490a0        	extui	a9, a10, 0, 5
   200c8:	30aa90        	xor	a10, a10, a9
   200cb:	20aab0        	or	a10, a10, a11
   200ce:	fff786        	j	200b0 <_ResetHandler+0x68>

000200d1 <_ResetHandler+0x89>:
   200d1:	047416        	beqz	a4, 2011c <_ResetHandler+0xd4>
   200d4:	0448      	l32i.n	a4, a4, 0
   200d6:	136240        	wsr.cacheadrdis	a4
   200d9:	000fc6        	j	2011c <_ResetHandler+0xd4>

000200dc <_ResetHandler+0x94>:
	...

000200de <_ResetHandler+0x96>:
   200de:	ffce21        	l32r	a2, 20018 (44444444 <_memmap_cacheattr_bp_allvalid>)
   200e1:	ffce31        	l32r	a3, 2001c (20034 <_xtos_mpu_attribs>)
   200e4:	ffcf41        	l32r	a4, 20020 (20000000 <_memmap_mem_sram_end+0x1ffb0000>)
   200e7:	860c      	movi.n	a6, 8
   200e9:	170c      	movi.n	a7, 1
   200eb:	090c      	movi.n	a9, 0
   200ed:	136290        	wsr.cacheadrdis	a9
   200f0:	358c20        	extui	a8, a2, 28, 4
   200f3:	145080        	extui	a5, a8, 0, 2
   200f6:	1199f0        	slli	a9, a9, 1
   200f9:	a91b      	addi.n	a10, a9, 1
   200fb:	839a50        	moveqz	a9, a10, a5
   200fe:	a05830        	addx4	a5, a8, a3
   20101:	fbc882        	addi	a8, a8, -5
   20104:	b35380        	movgez	a5, a3, a8
   20107:	0558      	l32i.n	a5, a5, 0
   20109:	1122c0        	slli	a2, a2, 4
   2010c:	c07740        	sub	a7, a7, a4
   2010f:	660b      	addi.n	a6, a6, -1
   20111:	556a      	add.n	a5, a5, a6
   20113:	50e750        	wptlb	a5, a7
   20116:	fd6656        	bnez	a6, 200f0 <_ResetHandler+0xa8>
   20119:	136290        	wsr.cacheadrdis	a9
   2011c:	036120        	rsr.memctl	a2
   2011f:	ffc131        	l32r	a3, 20024 (1 <_memmap_cacheattr_wb_base>)
   20122:	202230        	or	a2, a2, a3
   20125:	136120        	wsr.memctl	a2
   20128:	ffc021        	l32r	a2, 20028 (0 <_Level2HandlerLabel>)
   2012b:	628c      	beqz.n	a2, 20135 <unpackdone>
   2012d:	0002c0        	callx0	a2
   20130:	000c      	movi.n	a0, 0
   20132:	fff256        	bnez	a2, 20135 <unpackdone>

00020135 <unpackdone>:
   20135:	110c      	movi.n	a1, 1
   20137:	134910        	wsr.windowstart	a1
   2013a:	134800        	wsr.windowbase	a0
   2013d:	002010        	rsync
   20140:	000c      	movi.n	a0, 0
   20142:	ffba41        	l32r	a4, 2002c (22d08 <_Level2FromVector>)
   20145:	13d240        	wsr.excsave2	a4
   20148:	00be45        	call0	20d30 <_start>

0002014b <unpackdone+0x16>:
	...

Disassembly of section .MemoryExceptionVector.literal:

00020300 <_memmap_seg_iram0_1_end-0x8>:
   20300:	00000000                                ....

Disassembly of section .MemoryExceptionVector.text:

00020330 <_MemErrorVector>:
   20330:	000006        	j	20334 <_MemErrorVector+0x4>

00020333 <_MemErrorVector+0x3>:
	...

00020334 <_MemErrorVector+0x4>:
   20334:	136c00        	wsr.mesave	a0
   20337:	036d00        	rsr.mesr	a0
   2033a:	0be017        	bbsi	a0, 1, 20349 <_MemErrorVector+0x19>
   2033d:	03e700        	rsr.vecbase	a0
   20340:	912002        	l32i	a0, a0, 0x244
   20343:	0000a0        	jx	a0

00020346 <_MemErrorVector+0x16>:
   20346:	000000                                        ...

00020349 <_MemErrorVector+0x19>:
   20349:	ffed01        	l32r	a0, 20300 <_MemoryExceptionVector_literal_start>
   2034c:	ffc016        	beqz	a0, 2034c <_MemErrorVector+0x1c>
   2034f:	0000a0        	jx	a0

00020352 <_MemErrorVector+0x22>:
	...

Disassembly of section .WindowVectors.text:

00020800 <_WindowOverflow4>:
   20800:	49c500        	s32e	a0, a5, -16
   20803:	49d510        	s32e	a1, a5, -12
   20806:	49e520        	s32e	a2, a5, -8
   20809:	49f530        	s32e	a3, a5, -4
   2080c:	003400        	rfwo

0002080f <_WindowOverflow4+0xf>:
	...

00020810 <_xtos_alloca_handler>:
   20810:	4128      	l32i.n	a2, a1, 16
   20812:	5138      	l32i.n	a3, a1, 20
   20814:	6148      	l32i.n	a4, a1, 24
   20816:	60c112        	addi	a1, a1, 96
   20819:	13d100        	wsr.excsave1	a0
   2081c:	034800        	rsr.windowbase	a0
   2081f:	4080f0        	rotw	-1
   20822:	03e620        	rsr.ps	a2
   20825:	343820        	extui	a3, a2, 8, 4
   20828:	303340        	xor	a3, a3, a4
   2082b:	000846        	j	20850 <_xtos_alloca_2>

0002082e <_xtos_alloca_handler+0x1e>:
	...

00020840 <_WindowUnderflow4>:
   20840:	09c500        	l32e	a0, a5, -16
   20843:	09d510        	l32e	a1, a5, -12
   20846:	09e520        	l32e	a2, a5, -8
   20849:	09f530        	l32e	a3, a5, -4
   2084c:	003500        	rfwu

0002084f <_WindowUnderflow4+0xf>:
	...

00020850 <_xtos_alloca_2>:
   20850:	03d140        	rsr.excsave1	a4
   20853:	113380        	slli	a3, a3, 8
   20856:	302230        	xor	a2, a2, a3
   20859:	13e620        	wsr.ps	a2
   2085c:	002010        	rsync
   2085f:	dd74f7        	bbci	a4, 31, 20840 <_WindowUnderflow4>
   20862:	4080f0        	rotw	-1
   20865:	5778e7        	bbci	a8, 30, 208c0 <_WindowUnderflow8>
   20868:	4080f0        	rotw	-1
   2086b:	003446        	j	20940 <_WindowUnderflow12>

0002086e <_xtos_alloca_2+0x1e>:
	...

00020880 <_WindowOverflow8>:
   20880:	49c900        	s32e	a0, a9, -16
   20883:	09d100        	l32e	a0, a1, -12
   20886:	49d910        	s32e	a1, a9, -12
   20889:	49e920        	s32e	a2, a9, -8
   2088c:	49f930        	s32e	a3, a9, -4
   2088f:	498040        	s32e	a4, a0, -32
   20892:	499050        	s32e	a5, a0, -28
   20895:	49a060        	s32e	a6, a0, -24
   20898:	49b070        	s32e	a7, a0, -20
   2089b:	003400        	rfwo

0002089e <_WindowOverflow8+0x1e>:
	...

000208c0 <_WindowUnderflow8>:
   208c0:	09c900        	l32e	a0, a9, -16
   208c3:	09d910        	l32e	a1, a9, -12
   208c6:	09e920        	l32e	a2, a9, -8
   208c9:	09d170        	l32e	a7, a1, -12
   208cc:	09f930        	l32e	a3, a9, -4
   208cf:	098740        	l32e	a4, a7, -32
   208d2:	099750        	l32e	a5, a7, -28
   208d5:	09a760        	l32e	a6, a7, -24
   208d8:	09b770        	l32e	a7, a7, -20
   208db:	003500        	rfwu

000208de <_WindowUnderflow8+0x1e>:
	...

00020900 <_WindowOverflow12>:
   20900:	49cd00        	s32e	a0, a13, -16
   20903:	09d100        	l32e	a0, a1, -12
   20906:	49dd10        	s32e	a1, a13, -12
   20909:	49ed20        	s32e	a2, a13, -8
   2090c:	49fd30        	s32e	a3, a13, -4
   2090f:	494040        	s32e	a4, a0, -48
   20912:	495050        	s32e	a5, a0, -44
   20915:	496060        	s32e	a6, a0, -40
   20918:	497070        	s32e	a7, a0, -36
   2091b:	498080        	s32e	a8, a0, -32
   2091e:	499090        	s32e	a9, a0, -28
   20921:	49a0a0        	s32e	a10, a0, -24
   20924:	49b0b0        	s32e	a11, a0, -20
   20927:	003400        	rfwo

0002092a <_WindowOverflow12+0x2a>:
	...

00020940 <_WindowUnderflow12>:
   20940:	09cd00        	l32e	a0, a13, -16
   20943:	09dd10        	l32e	a1, a13, -12
   20946:	09ed20        	l32e	a2, a13, -8
   20949:	09d1b0        	l32e	a11, a1, -12
   2094c:	09fd30        	l32e	a3, a13, -4
   2094f:	094b40        	l32e	a4, a11, -48
   20952:	095b50        	l32e	a5, a11, -44
   20955:	096b60        	l32e	a6, a11, -40
   20958:	097b70        	l32e	a7, a11, -36
   2095b:	098b80        	l32e	a8, a11, -32
   2095e:	099b90        	l32e	a9, a11, -28
   20961:	09aba0        	l32e	a10, a11, -24
   20964:	09bbb0        	l32e	a11, a11, -20
   20967:	003500        	rfwu

0002096a <_WindowUnderflow12+0x2a>:
	...

Disassembly of section .Level2InterruptVector.text:

00020980 <_Level2Vector>:
   20980:	61d220        	xsr.excsave2	a2
   20983:	0002a0        	jx	a2

00020986 <_Level2Vector+0x6>:
	...

Disassembly of section .DebugExceptionVector.text:

000209c0 <_DebugExceptionVector>:
   209c0:	13d320        	wsr.excsave3	a2
   209c3:	827c      	movi.n	a2, -8
   209c5:	005100        	simcall	0

Disassembly of section .NMIExceptionVector.text:

00020a00 <_NMIExceptionVector>:
   20a00:	003410        	rfi	4

00020a03 <_NMIExceptionVector+0x3>:
	...

Disassembly of section .KernelExceptionVector.text:

00020a40 <_KernelExceptionVector>:
   20a40:	000106        	j	20a48 <_MemErrorHandlerAddress+0x4>

00020a43 <_KernelExceptionVector+0x3>:
	...

00020a44 <_MemErrorHandlerAddress>:
   20a44:	00022bbc                                .+..

00020a48 <_MemErrorHandlerAddress+0x4>:
   20a48:	004100        	break	1, 0
   20a4b:	fffe46        	j	20a48 <_MemErrorHandlerAddress+0x4>

00020a4e <_MemErrorHandlerAddress+0xa>:
	...

Disassembly of section .UserExceptionVector.literal:

00020a78 <_memmap_seg_iram0_13_end-0x8>:
   20a78:	00010a60                                `...

Disassembly of section .UserExceptionVector.text:

00020a80 <_UserExceptionVector>:
   20a80:	a0c112        	addi	a1, a1, -96
   20a83:	4129      	s32i.n	a2, a1, 16
   20a85:	5139      	s32i.n	a3, a1, 20
   20a87:	fffc31        	l32r	a3, 20a78 <_UserExceptionVector_literal_start>
   20a8a:	03e820        	rsr.exccause	a2
   20a8d:	a03230        	addx4	a3, a2, a3
   20a90:	0338      	l32i.n	a3, a3, 0
   20a92:	6149      	s32i.n	a4, a1, 24
   20a94:	0003a0        	jx	a3

00020a97 <_UserExceptionVector+0x17>:
	...

Disassembly of section .DoubleExceptionVector.text:

00020b00 <_DoubleExceptionVector>:
   20b00:	004140        	break	1, 4
   20b03:	fffe46        	j	20b00 <_DoubleExceptionVector>

00020b06 <_DoubleExceptionVector+0x6>:
	...

Disassembly of section .text:

00020b40 <_stext>:
   20b40:	00020e24 00023a64 00000000 00012910     $...d:.......)..
   20b50:	00040020 00000000 00010470 00010480      .......p.......
	...
   20b68:	00010b60 00020d18 00023d04 00010b80     `........=......
   20b78:	00000000 0001045c 00000000 00010b68     ....\.......h...
   20b88:	00010480 00010c98 aaaaaaaa 55555555     ............UUUU
   20b98:	000104e0 00010510 00010540 00010570     ........@...p...
   20ba8:	000105a0 000105d0 00010610 00010650     ............P...
   20bb8:	00010690 000106d0 00010700 00010730     ............0...
   20bc8:	00010b98 00010cc4 bddd6f3c bddd6f00     ........<o...o..
   20bd8:	bddd6f18 bddd6f04 bddd6f08 bddd6f0c     .o...o...o...o..
   20be8:	bddd6f10 bddd6f14 00010760 00010ba0     .o...o..`.......
   20bf8:	0002149c 00010870 00010cd0 00010780     ....p...........
   20c08:	000107b0 000107e0 00010810 00010840     ............@...
   20c18:	00012d00 000108a0 00010ccc 000108c0     .-..............
   20c28:	00010ce0 000108f0 00010430 00010420     ........0... ...
   20c38:	00010dc0 00010dc4 00010000 deadbeaf     ................
   20c48:	00010dbc 00010dc8 00010d00 00010db0     ................
   20c58:	00010450 00010de0 00010d30 00010db8     P.......0.......
   20c68:	00010de4 00010dcc 00010dd0 00010dd4     ................
   20c78:	00010ddc 00010dd8 00010e04 00010920     ............ ...
   20c88:	00010e08 00010918 00000000 00010f0c     ................
   20c98:	00010e18 00010458 00010b88 00010b8c     ....X...........
   20ca8:	00010b90 00010928 0001092c 00010250     ....(...,...P...
   20cb8:	00010930 00023a84 00000000 00010dfc     0....:..........
   20cc8:	00000000 00050022 c0000000 80000000     ...."...........
   20cd8:	000108c8 00023a9c 0007ff80 00022db8     .....:.......-..
   20ce8:	80000007 00010410 001fff00 ffe000ff     ................
   20cf8:	00010290 000102d0 00010310 00010350     ............P...
   20d08:	00010390 000103d0 00010464 00020df0     ........d.......

00020d18 <_init>:
   20d18:	008136        	entry	a1, 64
   20d1b:	ff8981        	l32r	a8, 20b40 (20e24 <frame_dummy>)
   20d1e:	f03d      	nop.n
   20d20:	0008e0        	callx8	a8
   20d23:	ff8881        	l32r	a8, 20b44 (23a64 <__do_global_ctors_aux>)
   20d26:	f03d      	nop.n
   20d28:	0008e0        	callx8	a8
   20d2b:	f01d      	retw.n

00020d2d <_init+0x15>:
   20d2d:	000000                                        ...

00020d30 <_start>:
   20d30:	000c      	movi.n	a0, 0
   20d32:	ff8521        	l32r	a2, 20b48 (0 <_Level2HandlerLabel>)
   20d35:	ff8511        	l32r	a1, 20b4c (12910 <__stack>)
   20d38:	004216        	beqz	a2, 20d40 <_start+0x10>
   20d3b:	0002c0        	callx0	a2
   20d3e:	000c      	movi.n	a0, 0

00020d40 <_start+0x10>:
   20d40:	e9a322        	movi	a2, 0x3e9
   20d43:	005100        	simcall	0
   20d46:	7fc222        	addi	a2, a2, 127
   20d49:	412720        	srli	a2, a2, 7
   20d4c:	112290        	slli	a2, a2, 7
   20d4f:	c01120        	sub	a1, a1, a2
   20d52:	ff7f31        	l32r	a3, 20b50 (40020 <_memmap_seg_sram0_end+0x10020>)
   20d55:	13e630        	wsr.ps	a3
   20d58:	002010        	rsync
   20d5b:	ff7e41        	l32r	a4, 20b54 (0 <_Level2HandlerLabel>)
   20d5e:	0020f0        	nop
   20d61:	348c      	beqz.n	a4, 20d68 <_start+0x38>
   20d63:	0004d0        	callx4	a4
   20d66:	000c      	movi.n	a0, 0
   20d68:	ff7c61        	l32r	a6, 20b58 (10470 <__XT_EXCEPTION_DESCS_END__>)
   20d6b:	ff7c71        	l32r	a7, 20b5c (10480 <com_heap_create.debug_str_0>)
   20d6e:	27b677        	bgeu	a6, a7, 20d99 <_start+0x69>
   20d71:	ff7b41        	l32r	a4, 20b60 (0 <_Level2HandlerLabel>)
   20d74:	00d416        	beqz	a4, 20d85 <_start+0x55>
   20d77:	ff7861        	l32r	a6, 20b58 (10470 <__XT_EXCEPTION_DESCS_END__>)
   20d7a:	ff7871        	l32r	a7, 20b5c (10480 <com_heap_create.debug_str_0>)
   20d7d:	0004d0        	callx4	a4
   20d80:	000c      	movi.n	a0, 0
   20d82:	0004c6        	j	20d99 <_start+0x69>

00020d85 <_start+0x55>:
   20d85:	eca322        	movi	a2, 0x3ec
   20d88:	0638      	l32i.n	a3, a6, 0
   20d8a:	040c      	movi.n	a4, 0
   20d8c:	1658      	l32i.n	a5, a6, 4
   20d8e:	668b      	addi.n	a6, a6, 8
   20d90:	c05530        	sub	a5, a5, a3
   20d93:	005100        	simcall	0
   20d96:	eb3677        	bltu	a6, a7, 20d85 <_start+0x55>
   20d99:	eaa322        	movi	a2, 0x3ea
   20d9c:	203110        	or	a3, a1, a1
   20d9f:	005100        	simcall	0
   20da2:	e8a322        	movi	a2, 0x3e8
   20da5:	005100        	simcall	0
   20da8:	206220        	or	a6, a2, a2
   20dab:	207110        	or	a7, a1, a1
   20dae:	ff6d41        	l32r	a4, 20b64 (0 <_Level2HandlerLabel>)
   20db1:	010416        	beqz	a4, 20dc5 <_start+0x95>
   20db4:	03eb50        	rsr.prid	a5
   20db7:	345050        	extui	a5, a5, 0, 4
   20dba:	007516        	beqz	a5, 20dc5 <_start+0x95>
   20dbd:	01ba15        	call4	22960 <_init_reent_bss>
   20dc0:	000346        	j	20dd1 <_start+0xa1>

00020dc3 <_start+0x93>:
	...

00020dc5 <_start+0x95>:
   20dc5:	ff6881        	l32r	a8, 20b68 (10b60 <_data_start>)
   20dc8:	ff6991        	l32r	a9, 20b6c (20d18 <_init>)
   20dcb:	ff69a1        	l32r	a10, 20b70 (23d04 <_fini>)
   20dce:	01b055        	call4	228d4 <__clibrary_init>
   20dd1:	026d      	mov.n	a6, a2
   20dd3:	207110        	or	a7, a1, a1
   20dd6:	ff6481        	l32r	a8, 20b68 (10b60 <_data_start>)
   20dd9:	007a15        	call4	2157c <main>
   20ddc:	ff6241        	l32r	a4, 20b64 (0 <_Level2HandlerLabel>)
   20ddf:	948c      	beqz.n	a4, 20dec <_start+0xbc>
   20de1:	03eb50        	rsr.prid	a5
   20de4:	345050        	extui	a5, a5, 0, 4
   20de7:	158c      	beqz.n	a5, 20dec <_start+0xbc>
   20de9:	01ce55        	call4	22ad0 <_exit>
   20dec:	01b015        	call4	228f0 <exit>

00020def <_start+0xbf>:
	...

00020df0 <__do_global_dtors_aux>:
   20df0:	004136        	entry	a1, 32
   20df3:	ff6021        	l32r	a2, 20b74 (10b80 <__do_global_dtors_aux.completed>)
   20df6:	000232        	l8ui	a3, a2, 0
   20df9:	23ec      	bnez.n	a3, 20e1f <__do_global_dtors_aux+0x2f>

00020dfb <__do_global_dtors_aux+0xb>:
   20dfb:	1248      	l32i.n	a4, a2, 4
   20dfd:	0438      	l32i.n	a3, a4, 0
   20dff:	444b      	addi.n	a4, a4, 4
   20e01:	738c      	beqz.n	a3, 20e0c <__do_global_dtors_aux+0x1c>
   20e03:	1249      	s32i.n	a4, a2, 4
   20e05:	0003e0        	callx8	a3
   20e08:	fffbc6        	j	20dfb <__do_global_dtors_aux+0xb>

00020e0b <__do_global_dtors_aux+0x1b>:
	...

00020e0c <__do_global_dtors_aux+0x1c>:
   20e0c:	ff5b31        	l32r	a3, 20b78 (0 <_Level2HandlerLabel>)
   20e0f:	ff5ba1        	l32r	a10, 20b7c (1045c <__FRAME_END__>)
   20e12:	438c      	beqz.n	a3, 20e1a <__do_global_dtors_aux+0x2a>
   20e14:	ff5981        	l32r	a8, 20b78 (0 <_Level2HandlerLabel>)
   20e17:	0008e0        	callx8	a8
   20e1a:	130c      	movi.n	a3, 1
   20e1c:	004232        	s8i	a3, a2, 0
   20e1f:	f01d      	retw.n

00020e21 <__do_global_dtors_aux+0x31>:
   20e21:	000000                                        ...

00020e24 <frame_dummy>:
   20e24:	004136        	entry	a1, 32
   20e27:	ff5621        	l32r	a2, 20b80 (0 <_Level2HandlerLabel>)
   20e2a:	ff54a1        	l32r	a10, 20b7c (1045c <__FRAME_END__>)
   20e2d:	ff55b1        	l32r	a11, 20b84 (10b68 <frame_dummy.object>)
   20e30:	428c      	beqz.n	a2, 20e38 <frame_dummy+0x14>
   20e32:	ff5381        	l32r	a8, 20b80 (0 <_Level2HandlerLabel>)
   20e35:	0008e0        	callx8	a8

00020e38 <frame_dummy+0x14>:
   20e38:	f01d      	retw.n

00020e3a <frame_dummy+0x16>:
	...

00020e3c <com_heap_create>:
   20e3c:	004136        	entry	a1, 32
   20e3f:	f53c      	movi.n	a5, 63
   20e41:	048537        	bany	a5, a3, 20e49 <com_heap_create+0xd>
   20e44:	024d      	mov.n	a4, a2
   20e46:	120527        	bnone	a5, a2, 20e5c <com_heap_create+0x20>

00020e49 <com_heap_create+0xd>:
   20e49:	ff4f21        	l32r	a2, 20b88 (10480 <com_heap_create.debug_str_0>)
   20e4c:	ffaf32        	movi	a3, -1
   20e4f:	413330        	srli	a3, a3, 3
   20e52:	10a230        	and	a10, a2, a3
   20e55:	002aa5        	call8	21100 <com_print_rtl_arg0>
   20e58:	020c      	movi.n	a2, 0
   20e5a:	f01d      	retw.n

00020e5c <com_heap_create+0x20>:
   20e5c:	ff4c51        	l32r	a5, 20b8c (10c98 <heap>)
   20e5f:	060c      	movi.n	a6, 0
   20e61:	ff4b71        	l32r	a7, 20b90 (aaaaaaaa <_memmap_cacheattr_bp_allvalid+0x66666666>)
   20e64:	0549      	s32i.n	a4, a5, 0
   20e66:	9549      	s32i.n	a4, a5, 36
   20e68:	4549      	s32i.n	a4, a5, 16
   20e6a:	3569      	s32i.n	a6, a5, 12
   20e6c:	6569      	s32i.n	a6, a5, 24
   20e6e:	5549      	s32i.n	a4, a5, 20
   20e70:	7549      	s32i.n	a4, a5, 28
   20e72:	8549      	s32i.n	a4, a5, 32
   20e74:	0479      	s32i.n	a7, a4, 0
   20e76:	05c8      	l32i.n	a12, a5, 0
   20e78:	413530        	srli	a3, a3, 5
   20e7b:	2439      	s32i.n	a3, a4, 8
   20e7d:	1133b0        	slli	a3, a3, 5
   20e80:	ff46d1        	l32r	a13, 20b98 (104e0 <com_heap_create.debug_str_1>)
   20e83:	a54b      	addi.n	a10, a5, 4
   20e85:	120c      	movi.n	a2, 1
   20e87:	ff43b1        	l32r	a11, 20b94 (55555555 <_memmap_cacheattr_bp_allvalid+0x11111111>)
   20e8a:	3c3a      	add.n	a3, a12, a3
   20e8c:	fe7c      	movi.n	a14, -1
   20e8e:	34a9      	s32i.n	a10, a4, 12
   20e90:	44a9      	s32i.n	a10, a4, 16
   20e92:	64a9      	s32i.n	a10, a4, 24
   20e94:	74a9      	s32i.n	a10, a4, 28
   20e96:	5429      	s32i.n	a2, a4, 20
   20e98:	1cb9      	s32i.n	a11, a12, 4
   20e9a:	a539      	s32i.n	a3, a5, 40
   20e9c:	4133e0        	srli	a3, a14, 3
   20e9f:	3f0c      	movi.n	a15, 3
   20ea1:	015f30        	slli	a5, a15, 29
   20ea4:	103d30        	and	a3, a13, a3
   20ea7:	2cb8      	l32i.n	a11, a12, 8
   20ea9:	a35a      	add.n	a10, a3, a5
   20eab:	0029a5        	call8	21144 <com_print_rtl_arg1>
   20eae:	f01d      	retw.n

00020eb0 <com_calloc>:
   20eb0:	004136        	entry	a1, 32
   20eb3:	822320        	mull	a2, a3, a2
   20eb6:	ff3951        	l32r	a5, 20b9c (10510 <com_calloc.debug_str_2>)
   20eb9:	f47c      	movi.n	a4, -1
   20ebb:	1fc222        	addi	a2, a2, 31
   20ebe:	412520        	srli	a2, a2, 5
   20ec1:	414340        	srli	a4, a4, 3
   20ec4:	3f0c      	movi.n	a15, 3
   20ec6:	221b      	addi.n	a2, a2, 1
   20ec8:	013f30        	slli	a3, a15, 29
   20ecb:	105540        	and	a5, a5, a4
   20ece:	a53a      	add.n	a10, a5, a3
   20ed0:	02bd      	mov.n	a11, a2
   20ed2:	002725        	call8	21144 <com_print_rtl_arg1>
   20ed5:	ff2d51        	l32r	a5, 20b8c (10c98 <heap>)
   20ed8:	9588      	l32i.n	a8, a5, 36
   20eda:	086d      	mov.n	a6, a8

00020edc <com_calloc+0x2c>:
   20edc:	067d      	mov.n	a7, a6
   20ede:	0b8076        	loop	a0, 20eed <com_calloc+0x3d>
   20ee1:	3768      	l32i.n	a6, a7, 12
   20ee3:	2698      	l32i.n	a9, a6, 8
   20ee5:	07b927        	bgeu	a9, a2, 20ef0 <com_calloc+0x40>
   20ee8:	067d      	mov.n	a7, a6
   20eea:	171687        	beq	a6, a8, 20f05 <com_calloc+0x55>

00020eed <com_calloc+0x3d>:
   20eed:	fffac6        	j	20edc <com_calloc+0x2c>

00020ef0 <com_calloc+0x40>:
   20ef0:	249927        	bne	a9, a2, 20f18 <com_calloc+0x68>
   20ef3:	080c      	movi.n	a8, 0
   20ef5:	3698      	l32i.n	a9, a6, 12
   20ef7:	5689      	s32i.n	a8, a6, 20
   20ef9:	3799      	s32i.n	a9, a7, 12
   20efb:	36f8      	l32i.n	a15, a6, 12
   20efd:	4f79      	s32i.n	a7, a15, 16
   20eff:	001286        	j	20f4d <com_calloc+0x9d>

00020f02 <com_calloc+0x52>:
   20f02:	000000                                        ...

00020f05 <com_calloc+0x55>:
   20f05:	ff2821        	l32r	a2, 20ba8 (105a0 <com_calloc.debug_str_5>)
   20f08:	0b0c      	movi.n	a11, 0
   20f0a:	10f240        	and	a15, a2, a4
   20f0d:	af3a      	add.n	a10, a15, a3
   20f0f:	020c      	movi.n	a2, 0
   20f11:	002325        	call8	21144 <com_print_rtl_arg1>
   20f14:	f01d      	retw.n

00020f16 <com_calloc+0x66>:
	...

00020f18 <com_calloc+0x68>:
   20f18:	ff2281        	l32r	a8, 20ba0 (10540 <com_calloc.debug_str_3>)
   20f1b:	c0b920        	sub	a11, a9, a2
   20f1e:	26b9      	s32i.n	a11, a6, 8
   20f20:	108840        	and	a8, a8, a4
   20f23:	a83a      	add.n	a10, a8, a3
   20f25:	0021e5        	call8	21144 <com_print_rtl_arg1>
   20f28:	2688      	l32i.n	a8, a6, 8
   20f2a:	7698      	l32i.n	a9, a6, 28
   20f2c:	0e0c      	movi.n	a14, 0
   20f2e:	1188b0        	slli	a8, a8, 5
   20f31:	868a      	add.n	a8, a6, a8
   20f33:	7899      	s32i.n	a9, a8, 28
   20f35:	7689      	s32i.n	a8, a6, 28
   20f37:	7898      	l32i.n	a9, a8, 28
   20f39:	ff15f1        	l32r	a15, 20b90 (aaaaaaaa <_memmap_cacheattr_bp_allvalid+0x66666666>)
   20f3c:	ff16a1        	l32r	a10, 20b94 (55555555 <_memmap_cacheattr_bp_allvalid+0x11111111>)
   20f3f:	6869      	s32i.n	a6, a8, 24
   20f41:	2829      	s32i.n	a2, a8, 8
   20f43:	6989      	s32i.n	a8, a9, 24
   20f45:	086d      	mov.n	a6, a8
   20f47:	58e9      	s32i.n	a14, a8, 20
   20f49:	08f9      	s32i.n	a15, a8, 0
   20f4b:	18a9      	s32i.n	a10, a8, 4
   20f4d:	ff1581        	l32r	a8, 20ba4 (10570 <com_calloc.debug_str_4>)
   20f50:	02bd      	mov.n	a11, a2
   20f52:	9579      	s32i.n	a7, a5, 36
   20f54:	104840        	and	a4, a8, a4
   20f57:	a43a      	add.n	a10, a4, a3
   20f59:	001ea5        	call8	21144 <com_print_rtl_arg1>
   20f5c:	20c622        	addi	a2, a6, 32
   20f5f:	f01d      	retw.n

00020f61 <com_calloc+0xb1>:
   20f61:	000000                                        ...

00020f64 <com_free>:
   20f64:	006136        	entry	a1, 48
   20f67:	023d      	mov.n	a3, a2
   20f69:	120c      	movi.n	a2, 1
   20f6b:	14d316        	beqz	a3, 210bc <com_free+0x158>
   20f6e:	e0c342        	addi	a4, a3, -32
   20f71:	f51c      	movi.n	a5, 31
   20f73:	050547        	bnone	a5, a4, 20f7c <com_free+0x18>
   20f76:	ff0d21        	l32r	a2, 20bac (105d0 <com_free.debug_str_6>)
   20f79:	0010c6        	j	20fc0 <com_free+0x5c>

00020f7c <com_free+0x18>:
   20f7c:	ff0451        	l32r	a5, 20b8c (10c98 <heap>)
   20f7f:	ff0481        	l32r	a8, 20b90 (aaaaaaaa <_memmap_cacheattr_bp_allvalid+0x66666666>)
   20f82:	e4c392        	addi	a9, a3, -28
   20f85:	0568      	l32i.n	a6, a5, 0
   20f87:	a578      	l32i.n	a7, a5, 40
   20f89:	ff02a1        	l32r	a10, 20b94 (55555555 <_memmap_cacheattr_bp_allvalid+0x11111111>)
   20f8c:	2d3467        	bltu	a4, a6, 20fbd <com_free+0x59>
   20f8f:	076d      	mov.n	a6, a7
   20f91:	28b477        	bgeu	a4, a7, 20fbd <com_free+0x59>
   20f94:	0478      	l32i.n	a7, a4, 0
   20f96:	369787        	bne	a7, a8, 20fd0 <com_free+0x6c>
   20f99:	0978      	l32i.n	a7, a9, 0
   20f9b:	fc7c      	movi.n	a12, -1
   20f9d:	390c      	movi.n	a9, 3
   20f9f:	2d97a7        	bne	a7, a10, 20fd0 <com_free+0x6c>
   20fa2:	e8c372        	addi	a7, a3, -24
   20fa5:	07b8      	l32i.n	a11, a7, 0
   20fa7:	ff05a1        	l32r	a10, 20bbc (106d0 <com_free.debug_str_10>)
   20faa:	41d3c0        	srli	a13, a12, 3
   20fad:	118bb0        	slli	a8, a11, 5
   20fb0:	848a      	add.n	a8, a4, a8
   20fb2:	23b687        	bgeu	a6, a8, 20fd9 <com_free+0x75>
   20fb5:	ff0021        	l32r	a2, 20bb8 (10690 <com_free.debug_str_9>)
   20fb8:	000106        	j	20fc0 <com_free+0x5c>

00020fbb <com_free+0x57>:
	...

00020fbd <com_free+0x59>:
   20fbd:	fefc21        	l32r	a2, 20bb0 (10610 <com_free.debug_str_7>)
   20fc0:	f37c      	movi.n	a3, -1
   20fc2:	413330        	srli	a3, a3, 3
   20fc5:	10a230        	and	a10, a2, a3
   20fc8:	001365        	call8	21100 <com_print_rtl_arg0>
   20fcb:	020c      	movi.n	a2, 0
   20fcd:	f01d      	retw.n

00020fcf <com_free+0x6b>:
	...

00020fd0 <com_free+0x6c>:
   20fd0:	fef921        	l32r	a2, 20bb4 (10650 <com_free.debug_str_8>)
   20fd3:	fffa46        	j	20fc0 <com_free+0x5c>

00020fd6 <com_free+0x72>:
   20fd6:	000000                                        ...

00020fd9 <com_free+0x75>:
   20fd9:	019930        	slli	a9, a9, 29
   20fdc:	106ad0        	and	a6, a10, a13
   20fdf:	80a690        	add	a10, a6, a9
   20fe2:	001625        	call8	21144 <com_print_rtl_arg1>
   20fe5:	fcc362        	addi	a6, a3, -4
   20fe8:	0688      	l32i.n	a8, a6, 0
   20fea:	95a8      	l32i.n	a10, a5, 36
   20fec:	31a9      	s32i.n	a10, a1, 12
   20fee:	5898      	l32i.n	a9, a8, 20
   20ff0:	2888      	l32i.n	a8, a8, 8
   20ff2:	fef3a1        	l32r	a10, 20bc0 (10700 <com_free.debug_str_11>)
   20ff5:	401966        	bnei	a9, 1, 21039 <com_free+0xd5>
   20ff8:	0798      	l32i.n	a9, a7, 0
   20ffa:	fb7c      	movi.n	a11, -1
   20ffc:	41e3b0        	srli	a14, a11, 3
   20fff:	3f0c      	movi.n	a15, 3
   21001:	b98a      	add.n	a11, a9, a8
   21003:	10aae0        	and	a10, a10, a14
   21006:	018f30        	slli	a8, a15, 29
   21009:	80aa80        	add	a10, a10, a8
   2100c:	0067b2        	s32i	a11, a7, 0
   2100f:	001365        	call8	21144 <com_print_rtl_arg1>
   21012:	0688      	l32i.n	a8, a6, 0
   21014:	ecc392        	addi	a9, a3, -20
   21017:	1f0c      	movi.n	a15, 1
   21019:	7888      	l32i.n	a8, a8, 28
   2101b:	6849      	s32i.n	a4, a8, 24
   2101d:	0688      	l32i.n	a8, a6, 0
   2101f:	38a8      	l32i.n	a10, a8, 12
   21021:	09a9      	s32i.n	a10, a9, 0
   21023:	48a8      	l32i.n	a10, a8, 16
   21025:	19a9      	s32i.n	a10, a9, 4
   21027:	3888      	l32i.n	a8, a8, 12
   21029:	4849      	s32i.n	a4, a8, 16
   2102b:	0688      	l32i.n	a8, a6, 0
   2102d:	4888      	l32i.n	a8, a8, 16
   2102f:	3849      	s32i.n	a4, a8, 12
   21031:	0688      	l32i.n	a8, a6, 0
   21033:	7888      	l32i.n	a8, a8, 28
   21035:	29f9      	s32i.n	a15, a9, 8
   21037:	0689      	s32i.n	a8, a6, 0
   21039:	f8c382        	addi	a8, a3, -8
   2103c:	0898      	l32i.n	a9, a8, 0
   2103e:	1b0c      	movi.n	a11, 1
   21040:	59a8      	l32i.n	a10, a9, 20
   21042:	29c8      	l32i.n	a12, a9, 8
   21044:	4d1a66        	bnei	a10, 1, 21095 <com_free+0x131>
   21047:	0778      	l32i.n	a7, a7, 0
   21049:	7c7a      	add.n	a7, a12, a7
   2104b:	2979      	s32i.n	a7, a9, 8
   2104d:	0878      	l32i.n	a7, a8, 0
   2104f:	0698      	l32i.n	a9, a6, 0
   21051:	27b8      	l32i.n	a11, a7, 8
   21053:	6979      	s32i.n	a7, a9, 24
   21055:	0878      	l32i.n	a7, a8, 0
   21057:	06f8      	l32i.n	a15, a6, 0
   21059:	f4c362        	addi	a6, a3, -12
   2105c:	77f9      	s32i.n	a15, a7, 28
   2105e:	0678      	l32i.n	a7, a6, 0
   21060:	ecc3a2        	addi	a10, a3, -20
   21063:	0d1766        	bnei	a7, 1, 21074 <com_free+0x110>
   21066:	1a88      	l32i.n	a8, a10, 4
   21068:	0a98      	l32i.n	a9, a10, 0
   2106a:	3899      	s32i.n	a9, a8, 12
   2106c:	002a82        	l32i	a8, a10, 0
   2106f:	1a78      	l32i.n	a7, a10, 4
   21071:	046872        	s32i	a7, a8, 16
   21074:	fed471        	l32r	a7, 20bc4 (10730 <com_free.debug_str_12>)
   21077:	f87c      	movi.n	a8, -1
   21079:	418380        	srli	a8, a8, 3
   2107c:	3f0c      	movi.n	a15, 3
   2107e:	107780        	and	a7, a7, a8
   21081:	018f30        	slli	a8, a15, 29
   21084:	a78a      	add.n	a10, a7, a8
   21086:	000be5        	call8	21144 <com_print_rtl_arg1>
   21089:	1f0c      	movi.n	a15, 1
   2108b:	070c      	movi.n	a7, 0
   2108d:	06f9      	s32i.n	a15, a6, 0
   2108f:	0002c6        	j	2109e <com_free+0x13a>

00021092 <com_free+0x12e>:
   21092:	000000                                        ...

00021095 <com_free+0x131>:
   21095:	f4c362        	addi	a6, a3, -12
   21098:	002672        	l32i	a7, a6, 0
   2109b:	6277b0        	saltu	a7, a7, a11
   2109e:	479c      	beqz.n	a7, 210b6 <com_free+0x152>
   210a0:	31f8      	l32i.n	a15, a1, 12
   210a2:	170c      	movi.n	a7, 1
   210a4:	0679      	s32i.n	a7, a6, 0
   210a6:	ecc332        	addi	a3, a3, -20
   210a9:	3f68      	l32i.n	a6, a15, 12
   210ab:	0369      	s32i.n	a6, a3, 0
   210ad:	3f68      	l32i.n	a6, a15, 12
   210af:	4649      	s32i.n	a4, a6, 16
   210b1:	3f49      	s32i.n	a4, a15, 12
   210b3:	0163f2        	s32i	a15, a3, 4
   210b6:	9538      	l32i.n	a3, a5, 36
   210b8:	3338      	l32i.n	a3, a3, 12
   210ba:	9539      	s32i.n	a3, a5, 36
   210bc:	f01d      	retw.n

000210be <com_free+0x15a>:
	...

000210c0 <com_set_print_level>:
   210c0:	004136        	entry	a1, 32
   210c3:	fec131        	l32r	a3, 20bc8 (10b98 <g_com_print_level>)
   210c6:	0329      	s32i.n	a2, a3, 0
   210c8:	f01d      	retw.n

000210ca <com_set_print_level+0xa>:
	...

000210cc <com_get_print_level>:
   210cc:	004136        	entry	a1, 32
   210cf:	febe21        	l32r	a2, 20bc8 (10b98 <g_com_print_level>)
   210d2:	0228      	l32i.n	a2, a2, 0
   210d4:	f01d      	retw.n

000210d6 <com_get_print_level+0xa>:
	...

000210d8 <com_test_FW>:
   210d8:	004136        	entry	a1, 32
   210db:	febc31        	l32r	a3, 20bcc (10cc4 <g_trace_base>)
   210de:	000342        	l8ui	a4, a3, 0
   210e1:	728c      	beqz.n	a2, 210ec <com_test_FW+0x14>
   210e3:	d20c      	movi.n	a2, 13
   210e5:	086407        	bbci	a4, 0, 210f1 <com_test_FW+0x19>
   210e8:	000286        	j	210f6 <com_test_FW+0x1e>

000210eb <com_test_FW+0x13>:
	...

000210ec <com_test_FW+0x14>:
   210ec:	220c      	movi.n	a2, 2
   210ee:	04e407        	bbsi	a4, 0, 210f6 <com_test_FW+0x1e>
   210f1:	140c      	movi.n	a4, 1
   210f3:	004342        	s8i	a4, a3, 0
   210f6:	feb631        	l32r	a3, 20bd0 (bddd6f3c <_memmap_cacheattr_bp_allvalid+0x79992af8>)
   210f9:	0329      	s32i.n	a2, a3, 0
   210fb:	f01d      	retw.n

000210fd <com_test_FW+0x25>:
   210fd:	000000                                        ...

00021100 <com_print_rtl_arg0>:
   21100:	004136        	entry	a1, 32
   21103:	feb131        	l32r	a3, 20bc8 (10b98 <g_com_print_level>)
   21106:	254d20        	extui	a4, a2, 29, 3
   21109:	feb061        	l32r	a6, 20bcc (10cc4 <g_trace_base>)
   2110c:	0338      	l32i.n	a3, a3, 0
   2110e:	f57c      	movi.n	a5, -1
   21110:	417350        	srli	a7, a5, 3
   21113:	2a3347        	bltu	a3, a4, 21141 <com_print_rtl_arg0+0x41>
   21116:	000652        	l8ui	a5, a6, 0
   21119:	102270        	and	a2, a2, a7
   2111c:	063d      	mov.n	a3, a6
   2111e:	35cc      	bnez.n	a5, 21125 <com_print_rtl_arg0+0x25>
   21120:	140c      	movi.n	a4, 1
   21122:	004342        	s8i	a4, a3, 0

00021125 <com_print_rtl_arg0+0x25>:
   21125:	feab41        	l32r	a4, 20bd4 (bddd6f00 <_memmap_cacheattr_bp_allvalid+0x79992abc>)
   21128:	160c      	movi.n	a6, 1
   2112a:	0429      	s32i.n	a2, a4, 0
   2112c:	1328      	l32i.n	a2, a3, 4
   2112e:	000342        	l8ui	a4, a3, 0
   21131:	01c252        	addi	a5, a2, 1
   21134:	1359      	s32i.n	a5, a3, 4
   21136:	002456        	bnez	a4, 2113c <com_print_rtl_arg0+0x3c>
   21139:	004362        	s8i	a6, a3, 0
   2113c:	fea731        	l32r	a3, 20bd8 (bddd6f18 <_memmap_cacheattr_bp_allvalid+0x79992ad4>)
   2113f:	0329      	s32i.n	a2, a3, 0
   21141:	f01d      	retw.n

00021143 <com_print_rtl_arg0+0x43>:
	...

00021144 <com_print_rtl_arg1>:
   21144:	004136        	entry	a1, 32
   21147:	fea041        	l32r	a4, 20bc8 (10b98 <g_com_print_level>)
   2114a:	255d20        	extui	a5, a2, 29, 3
   2114d:	fe9f71        	l32r	a7, 20bcc (10cc4 <g_trace_base>)
   21150:	0448      	l32i.n	a4, a4, 0
   21152:	f67c      	movi.n	a6, -1
   21154:	418360        	srli	a8, a6, 3
   21157:	373457        	bltu	a4, a5, 21192 <com_print_rtl_arg1+0x4e>
   2115a:	000762        	l8ui	a6, a7, 0
   2115d:	102280        	and	a2, a2, a8
   21160:	074d      	mov.n	a4, a7
   21162:	36cc      	bnez.n	a6, 21169 <com_print_rtl_arg1+0x25>
   21164:	150c      	movi.n	a5, 1
   21166:	004452        	s8i	a5, a4, 0

00021169 <com_print_rtl_arg1+0x25>:
   21169:	fe9a51        	l32r	a5, 20bd4 (bddd6f00 <_memmap_cacheattr_bp_allvalid+0x79992abc>)
   2116c:	160c      	movi.n	a6, 1
   2116e:	0529      	s32i.n	a2, a5, 0
   21170:	000422        	l8ui	a2, a4, 0
   21173:	12cc      	bnez.n	a2, 21178 <com_print_rtl_arg1+0x34>
   21175:	004462        	s8i	a6, a4, 0
   21178:	fe9921        	l32r	a2, 20bdc (bddd6f04 <_memmap_cacheattr_bp_allvalid+0x79992ac0>)
   2117b:	160c      	movi.n	a6, 1
   2117d:	0239      	s32i.n	a3, a2, 0
   2117f:	1428      	l32i.n	a2, a4, 4
   21181:	000432        	l8ui	a3, a4, 0
   21184:	521b      	addi.n	a5, a2, 1
   21186:	1459      	s32i.n	a5, a4, 4
   21188:	13cc      	bnez.n	a3, 2118d <com_print_rtl_arg1+0x49>
   2118a:	004462        	s8i	a6, a4, 0
   2118d:	fe9231        	l32r	a3, 20bd8 (bddd6f18 <_memmap_cacheattr_bp_allvalid+0x79992ad4>)
   21190:	0329      	s32i.n	a2, a3, 0
   21192:	f01d      	retw.n

00021194 <com_print_rtl_arg2>:
   21194:	004136        	entry	a1, 32
   21197:	fe8c51        	l32r	a5, 20bc8 (10b98 <g_com_print_level>)
   2119a:	256d20        	extui	a6, a2, 29, 3
   2119d:	fe8b81        	l32r	a8, 20bcc (10cc4 <g_trace_base>)
   211a0:	0558      	l32i.n	a5, a5, 0
   211a2:	f77c      	movi.n	a7, -1
   211a4:	419370        	srli	a9, a7, 3
   211a7:	3e3567        	bltu	a5, a6, 211e9 <com_print_rtl_arg2+0x55>
   211aa:	000872        	l8ui	a7, a8, 0
   211ad:	102290        	and	a2, a2, a9
   211b0:	205880        	or	a5, a8, a8
   211b3:	57bc      	beqz.n	a7, 211ec <com_print_rtl_arg2+0x58>
   211b5:	fe8761        	l32r	a6, 20bd4 (bddd6f00 <_memmap_cacheattr_bp_allvalid+0x79992abc>)
   211b8:	006622        	s32i	a2, a6, 0
   211bb:	000522        	l8ui	a2, a5, 0
   211be:	a2bc      	beqz.n	a2, 211fc <com_print_rtl_arg2+0x68>

000211c0 <com_print_rtl_arg2+0x2c>:
   211c0:	fe8721        	l32r	a2, 20bdc (bddd6f04 <_memmap_cacheattr_bp_allvalid+0x79992ac0>)
   211c3:	0239      	s32i.n	a3, a2, 0
   211c5:	000522        	l8ui	a2, a5, 0
   211c8:	32cc      	bnez.n	a2, 211cf <com_print_rtl_arg2+0x3b>
   211ca:	120c      	movi.n	a2, 1
   211cc:	004522        	s8i	a2, a5, 0
   211cf:	fe8421        	l32r	a2, 20be0 (bddd6f08 <_memmap_cacheattr_bp_allvalid+0x79992ac4>)
   211d2:	160c      	movi.n	a6, 1
   211d4:	0249      	s32i.n	a4, a2, 0
   211d6:	1528      	l32i.n	a2, a5, 4
   211d8:	000532        	l8ui	a3, a5, 0
   211db:	f21b      	addi.n	a15, a2, 1
   211dd:	15f9      	s32i.n	a15, a5, 4
   211df:	13cc      	bnez.n	a3, 211e4 <com_print_rtl_arg2+0x50>
   211e1:	004562        	s8i	a6, a5, 0
   211e4:	fe7d31        	l32r	a3, 20bd8 (bddd6f18 <_memmap_cacheattr_bp_allvalid+0x79992ad4>)
   211e7:	0329      	s32i.n	a2, a3, 0
   211e9:	f01d      	retw.n

000211eb <com_print_rtl_arg2+0x57>:
	...

000211ec <com_print_rtl_arg2+0x58>:
   211ec:	160c      	movi.n	a6, 1
   211ee:	004562        	s8i	a6, a5, 0
   211f1:	fe7861        	l32r	a6, 20bd4 (bddd6f00 <_memmap_cacheattr_bp_allvalid+0x79992abc>)
   211f4:	0629      	s32i.n	a2, a6, 0
   211f6:	000522        	l8ui	a2, a5, 0
   211f9:	fc3256        	bnez	a2, 211c0 <com_print_rtl_arg2+0x2c>
   211fc:	120c      	movi.n	a2, 1
   211fe:	004522        	s8i	a2, a5, 0
   21201:	fe7621        	l32r	a2, 20bdc (bddd6f04 <_memmap_cacheattr_bp_allvalid+0x79992ac0>)
   21204:	0239      	s32i.n	a3, a2, 0
   21206:	000522        	l8ui	a2, a5, 0
   21209:	fbd216        	beqz	a2, 211ca <com_print_rtl_arg2+0x36>
   2120c:	ffefc6        	j	211cf <com_print_rtl_arg2+0x3b>

0002120f <com_print_rtl_arg2+0x7b>:
	...

00021210 <com_print_rtl_arg3>:
   21210:	004136        	entry	a1, 32
   21213:	fe6d61        	l32r	a6, 20bc8 (10b98 <g_com_print_level>)
   21216:	257d20        	extui	a7, a2, 29, 3
   21219:	fe6c91        	l32r	a9, 20bcc (10cc4 <g_trace_base>)
   2121c:	0668      	l32i.n	a6, a6, 0
   2121e:	f87c      	movi.n	a8, -1
   21220:	41a380        	srli	a10, a8, 3
   21223:	4a3677        	bltu	a6, a7, 21271 <com_print_rtl_arg3+0x61>
   21226:	000982        	l8ui	a8, a9, 0
   21229:	1022a0        	and	a2, a2, a10
   2122c:	096d      	mov.n	a6, a9
   2122e:	042816        	beqz	a8, 21274 <com_print_rtl_arg3+0x64>
   21231:	fe6871        	l32r	a7, 20bd4 (bddd6f00 <_memmap_cacheattr_bp_allvalid+0x79992abc>)
   21234:	0729      	s32i.n	a2, a7, 0
   21236:	000622        	l8ui	a2, a6, 0
   21239:	047216        	beqz	a2, 21284 <com_print_rtl_arg3+0x74>

0002123c <com_print_rtl_arg3+0x2c>:
   2123c:	fe6821        	l32r	a2, 20bdc (bddd6f04 <_memmap_cacheattr_bp_allvalid+0x79992ac0>)
   2123f:	006232        	s32i	a3, a2, 0
   21242:	000622        	l8ui	a2, a6, 0
   21245:	04b216        	beqz	a2, 21294 <com_print_rtl_arg3+0x84>
   21248:	fe6621        	l32r	a2, 20be0 (bddd6f08 <_memmap_cacheattr_bp_allvalid+0x79992ac4>)
   2124b:	0249      	s32i.n	a4, a2, 0
   2124d:	000622        	l8ui	a2, a6, 0
   21250:	32cc      	bnez.n	a2, 21257 <com_print_rtl_arg3+0x47>
   21252:	120c      	movi.n	a2, 1
   21254:	004622        	s8i	a2, a6, 0
   21257:	fe6321        	l32r	a2, 20be4 (bddd6f0c <_memmap_cacheattr_bp_allvalid+0x79992ac8>)
   2125a:	170c      	movi.n	a7, 1
   2125c:	0259      	s32i.n	a5, a2, 0
   2125e:	1628      	l32i.n	a2, a6, 4
   21260:	000632        	l8ui	a3, a6, 0
   21263:	421b      	addi.n	a4, a2, 1
   21265:	1649      	s32i.n	a4, a6, 4
   21267:	13cc      	bnez.n	a3, 2126c <com_print_rtl_arg3+0x5c>
   21269:	004672        	s8i	a7, a6, 0
   2126c:	fe5b31        	l32r	a3, 20bd8 (bddd6f18 <_memmap_cacheattr_bp_allvalid+0x79992ad4>)
   2126f:	0329      	s32i.n	a2, a3, 0
   21271:	f01d      	retw.n

00021273 <com_print_rtl_arg3+0x63>:
	...

00021274 <com_print_rtl_arg3+0x64>:
   21274:	170c      	movi.n	a7, 1
   21276:	004672        	s8i	a7, a6, 0
   21279:	fe5671        	l32r	a7, 20bd4 (bddd6f00 <_memmap_cacheattr_bp_allvalid+0x79992abc>)
   2127c:	0729      	s32i.n	a2, a7, 0
   2127e:	000622        	l8ui	a2, a6, 0
   21281:	fb7256        	bnez	a2, 2123c <com_print_rtl_arg3+0x2c>
   21284:	120c      	movi.n	a2, 1
   21286:	004622        	s8i	a2, a6, 0
   21289:	fe5421        	l32r	a2, 20bdc (bddd6f04 <_memmap_cacheattr_bp_allvalid+0x79992ac0>)
   2128c:	0239      	s32i.n	a3, a2, 0
   2128e:	000622        	l8ui	a2, a6, 0
   21291:	fb3256        	bnez	a2, 21248 <com_print_rtl_arg3+0x38>
   21294:	120c      	movi.n	a2, 1
   21296:	004622        	s8i	a2, a6, 0
   21299:	fe5121        	l32r	a2, 20be0 (bddd6f08 <_memmap_cacheattr_bp_allvalid+0x79992ac4>)
   2129c:	0249      	s32i.n	a4, a2, 0
   2129e:	000622        	l8ui	a2, a6, 0
   212a1:	fad216        	beqz	a2, 21252 <com_print_rtl_arg3+0x42>
   212a4:	ffebc6        	j	21257 <com_print_rtl_arg3+0x47>

000212a7 <com_print_rtl_arg3+0x97>:
	...

000212a8 <com_print_rtl_arg4>:
   212a8:	004136        	entry	a1, 32
   212ab:	fe4771        	l32r	a7, 20bc8 (10b98 <g_com_print_level>)
   212ae:	258d20        	extui	a8, a2, 29, 3
   212b1:	fe46a1        	l32r	a10, 20bcc (10cc4 <g_trace_base>)
   212b4:	0778      	l32i.n	a7, a7, 0
   212b6:	f97c      	movi.n	a9, -1
   212b8:	41b390        	srli	a11, a9, 3
   212bb:	563787        	bltu	a7, a8, 21315 <com_print_rtl_arg4+0x6d>
   212be:	000a92        	l8ui	a9, a10, 0
   212c1:	1022b0        	and	a2, a2, a11
   212c4:	0a7d      	mov.n	a7, a10
   212c6:	04e916        	beqz	a9, 21318 <com_print_rtl_arg4+0x70>
   212c9:	fe4281        	l32r	a8, 20bd4 (bddd6f00 <_memmap_cacheattr_bp_allvalid+0x79992abc>)
   212cc:	0829      	s32i.n	a2, a8, 0
   212ce:	000722        	l8ui	a2, a7, 0
   212d1:	053216        	beqz	a2, 21328 <com_print_rtl_arg4+0x80>

000212d4 <com_print_rtl_arg4+0x2c>:
   212d4:	fe4221        	l32r	a2, 20bdc (bddd6f04 <_memmap_cacheattr_bp_allvalid+0x79992ac0>)
   212d7:	006232        	s32i	a3, a2, 0
   212da:	000722        	l8ui	a2, a7, 0
   212dd:	057216        	beqz	a2, 21338 <com_print_rtl_arg4+0x90>
   212e0:	fe4021        	l32r	a2, 20be0 (bddd6f08 <_memmap_cacheattr_bp_allvalid+0x79992ac4>)
   212e3:	006242        	s32i	a4, a2, 0
   212e6:	000722        	l8ui	a2, a7, 0
   212e9:	05b216        	beqz	a2, 21348 <com_print_rtl_arg4+0xa0>
   212ec:	fe3e21        	l32r	a2, 20be4 (bddd6f0c <_memmap_cacheattr_bp_allvalid+0x79992ac8>)
   212ef:	0259      	s32i.n	a5, a2, 0
   212f1:	000722        	l8ui	a2, a7, 0
   212f4:	32cc      	bnez.n	a2, 212fb <com_print_rtl_arg4+0x53>
   212f6:	120c      	movi.n	a2, 1
   212f8:	004722        	s8i	a2, a7, 0
   212fb:	fe3b21        	l32r	a2, 20be8 (bddd6f10 <_memmap_cacheattr_bp_allvalid+0x79992acc>)
   212fe:	150c      	movi.n	a5, 1
   21300:	0269      	s32i.n	a6, a2, 0
   21302:	1728      	l32i.n	a2, a7, 4
   21304:	000732        	l8ui	a3, a7, 0
   21307:	421b      	addi.n	a4, a2, 1
   21309:	1749      	s32i.n	a4, a7, 4
   2130b:	13cc      	bnez.n	a3, 21310 <com_print_rtl_arg4+0x68>
   2130d:	004752        	s8i	a5, a7, 0
   21310:	fe3231        	l32r	a3, 20bd8 (bddd6f18 <_memmap_cacheattr_bp_allvalid+0x79992ad4>)
   21313:	0329      	s32i.n	a2, a3, 0
   21315:	f01d      	retw.n

00021317 <com_print_rtl_arg4+0x6f>:
	...

00021318 <com_print_rtl_arg4+0x70>:
   21318:	180c      	movi.n	a8, 1
   2131a:	004782        	s8i	a8, a7, 0
   2131d:	fe2d81        	l32r	a8, 20bd4 (bddd6f00 <_memmap_cacheattr_bp_allvalid+0x79992abc>)
   21320:	0829      	s32i.n	a2, a8, 0
   21322:	000722        	l8ui	a2, a7, 0
   21325:	fab256        	bnez	a2, 212d4 <com_print_rtl_arg4+0x2c>
   21328:	120c      	movi.n	a2, 1
   2132a:	004722        	s8i	a2, a7, 0
   2132d:	fe2b21        	l32r	a2, 20bdc (bddd6f04 <_memmap_cacheattr_bp_allvalid+0x79992ac0>)
   21330:	0239      	s32i.n	a3, a2, 0
   21332:	000722        	l8ui	a2, a7, 0
   21335:	fa7256        	bnez	a2, 212e0 <com_print_rtl_arg4+0x38>
   21338:	120c      	movi.n	a2, 1
   2133a:	004722        	s8i	a2, a7, 0
   2133d:	fe2821        	l32r	a2, 20be0 (bddd6f08 <_memmap_cacheattr_bp_allvalid+0x79992ac4>)
   21340:	0249      	s32i.n	a4, a2, 0
   21342:	000722        	l8ui	a2, a7, 0
   21345:	fa3256        	bnez	a2, 212ec <com_print_rtl_arg4+0x44>
   21348:	120c      	movi.n	a2, 1
   2134a:	004722        	s8i	a2, a7, 0
   2134d:	fe2521        	l32r	a2, 20be4 (bddd6f0c <_memmap_cacheattr_bp_allvalid+0x79992ac8>)
   21350:	0259      	s32i.n	a5, a2, 0
   21352:	000722        	l8ui	a2, a7, 0
   21355:	f9d216        	beqz	a2, 212f6 <com_print_rtl_arg4+0x4e>
   21358:	ffe7c6        	j	212fb <com_print_rtl_arg4+0x53>

0002135b <com_print_rtl_arg4+0xb3>:
	...

0002135c <com_print_rtl_arg5>:
   2135c:	004136        	entry	a1, 32
   2135f:	fe1a81        	l32r	a8, 20bc8 (10b98 <g_com_print_level>)
   21362:	259d20        	extui	a9, a2, 29, 3
   21365:	fe19b1        	l32r	a11, 20bcc (10cc4 <g_trace_base>)
   21368:	0888      	l32i.n	a8, a8, 0
   2136a:	fa7c      	movi.n	a10, -1
   2136c:	41c3a0        	srli	a12, a10, 3
   2136f:	623897        	bltu	a8, a9, 213d5 <com_print_rtl_arg5+0x79>
   21372:	000ba2        	l8ui	a10, a11, 0
   21375:	1022c0        	and	a2, a2, a12
   21378:	0b8d      	mov.n	a8, a11
   2137a:	05aa16        	beqz	a10, 213d8 <com_print_rtl_arg5+0x7c>
   2137d:	fe1591        	l32r	a9, 20bd4 (bddd6f00 <_memmap_cacheattr_bp_allvalid+0x79992abc>)
   21380:	0929      	s32i.n	a2, a9, 0
   21382:	000822        	l8ui	a2, a8, 0
   21385:	05f216        	beqz	a2, 213e8 <com_print_rtl_arg5+0x8c>

00021388 <com_print_rtl_arg5+0x2c>:
   21388:	fe1521        	l32r	a2, 20bdc (bddd6f04 <_memmap_cacheattr_bp_allvalid+0x79992ac0>)
   2138b:	006232        	s32i	a3, a2, 0
   2138e:	000822        	l8ui	a2, a8, 0
   21391:	063216        	beqz	a2, 213f8 <com_print_rtl_arg5+0x9c>
   21394:	fe1321        	l32r	a2, 20be0 (bddd6f08 <_memmap_cacheattr_bp_allvalid+0x79992ac4>)
   21397:	006242        	s32i	a4, a2, 0
   2139a:	000822        	l8ui	a2, a8, 0
   2139d:	067216        	beqz	a2, 21408 <com_print_rtl_arg5+0xac>
   213a0:	fe1121        	l32r	a2, 20be4 (bddd6f0c <_memmap_cacheattr_bp_allvalid+0x79992ac8>)
   213a3:	006252        	s32i	a5, a2, 0
   213a6:	000822        	l8ui	a2, a8, 0
   213a9:	06b216        	beqz	a2, 21418 <com_print_rtl_arg5+0xbc>
   213ac:	fe0f21        	l32r	a2, 20be8 (bddd6f10 <_memmap_cacheattr_bp_allvalid+0x79992acc>)
   213af:	0269      	s32i.n	a6, a2, 0
   213b1:	000822        	l8ui	a2, a8, 0
   213b4:	32cc      	bnez.n	a2, 213bb <com_print_rtl_arg5+0x5f>
   213b6:	120c      	movi.n	a2, 1
   213b8:	004822        	s8i	a2, a8, 0
   213bb:	fe0c21        	l32r	a2, 20bec (bddd6f14 <_memmap_cacheattr_bp_allvalid+0x79992ad0>)
   213be:	150c      	movi.n	a5, 1
   213c0:	0279      	s32i.n	a7, a2, 0
   213c2:	1828      	l32i.n	a2, a8, 4
   213c4:	000832        	l8ui	a3, a8, 0
   213c7:	421b      	addi.n	a4, a2, 1
   213c9:	1849      	s32i.n	a4, a8, 4
   213cb:	13cc      	bnez.n	a3, 213d0 <com_print_rtl_arg5+0x74>
   213cd:	004852        	s8i	a5, a8, 0
   213d0:	fe0231        	l32r	a3, 20bd8 (bddd6f18 <_memmap_cacheattr_bp_allvalid+0x79992ad4>)
   213d3:	0329      	s32i.n	a2, a3, 0
   213d5:	f01d      	retw.n

000213d7 <com_print_rtl_arg5+0x7b>:
	...

000213d8 <com_print_rtl_arg5+0x7c>:
   213d8:	190c      	movi.n	a9, 1
   213da:	004892        	s8i	a9, a8, 0
   213dd:	fdfd91        	l32r	a9, 20bd4 (bddd6f00 <_memmap_cacheattr_bp_allvalid+0x79992abc>)
   213e0:	0929      	s32i.n	a2, a9, 0
   213e2:	000822        	l8ui	a2, a8, 0
   213e5:	f9f256        	bnez	a2, 21388 <com_print_rtl_arg5+0x2c>
   213e8:	120c      	movi.n	a2, 1
   213ea:	004822        	s8i	a2, a8, 0
   213ed:	fdfb21        	l32r	a2, 20bdc (bddd6f04 <_memmap_cacheattr_bp_allvalid+0x79992ac0>)
   213f0:	0239      	s32i.n	a3, a2, 0
   213f2:	000822        	l8ui	a2, a8, 0
   213f5:	f9b256        	bnez	a2, 21394 <com_print_rtl_arg5+0x38>
   213f8:	120c      	movi.n	a2, 1
   213fa:	004822        	s8i	a2, a8, 0
   213fd:	fdf821        	l32r	a2, 20be0 (bddd6f08 <_memmap_cacheattr_bp_allvalid+0x79992ac4>)
   21400:	0249      	s32i.n	a4, a2, 0
   21402:	000822        	l8ui	a2, a8, 0
   21405:	f97256        	bnez	a2, 213a0 <com_print_rtl_arg5+0x44>
   21408:	120c      	movi.n	a2, 1
   2140a:	004822        	s8i	a2, a8, 0
   2140d:	fdf521        	l32r	a2, 20be4 (bddd6f0c <_memmap_cacheattr_bp_allvalid+0x79992ac8>)
   21410:	0259      	s32i.n	a5, a2, 0
   21412:	000822        	l8ui	a2, a8, 0
   21415:	f93256        	bnez	a2, 213ac <com_print_rtl_arg5+0x50>
   21418:	120c      	movi.n	a2, 1
   2141a:	004822        	s8i	a2, a8, 0
   2141d:	fdf221        	l32r	a2, 20be8 (bddd6f10 <_memmap_cacheattr_bp_allvalid+0x79992acc>)
   21420:	0269      	s32i.n	a6, a2, 0
   21422:	000822        	l8ui	a2, a8, 0
   21425:	f8d216        	beqz	a2, 213b6 <com_print_rtl_arg5+0x5a>
   21428:	ffe3c6        	j	213bb <com_print_rtl_arg5+0x5f>

0002142b <com_print_rtl_arg5+0xcf>:
	...

0002142c <ana_isr_event>:
   2142c:	004136        	entry	a1, 32
   2142f:	fdf051        	l32r	a5, 20bf0 (10760 <ana_isr_event.debug_str_1>)
   21432:	f67c      	movi.n	a6, -1
   21434:	370c      	movi.n	a7, 3
   21436:	416360        	srli	a6, a6, 3
   21439:	017730        	slli	a7, a7, 29
   2143c:	105560        	and	a5, a5, a6
   2143f:	a57a      	add.n	a10, a5, a7
   21441:	ffcbe5        	call8	21100 <com_print_rtl_arg0>
   21444:	fdec51        	l32r	a5, 20bf4 (10ba0 <adc_cpu_irq_handler_map>)
   21447:	902220        	addx2	a2, a2, a2
   2144a:	0d0c      	movi.n	a13, 0
   2144c:	a02250        	addx4	a2, a2, a5
   2144f:	0002a2        	l8ui	a10, a2, 0
   21452:	03bd      	mov.n	a11, a3
   21454:	04cd      	mov.n	a12, a4
   21456:	1239      	s32i.n	a3, a2, 4
   21458:	2249      	s32i.n	a4, a2, 8
   2145a:	0171e5        	call8	22b78 <xtos_set_interrupt_handler>
   2145d:	f01d      	retw.n

0002145f <ana_isr_event+0x33>:
	...

00021460 <ana_isr_initialize>:
   21460:	004136        	entry	a1, 32
   21463:	fde331        	l32r	a3, 20bf0 (10760 <ana_isr_event.debug_str_1>)
   21466:	f47c      	movi.n	a4, -1
   21468:	41f340        	srli	a15, a4, 3
   2146b:	03a052        	movi	a5, 3
   2146e:	015530        	slli	a5, a5, 29
   21471:	1033f0        	and	a3, a3, a15
   21474:	80a350        	add	a10, a3, a5
   21477:	904220        	addx2	a4, a2, a2
   2147a:	ffc865        	call8	21100 <com_print_rtl_arg0>
   2147d:	fddd31        	l32r	a3, 20bf4 (10ba0 <adc_cpu_irq_handler_map>)
   21480:	fddeb1        	l32r	a11, 20bf8 (2149c <ana_cal_int_handler>)
   21483:	0d0c      	movi.n	a13, 0
   21485:	a03430        	addx4	a3, a4, a3
   21488:	3003a2        	l8ui	a10, a3, 48
   2148b:	02cd      	mov.n	a12, a2
   2148d:	d3b9      	s32i.n	a11, a3, 52
   2148f:	e329      	s32i.n	a2, a3, 56
   21491:	016e65        	call8	22b78 <xtos_set_interrupt_handler>
   21494:	3003a2        	l8ui	a10, a3, 48
   21497:	016725        	call8	22b08 <xtos_interrupt_enable>
   2149a:	f01d      	retw.n

0002149c <ana_cal_int_handler>:
   2149c:	004136        	entry	a1, 32
   2149f:	fdd731        	l32r	a3, 20bfc (10870 <ana_cal_int_handler.debug_str_0>)
   214a2:	f47c      	movi.n	a4, -1
   214a4:	350c      	movi.n	a5, 3
   214a6:	414340        	srli	a4, a4, 3
   214a9:	015530        	slli	a5, a5, 29
   214ac:	103340        	and	a3, a3, a4
   214af:	80a350        	add	a10, a3, a5
   214b2:	20b220        	or	a11, a2, a2
   214b5:	ffc8e5        	call8	21144 <com_print_rtl_arg1>
   214b8:	fdd221        	l32r	a2, 20c00 (10cd0 <ant_cpu_base>)
   214bb:	030c      	movi.n	a3, 0
   214bd:	0228      	l32i.n	a2, a2, 0
   214bf:	8239      	s32i.n	a3, a2, 32
   214c1:	0020c0        	memw
   214c4:	f01d      	retw.n

000214c6 <ana_cal_int_handler+0x2a>:
	...

000214c8 <ana_isr_interrupt_enable>:
   214c8:	004136        	entry	a1, 32
   214cb:	fdca31        	l32r	a3, 20bf4 (10ba0 <adc_cpu_irq_handler_map>)
   214ce:	902220        	addx2	a2, a2, a2
   214d1:	a02230        	addx4	a2, a2, a3
   214d4:	0002a2        	l8ui	a10, a2, 0
   214d7:	016325        	call8	22b08 <xtos_interrupt_enable>
   214da:	f01d      	retw.n

000214dc <ana_isr_interrupt_disable>:
   214dc:	004136        	entry	a1, 32
   214df:	fdc531        	l32r	a3, 20bf4 (10ba0 <adc_cpu_irq_handler_map>)
   214e2:	902220        	addx2	a2, a2, a2
   214e5:	a02230        	addx4	a2, a2, a3
   214e8:	0002a2        	l8ui	a10, a2, 0
   214eb:	016565        	call8	22b40 <xtos_interrupt_disable>
   214ee:	f01d      	retw.n

000214f0 <ana_rcs2cpu_mb_handler>:
   214f0:	004136        	entry	a1, 32
   214f3:	fdc421        	l32r	a2, 20c04 (10780 <ana_rcs2cpu_mb_handler.debug_str_2>)
   214f6:	f37c      	movi.n	a3, -1
   214f8:	340c      	movi.n	a4, 3
   214fa:	413330        	srli	a3, a3, 3
   214fd:	014430        	slli	a4, a4, 29
   21500:	102230        	and	a2, a2, a3
   21503:	a24a      	add.n	a10, a2, a4
   21505:	ffbfa5        	call8	21100 <com_print_rtl_arg0>
   21508:	f01d      	retw.n

0002150a <ana_rcs2cpu_mb_handler+0x1a>:
	...

0002150c <ana_start_cal_handler>:
   2150c:	004136        	entry	a1, 32
   2150f:	fdbe21        	l32r	a2, 20c08 (107b0 <ana_start_cal_handler.debug_str_3>)
   21512:	f37c      	movi.n	a3, -1
   21514:	340c      	movi.n	a4, 3
   21516:	413330        	srli	a3, a3, 3
   21519:	014430        	slli	a4, a4, 29
   2151c:	102230        	and	a2, a2, a3
   2151f:	a24a      	add.n	a10, a2, a4
   21521:	ffbde5        	call8	21100 <com_print_rtl_arg0>
   21524:	f01d      	retw.n

00021526 <ana_start_cal_handler+0x1a>:
	...

00021528 <ana_atsa_start_cal_handler>:
   21528:	004136        	entry	a1, 32
   2152b:	fdb821        	l32r	a2, 20c0c (107e0 <ana_atsa_start_cal_handler.debug_str_4>)
   2152e:	f37c      	movi.n	a3, -1
   21530:	340c      	movi.n	a4, 3
   21532:	413330        	srli	a3, a3, 3
   21535:	014430        	slli	a4, a4, 29
   21538:	102230        	and	a2, a2, a3
   2153b:	a24a      	add.n	a10, a2, a4
   2153d:	ffbc25        	call8	21100 <com_print_rtl_arg0>
   21540:	f01d      	retw.n

00021542 <ana_atsa_start_cal_handler+0x1a>:
	...

00021544 <ana_hw_seq_done_handler>:
   21544:	004136        	entry	a1, 32
   21547:	fdb221        	l32r	a2, 20c10 (10810 <ana_hw_seq_done_handler.debug_str_5>)
   2154a:	f37c      	movi.n	a3, -1
   2154c:	340c      	movi.n	a4, 3
   2154e:	413330        	srli	a3, a3, 3
   21551:	014430        	slli	a4, a4, 29
   21554:	102230        	and	a2, a2, a3
   21557:	a24a      	add.n	a10, a2, a4
   21559:	ffba65        	call8	21100 <com_print_rtl_arg0>
   2155c:	f01d      	retw.n

0002155e <ana_hw_seq_done_handler+0x1a>:
	...

00021560 <ana_cmff_fifo_err_handler>:
   21560:	004136        	entry	a1, 32
   21563:	fdac21        	l32r	a2, 20c14 (10840 <ana_cmff_fifo_err_handler.debug_str_6>)
   21566:	f37c      	movi.n	a3, -1
   21568:	340c      	movi.n	a4, 3
   2156a:	413330        	srli	a3, a3, 3
   2156d:	014430        	slli	a4, a4, 29
   21570:	102230        	and	a2, a2, a3
   21573:	a24a      	add.n	a10, a2, a4
   21575:	ffb8a5        	call8	21100 <com_print_rtl_arg0>
   21578:	f01d      	retw.n

0002157a <ana_cmff_fifo_err_handler+0x1a>:
	...

0002157c <main>:
   2157c:	004136        	entry	a1, 32
   2157f:	d3a0b2        	movi	a11, 211
   21582:	fda5a1        	l32r	a10, 20c18 (12d00 <ana_Heap>)
   21585:	11bb80        	slli	a11, a11, 8
   21588:	ff8b25        	call8	20e3c <com_heap_create>
   2158b:	03eb20        	rsr.prid	a2
   2158e:	fda331        	l32r	a3, 20c1c (108a0 <main.debug_str_0>)
   21591:	f47c      	movi.n	a4, -1
   21593:	350c      	movi.n	a5, 3
   21595:	414340        	srli	a4, a4, 3
   21598:	142920        	extui	a2, a2, 9, 2
   2159b:	015530        	slli	a5, a5, 29
   2159e:	103340        	and	a3, a3, a4
   215a1:	a35a      	add.n	a10, a3, a5
   215a3:	20b220        	or	a11, a2, a2
   215a6:	ffb9e5        	call8	21144 <com_print_rtl_arg1>
   215a9:	fd9d31        	l32r	a3, 20c20 (10ccc <csr_base>)
   215ac:	23a262        	movi	a6, 0x223
   215af:	171c      	movi.n	a7, 17
   215b1:	116640        	slli	a6, a6, 12
   215b4:	0177f0        	slli	a7, a7, 17
   215b7:	02ad      	mov.n	a10, a2
   215b9:	006362        	s32i	a6, a3, 0
   215bc:	016372        	s32i	a7, a3, 4
   215bf:	ffea25        	call8	21460 <ana_isr_initialize>
   215c2:	1368      	l32i.n	a6, a3, 4
   215c4:	071c      	movi.n	a7, 16
   215c6:	fd97c1        	l32r	a12, 20c24 (108c0 <main.debug_str_3>)
   215c9:	1e6672        	s32i	a7, a6, 120
   215cc:	fd7c      	movi.n	a13, -1
   215ce:	13e8      	l32i.n	a14, a3, 4
   215d0:	017d10        	slli	a7, a13, 31
   215d3:	f27a      	add.n	a15, a2, a7
   215d5:	104c40        	and	a4, a12, a4
   215d8:	245a      	add.n	a2, a4, a5
   215da:	6ef9      	s32i.n	a15, a14, 24

000215dc <main+0x60>:
   215dc:	007000        	waiti	0
   215df:	02ad      	mov.n	a10, a2
   215e1:	ffb1e5        	call8	21100 <com_print_rtl_arg0>
   215e4:	0020c0        	memw
   215e7:	fffc46        	j	215dc <main+0x60>

000215ea <main+0x6e>:
	...

000215ec <slicecal>:
   215ec:	00a136        	entry	a1, 80
   215ef:	03eb20        	rsr.prid	a2
   215f2:	fd8d71        	l32r	a7, 20c28 (10ce0 <dither_coeff>)
   215f5:	fd8f31        	l32r	a3, 20c34 (10420 <__switchjump_table_xp_temp_0_0>)
   215f8:	6542f6        	bgeui	a2, 4, 21661 <slicecal+0x75>
   215fb:	360c      	movi.n	a6, 3
   215fd:	b50c      	movi.n	a5, 11
   215ff:	a02230        	addx4	a2, a2, a3
   21602:	02d8      	l32i.n	a13, a2, 0
   21604:	341c      	movi.n	a4, 19
   21606:	be1c      	movi.n	a14, 27
   21608:	1f2c      	movi.n	a15, 33
   2160a:	116600        	slli	a6, a6, 16
   2160d:	115500        	slli	a5, a5, 16
   21610:	114400        	slli	a4, a4, 16
   21613:	078d      	mov.n	a8, a7
   21615:	113e00        	slli	a3, a14, 16
   21618:	112f00        	slli	a2, a15, 16
   2161b:	000da0        	jx	a13

0002161e <slicecal+0x32>:
   2161e:	087d      	mov.n	a7, a8
   21620:	426862        	s32i	a6, a8, 0x108
   21623:	436852        	s32i	a5, a8, 0x10c
   21626:	446842        	s32i	a4, a8, 0x110
   21629:	456832        	s32i	a3, a8, 0x114
   2162c:	466822        	s32i	a2, a8, 0x118
   2162f:	0010c6        	j	21676 <slicecal+0x8a>

00021632 <slicecal+0x46>:
   21632:	426862        	s32i	a6, a8, 0x108
   21635:	436852        	s32i	a5, a8, 0x10c
   21638:	446842        	s32i	a4, a8, 0x110
   2163b:	456832        	s32i	a3, a8, 0x114
   2163e:	466822        	s32i	a2, a8, 0x118
   21641:	426862        	s32i	a6, a8, 0x108
   21644:	436852        	s32i	a5, a8, 0x10c
   21647:	446842        	s32i	a4, a8, 0x110
   2164a:	456832        	s32i	a3, a8, 0x114
   2164d:	466822        	s32i	a2, a8, 0x118
   21650:	087d      	mov.n	a7, a8
   21652:	426862        	s32i	a6, a8, 0x108
   21655:	436852        	s32i	a5, a8, 0x10c
   21658:	446842        	s32i	a4, a8, 0x110
   2165b:	456832        	s32i	a3, a8, 0x114
   2165e:	466822        	s32i	a2, a8, 0x118

00021661 <slicecal+0x75>:
   21661:	fd7221        	l32r	a2, 20c2c (108f0 <init_asc_wrap.debug_str_0>)
   21664:	f37c      	movi.n	a3, -1
   21666:	340c      	movi.n	a4, 3
   21668:	413330        	srli	a3, a3, 3
   2166b:	014430        	slli	a4, a4, 29
   2166e:	102230        	and	a2, a2, a3
   21671:	a24a      	add.n	a10, a2, a4
   21673:	ffa8e5        	call8	21100 <com_print_rtl_arg0>
   21676:	0a4c      	movi.n	a10, 64
   21678:	4b0c      	movi.n	a11, 4
   2167a:	ff8365        	call8	20eb0 <com_calloc>
   2167d:	3467a2        	s32i	a10, a7, 208
   21680:	0a2c      	movi.n	a10, 32
   21682:	04a0b2        	movi	a11, 4
   21685:	ff82a5        	call8	20eb0 <com_calloc>
   21688:	1f0c      	movi.n	a15, 1
   2168a:	3567a2        	s32i	a10, a7, 212
   2168d:	11af40        	slli	a10, a15, 12
   21690:	04a0b2        	movi	a11, 4
   21693:	ff81e5        	call8	20eb0 <com_calloc>
   21696:	120c      	movi.n	a2, 1
   21698:	112250        	slli	a2, a2, 11
   2169b:	3667a2        	s32i	a10, a7, 216
   2169e:	4b0c      	movi.n	a11, 4
   216a0:	02ad      	mov.n	a10, a2
   216a2:	ff80e5        	call8	20eb0 <com_calloc>
   216a5:	3767a2        	s32i	a10, a7, 220
   216a8:	04a0b2        	movi	a11, 4
   216ab:	20a220        	or	a10, a2, a2
   216ae:	ff8025        	call8	20eb0 <com_calloc>
   216b1:	3867a2        	s32i	a10, a7, 224
   216b4:	04a0b2        	movi	a11, 4
   216b7:	20a220        	or	a10, a2, a2
   216ba:	ff7f65        	call8	20eb0 <com_calloc>
   216bd:	3967a2        	s32i	a10, a7, 228
   216c0:	04a0b2        	movi	a11, 4
   216c3:	20a220        	or	a10, a2, a2
   216c6:	ff7ea5        	call8	20eb0 <com_calloc>
   216c9:	3a67a2        	s32i	a10, a7, 232
   216cc:	20a0a2        	movi	a10, 32
   216cf:	04a0b2        	movi	a11, 4
   216d2:	ff7de5        	call8	20eb0 <com_calloc>
   216d5:	3b67a2        	s32i	a10, a7, 236
   216d8:	20a0a2        	movi	a10, 32
   216db:	04a0b2        	movi	a11, 4
   216de:	ff7d25        	call8	20eb0 <com_calloc>
   216e1:	3c67a2        	s32i	a10, a7, 240
   216e4:	40a0a2        	movi	a10, 64
   216e7:	04a0b2        	movi	a11, 4
   216ea:	ff7c65        	call8	20eb0 <com_calloc>
   216ed:	3d67a2        	s32i	a10, a7, 244
   216f0:	40a0a2        	movi	a10, 64
   216f3:	04a0b2        	movi	a11, 4
   216f6:	ff7ba5        	call8	20eb0 <com_calloc>
   216f9:	3e67a2        	s32i	a10, a7, 248
   216fc:	40a0a2        	movi	a10, 64
   216ff:	04a0b2        	movi	a11, 4
   21702:	ff7ae5        	call8	20eb0 <com_calloc>
   21705:	3f67a2        	s32i	a10, a7, 252
   21708:	0a4c      	movi.n	a10, 64
   2170a:	04a0b2        	movi	a11, 4
   2170d:	ff7a25        	call8	20eb0 <com_calloc>
   21710:	7fa082        	movi	a8, 127
   21713:	897c      	movi.n	a9, -8
   21715:	1b0c      	movi.n	a11, 1
   21717:	372752        	l32i	a5, a7, 220
   2171a:	07cd      	mov.n	a12, a7
   2171c:	118870        	slli	a8, a8, 9
   2171f:	f49090        	extui	a9, a9, 0, 16
   21722:	11bb50        	slli	a11, a11, 11
   21725:	020c      	movi.n	a2, 0
   21727:	030c      	movi.n	a3, 0
   21729:	040c      	movi.n	a4, 0
   2172b:	060c      	movi.n	a6, 0
   2172d:	070c      	movi.n	a7, 0
   2172f:	61a9      	s32i.n	a10, a1, 24
   21731:	406ca2        	s32i	a10, a12, 0x100
   21734:	5189      	s32i.n	a8, a1, 20
   21736:	046192        	s32i	a9, a1, 16
   21739:	568b76        	loop	a11, 21793 <slicecal+0x1a7>
   2173c:	0c2c      	movi.n	a12, 32
   2173e:	80a092        	movi	a9, 128
   21741:	10a390        	and	a10, a3, a9
   21744:	1084c0        	and	a8, a4, a12
   21747:	10b2c0        	and	a11, a2, a12
   2174a:	10c3c0        	and	a12, a3, a12
   2174d:	bcba      	add.n	a11, a12, a11
   2174f:	88aa      	add.n	a8, a8, a10
   21751:	cb8a      	add.n	a12, a11, a8
   21753:	10a690        	and	a10, a6, a9
   21756:	00a2b2        	movi	a11, 0x200
   21759:	10d4b0        	and	a13, a4, a11
   2175c:	5188      	l32i.n	a8, a1, 20
   2175e:	10b6b0        	and	a11, a6, a11
   21761:	adaa      	add.n	a10, a13, a10
   21763:	41e570        	srli	a14, a7, 5
   21766:	04d0e0        	extui	a13, a14, 0, 1
   21769:	04f060        	extui	a15, a6, 0, 1
   2176c:	109490        	and	a9, a4, a9
   2176f:	9c9a      	add.n	a9, a12, a9
   21771:	aaba      	add.n	a10, a10, a11
   21773:	108e80        	and	a8, a14, a8
   21776:	bfda      	add.n	a11, a15, a13
   21778:	aa8a      	add.n	a10, a10, a8
   2177a:	4188      	l32i.n	a8, a1, 16
   2177c:	b09b90        	addx8	a9, a11, a9
   2177f:	99aa      	add.n	a9, a9, a10
   21781:	442b      	addi.n	a4, a4, 2
   21783:	108980        	and	a8, a9, a8
   21786:	334b      	addi.n	a3, a3, 4
   21788:	0589      	s32i.n	a8, a5, 0
   2178a:	10c772        	addi	a7, a7, 16
   2178d:	554b      	addi.n	a5, a5, 4
   2178f:	661b      	addi.n	a6, a6, 1
   21791:	228b      	addi.n	a2, a2, 8

00021793 <slicecal+0x1a7>:
   21793:	034c      	movi.n	a3, 64
   21795:	fd2621        	l32r	a2, 20c30 (10430 <__switchjump_table_xp_temp_0_0+0x10>)
   21798:	61a8      	l32i.n	a10, a1, 24
   2179a:	fd2371        	l32r	a7, 20c28 (10ce0 <dither_coeff>)
   2179d:	413130        	srli	a3, a3, 1
   217a0:	040c      	movi.n	a4, 0
   217a2:	2f9376        	loopnez	a3, 217d5 <slicecal+0x1e9>
   217a5:	341b      	addi.n	a3, a4, 1
   217a7:	415340        	srli	a5, a4, 3
   217aa:	a05520        	addx4	a5, a5, a2
   217ad:	246040        	extui	a6, a4, 0, 3
   217b0:	0548      	l32i.n	a4, a5, 0
   217b2:	a05620        	addx4	a5, a6, a2
   217b5:	0568      	l32i.n	a6, a5, 0
   217b7:	245030        	extui	a5, a3, 0, 3
   217ba:	a05520        	addx4	a5, a5, a2
   217bd:	904460        	addx2	a4, a4, a6
   217c0:	416330        	srli	a6, a3, 3
   217c3:	a06620        	addx4	a6, a6, a2
   217c6:	0558      	l32i.n	a5, a5, 0
   217c8:	0668      	l32i.n	a6, a6, 0
   217ca:	0a49      	s32i.n	a4, a10, 0
   217cc:	431b      	addi.n	a4, a3, 1
   217ce:	903650        	addx2	a3, a6, a5
   217d1:	1a39      	s32i.n	a3, a10, 4
   217d3:	aa8b      	addi.n	a10, a10, 8
   217d5:	8fa0e2        	movi	a14, 143
   217d8:	01fe90        	slli	a15, a14, 23
   217db:	20c722        	addi	a2, a7, 32
   217de:	fa0f50        	wfr	f0, a15
   217e1:	9129      	s32i.n	a2, a1, 36
   217e3:	020c      	movi.n	a2, 0
   217e5:	084103        	ssi	f0, a1, 32
   217e8:	001606        	j	21844 <slicecal+0x258>

000217eb <slicecal+0x1ff>:
	...

000217ec <slicecal+0x200>:
   217ec:	4027a2        	l32i	a10, a7, 0x100
   217ef:	ff7765        	call8	20f64 <com_free>
   217f2:	3f27a2        	l32i	a10, a7, 252
   217f5:	ff76e5        	call8	20f64 <com_free>
   217f8:	3e27a2        	l32i	a10, a7, 248
   217fb:	ff76a5        	call8	20f64 <com_free>
   217fe:	3d27a2        	l32i	a10, a7, 244
   21801:	ff7625        	call8	20f64 <com_free>
   21804:	3c27a2        	l32i	a10, a7, 240
   21807:	ff75e5        	call8	20f64 <com_free>
   2180a:	3b27a2        	l32i	a10, a7, 236
   2180d:	ff7565        	call8	20f64 <com_free>
   21810:	3a27a2        	l32i	a10, a7, 232
   21813:	ff7525        	call8	20f64 <com_free>
   21816:	3927a2        	l32i	a10, a7, 228
   21819:	ff74a5        	call8	20f64 <com_free>
   2181c:	3827a2        	l32i	a10, a7, 224
   2181f:	ff7465        	call8	20f64 <com_free>
   21822:	3727a2        	l32i	a10, a7, 220
   21825:	ff73e5        	call8	20f64 <com_free>
   21828:	3627a2        	l32i	a10, a7, 216
   2182b:	ff73a5        	call8	20f64 <com_free>
   2182e:	3527a2        	l32i	a10, a7, 212
   21831:	ff7325        	call8	20f64 <com_free>
   21834:	3427a2        	l32i	a10, a7, 208
   21837:	ff72e5        	call8	20f64 <com_free>
   2183a:	7128      	l32i.n	a2, a1, 28
   2183c:	221b      	addi.n	a2, a2, 1
   2183e:	025266        	bnei	a2, 5, 21844 <slicecal+0x258>
   21841:	00f206        	j	21c0d <slicecal+0x621>
   21844:	a0f270        	addx4	a15, a2, a7
   21847:	01dfe2        	addmi	a14, a15, 0x100
   2184a:	0d0c      	movi.n	a13, 0
   2184c:	7129      	s32i.n	a2, a1, 28
   2184e:	a1e9      	s32i.n	a14, a1, 40
   21850:	000706        	j	21870 <slicecal+0x284>

00021853 <slicecal+0x267>:
	...

00021855 <slicecal+0x269>:
   21855:	102290        	and	a2, a2, a9
   21858:	2e38      	l32i.n	a3, a14, 8
   2185a:	11a0f2        	movi	a15, 17
   2185d:	f03d      	nop.n
   2185f:	33da      	add.n	a3, a3, a13
   21861:	01ddd2        	addmi	a13, a13, 0x100
   21864:	326322        	s32i	a2, a3, 200
   21867:	112f80        	slli	a2, a15, 8
   2186a:	029d27        	bne	a13, a2, 21870 <slicecal+0x284>
   2186d:	ffdec6        	j	217ec <slicecal+0x200>
   21870:	80a022        	movi	a2, 128
   21873:	2d2a      	add.n	a2, a13, a2
   21875:	61d9      	s32i.n	a13, a1, 24
   21877:	b129      	s32i.n	a2, a1, 44
   21879:	003965        	call8	21c10 <compute_w0_w11>
   2187c:	9128      	l32i.n	a2, a1, 36
   2187e:	352742        	l32i	a4, a7, 212
   21881:	450c      	movi.n	a5, 4
   21883:	000203        	lsi	f0, a2, 0
   21886:	010213        	lsi	f1, a2, 4
   21889:	0a0010        	add.s	f0, f0, f1
   2188c:	0202f3        	lsi	f15, a2, 8
   2188f:	550b      	addi.n	a5, a5, -1
   21891:	043d      	mov.n	a3, a4
   21893:	0a00f0        	add.s	f0, f0, f15
   21896:	004403        	ssi	f0, a4, 0
   21899:	000203        	lsi	f0, a2, 0
   2189c:	010223        	lsi	f2, a2, 4
   2189f:	1a0200        	sub.s	f0, f2, f0
   218a2:	020233        	lsi	f3, a2, 8
   218a5:	0a0030        	add.s	f0, f0, f3
   218a8:	044403        	ssi	f0, a4, 16
   218ab:	000203        	lsi	f0, a2, 0
   218ae:	010243        	lsi	f4, a2, 4
   218b1:	1a0040        	sub.s	f0, f0, f4
   218b4:	020253        	lsi	f5, a2, 8
   218b7:	0a0050        	add.s	f0, f0, f5
   218ba:	024403        	ssi	f0, a4, 8
   218bd:	000203        	lsi	f0, a2, 0
   218c0:	010263        	lsi	f6, a2, 4
   218c3:	fa0060        	neg.s	f0, f0
   218c6:	1a0060        	sub.s	f0, f0, f6
   218c9:	020273        	lsi	f7, a2, 8
   218cc:	0a0070        	add.s	f0, f0, f7
   218cf:	064403        	ssi	f0, a4, 24
   218d2:	000203        	lsi	f0, a2, 0
   218d5:	010283        	lsi	f8, a2, 4
   218d8:	0a0080        	add.s	f0, f0, f8
   218db:	020293        	lsi	f9, a2, 8
   218de:	1a0090        	sub.s	f0, f0, f9
   218e1:	014403        	ssi	f0, a4, 4
   218e4:	000203        	lsi	f0, a2, 0
   218e7:	0102a3        	lsi	f10, a2, 4
   218ea:	1a0a00        	sub.s	f0, f10, f0
   218ed:	0202b3        	lsi	f11, a2, 8
   218f0:	1a00b0        	sub.s	f0, f0, f11
   218f3:	054403        	ssi	f0, a4, 20
   218f6:	000203        	lsi	f0, a2, 0
   218f9:	0102c3        	lsi	f12, a2, 4
   218fc:	1a00c0        	sub.s	f0, f0, f12
   218ff:	0202d3        	lsi	f13, a2, 8
   21902:	1a00d0        	sub.s	f0, f0, f13
   21905:	034403        	ssi	f0, a4, 12
   21908:	018203        	lsip	f0, a2, 4
   2190b:	0182e3        	lsip	f14, a2, 4
   2190e:	fa0060        	neg.s	f0, f0
   21911:	1a00e0        	sub.s	f0, f0, f14
   21914:	0182f3        	lsip	f15, a2, 4
   21917:	1a00f0        	sub.s	f0, f0, f15
   2191a:	074403        	ssi	f0, a4, 28
   2191d:	988576        	loop	a5, 219b9 <slicecal+0x3cd>
   21920:	000203        	lsi	f0, a2, 0
   21923:	010213        	lsi	f1, a2, 4
   21926:	0a0010        	add.s	f0, f0, f1
   21929:	20c332        	addi	a3, a3, 32
   2192c:	020213        	lsi	f1, a2, 8
   2192f:	0a0010        	add.s	f0, f0, f1
   21932:	004303        	ssi	f0, a3, 0
   21935:	000203        	lsi	f0, a2, 0
   21938:	010213        	lsi	f1, a2, 4
   2193b:	1a0100        	sub.s	f0, f1, f0
   2193e:	020213        	lsi	f1, a2, 8
   21941:	0a0010        	add.s	f0, f0, f1
   21944:	044303        	ssi	f0, a3, 16
   21947:	000203        	lsi	f0, a2, 0
   2194a:	010213        	lsi	f1, a2, 4
   2194d:	1a0010        	sub.s	f0, f0, f1
   21950:	020213        	lsi	f1, a2, 8
   21953:	0a0010        	add.s	f0, f0, f1
   21956:	024303        	ssi	f0, a3, 8
   21959:	000213        	lsi	f1, a2, 0
   2195c:	010203        	lsi	f0, a2, 4
   2195f:	fa1160        	neg.s	f1, f1
   21962:	1a0100        	sub.s	f0, f1, f0
   21965:	020213        	lsi	f1, a2, 8
   21968:	0a0010        	add.s	f0, f0, f1
   2196b:	064303        	ssi	f0, a3, 24
   2196e:	000203        	lsi	f0, a2, 0
   21971:	010213        	lsi	f1, a2, 4
   21974:	0a0010        	add.s	f0, f0, f1
   21977:	020213        	lsi	f1, a2, 8
   2197a:	1a0010        	sub.s	f0, f0, f1
   2197d:	014303        	ssi	f0, a3, 4
   21980:	000203        	lsi	f0, a2, 0
   21983:	010213        	lsi	f1, a2, 4
   21986:	1a0100        	sub.s	f0, f1, f0
   21989:	020213        	lsi	f1, a2, 8
   2198c:	1a0010        	sub.s	f0, f0, f1
   2198f:	054303        	ssi	f0, a3, 20
   21992:	000203        	lsi	f0, a2, 0
   21995:	010213        	lsi	f1, a2, 4
   21998:	1a0010        	sub.s	f0, f0, f1
   2199b:	020213        	lsi	f1, a2, 8
   2199e:	1a0010        	sub.s	f0, f0, f1
   219a1:	034303        	ssi	f0, a3, 12
   219a4:	018203        	lsip	f0, a2, 4
   219a7:	fa0060        	neg.s	f0, f0
   219aa:	018213        	lsip	f1, a2, 4
   219ad:	1a0010        	sub.s	f0, f0, f1
   219b0:	018213        	lsip	f1, a2, 4
   219b3:	1a0010        	sub.s	f0, f0, f1
   219b6:	074303        	ssi	f0, a3, 28

000219b9 <slicecal+0x3cd>:
   219b9:	060c      	movi.n	a6, 0
   219bb:	412960        	srli	a2, a6, 9
   219be:	245660        	extui	a5, a6, 6, 3
   219c1:	a02240        	addx4	a2, a2, a4
   219c4:	a05540        	addx4	a5, a5, a4
   219c7:	000203        	lsi	f0, a2, 0
   219ca:	0805f3        	lsi	f15, a5, 32
   219cd:	1c0c      	movi.n	a12, 1
   219cf:	0a00f0        	add.s	f0, f0, f15
   219d2:	24b360        	extui	a11, a6, 3, 3
   219d5:	11dc40        	slli	a13, a12, 12
   219d8:	362732        	l32i	a3, a7, 216
   219db:	a0fb40        	addx4	a15, a11, a4
   219de:	245060        	extui	a5, a6, 0, 3
   219e1:	ed0b      	addi.n	a14, a13, -1
   219e3:	661b      	addi.n	a6, a6, 1
   219e5:	042d      	mov.n	a2, a4
   219e7:	100f13        	lsi	f1, a15, 64
   219ea:	204660        	or	a4, a6, a6
   219ed:	318e76        	loop	a14, 21a22 <slicecal+0x436>
   219f0:	416940        	srli	a6, a4, 9
   219f3:	0a0010        	add.s	f0, f0, f1
   219f6:	a07620        	addx4	a7, a6, a2
   219f9:	a05520        	addx4	a5, a5, a2
   219fc:	180513        	lsi	f1, a5, 96
   219ff:	0a0010        	add.s	f0, f0, f1
   21a02:	245040        	extui	a5, a4, 0, 3
   21a05:	246640        	extui	a6, a4, 6, 3
   21a08:	a06620        	addx4	a6, a6, a2
   21a0b:	01c303        	ssip	f0, a3, 4
   21a0e:	080603        	lsi	f0, a6, 32
   21a11:	000713        	lsi	f1, a7, 0
   21a14:	0a0100        	add.s	f0, f1, f0
   21a17:	246340        	extui	a6, a4, 3, 3
   21a1a:	a06620        	addx4	a6, a6, a2
   21a1d:	441b      	addi.n	a4, a4, 1
   21a1f:	100613        	lsi	f1, a6, 64
   21a22:	0a0010        	add.s	f0, f0, f1
   21a25:	a02520        	addx4	a2, a5, a2
   21a28:	1802f3        	lsi	f15, a2, 96
   21a2b:	0a00f0        	add.s	f0, f0, f15
   21a2e:	01c303        	ssip	f0, a3, 4
   21a31:	007a25        	call8	221d4 <compute_sop_lut>
   21a34:	009365        	call8	2236c <compute_dither_coeff>
   21a37:	006165        	call8	2204c <compute_offset_coeff>
   21a3a:	fc7b71        	l32r	a7, 20c28 (10ce0 <dither_coeff>)
   21a3d:	61d8      	l32i.n	a13, a1, 24
   21a3f:	a1e8      	l32i.n	a14, a1, 40
   21a41:	b158      	l32i.n	a5, a1, 44
   21a43:	f97c      	movi.n	a9, -1
   21a45:	fb7c      	movi.n	a11, -1
   21a47:	c30c      	movi.n	a3, 12
   21a49:	20c722        	addi	a2, a7, 32
   21a4c:	060c      	movi.n	a6, 0
   21a4e:	fa1030        	const.s	f1, 0
   21a51:	00ae82        	movi	a8, 0xfffffe00
   21a54:	419f90        	srli	a9, a9, 15
   21a57:	1a0c      	movi.n	a10, 1
   21a59:	01bbf0        	slli	a11, a11, 17
   21a5c:	00a2c2        	movi	a12, 0x200
   21a5f:	080123        	lsi	f2, a1, 32
   21a62:	2d8376        	loop	a3, 21a93 <slicecal+0x4a7>
   21a65:	018203        	lsip	f0, a2, 4
   21a68:	4b0010        	olt.s	b0, f0, f1
   21a6b:	030c      	movi.n	a3, 0
   21a6d:	1a1076        	bt	b0, 21a8b <slicecal+0x49f>
   21a70:	2a0020        	mul.s	f0, f0, f2
   21a73:	8a3000        	round.s	a3, f0, 0
   21a76:	050b37        	bnone	a11, a3, 21a7f <slicecal+0x493>
   21a79:	1043b0        	and	a4, a3, a11
   21a7c:	0594b7        	bne	a4, a11, 21a85 <slicecal+0x499>

00021a7f <slicecal+0x493>:
   21a7f:	103390        	and	a3, a3, a9
   21a82:	000146        	j	21a8b <slicecal+0x49f>

00021a85 <slicecal+0x499>:
   21a85:	723640        	salt	a3, a6, a4
   21a88:	933930        	movnez	a3, a9, a3
   21a8b:	2e48      	l32i.n	a4, a14, 8
   21a8d:	445a      	add.n	a4, a4, a5
   21a8f:	554b      	addi.n	a5, a5, 4
   21a91:	0439      	s32i.n	a3, a4, 0

00021a93 <slicecal+0x4a7>:
   21a93:	042c      	movi.n	a4, 32
   21a95:	50c722        	addi	a2, a7, 80
   21a98:	0d3d      	mov.n	a3, a13
   21a9a:	288476        	loop	a4, 21ac6 <slicecal+0x4da>
   21a9d:	018203        	lsip	f0, a2, 4
   21aa0:	2a0020        	mul.s	f0, f0, f2
   21aa3:	8a4000        	round.s	a4, f0, 0
   21aa6:	050847        	bnone	a8, a4, 21aaf <slicecal+0x4c3>
   21aa9:	105480        	and	a5, a4, a8
   21aac:	059587        	bne	a5, a8, 21ab5 <slicecal+0x4c9>

00021aaf <slicecal+0x4c3>:
   21aaf:	944040        	extui	a4, a4, 0, 10
   21ab2:	000206        	j	21abe <slicecal+0x4d2>

00021ab5 <slicecal+0x4c9>:
   21ab5:	7255a0        	salt	a5, a5, a10
   21ab8:	ffa142        	movi	a4, 0x1ff
   21abb:	934c50        	movnez	a4, a12, a5
   21abe:	2e58      	l32i.n	a5, a14, 8
   21ac0:	553a      	add.n	a5, a5, a3
   21ac2:	334b      	addi.n	a3, a3, 4
   21ac4:	0549      	s32i.n	a4, a5, 0

00021ac6 <slicecal+0x4da>:
   21ac6:	000703        	lsi	f0, a7, 0
   21ac9:	4b0010        	olt.s	b0, f0, f1
   21acc:	00a022        	movi	a2, 0
   21acf:	00a032        	movi	a3, 0
   21ad2:	1c1076        	bt	b0, 21af2 <slicecal+0x506>
   21ad5:	2a0020        	mul.s	f0, f0, f2
   21ad8:	8a3000        	round.s	a3, f0, 0
   21adb:	050b37        	bnone	a11, a3, 21ae4 <slicecal+0x4f8>
   21ade:	1043b0        	and	a4, a3, a11
   21ae1:	0794b7        	bne	a4, a11, 21aec <slicecal+0x500>

00021ae4 <slicecal+0x4f8>:
   21ae4:	103390        	and	a3, a3, a9
   21ae7:	0001c6        	j	21af2 <slicecal+0x506>

00021aea <slicecal+0x4fe>:
	...

00021aec <slicecal+0x500>:
   21aec:	723640        	salt	a3, a6, a4
   21aef:	933930        	movnez	a3, a9, a3
   21af2:	2e48      	l32i.n	a4, a14, 8
   21af4:	44da      	add.n	a4, a4, a13
   21af6:	2c6432        	s32i	a3, a4, 176
   21af9:	010703        	lsi	f0, a7, 4
   21afc:	4b0010        	olt.s	b0, f0, f1
   21aff:	1b1076        	bt	b0, 21b1e <slicecal+0x532>
   21b02:	2a0020        	mul.s	f0, f0, f2
   21b05:	8a2000        	round.s	a2, f0, 0
   21b08:	050b27        	bnone	a11, a2, 21b11 <slicecal+0x525>
   21b0b:	1032b0        	and	a3, a2, a11
   21b0e:	0693b7        	bne	a3, a11, 21b18 <slicecal+0x52c>
   21b11:	102290        	and	a2, a2, a9
   21b14:	000186        	j	21b1e <slicecal+0x532>

00021b17 <slicecal+0x52b>:
	...

00021b18 <slicecal+0x52c>:
   21b18:	722630        	salt	a2, a6, a3
   21b1b:	932920        	movnez	a2, a9, a2
   21b1e:	2e38      	l32i.n	a3, a14, 8
   21b20:	f3da      	add.n	a15, a3, a13
   21b22:	2d6f22        	s32i	a2, a15, 180
   21b25:	020703        	lsi	f0, a7, 8
   21b28:	4b0010        	olt.s	b0, f0, f1
   21b2b:	020c      	movi.n	a2, 0
   21b2d:	030c      	movi.n	a3, 0
   21b2f:	1b1076        	bt	b0, 21b4e <slicecal+0x562>
   21b32:	2a0020        	mul.s	f0, f0, f2
   21b35:	8a3000        	round.s	a3, f0, 0
   21b38:	050b37        	bnone	a11, a3, 21b41 <slicecal+0x555>
   21b3b:	1043b0        	and	a4, a3, a11
   21b3e:	0694b7        	bne	a4, a11, 21b48 <slicecal+0x55c>
   21b41:	103390        	and	a3, a3, a9
   21b44:	000186        	j	21b4e <slicecal+0x562>

00021b47 <slicecal+0x55b>:
	...

00021b48 <slicecal+0x55c>:
   21b48:	723640        	salt	a3, a6, a4
   21b4b:	933930        	movnez	a3, a9, a3
   21b4e:	2e48      	l32i.n	a4, a14, 8
   21b50:	44da      	add.n	a4, a4, a13
   21b52:	2e6432        	s32i	a3, a4, 184
   21b55:	030703        	lsi	f0, a7, 12
   21b58:	4b0010        	olt.s	b0, f0, f1
   21b5b:	1b1076        	bt	b0, 21b7a <slicecal+0x58e>
   21b5e:	2a0020        	mul.s	f0, f0, f2
   21b61:	8a2000        	round.s	a2, f0, 0
   21b64:	050b27        	bnone	a11, a2, 21b6d <slicecal+0x581>
   21b67:	1032b0        	and	a3, a2, a11
   21b6a:	0693b7        	bne	a3, a11, 21b74 <slicecal+0x588>
   21b6d:	102290        	and	a2, a2, a9
   21b70:	000186        	j	21b7a <slicecal+0x58e>

00021b73 <slicecal+0x587>:
	...

00021b74 <slicecal+0x588>:
   21b74:	722630        	salt	a2, a6, a3
   21b77:	932920        	movnez	a2, a9, a2
   21b7a:	2e38      	l32i.n	a3, a14, 8
   21b7c:	f3da      	add.n	a15, a3, a13
   21b7e:	2f6f22        	s32i	a2, a15, 188
   21b81:	040703        	lsi	f0, a7, 16
   21b84:	4b0010        	olt.s	b0, f0, f1
   21b87:	020c      	movi.n	a2, 0
   21b89:	030c      	movi.n	a3, 0
   21b8b:	1b1076        	bt	b0, 21baa <slicecal+0x5be>
   21b8e:	2a0020        	mul.s	f0, f0, f2
   21b91:	8a3000        	round.s	a3, f0, 0
   21b94:	050b37        	bnone	a11, a3, 21b9d <slicecal+0x5b1>
   21b97:	1043b0        	and	a4, a3, a11
   21b9a:	0694b7        	bne	a4, a11, 21ba4 <slicecal+0x5b8>
   21b9d:	103390        	and	a3, a3, a9
   21ba0:	000186        	j	21baa <slicecal+0x5be>

00021ba3 <slicecal+0x5b7>:
	...

00021ba4 <slicecal+0x5b8>:
   21ba4:	723640        	salt	a3, a6, a4
   21ba7:	933930        	movnez	a3, a9, a3
   21baa:	2e48      	l32i.n	a4, a14, 8
   21bac:	ffaff2        	movi	a15, -1
   21baf:	8044d0        	add	a4, a4, a13
   21bb2:	306432        	s32i	a3, a4, 192
   21bb5:	050703        	lsi	f0, a7, 20
   21bb8:	4b0010        	olt.s	b0, f0, f1
   21bbb:	114f00        	slli	a4, a15, 16
   21bbe:	1c1076        	bt	b0, 21bde <slicecal+0x5f2>
   21bc1:	2a0020        	mul.s	f0, f0, f2
   21bc4:	8a2000        	round.s	a2, f0, 0
   21bc7:	050b27        	bnone	a11, a2, 21bd0 <slicecal+0x5e4>
   21bca:	1032b0        	and	a3, a2, a11
   21bcd:	0793b7        	bne	a3, a11, 21bd8 <slicecal+0x5ec>
   21bd0:	102290        	and	a2, a2, a9
   21bd3:	0001c6        	j	21bde <slicecal+0x5f2>

00021bd6 <slicecal+0x5ea>:
	...

00021bd8 <slicecal+0x5ec>:
   21bd8:	722630        	salt	a2, a6, a3
   21bdb:	932920        	movnez	a2, a9, a2
   21bde:	2e38      	l32i.n	a3, a14, 8
   21be0:	33da      	add.n	a3, a3, a13
   21be2:	316322        	s32i	a2, a3, 196
   21be5:	410703        	lsi	f0, a7, 0x104
   21be8:	2a0020        	mul.s	f0, f0, f2
   21beb:	f57c      	movi.n	a5, -1
   21bed:	160c      	movi.n	a6, 1
   21bef:	118600        	slli	a8, a6, 16
   21bf2:	8a2000        	round.s	a2, f0, 0
   21bf5:	02c247        	bnall	a2, a4, 21bfb <slicecal+0x60f>
   21bf8:	ff1646        	j	21855 <slicecal+0x269>
   21bfb:	103240        	and	a3, a2, a4
   21bfe:	c53316        	beqz	a3, 21855 <slicecal+0x269>
   21c01:	7233a0        	salt	a3, a3, a10
   21c04:	f42050        	extui	a2, a5, 0, 16
   21c07:	932830        	movnez	a2, a8, a3
   21c0a:	ff1286        	j	21858 <slicecal+0x26c>

00021c0d <slicecal+0x621>:
   21c0d:	f01d      	retw.n

00021c0f <slicecal+0x623>:
	...

00021c10 <compute_w0_w11>:
   21c10:	006136        	entry	a1, 48
   21c13:	fc0a61        	l32r	a6, 20c3c (10dc4 <p_cnt>)
   21c16:	fc0851        	l32r	a5, 20c38 (10dc0 <p_acc>)
   21c19:	140c      	movi.n	a4, 1
   21c1b:	0688      	l32i.n	a8, a6, 0
   21c1d:	11f450        	slli	a15, a4, 11
   21c20:	0538      	l32i.n	a3, a5, 0
   21c22:	4173f0        	srli	a7, a15, 3
   21c25:	020c      	movi.n	a2, 0
   21c27:	084d      	mov.n	a4, a8
   21c29:	259776        	loopnez	a7, 21c52 <compute_w0_w11+0x42>
   21c2c:	0329      	s32i.n	a2, a3, 0
   21c2e:	7429      	s32i.n	a2, a4, 28
   21c30:	7329      	s32i.n	a2, a3, 28
   21c32:	6429      	s32i.n	a2, a4, 24
   21c34:	0429      	s32i.n	a2, a4, 0
   21c36:	6329      	s32i.n	a2, a3, 24
   21c38:	5429      	s32i.n	a2, a4, 20
   21c3a:	5329      	s32i.n	a2, a3, 20
   21c3c:	1329      	s32i.n	a2, a3, 4
   21c3e:	4429      	s32i.n	a2, a4, 16
   21c40:	4329      	s32i.n	a2, a3, 16
   21c42:	3429      	s32i.n	a2, a4, 12
   21c44:	1429      	s32i.n	a2, a4, 4
   21c46:	3329      	s32i.n	a2, a3, 12
   21c48:	2429      	s32i.n	a2, a4, 8
   21c4a:	20c442        	addi	a4, a4, 32
   21c4d:	2329      	s32i.n	a2, a3, 8
   21c4f:	20c332        	addi	a3, a3, 32

00021c52 <compute_w0_w11+0x42>:
   21c52:	fbfb91        	l32r	a9, 20c40 (10000 <ana_ext_info>)
   21c55:	fbfb41        	l32r	a4, 20c44 (deadbeaf <xthals_hw_configid0+0x1ead2c29>)
   21c58:	fbfc71        	l32r	a7, 20c48 (10dbc <p_wgt_cal_lut>)
   21c5b:	ffa032        	movi	a3, 255
   21c5e:	820c      	movi.n	a2, 8
   21c60:	efd332        	addmi	a3, a3, 0xffffef00
   21c63:	fa0330        	const.s	f0, 3
   21c66:	998b      	addi.n	a9, a9, 8
   21c68:	000206        	j	21c74 <compute_w0_w11+0x64>

00021c6b <compute_w0_w11+0x5b>:
	...

00021c6d <compute_w0_w11+0x5d>:
   21c6d:	220b      	addi.n	a2, a2, -1
   21c6f:	99cb      	addi.n	a9, a9, 12
   21c71:	058216        	beqz	a2, 21ccd <compute_w0_w11+0xbd>
   21c74:	09a8      	l32i.n	a10, a9, 0
   21c76:	ff3a16        	beqz	a10, 21c6d <compute_w0_w11+0x5d>
   21c79:	0a0c      	movi.n	a10, 0
   21c7b:	000dc6        	j	21cb6 <compute_w0_w11+0xa6>

00021c7e <compute_w0_w11+0x6e>:
   21c7e:	000000                                        ...

00021c81 <compute_w0_w11+0x71>:
   21c81:	0e40b0        	read_ipq	a11
   21c84:	0788      	l32i.n	a8, a7, 0
   21c86:	a4cab0        	extui	a12, a11, 10, 11
   21c89:	34e6b0        	extui	a14, a11, 6, 4
   21c8c:	a0dc80        	addx4	a13, a12, a8
   21c8f:	0dc8      	l32i.n	a12, a13, 0
   21c91:	0688      	l32i.n	a8, a6, 0
   21c93:	05d8      	l32i.n	a13, a5, 0
   21c95:	beca      	add.n	a11, a14, a12
   21c97:	a0cb80        	addx4	a12, a11, a8
   21c9a:	0ce8      	l32i.n	a14, a12, 0
   21c9c:	a0bbd0        	addx4	a11, a11, a13
   21c9f:	000b13        	lsi	f1, a11, 0
   21ca2:	fe1b      	addi.n	a15, a14, 1
   21ca4:	006cf2        	s32i	a15, a12, 0
   21ca7:	0a1100        	add.s	f1, f1, f0
   21caa:	0029c2        	l32i	a12, a9, 0
   21cad:	01caa2        	addi	a10, a10, 1
   21cb0:	004b13        	ssi	f1, a11, 0
   21cb3:	b6bac7        	bgeu	a10, a12, 21c6d <compute_w0_w11+0x5d>
   21cb6:	038d      	mov.n	a8, a3
   21cb8:	f03d      	nop.n
   21cba:	0c8076        	loop	a0, 21cca <compute_w0_w11+0xba>
   21cbd:	881b      	addi.n	a8, a8, 1
   21cbf:	04bd      	mov.n	a11, a4
   21cc1:	fbf816        	beqz	a8, 21c84 <compute_w0_w11+0x74>
   21cc4:	0e50b0        	check_ipq	a11
   21cc7:	fb6b16        	beqz	a11, 21c81 <compute_w0_w11+0x71>

00021cca <compute_w0_w11+0xba>:
   21cca:	fffa86        	j	21cb8 <compute_w0_w11+0xa8>

00021ccd <compute_w0_w11+0xbd>:
   21ccd:	fbdff1        	l32r	a15, 20c4c (10dc8 <p_valid_flag>)
   21cd0:	130c      	movi.n	a3, 1
   21cd2:	0568      	l32i.n	a6, a5, 0
   21cd4:	0f78      	l32i.n	a7, a15, 0
   21cd6:	113350        	slli	a3, a3, 11
   21cd9:	020c      	movi.n	a2, 0
   21cdb:	368376        	loop	a3, 21d15 <compute_w0_w11+0x105>
   21cde:	382a      	add.n	a3, a8, a2
   21ce0:	0338      	l32i.n	a3, a3, 0
   21ce2:	fa2130        	const.s	f2, 1
   21ce5:	fae200        	mov.s	f14, f2
   21ce8:	13ac      	beqz.n	a3, 21d0d <compute_w0_w11+0xfd>
   21cea:	dad300        	ufloat.s	f13, a3, 0
   21ced:	fa0200        	mov.s	f0, f2
   21cf0:	fa1d80        	recip0.s	f1, f13
   21cf3:	08f620        	lsx	f15, a6, a2
   21cf6:	5a2d10        	msub.s	f2, f13, f1
   21cf9:	6a1120        	maddn.s	f1, f1, f2
   21cfc:	5aed10        	msub.s	f14, f13, f1
   21cff:	6a11e0        	maddn.s	f1, f1, f14
   21d02:	2a11f0        	mul.s	f1, f1, f15
   21d05:	481620        	ssx	f1, a6, a2
   21d08:	000106        	j	21d10 <compute_w0_w11+0x100>

00021d0b <compute_w0_w11+0xfb>:
	...

00021d0d <compute_w0_w11+0xfd>:
   21d0d:	fa0030        	const.s	f0, 0
   21d10:	480720        	ssx	f0, a7, a2
   21d13:	224b      	addi.n	a2, a2, 4

00021d15 <compute_w0_w11+0x105>:
   21d15:	fbce81        	l32r	a8, 20c50 (10d00 <w0_w11>)
   21d18:	020c      	movi.n	a2, 0
   21d1a:	1cd632        	addmi	a3, a6, 0x1c00
   21d1d:	1cd742        	addmi	a4, a7, 0x1c00
   21d20:	0629      	s32i.n	a2, a6, 0
   21d22:	0729      	s32i.n	a2, a7, 0
   21d24:	ff6322        	s32i	a2, a3, 0x3fc
   21d27:	ff6422        	s32i	a2, a4, 0x3fc
   21d2a:	390c      	movi.n	a9, 3
   21d2c:	faf030        	const.s	f15, 0
   21d2f:	00a2a2        	movi	a10, 0x200
   21d32:	000306        	j	21d42 <compute_w0_w11+0x132>

00021d35 <compute_w0_w11+0x125>:
   21d35:	990b      	addi.n	a9, a9, -1
   21d37:	08d662        	addmi	a6, a6, 0x800
   21d3a:	08d772        	addmi	a7, a7, 0x800
   21d3d:	884b      	addi.n	a8, a8, 4
   21d3f:	12e916        	beqz	a9, 21e71 <compute_w0_w11+0x261>
   21d42:	08d732        	addmi	a3, a7, 0x800
   21d45:	08d6b2        	addmi	a11, a6, 0x800
   21d48:	fa1030        	const.s	f1, 0
   21d4b:	000773        	lsi	f7, a7, 0
   21d4e:	000393        	lsi	f9, a3, 0
   21d51:	000683        	lsi	f8, a6, 0
   21d54:	000ba3        	lsi	f10, a11, 0
   21d57:	fa4030        	const.s	f4, 0
   21d5a:	fa2030        	const.s	f2, 0
   21d5d:	fa5030        	const.s	f5, 0
   21d60:	fa0030        	const.s	f0, 0
   21d63:	fa3030        	const.s	f3, 0
   21d66:	4a1790        	madd.s	f1, f7, f9
   21d69:	2a7790        	mul.s	f7, f7, f9
   21d6c:	1a88a0        	sub.s	f8, f8, f10
   21d6f:	474b      	addi.n	a4, a7, 4
   21d71:	564b      	addi.n	a5, a6, 4
   21d73:	0184b3        	lsip	f11, a4, 4
   21d76:	0103c3        	lsi	f12, a3, 4
   21d79:	0185e3        	lsip	f14, a5, 4
   21d7c:	010bd3        	lsi	f13, a11, 4
   21d7f:	1a9ed0        	sub.s	f9, f14, f13
   21d82:	4a3bc0        	madd.s	f3, f11, f12
   21d85:	2abbc0        	mul.s	f11, f11, f12
   21d88:	4a0780        	madd.s	f0, f7, f8
   21d8b:	0203c3        	lsi	f12, a3, 8
   21d8e:	018483        	lsip	f8, a4, 4
   21d91:	020be3        	lsi	f14, a11, 8
   21d94:	0185d3        	lsip	f13, a5, 4
   21d97:	4a58c0        	madd.s	f5, f8, f12
   21d9a:	2ac8c0        	mul.s	f12, f8, f12
   21d9d:	1a8de0        	sub.s	f8, f13, f14
   21da0:	4a2b90        	madd.s	f2, f11, f9
   21da3:	fa7030        	const.s	f7, 0
   21da6:	0303e3        	lsi	f14, a3, 12
   21da9:	0184b3        	lsip	f11, a4, 4
   21dac:	030bd3        	lsi	f13, a11, 12
   21daf:	fa6030        	const.s	f6, 0
   21db2:	4a7be0        	madd.s	f7, f11, f14
   21db5:	2aabe0        	mul.s	f10, f11, f14
   21db8:	0185e3        	lsip	f14, a5, 4
   21dbb:	1abed0        	sub.s	f11, f14, f13
   21dbe:	4a4c80        	madd.s	f4, f12, f8
   21dc1:	4122a0        	srli	a2, a10, 2
   21dc4:	220b      	addi.n	a2, a2, -1
   21dc6:	698276        	loop	a2, 21e33 <compute_w0_w11+0x223>
   21dc9:	000493        	lsi	f9, a4, 0
   21dcc:	08d422        	addmi	a2, a4, 0x800
   21dcf:	4a6ab0        	madd.s	f6, f10, f11
   21dd2:	0002a3        	lsi	f10, a2, 0
   21dd5:	000583        	lsi	f8, a5, 0
   21dd8:	08d532        	addmi	a3, a5, 0x800
   21ddb:	0003b3        	lsi	f11, a3, 0
   21dde:	1a88b0        	sub.s	f8, f8, f11
   21de1:	2ac9a0        	mul.s	f12, f9, f10
   21de4:	444b      	addi.n	a4, a4, 4
   21de6:	554b      	addi.n	a5, a5, 4
   21de8:	4a19a0        	madd.s	f1, f9, f10
   21deb:	0184a3        	lsip	f10, a4, 4
   21dee:	0102d3        	lsi	f13, a2, 4
   21df1:	2a9ad0        	mul.s	f9, f10, f13
   21df4:	0185b3        	lsip	f11, a5, 4
   21df7:	0103e3        	lsi	f14, a3, 4
   21dfa:	1abbe0        	sub.s	f11, f11, f14
   21dfd:	4a3ad0        	madd.s	f3, f10, f13
   21e00:	0184e3        	lsip	f14, a4, 4
   21e03:	0202d3        	lsi	f13, a2, 8
   21e06:	4a29b0        	madd.s	f2, f9, f11
   21e09:	2abed0        	mul.s	f11, f14, f13
   21e0c:	0185a3        	lsip	f10, a5, 4
   21e0f:	020393        	lsi	f9, a3, 8
   21e12:	1aaa90        	sub.s	f10, f10, f9
   21e15:	4a5ed0        	madd.s	f5, f14, f13
   21e18:	018493        	lsip	f9, a4, 4
   21e1b:	0302d3        	lsi	f13, a2, 12
   21e1e:	4a4ba0        	madd.s	f4, f11, f10
   21e21:	2aa9d0        	mul.s	f10, f9, f13
   21e24:	0185b3        	lsip	f11, a5, 4
   21e27:	0303e3        	lsi	f14, a3, 12
   21e2a:	1abbe0        	sub.s	f11, f11, f14
   21e2d:	4a0c80        	madd.s	f0, f12, f8
   21e30:	4a79d0        	madd.s	f7, f9, f13

00021e33 <compute_w0_w11+0x223>:
   21e33:	4a6ab0        	madd.s	f6, f10, f11
   21e36:	0a1130        	add.s	f1, f1, f3
   21e39:	0a5570        	add.s	f5, f5, f7
   21e3c:	0a0020        	add.s	f0, f0, f2
   21e3f:	0a4460        	add.s	f4, f4, f6
   21e42:	fa3130        	const.s	f3, 1
   21e45:	0a1150        	add.s	f1, f1, f5
   21e48:	fae300        	mov.s	f14, f3
   21e4b:	0a0040        	add.s	f0, f0, f4
   21e4e:	2b01f0        	oeq.s	b0, f1, f15
   21e51:	020076        	bf	b0, 21e57 <compute_w0_w11+0x247>
   21e54:	ffb746        	j	21d35 <compute_w0_w11+0x125>
   21e57:	fa2180        	recip0.s	f2, f1
   21e5a:	5a3120        	msub.s	f3, f1, f2
   21e5d:	6a2230        	maddn.s	f2, f2, f3
   21e60:	5ae120        	msub.s	f14, f1, f2
   21e63:	6a22e0        	maddn.s	f2, f2, f14
   21e66:	2a0200        	mul.s	f0, f2, f0
   21e69:	004803        	ssi	f0, a8, 0
   21e6c:	ffb146        	j	21d35 <compute_w0_w11+0x125>

00021e6f <compute_w0_w11+0x25f>:
	...

00021e71 <compute_w0_w11+0x261>:
   21e71:	00a2a2        	movi	a10, 0x200
   21e74:	0b0c      	movi.n	a11, 0
   21e76:	000365        	call8	21eac <slicecal_fold_acc_and_compute_wgts>
   21e79:	80a0a2        	movi	a10, 128
   21e7c:	03a0b2        	movi	a11, 3
   21e7f:	0002e5        	call8	21eac <slicecal_fold_acc_and_compute_wgts>
   21e82:	0a2c      	movi.n	a10, 32
   21e84:	6b0c      	movi.n	a11, 6
   21e86:	000265        	call8	21eac <slicecal_fold_acc_and_compute_wgts>
   21e89:	fb7121        	l32r	a2, 20c50 (10d00 <w0_w11>)
   21e8c:	fa1330        	const.s	f1, 3
   21e8f:	c30c      	movi.n	a3, 12
   21e91:	000203        	lsi	f0, a2, 0
   21e94:	2a2010        	mul.s	f2, f0, f1
   21e97:	330b      	addi.n	a3, a3, -1
   21e99:	088376        	loop	a3, 21ea5 <compute_w0_w11+0x295>
   21e9c:	010203        	lsi	f0, a2, 4
   21e9f:	01c223        	ssip	f2, a2, 4
   21ea2:	2a2010        	mul.s	f2, f0, f1

00021ea5 <compute_w0_w11+0x295>:
   21ea5:	01c223        	ssip	f2, a2, 4
   21ea8:	f01d      	retw.n

00021eaa <compute_w0_w11+0x29a>:
	...

00021eac <slicecal_fold_acc_and_compute_wgts>:
   21eac:	004136        	entry	a1, 32
   21eaf:	fb6751        	l32r	a5, 20c4c (10dc8 <p_valid_flag>)
   21eb2:	fb6161        	l32r	a6, 20c38 (10dc0 <p_acc>)
   21eb5:	fb6641        	l32r	a4, 20c50 (10d00 <w0_w11>)
   21eb8:	0c5216        	beqz	a2, 21f81 <slicecal_fold_acc_and_compute_wgts+0xd5>
   21ebb:	002672        	l32i	a7, a6, 0
   21ebe:	002592        	l32i	a9, a5, 0
   21ec1:	90d220        	addx2	a13, a2, a2
   21ec4:	7fa0c2        	movi	a12, 127
   21ec7:	a08340        	addx4	a8, a3, a4
   21eca:	11a2e0        	slli	a10, a2, 2
   21ecd:	11b2d0        	slli	a11, a2, 3
   21ed0:	fa0030        	const.s	f0, 0
   21ed3:	01cc90        	slli	a12, a12, 23
   21ed6:	11dde0        	slli	a13, a13, 2
   21ed9:	a48276        	loop	a2, 21f81 <slicecal_fold_acc_and_compute_wgts+0xd5>
   21edc:	000713        	lsi	f1, a7, 0
   21edf:	000823        	lsi	f2, a8, 0
   21ee2:	1a1120        	sub.s	f1, f1, f2
   21ee5:	010843        	lsi	f4, a8, 4
   21ee8:	020853        	lsi	f5, a8, 8
   21eeb:	000963        	lsi	f6, a9, 0
   21eee:	1a1140        	sub.s	f1, f1, f4
   21ef1:	1a1150        	sub.s	f1, f1, f5
   21ef4:	2a1160        	mul.s	f1, f1, f6
   21ef7:	004713        	ssi	f1, a7, 0
   21efa:	0817a0        	lsx	f1, a7, a10
   21efd:	010873        	lsi	f7, a8, 4
   21f00:	1a1170        	sub.s	f1, f1, f7
   21f03:	020883        	lsi	f8, a8, 8
   21f06:	0899a0        	lsx	f9, a9, a10
   21f09:	1a1180        	sub.s	f1, f1, f8
   21f0c:	2a1190        	mul.s	f1, f1, f9
   21f0f:	4817a0        	ssx	f1, a7, a10
   21f12:	0817b0        	lsx	f1, a7, a11
   21f15:	0208a3        	lsi	f10, a8, 8
   21f18:	1a11a0        	sub.s	f1, f1, f10
   21f1b:	08b9b0        	lsx	f11, a9, a11
   21f1e:	2a11b0        	mul.s	f1, f1, f11
   21f21:	4817b0        	ssx	f1, a7, a11
   21f24:	0817d0        	lsx	f1, a7, a13
   21f27:	08c9d0        	lsx	f12, a9, a13
   21f2a:	2a11c0        	mul.s	f1, f1, f12
   21f2d:	4817d0        	ssx	f1, a7, a13
   21f30:	000913        	lsi	f1, a9, 0
   21f33:	08d9a0        	lsx	f13, a9, a10
   21f36:	0a11d0        	add.s	f1, f1, f13
   21f39:	08e9b0        	lsx	f14, a9, a11
   21f3c:	08f9d0        	lsx	f15, a9, a13
   21f3f:	fa3130        	const.s	f3, 1
   21f42:	0a11e0        	add.s	f1, f1, f14
   21f45:	fae300        	mov.s	f14, f3
   21f48:	0a11f0        	add.s	f1, f1, f15
   21f4b:	2b0100        	oeq.s	b0, f1, f0
   21f4e:	2b1076        	bt	b0, 21f7d <slicecal_fold_acc_and_compute_wgts+0xd1>
   21f51:	fa2180        	recip0.s	f2, f1
   21f54:	09c9      	s32i.n	a12, a9, 0
   21f56:	5a3120        	msub.s	f3, f1, f2
   21f59:	000743        	lsi	f4, a7, 0
   21f5c:	0857a0        	lsx	f5, a7, a10
   21f5f:	0a4450        	add.s	f4, f4, f5
   21f62:	6a2230        	maddn.s	f2, f2, f3
   21f65:	08d7b0        	lsx	f13, a7, a11
   21f68:	08f7d0        	lsx	f15, a7, a13
   21f6b:	0a34d0        	add.s	f3, f4, f13
   21f6e:	5ae120        	msub.s	f14, f1, f2
   21f71:	0a13f0        	add.s	f1, f3, f15
   21f74:	6a22e0        	maddn.s	f2, f2, f14
   21f77:	2a1210        	mul.s	f1, f2, f1
   21f7a:	004713        	ssi	f1, a7, 0

00021f7d <slicecal_fold_acc_and_compute_wgts+0xd1>:
   21f7d:	994b      	addi.n	a9, a9, 4
   21f7f:	774b      	addi.n	a7, a7, 4

00021f81 <slicecal_fold_acc_and_compute_wgts+0xd5>:
   21f81:	0588      	l32i.n	a8, a5, 0
   21f83:	0698      	l32i.n	a9, a6, 0
   21f85:	417220        	srli	a7, a2, 2
   21f88:	a03340        	addx4	a3, a3, a4
   21f8b:	3a0c      	movi.n	a10, 3
   21f8d:	fac030        	const.s	f12, 0
   21f90:	1127e0        	slli	a2, a7, 2
   21f93:	b3cb      	addi.n	a11, a3, 12
   21f95:	000306        	j	21fa5 <slicecal_fold_acc_and_compute_wgts+0xf9>

00021f98 <slicecal_fold_acc_and_compute_wgts+0xec>:
	...

00021f9a <slicecal_fold_acc_and_compute_wgts+0xee>:
   21f9a:	aa0b      	addi.n	a10, a10, -1
   21f9c:	882a      	add.n	a8, a8, a2
   21f9e:	992a      	add.n	a9, a9, a2
   21fa0:	bb4b      	addi.n	a11, a11, 4
   21fa2:	0a3a16        	beqz	a10, 22049 <slicecal_fold_acc_and_compute_wgts+0x19d>
   21fa5:	ff1716        	beqz	a7, 21f9a <slicecal_fold_acc_and_compute_wgts+0xee>
   21fa8:	fa1c00        	mov.s	f1, f12
   21fab:	093d      	mov.n	a3, a9
   21fad:	084d      	mov.n	a4, a8
   21faf:	fa2c00        	mov.s	f2, f12
   21fb2:	415170        	srli	a5, a7, 1
   21fb5:	1f6707        	bbci	a7, 0, 21fd8 <slicecal_fold_acc_and_compute_wgts+0x12c>
   21fb8:	644b      	addi.n	a6, a4, 4
   21fba:	180420        	lsxp	f0, a4, a2
   21fbd:	c34b      	addi.n	a12, a3, 4
   21fbf:	183320        	lsxp	f3, a3, a2
   21fc2:	000443        	lsi	f4, a4, 0
   21fc5:	000353        	lsi	f5, a3, 0
   21fc8:	2a6040        	mul.s	f6, f0, f4
   21fcb:	1a3350        	sub.s	f3, f3, f5
   21fce:	4a2040        	madd.s	f2, f0, f4
   21fd1:	0c3d      	mov.n	a3, a12
   21fd3:	064d      	mov.n	a4, a6
   21fd5:	4a1630        	madd.s	f1, f6, f3
   21fd8:	046516        	beqz	a5, 22022 <slicecal_fold_acc_and_compute_wgts+0x176>
   21fdb:	fa6c00        	mov.s	f6, f12
   21fde:	fa7c00        	mov.s	f7, f12
   21fe1:	379576        	loopnez	a5, 2201c <slicecal_fold_acc_and_compute_wgts+0x170>
   21fe4:	544b      	addi.n	a5, a4, 4
   21fe6:	634b      	addi.n	a6, a3, 4
   21fe8:	183420        	lsxp	f3, a4, a2
   21feb:	000443        	lsi	f4, a4, 0
   21fee:	188320        	lsxp	f8, a3, a2
   21ff1:	2a5340        	mul.s	f5, f3, f4
   21ff4:	0003a3        	lsi	f10, a3, 0
   21ff7:	454b      	addi.n	a4, a5, 4
   21ff9:	180520        	lsxp	f0, a5, a2
   21ffc:	364b      	addi.n	a3, a6, 4
   21ffe:	189620        	lsxp	f9, a6, a2
   22001:	0006b3        	lsi	f11, a6, 0
   22004:	1a99b0        	sub.s	f9, f9, f11
   22007:	1a88a0        	sub.s	f8, f8, f10
   2200a:	0005b3        	lsi	f11, a5, 0
   2200d:	2aa0b0        	mul.s	f10, f0, f11
   22010:	4a70b0        	madd.s	f7, f0, f11
   22013:	4a2340        	madd.s	f2, f3, f4
   22016:	4a1580        	madd.s	f1, f5, f8
   22019:	4a6a90        	madd.s	f6, f10, f9

0002201c <slicecal_fold_acc_and_compute_wgts+0x170>:
   2201c:	0a1160        	add.s	f1, f1, f6
   2201f:	0a2270        	add.s	f2, f2, f7

00022022 <slicecal_fold_acc_and_compute_wgts+0x176>:
   22022:	2b02c0        	oeq.s	b0, f2, f12
   22025:	fa3130        	const.s	f3, 1
   22028:	faf300        	mov.s	f15, f3
   2202b:	020076        	bf	b0, 22031 <slicecal_fold_acc_and_compute_wgts+0x185>
   2202e:	ffda06        	j	21f9a <slicecal_fold_acc_and_compute_wgts+0xee>
   22031:	fa0280        	recip0.s	f0, f2
   22034:	5a3200        	msub.s	f3, f2, f0
   22037:	6a0030        	maddn.s	f0, f0, f3
   2203a:	5af200        	msub.s	f15, f2, f0
   2203d:	6a00f0        	maddn.s	f0, f0, f15
   22040:	2a0010        	mul.s	f0, f0, f1
   22043:	004b03        	ssi	f0, a11, 0
   22046:	ffd406        	j	21f9a <slicecal_fold_acc_and_compute_wgts+0xee>

00022049 <slicecal_fold_acc_and_compute_wgts+0x19d>:
   22049:	f01d      	retw.n

0002204b <slicecal_fold_acc_and_compute_wgts+0x19f>:
	...

0002204c <compute_offset_coeff>:
   2204c:	004136        	entry	a1, 32
   2204f:	060c      	movi.n	a6, 0
   22051:	faf531        	l32r	a3, 20c28 (10ce0 <dither_coeff>)
   22054:	fb0121        	l32r	a2, 20c58 (10450 <__switchjump_table_xp_temp_0_0+0x30>)
   22057:	440c      	movi.n	a4, 4
   22059:	1186f0        	slli	a8, a6, 1
   2205c:	108840        	and	a8, a8, a4
   2205f:	080280        	lsx	f0, a2, a8
   22062:	040323        	lsi	f2, a3, 16
   22065:	2a0020        	mul.s	f0, f0, f2
   22068:	047060        	extui	a7, a6, 0, 1
   2206b:	a07720        	addx4	a7, a7, a2
   2206e:	000733        	lsi	f3, a7, 0
   22071:	0503c3        	lsi	f12, a3, 20
   22074:	4a03c0        	madd.s	f0, f3, f12
   22077:	109640        	and	a9, a6, a4
   2207a:	081290        	lsx	f1, a2, a9
   2207d:	0303d3        	lsi	f13, a3, 12
   22080:	4a01d0        	madd.s	f0, f1, f13
   22083:	faf4a1        	l32r	a10, 20c54 (10db0 <p_dither_lut>)
   22086:	04b360        	extui	a11, a6, 3, 1
   22089:	a09b20        	addx4	a9, a11, a2
   2208c:	0009e3        	lsi	f14, a9, 0
   2208f:	0203f3        	lsi	f15, a3, 8
   22092:	0ae8      	l32i.n	a14, a10, 0
   22094:	4a0ef0        	madd.s	f0, f14, f15
   22097:	0f4c      	movi.n	a15, 64
   22099:	04c460        	extui	a12, a6, 4, 1
   2209c:	41d560        	srli	a13, a6, 5
   2209f:	ff0b      	addi.n	a15, a15, -1
   220a1:	01c662        	addi	a6, a6, 1
   220a4:	a08c20        	addx4	a8, a12, a2
   220a7:	a07d20        	addx4	a7, a13, a2
   220aa:	205ee0        	or	a5, a14, a14
   220ad:	5b8f76        	loop	a15, 2210c <compute_offset_coeff+0xc0>
   220b0:	1196f0        	slli	a9, a6, 1
   220b3:	000813        	lsi	f1, a8, 0
   220b6:	010323        	lsi	f2, a3, 4
   220b9:	4a0120        	madd.s	f0, f1, f2
   220bc:	108940        	and	a8, a9, a4
   220bf:	000713        	lsi	f1, a7, 0
   220c2:	000323        	lsi	f2, a3, 0
   220c5:	4a0120        	madd.s	f0, f1, f2
   220c8:	047060        	extui	a7, a6, 0, 1
   220cb:	a09720        	addx4	a9, a7, a2
   220ce:	10a640        	and	a10, a6, a4
   220d1:	01c503        	ssip	f0, a5, 4
   220d4:	080280        	lsx	f0, a2, a8
   220d7:	040323        	lsi	f2, a3, 16
   220da:	050313        	lsi	f1, a3, 20
   220dd:	2a0020        	mul.s	f0, f0, f2
   220e0:	417560        	srli	a7, a6, 5
   220e3:	048460        	extui	a8, a6, 4, 1
   220e6:	000923        	lsi	f2, a9, 0
   220e9:	4a0210        	madd.s	f0, f2, f1
   220ec:	049360        	extui	a9, a6, 3, 1
   220ef:	661b      	addi.n	a6, a6, 1
   220f1:	a07720        	addx4	a7, a7, a2
   220f4:	a08820        	addx4	a8, a8, a2
   220f7:	030323        	lsi	f2, a3, 12
   220fa:	0812a0        	lsx	f1, a2, a10
   220fd:	4a0120        	madd.s	f0, f1, f2
   22100:	a09920        	addx4	a9, a9, a2
   22103:	000913        	lsi	f1, a9, 0
   22106:	020323        	lsi	f2, a3, 8
   22109:	4a0120        	madd.s	f0, f1, f2

0002210c <compute_offset_coeff+0xc0>:
   2210c:	000813        	lsi	f1, a8, 0
   2210f:	010323        	lsi	f2, a3, 4
   22112:	4a0120        	madd.s	f0, f1, f2
   22115:	000733        	lsi	f3, a7, 0
   22118:	0003f3        	lsi	f15, a3, 0
   2211b:	fac941        	l32r	a4, 20c40 (10000 <ana_ext_info>)
   2211e:	4a03f0        	madd.s	f0, f3, f15
   22121:	fac861        	l32r	a6, 20c44 (deadbeaf <xthals_hw_configid0+0x1ead2c29>)
   22124:	face71        	l32r	a7, 20c5c (10de0 <p_majority_vote_lut>)
   22127:	face81        	l32r	a8, 20c60 (10d30 <sar_lut>)
   2212a:	01c503        	ssip	f0, a5, 4
   2212d:	facd91        	l32r	a9, 20c64 (10db8 <p_combinations>)
   22130:	ffa052        	movi	a5, 255
   22133:	fa0030        	const.s	f0, 0
   22136:	020c      	movi.n	a2, 0
   22138:	830c      	movi.n	a3, 8
   2213a:	efd552        	addmi	a5, a5, 0xffffef00
   2213d:	000106        	j	22145 <compute_offset_coeff+0xf9>

00022140 <compute_offset_coeff+0xf4>:
   22140:	330b      	addi.n	a3, a3, -1
   22142:	06a316        	beqz	a3, 221b0 <compute_offset_coeff+0x164>
   22145:	3124a2        	l32i	a10, a4, 196
   22148:	05dd      	mov.n	a13, a5
   2214a:	ff2a16        	beqz	a10, 22140 <compute_offset_coeff+0xf4>
   2214d:	0a0c      	movi.n	a10, 0
   2214f:	001286        	j	2219d <compute_offset_coeff+0x151>

00022152 <compute_offset_coeff+0x106>:
   22152:	000000                                        ...

00022155 <compute_offset_coeff+0x109>:
   22155:	0e40c0        	read_ipq	a12
   22158:	07d8      	l32i.n	a13, a7, 0
   2215a:	54b0c0        	extui	a11, a12, 0, 6
   2215d:	09e8      	l32i.n	a14, a9, 0
   2215f:	a0dbd0        	addx4	a13, a11, a13
   22162:	0dd8      	l32i.n	a13, a13, 0
   22164:	b4f9c0        	extui	a15, a12, 9, 12
   22167:	24b6c0        	extui	a11, a12, 6, 3
   2216a:	a0efe0        	addx4	a14, a15, a14
   2216d:	fab9f1        	l32r	a15, 20c54 (10db0 <p_dither_lut>)
   22170:	a0bbd0        	addx4	a11, a11, a13
   22173:	a0bb80        	addx4	a11, a11, a8
   22176:	0fd8      	l32i.n	a13, a15, 0
   22178:	000e13        	lsi	f1, a14, 0
   2217b:	000b23        	lsi	f2, a11, 0
   2217e:	1a1120        	sub.s	f1, f1, f2
   22181:	55f5c0        	extui	a15, a12, 21, 6
   22184:	a0efd0        	addx4	a14, a15, a13
   22187:	000ef3        	lsi	f15, a14, 0
   2218a:	1a11f0        	sub.s	f1, f1, f15
   2218d:	3124f2        	l32i	a15, a4, 196
   22190:	aa1b      	addi.n	a10, a10, 1
   22192:	221b      	addi.n	a2, a2, 1
   22194:	0a0010        	add.s	f0, f0, f1
   22197:	20d550        	or	a13, a5, a5
   2219a:	a2baf7        	bgeu	a10, a15, 22140 <compute_offset_coeff+0xf4>
   2219d:	0c8076        	loop	a0, 221ad <compute_offset_coeff+0x161>
   221a0:	dd1b      	addi.n	a13, a13, 1
   221a2:	06cd      	mov.n	a12, a6
   221a4:	fb0d16        	beqz	a13, 22158 <compute_offset_coeff+0x10c>
   221a7:	0e50c0        	check_ipq	a12
   221aa:	fa7c16        	beqz	a12, 22155 <compute_offset_coeff+0x109>

000221ad <compute_offset_coeff+0x161>:
   221ad:	fffb06        	j	2219d <compute_offset_coeff+0x151>

000221b0 <compute_offset_coeff+0x164>:
   221b0:	da1200        	ufloat.s	f1, a2, 0
   221b3:	fa3130        	const.s	f3, 1
   221b6:	fa2180        	recip0.s	f2, f1
   221b9:	faf130        	const.s	f15, 1
   221bc:	5a3120        	msub.s	f3, f1, f2
   221bf:	faaaf1        	l32r	a15, 20c68 (10de4 <offset_coeff>)
   221c2:	6a2230        	maddn.s	f2, f2, f3
   221c5:	5af120        	msub.s	f15, f1, f2
   221c8:	6a22f0        	maddn.s	f2, f2, f15
   221cb:	2a0200        	mul.s	f0, f2, f0
   221ce:	004f03        	ssi	f0, a15, 0
   221d1:	f01d      	retw.n

000221d3 <compute_offset_coeff+0x187>:
	...

000221d4 <compute_sop_lut>:
   221d4:	006136        	entry	a1, 48
   221d7:	faa551        	l32r	a5, 20c6c (10dcc <p_Rn_running_sum>)
   221da:	faa561        	l32r	a6, 20c70 (10dd0 <p_Rn_running_idx>)
   221dd:	072c      	movi.n	a7, 32
   221df:	0538      	l32i.n	a3, a5, 0
   221e1:	0648      	l32i.n	a4, a6, 0
   221e3:	417370        	srli	a7, a7, 3
   221e6:	00a022        	movi	a2, 0
   221e9:	259776        	loopnez	a7, 22212 <compute_sop_lut+0x3e>
   221ec:	0329      	s32i.n	a2, a3, 0
   221ee:	7429      	s32i.n	a2, a4, 28
   221f0:	7329      	s32i.n	a2, a3, 28
   221f2:	6429      	s32i.n	a2, a4, 24
   221f4:	0429      	s32i.n	a2, a4, 0
   221f6:	6329      	s32i.n	a2, a3, 24
   221f8:	5429      	s32i.n	a2, a4, 20
   221fa:	5329      	s32i.n	a2, a3, 20
   221fc:	1329      	s32i.n	a2, a3, 4
   221fe:	4429      	s32i.n	a2, a4, 16
   22200:	4329      	s32i.n	a2, a3, 16
   22202:	3429      	s32i.n	a2, a4, 12
   22204:	1429      	s32i.n	a2, a4, 4
   22206:	3329      	s32i.n	a2, a3, 12
   22208:	2429      	s32i.n	a2, a4, 8
   2220a:	20c442        	addi	a4, a4, 32
   2220d:	2329      	s32i.n	a2, a3, 8
   2220f:	20c332        	addi	a3, a3, 32

00022212 <compute_sop_lut+0x3e>:
   22212:	fa8ba1        	l32r	a10, 20c40 (10000 <ana_ext_info>)
   22215:	bfaf92        	movi	a9, -65
   22218:	fa8b41        	l32r	a4, 20c44 (deadbeaf <xthals_hw_configid0+0x1ead2c29>)
   2221b:	fa9271        	l32r	a7, 20c64 (10db8 <p_combinations>)
   2221e:	fa8f81        	l32r	a8, 20c5c (10de0 <p_majority_vote_lut>)
   22221:	ffa032        	movi	a3, 255
   22224:	019980        	slli	a9, a9, 24
   22227:	55a5f2        	movi	a15, 0x555
   2222a:	fa0950        	wfr	f0, a9
   2222d:	820c      	movi.n	a2, 8
   2222f:	efd332        	addmi	a3, a3, 0xffffef00
   22232:	909ff0        	addx2	a9, a15, a15
   22235:	68caa2        	addi	a10, a10, 104
   22238:	000246        	j	22245 <compute_sop_lut+0x71>

0002223b <compute_sop_lut+0x67>:
	...

0002223c <compute_sop_lut+0x68>:
   2223c:	3128      	l32i.n	a2, a1, 12
   2223e:	aacb      	addi.n	a10, a10, 12
   22240:	220b      	addi.n	a2, a2, -1
   22242:	078216        	beqz	a2, 222be <compute_sop_lut+0xea>
   22245:	0ab8      	l32i.n	a11, a10, 0
   22247:	3129      	s32i.n	a2, a1, 12
   22249:	03cd      	mov.n	a12, a3
   2224b:	fedb16        	beqz	a11, 2223c <compute_sop_lut+0x68>
   2224e:	0b0c      	movi.n	a11, 0
   22250:	001106        	j	22298 <compute_sop_lut+0xc4>

00022253 <compute_sop_lut+0x7f>:
	...

00022255 <compute_sop_lut+0x81>:
   22255:	dfa6d2        	movi	a13, 0x6df
   22258:	04cd      	mov.n	a12, a4
   2225a:	08e8      	l32i.n	a14, a8, 0
   2225c:	07f8      	l32i.n	a15, a7, 0
   2225e:	5420c0        	extui	a2, a12, 0, 6
   22261:	a022e0        	addx4	a2, a2, a14
   22264:	a0ddf0        	addx4	a13, a13, a15
   22267:	0228      	l32i.n	a2, a2, 0
   22269:	000d13        	lsi	f1, a13, 0
   2226c:	05e8      	l32i.n	a14, a5, 0
   2226e:	24c6c0        	extui	a12, a12, 6, 3
   22271:	06f8      	l32i.n	a15, a6, 0
   22273:	0a1100        	add.s	f1, f1, f0
   22276:	a02c20        	addx4	a2, a12, a2
   22279:	a0c2e0        	addx4	a12, a2, a14
   2227c:	a022f0        	addx4	a2, a2, a15
   2227f:	000c23        	lsi	f2, a12, 0
   22282:	02d8      	l32i.n	a13, a2, 0
   22284:	0a1120        	add.s	f1, f1, f2
   22287:	dd1b      	addi.n	a13, a13, 1
   22289:	02d9      	s32i.n	a13, a2, 0
   2228b:	004c13        	ssi	f1, a12, 0
   2228e:	0a28      	l32i.n	a2, a10, 0
   22290:	bb1b      	addi.n	a11, a11, 1
   22292:	20c330        	or	a12, a3, a3
   22295:	a3bb27        	bgeu	a11, a2, 2223c <compute_sop_lut+0x68>
   22298:	f03d      	nop.n
   2229a:	098076        	loop	a0, 222a7 <compute_sop_lut+0xd3>
   2229d:	cc1b      	addi.n	a12, a12, 1
   2229f:	fb2c16        	beqz	a12, 22255 <compute_sop_lut+0x81>
   222a2:	0e50d0        	check_ipq	a13
   222a5:	3d8c      	beqz.n	a13, 222ac <compute_sop_lut+0xd8>

000222a7 <compute_sop_lut+0xd3>:
   222a7:	fffb46        	j	22298 <compute_sop_lut+0xc4>

000222aa <compute_sop_lut+0xd6>:
	...

000222ac <compute_sop_lut+0xd8>:
   222ac:	0e40c0        	read_ipq	a12
   222af:	41d9c0        	srli	a13, a12, 9
   222b2:	d809d7        	bnone	a9, a13, 2228e <compute_sop_lut+0xba>
   222b5:	b4d0d0        	extui	a13, a13, 0, 12
   222b8:	d21d97        	beq	a13, a9, 2228e <compute_sop_lut+0xba>
   222bb:	ffe6c6        	j	2225a <compute_sop_lut+0x86>

000222be <compute_sop_lut+0xea>:
   222be:	0538      	l32i.n	a3, a5, 0
   222c0:	0648      	l32i.n	a4, a6, 0
   222c2:	fa6751        	l32r	a5, 20c60 (10d30 <sar_lut>)
   222c5:	082c      	movi.n	a8, 32
   222c7:	fa0030        	const.s	f0, 0
   222ca:	020c      	movi.n	a2, 0
   222cc:	01a062        	movi	a6, 1
   222cf:	01a072        	movi	a7, 1
   222d2:	fa1030        	const.s	f1, 0
   222d5:	548876        	loop	a8, 2232d <compute_sop_lut+0x159>
   222d8:	018323        	lsip	f2, a3, 4
   222db:	2b0200        	oeq.s	b0, f2, f0
   222de:	080c      	movi.n	a8, 0
   222e0:	fa5130        	const.s	f5, 1
   222e3:	d38700        	movt	a8, a7, b0
   222e6:	c08680        	sub	a8, a6, a8
   222e9:	08ac      	beqz.n	a8, 2230d <compute_sop_lut+0x139>
   222eb:	0488      	l32i.n	a8, a4, 0
   222ed:	faf130        	const.s	f15, 1
   222f0:	dae800        	ufloat.s	f14, a8, 0
   222f3:	fa4e80        	recip0.s	f4, f14
   222f6:	5a5e40        	msub.s	f5, f14, f4
   222f9:	6a4450        	maddn.s	f4, f4, f5
   222fc:	5afe40        	msub.s	f15, f14, f4
   222ff:	6a44f0        	maddn.s	f4, f4, f15
   22302:	2a3420        	mul.s	f3, f4, f2
   22305:	004533        	ssi	f3, a5, 0
   22308:	000106        	j	22310 <compute_sop_lut+0x13c>

0002230b <compute_sop_lut+0x137>:
	...

0002230d <compute_sop_lut+0x139>:
   2230d:	000533        	lsi	f3, a5, 0
   22310:	2b0300        	oeq.s	b0, f3, f0
   22313:	0a2130        	add.s	f2, f1, f3
   22316:	080c      	movi.n	a8, 0
   22318:	d38700        	movt	a8, a7, b0
   2231b:	2b0300        	oeq.s	b0, f3, f0
   2231e:	db2100        	movt.s	f2, f1, b0
   22321:	c08680        	sub	a8, a6, a8
   22324:	554b      	addi.n	a5, a5, 4
   22326:	444b      	addi.n	a4, a4, 4
   22328:	228a      	add.n	a2, a2, a8
   2232a:	fa1200        	mov.s	f1, f2

0002232d <compute_sop_lut+0x159>:
   2232d:	c29c      	beqz.n	a2, 2234d <compute_sop_lut+0x179>
   2232f:	dae200        	ufloat.s	f14, a2, 0
   22332:	fa3130        	const.s	f3, 1
   22335:	fa1e80        	recip0.s	f1, f14
   22338:	faf130        	const.s	f15, 1
   2233b:	5a3e10        	msub.s	f3, f14, f1
   2233e:	6a1130        	maddn.s	f1, f1, f3
   22341:	5afe10        	msub.s	f15, f14, f1
   22344:	6a11f0        	maddn.s	f1, f1, f15
   22347:	2a0120        	mul.s	f0, f1, f2
   2234a:	ffffc6        	j	2234d <compute_sop_lut+0x179>

0002234d <compute_sop_lut+0x179>:
   2234d:	fa4421        	l32r	a2, 20c60 (10d30 <sar_lut>)
   22350:	032c      	movi.n	a3, 32
   22352:	fa1030        	const.s	f1, 0
   22355:	108376        	loop	a3, 22369 <compute_sop_lut+0x195>
   22358:	000223        	lsi	f2, a2, 0
   2235b:	2b0210        	oeq.s	b0, f2, f1
   2235e:	051076        	bt	b0, 22367 <compute_sop_lut+0x193>
   22361:	1a2200        	sub.s	f2, f2, f0
   22364:	004223        	ssi	f2, a2, 0
   22367:	224b      	addi.n	a2, a2, 4

00022369 <compute_sop_lut+0x195>:
   22369:	f01d      	retw.n

0002236b <compute_sop_lut+0x197>:
	...

0002236c <compute_dither_coeff>:
   2236c:	006136        	entry	a1, 48
   2236f:	fa4251        	l32r	a5, 20c78 (10ddc <p_dither_cal_valid_flag>)
   22372:	fa40e1        	l32r	a14, 20c74 (10dd4 <p_dither_acc>)
   22375:	0f4c      	movi.n	a15, 64
   22377:	0558      	l32i.n	a5, a5, 0
   22379:	0e68      	l32i.n	a6, a14, 0
   2237b:	4193f0        	srli	a9, a15, 3
   2237e:	020c      	movi.n	a2, 0
   22380:	063d      	mov.n	a3, a6
   22382:	204550        	or	a4, a5, a5
   22385:	259976        	loopnez	a9, 223ae <compute_dither_coeff+0x42>
   22388:	0329      	s32i.n	a2, a3, 0
   2238a:	0429      	s32i.n	a2, a4, 0
   2238c:	1329      	s32i.n	a2, a3, 4
   2238e:	1429      	s32i.n	a2, a4, 4
   22390:	2329      	s32i.n	a2, a3, 8
   22392:	2429      	s32i.n	a2, a4, 8
   22394:	3329      	s32i.n	a2, a3, 12
   22396:	3429      	s32i.n	a2, a4, 12
   22398:	4329      	s32i.n	a2, a3, 16
   2239a:	4429      	s32i.n	a2, a4, 16
   2239c:	5329      	s32i.n	a2, a3, 20
   2239e:	5429      	s32i.n	a2, a4, 20
   223a0:	6329      	s32i.n	a2, a3, 24
   223a2:	6429      	s32i.n	a2, a4, 24
   223a4:	7329      	s32i.n	a2, a3, 28
   223a6:	20c332        	addi	a3, a3, 32
   223a9:	7429      	s32i.n	a2, a4, 28
   223ab:	20c442        	addi	a4, a4, 32

000223ae <compute_dither_coeff+0x42>:
   223ae:	fa3391        	l32r	a9, 20c7c (10dd8 <p_dither_acc_cnt>)
   223b1:	0f4c      	movi.n	a15, 64
   223b3:	41b3f0        	srli	a11, a15, 3
   223b6:	09a8      	l32i.n	a10, a9, 0
   223b8:	020c      	movi.n	a2, 0
   223ba:	063d      	mov.n	a3, a6
   223bc:	0a4d      	mov.n	a4, a10
   223be:	389b76        	loopnez	a11, 223fa <compute_dither_coeff+0x8e>
   223c1:	0329      	s32i.n	a2, a3, 0
   223c3:	0429      	s32i.n	a2, a4, 0
   223c5:	1429      	s32i.n	a2, a4, 4
   223c7:	2429      	s32i.n	a2, a4, 8
   223c9:	3429      	s32i.n	a2, a4, 12
   223cb:	4429      	s32i.n	a2, a4, 16
   223cd:	5429      	s32i.n	a2, a4, 20
   223cf:	6429      	s32i.n	a2, a4, 24
   223d1:	7429      	s32i.n	a2, a4, 28
   223d3:	20c442        	addi	a4, a4, 32
   223d6:	0529      	s32i.n	a2, a5, 0
   223d8:	1329      	s32i.n	a2, a3, 4
   223da:	1529      	s32i.n	a2, a5, 4
   223dc:	2329      	s32i.n	a2, a3, 8
   223de:	2529      	s32i.n	a2, a5, 8
   223e0:	3329      	s32i.n	a2, a3, 12
   223e2:	3529      	s32i.n	a2, a5, 12
   223e4:	4329      	s32i.n	a2, a3, 16
   223e6:	4529      	s32i.n	a2, a5, 16
   223e8:	5329      	s32i.n	a2, a3, 20
   223ea:	5529      	s32i.n	a2, a5, 20
   223ec:	6329      	s32i.n	a2, a3, 24
   223ee:	6529      	s32i.n	a2, a5, 24
   223f0:	7329      	s32i.n	a2, a3, 28
   223f2:	20c332        	addi	a3, a3, 32
   223f5:	7529      	s32i.n	a2, a5, 28
   223f7:	20c552        	addi	a5, a5, 32
   223fa:	fa1121        	l32r	a2, 20c40 (10000 <ana_ext_info>)
   223fd:	fa1151        	l32r	a5, 20c44 (deadbeaf <xthals_hw_configid0+0x1ead2c29>)
   22400:	fa1761        	l32r	a6, 20c5c (10de0 <p_majority_vote_lut>)
   22403:	fa18b1        	l32r	a11, 20c64 (10db8 <p_combinations>)
   22406:	3022e2        	l32i	a14, a2, 192
   22409:	fa15c1        	l32r	a12, 20c60 (10d30 <sar_lut>)
   2240c:	ffa042        	movi	a4, 255
   2240f:	830c      	movi.n	a3, 8
   22411:	efd442        	addmi	a4, a4, 0xffffef00
   22414:	0001c6        	j	2241f <compute_dither_coeff+0xb3>

00022417 <compute_dither_coeff+0xab>:
	...

00022418 <compute_dither_coeff+0xac>:
   22418:	0e0c      	movi.n	a14, 0
   2241a:	330b      	addi.n	a3, a3, -1
   2241c:	06d316        	beqz	a3, 2248d <compute_dither_coeff+0x121>
   2241f:	ff5e16        	beqz	a14, 22418 <compute_dither_coeff+0xac>
   22422:	0d0c      	movi.n	a13, 0
   22424:	001386        	j	22476 <compute_dither_coeff+0x10a>

00022427 <compute_dither_coeff+0xbb>:
	...

00022429 <compute_dither_coeff+0xbd>:
   22429:	0e40e0        	read_ipq	a14
   2242c:	06a8      	l32i.n	a10, a6, 0
   2242e:	0b88      	l32i.n	a8, a11, 0
   22430:	54f0e0        	extui	a15, a14, 0, 6
   22433:	b479e0        	extui	a7, a14, 9, 12
   22436:	a0afa0        	addx4	a10, a15, a10
   22439:	a07780        	addx4	a7, a7, a8
   2243c:	0a88      	l32i.n	a8, a10, 0
   2243e:	55f5e0        	extui	a15, a14, 21, 6
   22441:	24e6e0        	extui	a14, a14, 6, 3
   22444:	a08e80        	addx4	a8, a14, a8
   22447:	000703        	lsi	f0, a7, 0
   2244a:	a078c0        	addx4	a7, a8, a12
   2244d:	09a8      	l32i.n	a10, a9, 0
   2244f:	000713        	lsi	f1, a7, 0
   22452:	fa0871        	l32r	a7, 20c74 (10dd4 <p_dither_acc>)
   22455:	11ffe0        	slli	a15, a15, 2
   22458:	eafa      	add.n	a14, a10, a15
   2245a:	0e88      	l32i.n	a8, a14, 0
   2245c:	0778      	l32i.n	a7, a7, 0
   2245e:	1a0010        	sub.s	f0, f0, f1
   22461:	881b      	addi.n	a8, a8, 1
   22463:	08f7f0        	lsx	f15, a7, a15
   22466:	0e89      	s32i.n	a8, a14, 0
   22468:	0a00f0        	add.s	f0, f0, f15
   2246b:	3022e2        	l32i	a14, a2, 192
   2246e:	dd1b      	addi.n	a13, a13, 1
   22470:	4807f0        	ssx	f0, a7, a15
   22473:	a3bde7        	bgeu	a13, a14, 2241a <compute_dither_coeff+0xae>
   22476:	04ad      	mov.n	a10, a4
   22478:	f03d      	nop.n
   2247a:	0c8076        	loop	a0, 2248a <compute_dither_coeff+0x11e>
   2247d:	aa1b      	addi.n	a10, a10, 1
   2247f:	05ed      	mov.n	a14, a5
   22481:	fa7a16        	beqz	a10, 2242c <compute_dither_coeff+0xc0>
   22484:	0e50e0        	check_ipq	a14
   22487:	f9ee16        	beqz	a14, 22429 <compute_dither_coeff+0xbd>

0002248a <compute_dither_coeff+0x11e>:
   2248a:	fffa86        	j	22478 <compute_dither_coeff+0x10c>

0002248d <compute_dither_coeff+0x121>:
   2248d:	f9f921        	l32r	a2, 20c74 (10dd4 <p_dither_acc>)
   22490:	f9fa51        	l32r	a5, 20c78 (10ddc <p_dither_cal_valid_flag>)
   22493:	7fa062        	movi	a6, 127
   22496:	0228      	l32i.n	a2, a2, 0
   22498:	0538      	l32i.n	a3, a5, 0
   2249a:	044c      	movi.n	a4, 64
   2249c:	016690        	slli	a6, a6, 23
   2249f:	2c8476        	loop	a4, 224cf <compute_dither_coeff+0x163>
   224a2:	0a48      	l32i.n	a4, a10, 0
   224a4:	fa2130        	const.s	f2, 1
   224a7:	fae200        	mov.s	f14, f2
   224aa:	b49c      	beqz.n	a4, 224c9 <compute_dither_coeff+0x15d>
   224ac:	da0400        	ufloat.s	f0, a4, 0
   224af:	0002f3        	lsi	f15, a2, 0
   224b2:	fa1080        	recip0.s	f1, f0
   224b5:	5a2010        	msub.s	f2, f0, f1
   224b8:	6a1120        	maddn.s	f1, f1, f2
   224bb:	5ae010        	msub.s	f14, f0, f1
   224be:	6a11e0        	maddn.s	f1, f1, f14
   224c1:	2a01f0        	mul.s	f0, f1, f15
   224c4:	004203        	ssi	f0, a2, 0
   224c7:	0369      	s32i.n	a6, a3, 0
   224c9:	334b      	addi.n	a3, a3, 4
   224cb:	224b      	addi.n	a2, a2, 4
   224cd:	aa4b      	addi.n	a10, a10, 4

000224cf <compute_dither_coeff+0x163>:
   224cf:	f9e931        	l32r	a3, 20c74 (10dd4 <p_dither_acc>)
   224d2:	0528      	l32i.n	a2, a5, 0
   224d4:	040c      	movi.n	a4, 0
   224d6:	0338      	l32i.n	a3, a3, 0
   224d8:	724a      	add.n	a7, a2, a4
   224da:	fa4030        	const.s	f4, 0
   224dd:	f34a      	add.n	a15, a3, a4
   224df:	080240        	lsx	f0, a2, a4
   224e2:	100713        	lsi	f1, a7, 64
   224e5:	085340        	lsx	f5, a3, a4
   224e8:	100f63        	lsi	f6, a15, 64
   224eb:	2a2010        	mul.s	f2, f0, f1
   224ee:	1a5560        	sub.s	f5, f5, f6
   224f1:	fa3030        	const.s	f3, 0
   224f4:	4a4010        	madd.s	f4, f0, f1
   224f7:	0e1c      	movi.n	a14, 16
   224f9:	5e0b      	addi.n	a5, a14, -1
   224fb:	444b      	addi.n	a4, a4, 4
   224fd:	1d8576        	loop	a5, 2251e <compute_dither_coeff+0x1b2>
   22500:	524a      	add.n	a5, a2, a4
   22502:	4a3250        	madd.s	f3, f2, f5
   22505:	080240        	lsx	f0, a2, a4
   22508:	100513        	lsi	f1, a5, 64
   2250b:	2a2010        	mul.s	f2, f0, f1
   2250e:	534a      	add.n	a5, a3, a4
   22510:	086340        	lsx	f6, a3, a4
   22513:	100553        	lsi	f5, a5, 64
   22516:	1a5650        	sub.s	f5, f6, f5
   22519:	4a4010        	madd.s	f4, f0, f1
   2251c:	444b      	addi.n	a4, a4, 4
   2251e:	fa0030        	const.s	f0, 0
   22521:	4a3250        	madd.s	f3, f2, f5
   22524:	2b0400        	oeq.s	b0, f4, f0
   22527:	f9c071        	l32r	a7, 20c28 (10ce0 <dither_coeff>)
   2252a:	fa2130        	const.s	f2, 1
   2252d:	171076        	bt	b0, 22548 <compute_dither_coeff+0x1dc>
   22530:	fa1480        	recip0.s	f1, f4
   22533:	faf130        	const.s	f15, 1
   22536:	5a2410        	msub.s	f2, f4, f1
   22539:	6a1120        	maddn.s	f1, f1, f2
   2253c:	5af410        	msub.s	f15, f4, f1
   2253f:	6a11f0        	maddn.s	f1, f1, f15
   22542:	2a1130        	mul.s	f1, f1, f3
   22545:	014713        	ssi	f1, a7, 4

00022548 <compute_dither_coeff+0x1dc>:
   22548:	051c      	movi.n	a5, 16
   2254a:	00a042        	movi	a4, 0
   2254d:	598576        	loop	a5, 225aa <compute_dither_coeff+0x23e>
   22550:	081340        	lsx	f1, a3, a4
   22553:	010723        	lsi	f2, a7, 4
   22556:	1a1120        	sub.s	f1, f1, f2
   22559:	08c240        	lsx	f12, a2, a4
   2255c:	534a      	add.n	a5, a3, a4
   2255e:	824a      	add.n	a8, a2, a4
   22560:	2a11c0        	mul.s	f1, f1, f12
   22563:	1005d3        	lsi	f13, a5, 64
   22566:	481340        	ssx	f1, a3, a4
   22569:	1008e3        	lsi	f14, a8, 64
   2256c:	2a1de0        	mul.s	f1, f13, f14
   2256f:	fa3130        	const.s	f3, 1
   22572:	fae300        	mov.s	f14, f3
   22575:	104513        	ssi	f1, a5, 64
   22578:	081240        	lsx	f1, a2, a4
   2257b:	1008f3        	lsi	f15, a8, 64
   2257e:	0a11f0        	add.s	f1, f1, f15
   22581:	2b0100        	oeq.s	b0, f1, f0
   22584:	201076        	bt	b0, 225a8 <compute_dither_coeff+0x23c>
   22587:	fa2180        	recip0.s	f2, f1
   2258a:	006862        	s32i	a6, a8, 0
   2258d:	5a3120        	msub.s	f3, f1, f2
   22590:	084340        	lsx	f4, a3, a4
   22593:	1005f3        	lsi	f15, a5, 64
   22596:	6a2230        	maddn.s	f2, f2, f3
   22599:	5ae120        	msub.s	f14, f1, f2
   2259c:	0a14f0        	add.s	f1, f4, f15
   2259f:	6a22e0        	maddn.s	f2, f2, f14
   225a2:	2a1210        	mul.s	f1, f2, f1
   225a5:	481340        	ssx	f1, a3, a4
   225a8:	444b      	addi.n	a4, a4, 4

000225aa <compute_dither_coeff+0x23e>:
   225aa:	040c      	movi.n	a4, 0
   225ac:	824a      	add.n	a8, a2, a4
   225ae:	f34a      	add.n	a15, a3, a4
   225b0:	fa4000        	mov.s	f4, f0
   225b3:	fa3000        	mov.s	f3, f0
   225b6:	080240        	lsx	f0, a2, a4
   225b9:	080813        	lsi	f1, a8, 32
   225bc:	085340        	lsx	f5, a3, a4
   225bf:	080f63        	lsi	f6, a15, 32
   225c2:	2a2010        	mul.s	f2, f0, f1
   225c5:	1a5560        	sub.s	f5, f5, f6
   225c8:	4a4010        	madd.s	f4, f0, f1
   225cb:	850c      	movi.n	a5, 8
   225cd:	550b      	addi.n	a5, a5, -1
   225cf:	444b      	addi.n	a4, a4, 4
   225d1:	1d8576        	loop	a5, 225f2 <compute_dither_coeff+0x286>
   225d4:	524a      	add.n	a5, a2, a4
   225d6:	4a3250        	madd.s	f3, f2, f5
   225d9:	080240        	lsx	f0, a2, a4
   225dc:	080513        	lsi	f1, a5, 32
   225df:	2a2010        	mul.s	f2, f0, f1
   225e2:	534a      	add.n	a5, a3, a4
   225e4:	086340        	lsx	f6, a3, a4
   225e7:	080553        	lsi	f5, a5, 32
   225ea:	1a5650        	sub.s	f5, f6, f5
   225ed:	4a4010        	madd.s	f4, f0, f1
   225f0:	444b      	addi.n	a4, a4, 4
   225f2:	fa0030        	const.s	f0, 0
   225f5:	4a3250        	madd.s	f3, f2, f5
   225f8:	2b0400        	oeq.s	b0, f4, f0
   225fb:	fa2130        	const.s	f2, 1
   225fe:	faf200        	mov.s	f15, f2
   22601:	141076        	bt	b0, 22619 <compute_dither_coeff+0x2ad>
   22604:	fa1480        	recip0.s	f1, f4
   22607:	5a2410        	msub.s	f2, f4, f1
   2260a:	6a1120        	maddn.s	f1, f1, f2
   2260d:	5af410        	msub.s	f15, f4, f1
   22610:	6a11f0        	maddn.s	f1, f1, f15
   22613:	2a1130        	mul.s	f1, f1, f3
   22616:	024713        	ssi	f1, a7, 8

00022619 <compute_dither_coeff+0x2ad>:
   22619:	850c      	movi.n	a5, 8
   2261b:	040c      	movi.n	a4, 0
   2261d:	598576        	loop	a5, 2267a <compute_dither_coeff+0x30e>
   22620:	081340        	lsx	f1, a3, a4
   22623:	020723        	lsi	f2, a7, 8
   22626:	1a1120        	sub.s	f1, f1, f2
   22629:	08c240        	lsx	f12, a2, a4
   2262c:	534a      	add.n	a5, a3, a4
   2262e:	824a      	add.n	a8, a2, a4
   22630:	2a11c0        	mul.s	f1, f1, f12
   22633:	0805d3        	lsi	f13, a5, 32
   22636:	481340        	ssx	f1, a3, a4
   22639:	0808e3        	lsi	f14, a8, 32
   2263c:	2a1de0        	mul.s	f1, f13, f14
   2263f:	fa3130        	const.s	f3, 1
   22642:	fae300        	mov.s	f14, f3
   22645:	084513        	ssi	f1, a5, 32
   22648:	081240        	lsx	f1, a2, a4
   2264b:	0808f3        	lsi	f15, a8, 32
   2264e:	0a11f0        	add.s	f1, f1, f15
   22651:	2b0100        	oeq.s	b0, f1, f0
   22654:	201076        	bt	b0, 22678 <compute_dither_coeff+0x30c>
   22657:	fa2180        	recip0.s	f2, f1
   2265a:	006862        	s32i	a6, a8, 0
   2265d:	5a3120        	msub.s	f3, f1, f2
   22660:	084340        	lsx	f4, a3, a4
   22663:	0805f3        	lsi	f15, a5, 32
   22666:	6a2230        	maddn.s	f2, f2, f3
   22669:	5ae120        	msub.s	f14, f1, f2
   2266c:	0a14f0        	add.s	f1, f4, f15
   2266f:	6a22e0        	maddn.s	f2, f2, f14
   22672:	2a1210        	mul.s	f1, f2, f1
   22675:	481340        	ssx	f1, a3, a4
   22678:	444b      	addi.n	a4, a4, 4

0002267a <compute_dither_coeff+0x30e>:
   2267a:	0102f3        	lsi	f15, a2, 4
   2267d:	050213        	lsi	f1, a2, 20
   22680:	2a2f10        	mul.s	f2, f15, f1
   22683:	000253        	lsi	f5, a2, 0
   22686:	040263        	lsi	f6, a2, 16
   22689:	020273        	lsi	f7, a2, 8
   2268c:	fa1200        	mov.s	f1, f2
   2268f:	4a1560        	madd.s	f1, f5, f6
   22692:	060283        	lsi	f8, a2, 24
   22695:	030233        	lsi	f3, a2, 12
   22698:	070243        	lsi	f4, a2, 28
   2269b:	4a1780        	madd.s	f1, f7, f8
   2269e:	fad130        	const.s	f13, 1
   226a1:	4a1340        	madd.s	f1, f3, f4
   226a4:	2b0100        	oeq.s	b0, f1, f0
   226a7:	521076        	bt	b0, 226fd <compute_dither_coeff+0x391>
   226aa:	010393        	lsi	f9, a3, 4
   226ad:	0503a3        	lsi	f10, a3, 20
   226b0:	1a99a0        	sub.s	f9, f9, f10
   226b3:	fab180        	recip0.s	f11, f1
   226b6:	2a5560        	mul.s	f5, f5, f6
   226b9:	2a6780        	mul.s	f6, f7, f8
   226bc:	000383        	lsi	f8, a3, 0
   226bf:	0403c3        	lsi	f12, a3, 16
   226c2:	5ad1b0        	msub.s	f13, f1, f11
   226c5:	1a78c0        	sub.s	f7, f8, f12
   226c8:	2a2290        	mul.s	f2, f2, f9
   226cb:	0203e3        	lsi	f14, a3, 8
   226ce:	0603f3        	lsi	f15, a3, 24
   226d1:	1a9ef0        	sub.s	f9, f14, f15
   226d4:	4a2570        	madd.s	f2, f5, f7
   226d7:	6abbd0        	maddn.s	f11, f11, f13
   226da:	fae130        	const.s	f14, 1
   226dd:	0303c3        	lsi	f12, a3, 12
   226e0:	0703d3        	lsi	f13, a3, 28
   226e3:	5ae1b0        	msub.s	f14, f1, f11
   226e6:	2a3340        	mul.s	f3, f3, f4
   226e9:	1a5cd0        	sub.s	f5, f12, f13
   226ec:	4a2690        	madd.s	f2, f6, f9
   226ef:	6abbe0        	maddn.s	f11, f11, f14
   226f2:	4a2350        	madd.s	f2, f3, f5
   226f5:	2afb20        	mul.s	f15, f11, f2
   226f8:	f03d      	nop.n
   226fa:	0347f3        	ssi	f15, a7, 12

000226fd <compute_dither_coeff+0x391>:
   226fd:	450c      	movi.n	a5, 4
   226ff:	040c      	movi.n	a4, 0
   22701:	598576        	loop	a5, 2275e <compute_dither_coeff+0x3f2>
   22704:	081340        	lsx	f1, a3, a4
   22707:	030723        	lsi	f2, a7, 12
   2270a:	1a1120        	sub.s	f1, f1, f2
   2270d:	08c240        	lsx	f12, a2, a4
   22710:	534a      	add.n	a5, a3, a4
   22712:	824a      	add.n	a8, a2, a4
   22714:	2a11c0        	mul.s	f1, f1, f12
   22717:	0405d3        	lsi	f13, a5, 16
   2271a:	481340        	ssx	f1, a3, a4
   2271d:	0408e3        	lsi	f14, a8, 16
   22720:	2a1de0        	mul.s	f1, f13, f14
   22723:	fa3130        	const.s	f3, 1
   22726:	fae300        	mov.s	f14, f3
   22729:	044513        	ssi	f1, a5, 16
   2272c:	081240        	lsx	f1, a2, a4
   2272f:	0408f3        	lsi	f15, a8, 16
   22732:	0a11f0        	add.s	f1, f1, f15
   22735:	2b0100        	oeq.s	b0, f1, f0
   22738:	201076        	bt	b0, 2275c <compute_dither_coeff+0x3f0>
   2273b:	fa2180        	recip0.s	f2, f1
   2273e:	006862        	s32i	a6, a8, 0
   22741:	5a3120        	msub.s	f3, f1, f2
   22744:	084340        	lsx	f4, a3, a4
   22747:	0405f3        	lsi	f15, a5, 16
   2274a:	6a2230        	maddn.s	f2, f2, f3
   2274d:	5ae120        	msub.s	f14, f1, f2
   22750:	0a14f0        	add.s	f1, f4, f15
   22753:	6a22e0        	maddn.s	f2, f2, f14
   22756:	2a1210        	mul.s	f1, f2, f1
   22759:	481340        	ssx	f1, a3, a4
   2275c:	444b      	addi.n	a4, a4, 4

0002275e <compute_dither_coeff+0x3f2>:
   2275e:	0102f3        	lsi	f15, a2, 4
   22761:	030213        	lsi	f1, a2, 12
   22764:	2a1f10        	mul.s	f1, f15, f1
   22767:	fa4000        	mov.s	f4, f0
   2276a:	000203        	lsi	f0, a2, 0
   2276d:	020233        	lsi	f3, a2, 8
   22770:	fa2100        	mov.s	f2, f1
   22773:	4a2030        	madd.s	f2, f0, f3
   22776:	040c      	movi.n	a4, 0
   22778:	150c      	movi.n	a5, 1
   2277a:	1f0c      	movi.n	a15, 1
   2277c:	2b0240        	oeq.s	b0, f2, f4
   2277f:	fa6130        	const.s	f6, 1
   22782:	faf600        	mov.s	f15, f6
   22785:	d34500        	movt	a4, a5, b0
   22788:	c04f40        	sub	a4, a15, a4
   2278b:	64bc      	beqz.n	a4, 227c5 <compute_dither_coeff+0x459>
   2278d:	fa5280        	recip0.s	f5, f2
   22790:	010343        	lsi	f4, a3, 4
   22793:	5a6250        	msub.s	f6, f2, f5
   22796:	030373        	lsi	f7, a3, 12
   22799:	1a4470        	sub.s	f4, f4, f7
   2279c:	0003b3        	lsi	f11, a3, 0
   2279f:	6a5560        	maddn.s	f5, f5, f6
   227a2:	0203c3        	lsi	f12, a3, 8
   227a5:	2ad030        	mul.s	f13, f0, f3
   227a8:	1aebc0        	sub.s	f14, f11, f12
   227ab:	5af250        	msub.s	f15, f2, f5
   227ae:	2a1140        	mul.s	f1, f1, f4
   227b1:	6a55f0        	maddn.s	f5, f5, f15
   227b4:	4a1de0        	madd.s	f1, f13, f14
   227b7:	2a1510        	mul.s	f1, f5, f1
   227ba:	044713        	ssi	f1, a7, 16
   227bd:	000203        	lsi	f0, a2, 0
   227c0:	000106        	j	227c8 <compute_dither_coeff+0x45c>

000227c3 <compute_dither_coeff+0x457>:
	...

000227c5 <compute_dither_coeff+0x459>:
   227c5:	040713        	lsi	f1, a7, 16
   227c8:	000323        	lsi	f2, a3, 0
   227cb:	1ac210        	sub.s	f12, f2, f1
   227ce:	0203d3        	lsi	f13, a3, 8
   227d1:	fa1030        	const.s	f1, 0
   227d4:	2a0c00        	mul.s	f0, f12, f0
   227d7:	004303        	ssi	f0, a3, 0
   227da:	0202e3        	lsi	f14, a2, 8
   227dd:	2a0de0        	mul.s	f0, f13, f14
   227e0:	fa3130        	const.s	f3, 1
   227e3:	fae300        	mov.s	f14, f3
   227e6:	024303        	ssi	f0, a3, 8
   227e9:	000203        	lsi	f0, a2, 0
   227ec:	0202f3        	lsi	f15, a2, 8
   227ef:	0a00f0        	add.s	f0, f0, f15
   227f2:	2b0010        	oeq.s	b0, f0, f1
   227f5:	1f1076        	bt	b0, 22818 <compute_dither_coeff+0x4ac>
   227f8:	fa2080        	recip0.s	f2, f0
   227fb:	0269      	s32i.n	a6, a2, 0
   227fd:	5a3020        	msub.s	f3, f0, f2
   22800:	000343        	lsi	f4, a3, 0
   22803:	020353        	lsi	f5, a3, 8
   22806:	0af450        	add.s	f15, f4, f5
   22809:	6a2230        	maddn.s	f2, f2, f3
   2280c:	5ae020        	msub.s	f14, f0, f2
   2280f:	6a22e0        	maddn.s	f2, f2, f14
   22812:	2a02f0        	mul.s	f0, f2, f15
   22815:	004303        	ssi	f0, a3, 0
   22818:	010303        	lsi	f0, a3, 4
   2281b:	040723        	lsi	f2, a7, 16
   2281e:	1a0020        	sub.s	f0, f0, f2
   22821:	0102d3        	lsi	f13, a2, 4
   22824:	0303e3        	lsi	f14, a3, 12
   22827:	050c      	movi.n	a5, 0
   22829:	2a00d0        	mul.s	f0, f0, f13
   2282c:	1f0c      	movi.n	a15, 1
   2282e:	140c      	movi.n	a4, 1
   22830:	014303        	ssi	f0, a3, 4
   22833:	0302f3        	lsi	f15, a2, 12
   22836:	2a2ef0        	mul.s	f2, f14, f15
   22839:	034323        	ssi	f2, a3, 12
   2283c:	010233        	lsi	f3, a2, 4
   2283f:	030223        	lsi	f2, a2, 12
   22842:	0a2320        	add.s	f2, f3, f2
   22845:	fa4130        	const.s	f4, 1
   22848:	fa5130        	const.s	f5, 1
   2284b:	2b0210        	oeq.s	b0, f2, f1
   2284e:	d35f00        	movt	a5, a15, b0
   22851:	c05450        	sub	a5, a4, a5
   22854:	15ac      	beqz.n	a5, 22879 <compute_dither_coeff+0x50d>
   22856:	fa0280        	recip0.s	f0, f2
   22859:	1269      	s32i.n	a6, a2, 4
   2285b:	5a4200        	msub.s	f4, f2, f0
   2285e:	0103e3        	lsi	f14, a3, 4
   22861:	6a0040        	maddn.s	f0, f0, f4
   22864:	030343        	lsi	f4, a3, 12
   22867:	0afe40        	add.s	f15, f14, f4
   2286a:	5a5200        	msub.s	f5, f2, f0
   2286d:	6a0050        	maddn.s	f0, f0, f5
   22870:	2a00f0        	mul.s	f0, f0, f15
   22873:	014303        	ssi	f0, a3, 4
   22876:	010233        	lsi	f3, a2, 4
   22879:	000213        	lsi	f1, a2, 0
   2287c:	2a1130        	mul.s	f1, f1, f3
   2287f:	fa2030        	const.s	f2, 0
   22882:	0f0c      	movi.n	a15, 0
   22884:	150c      	movi.n	a5, 1
   22886:	2b0120        	oeq.s	b0, f1, f2
   22889:	d3f500        	movt	a15, a5, b0
   2288c:	c024f0        	sub	a2, a4, a15
   2288f:	a28c      	beqz.n	a2, 2289d <compute_dither_coeff+0x531>
   22891:	000313        	lsi	f1, a3, 0
   22894:	1a0100        	sub.s	f0, f1, f0
   22897:	054703        	ssi	f0, a7, 20
   2289a:	000086        	j	228a0 <compute_dither_coeff+0x534>

0002289d <compute_dither_coeff+0x531>:
   2289d:	050703        	lsi	f0, a7, 20
   228a0:	fa2330        	const.s	f2, 3
   228a3:	010713        	lsi	f1, a7, 4
   228a6:	020733        	lsi	f3, a7, 8
   228a9:	030743        	lsi	f4, a7, 12
   228ac:	040753        	lsi	f5, a7, 16
   228af:	2a1120        	mul.s	f1, f1, f2
   228b2:	2a3320        	mul.s	f3, f3, f2
   228b5:	2a4420        	mul.s	f4, f4, f2
   228b8:	2a5520        	mul.s	f5, f5, f2
   228bb:	2a0020        	mul.s	f0, f0, f2
   228be:	020c      	movi.n	a2, 0
   228c0:	014713        	ssi	f1, a7, 4
   228c3:	024733        	ssi	f3, a7, 8
   228c6:	0729      	s32i.n	a2, a7, 0
   228c8:	034743        	ssi	f4, a7, 12
   228cb:	044753        	ssi	f5, a7, 16
   228ce:	054703        	ssi	f0, a7, 20
   228d1:	f01d      	retw.n

000228d3 <compute_dither_coeff+0x567>:
	...

000228d4 <__clibrary_init>:
   228d4:	004136        	entry	a1, 32
   228d7:	538c      	beqz.n	a3, 228e0 <__clibrary_init+0xc>
   228d9:	f8e921        	l32r	a2, 20c80 (10e04 <__progname>)
   228dc:	0338      	l32i.n	a3, a3, 0
   228de:	0239      	s32i.n	a3, a2, 0

000228e0 <__clibrary_init+0xc>:
   228e0:	f8e921        	l32r	a2, 20c84 (10920 <environ>)
   228e3:	0249      	s32i.n	a4, a2, 0
   228e5:	0007a5        	call8	22960 <_init_reent_bss>
   228e8:	158c      	beqz.n	a5, 228ed <__clibrary_init+0x19>
   228ea:	0005e0        	callx8	a5
   228ed:	f01d      	retw.n

000228ef <__clibrary_init+0x1b>:
	...

000228f0 <exit>:
   228f0:	004136        	entry	a1, 32
   228f3:	f89f31        	l32r	a3, 20b70 (23d04 <_fini>)
   228f6:	002316        	beqz	a3, 228fc <exit+0xc>
   228f9:	0140a5        	call8	23d04 <_fini>

000228fc <exit+0xc>:
   228fc:	f8e331        	l32r	a3, 20c88 (10e08 <_Atcount0>)
   228ff:	f8e341        	l32r	a4, 20c8c (10918 <_Nats>)
   22902:	012352        	l32i	a5, a3, 4
   22905:	012462        	l32i	a6, a4, 4
   22908:	0478      	l32i.n	a7, a4, 0
   2290a:	04a516        	beqz	a5, 22958 <exit+0x68>
   2290d:	a05650        	addx4	a5, a6, a5
   22910:	2cb677        	bgeu	a6, a7, 22940 <exit+0x50>
   22913:	0558      	l32i.n	a5, a5, 0
   22915:	f61b      	addi.n	a15, a6, 1
   22917:	14f9      	s32i.n	a15, a4, 4
   22919:	0005e0        	callx8	a5
   2291c:	1458      	l32i.n	a5, a4, 4
   2291e:	0468      	l32i.n	a6, a4, 0
   22920:	1378      	l32i.n	a7, a3, 4
   22922:	f51b      	addi.n	a15, a5, 1
   22924:	18b567        	bgeu	a5, a6, 22940 <exit+0x50>
   22927:	14f9      	s32i.n	a15, a4, 4
   22929:	a06570        	addx4	a6, a5, a7
   2292c:	0668      	l32i.n	a6, a6, 0
   2292e:	0006e0        	callx8	a6
   22931:	fff9c6        	j	2291c <exit+0x2c>

00022934 <exit+0x44>:
   22934:	440b      	addi.n	a4, a4, -1
   22936:	0349      	s32i.n	a4, a3, 0
   22938:	a05450        	addx4	a5, a4, a5
   2293b:	0558      	l32i.n	a5, a5, 0
   2293d:	0005e0        	callx8	a5
   22940:	0348      	l32i.n	a4, a3, 0
   22942:	1358      	l32i.n	a5, a3, 4
   22944:	fec456        	bnez	a4, 22934 <exit+0x44>
   22947:	2348      	l32i.n	a4, a3, 8
   22949:	f8d151        	l32r	a5, 20c90 (0 <_Level2HandlerLabel>)
   2294c:	13a8      	l32i.n	a10, a3, 4
   2294e:	648c      	beqz.n	a4, 22958 <exit+0x68>
   22950:	458c      	beqz.n	a5, 22958 <exit+0x68>
   22952:	f8cf81        	l32r	a8, 20c90 (0 <_Level2HandlerLabel>)
   22955:	0008e0        	callx8	a8
   22958:	02ad      	mov.n	a10, a2
   2295a:	0001e5        	call8	22978 <_Exit>

0002295d <exit+0x6d>:
   2295d:	000000                                        ...

00022960 <_init_reent_bss>:
   22960:	004136        	entry	a1, 32
   22963:	f8cc21        	l32r	a2, 20c94 (10f0c <_reent_ptr>)
   22966:	f8cc31        	l32r	a3, 20c98 (10e18 <g_reent>)
   22969:	140c      	movi.n	a4, 1
   2296b:	f8cc51        	l32r	a5, 20c9c (10458 <__switchjump_table_xp_temp_0_0+0x38>)
   2296e:	0239      	s32i.n	a3, a2, 0
   22970:	1b6342        	s32i	a4, a3, 108
   22973:	1359      	s32i.n	a5, a3, 4
   22975:	f01d      	retw.n

00022977 <_init_reent_bss+0x17>:
	...

00022978 <_Exit>:
   22978:	004136        	entry	a1, 32
   2297b:	02ad      	mov.n	a10, a2
   2297d:	001525        	call8	22ad0 <_exit>

00022980 <set_testbench_exit_location>:
   22980:	004136        	entry	a1, 32
   22983:	f8c731        	l32r	a3, 20ca0 (10b88 <_reftb_exit_location>)
   22986:	0329      	s32i.n	a2, a3, 0
   22988:	f01d      	retw.n

0002298a <set_testbench_exit_location+0xa>:
	...

0002298c <set_testbench_power_toggle_location>:
   2298c:	004136        	entry	a1, 32
   2298f:	f8c531        	l32r	a3, 20ca4 (10b8c <_reftb_power_toggle>)
   22992:	0fa1c2        	movi	a12, 0x10f
   22995:	7fdcc2        	addmi	a12, a12, 0x7f00
   22998:	4b0c      	movi.n	a11, 4
   2299a:	0d0c      	movi.n	a13, 0
   2299c:	02ad      	mov.n	a10, a2
   2299e:	006322        	s32i	a2, a3, 0
   229a1:	004925        	call8	22e34 <xthal_set_region_attribute>
   229a4:	f01d      	retw.n

000229a6 <set_testbench_power_toggle_location+0x1a>:
	...

000229a8 <set_stl_info_location>:
   229a8:	004136        	entry	a1, 32
   229ab:	f8bf31        	l32r	a3, 20ca8 (10b90 <_reftb_stl_info_location>)
   229ae:	0329      	s32i.n	a2, a3, 0
   229b0:	f01d      	retw.n

000229b2 <set_stl_info_location+0xa>:
	...

000229b4 <testbench_exit_location>:
   229b4:	004136        	entry	a1, 32
   229b7:	f8ba21        	l32r	a2, 20ca0 (10b88 <_reftb_exit_location>)
   229ba:	0228      	l32i.n	a2, a2, 0
   229bc:	f01d      	retw.n

000229be <testbench_exit_location+0xa>:
	...

000229c0 <testbench_power_toggle_location>:
   229c0:	004136        	entry	a1, 32
   229c3:	f8b821        	l32r	a2, 20ca4 (10b8c <_reftb_power_toggle>)
   229c6:	0228      	l32i.n	a2, a2, 0
   229c8:	f01d      	retw.n

000229ca <testbench_power_toggle_location+0xa>:
	...

000229cc <testbench_stl_info_location>:
   229cc:	004136        	entry	a1, 32
   229cf:	f8b621        	l32r	a2, 20ca8 (10b90 <_reftb_stl_info_location>)
   229d2:	0228      	l32i.n	a2, a2, 0
   229d4:	f01d      	retw.n

000229d6 <testbench_stl_info_location+0xa>:
	...

000229d8 <setup_power_toggle>:
   229d8:	004136        	entry	a1, 32
   229db:	f8b221        	l32r	a2, 20ca4 (10b8c <_reftb_power_toggle>)
   229de:	0fa1c2        	movi	a12, 0x10f
   229e1:	7fdcc2        	addmi	a12, a12, 0x7f00
   229e4:	02a8      	l32i.n	a10, a2, 0
   229e6:	4b0c      	movi.n	a11, 4
   229e8:	0d0c      	movi.n	a13, 0
   229ea:	0044a5        	call8	22e34 <xthal_set_region_attribute>
   229ed:	120c      	movi.n	a2, 1
   229ef:	f01d      	retw.n

000229f1 <setup_power_toggle+0x19>:
   229f1:	000000                                        ...

000229f4 <set_diag_status>:
   229f4:	004136        	entry	a1, 32
   229f7:	f8aa31        	l32r	a3, 20ca0 (10b88 <_reftb_exit_location>)
   229fa:	0fa1c2        	movi	a12, 0x10f
   229fd:	7fdcc2        	addmi	a12, a12, 0x7f00
   22a00:	03a8      	l32i.n	a10, a3, 0
   22a02:	4b0c      	movi.n	a11, 4
   22a04:	0d0c      	movi.n	a13, 0
   22a06:	0042e5        	call8	22e34 <xthal_set_region_attribute>
   22a09:	0338      	l32i.n	a3, a3, 0
   22a0b:	0020c0        	memw
   22a0e:	d40c      	movi.n	a4, 13
   22a10:	0349      	s32i.n	a4, a3, 0
   22a12:	0020c0        	memw
   22a15:	0329      	s32i.n	a2, a3, 0
   22a17:	120c      	movi.n	a2, 1
   22a19:	005100        	simcall	0
   22a1c:	f01d      	retw.n

00022a1e <set_diag_status+0x2a>:
	...

00022a20 <diag_pass>:
   22a20:	004136        	entry	a1, 32
   22a23:	f89f21        	l32r	a2, 20ca0 (10b88 <_reftb_exit_location>)
   22a26:	0fa1c2        	movi	a12, 0x10f
   22a29:	7fdcc2        	addmi	a12, a12, 0x7f00
   22a2c:	02a8      	l32i.n	a10, a2, 0
   22a2e:	4b0c      	movi.n	a11, 4
   22a30:	0d0c      	movi.n	a13, 0
   22a32:	004025        	call8	22e34 <xthal_set_region_attribute>
   22a35:	0228      	l32i.n	a2, a2, 0
   22a37:	0020c0        	memw
   22a3a:	d30c      	movi.n	a3, 13
   22a3c:	0239      	s32i.n	a3, a2, 0
   22a3e:	0020c0        	memw
   22a41:	130c      	movi.n	a3, 1
   22a43:	0239      	s32i.n	a3, a2, 0
   22a45:	120c      	movi.n	a2, 1
   22a47:	005100        	simcall	0
   22a4a:	120c      	movi.n	a2, 1
   22a4c:	f01d      	retw.n

00022a4e <diag_pass+0x2e>:
	...

00022a50 <diag_fail>:
   22a50:	004136        	entry	a1, 32
   22a53:	f89321        	l32r	a2, 20ca0 (10b88 <_reftb_exit_location>)
   22a56:	0fa1c2        	movi	a12, 0x10f
   22a59:	7fdcc2        	addmi	a12, a12, 0x7f00
   22a5c:	02a8      	l32i.n	a10, a2, 0
   22a5e:	4b0c      	movi.n	a11, 4
   22a60:	0d0c      	movi.n	a13, 0
   22a62:	003d25        	call8	22e34 <xthal_set_region_attribute>
   22a65:	0228      	l32i.n	a2, a2, 0
   22a67:	0020c0        	memw
   22a6a:	d30c      	movi.n	a3, 13
   22a6c:	0239      	s32i.n	a3, a2, 0
   22a6e:	0020c0        	memw
   22a71:	230c      	movi.n	a3, 2
   22a73:	0239      	s32i.n	a3, a2, 0
   22a75:	120c      	movi.n	a2, 1
   22a77:	005100        	simcall	0
   22a7a:	220c      	movi.n	a2, 2
   22a7c:	f01d      	retw.n

00022a7e <diag_fail+0x2e>:
	...

00022a80 <set_stl_status>:
   22a80:	004136        	entry	a1, 32
   22a83:	f889f1        	l32r	a15, 20ca8 (10b90 <_reftb_stl_info_location>)
   22a86:	023d      	mov.n	a3, a2
   22a88:	0f48      	l32i.n	a4, a15, 0
   22a8a:	0020c0        	memw
   22a8d:	020c      	movi.n	a2, 0
   22a8f:	0439      	s32i.n	a3, a4, 0
   22a91:	f01d      	retw.n

00022a93 <set_stl_status+0x13>:
	...

00022a94 <stl_start>:
   22a94:	004136        	entry	a1, 32
   22a97:	f884f1        	l32r	a15, 20ca8 (10b90 <_reftb_stl_info_location>)
   22a9a:	023d      	mov.n	a3, a2
   22a9c:	0f48      	l32i.n	a4, a15, 0
   22a9e:	0020c0        	memw
   22aa1:	020c      	movi.n	a2, 0
   22aa3:	0439      	s32i.n	a3, a4, 0
   22aa5:	f01d      	retw.n

00022aa7 <stl_start+0x13>:
	...

00022aa8 <set_diag_status_fast>:
   22aa8:	004136        	entry	a1, 32
   22aab:	f87d31        	l32r	a3, 20ca0 (10b88 <_reftb_exit_location>)
   22aae:	0338      	l32i.n	a3, a3, 0
   22ab0:	0020c0        	memw
   22ab3:	d40c      	movi.n	a4, 13
   22ab5:	0349      	s32i.n	a4, a3, 0
   22ab7:	0020c0        	memw
   22aba:	0329      	s32i.n	a2, a3, 0
   22abc:	f01d      	retw.n

00022abe <set_diag_status_fast+0x16>:
	...

00022ac0 <outbyte>:
   22ac0:	004136        	entry	a1, 32
   22ac3:	f01d      	retw.n

00022ac5 <outbyte+0x5>:
   22ac5:	000000                                        ...

00022ac8 <inbyte>:
   22ac8:	004136        	entry	a1, 32
   22acb:	f27c      	movi.n	a2, -1
   22acd:	f01d      	retw.n

00022acf <inbyte+0x7>:
	...

00022ad0 <_exit>:
   22ad0:	004136        	entry	a1, 32
   22ad3:	f87331        	l32r	a3, 20ca0 (10b88 <_reftb_exit_location>)
   22ad6:	0fa1c2        	movi	a12, 0x10f
   22ad9:	140c      	movi.n	a4, 1
   22adb:	03a8      	l32i.n	a10, a3, 0
   22add:	7fdcc2        	addmi	a12, a12, 0x7f00
   22ae0:	4b0c      	movi.n	a11, 4
   22ae2:	0d0c      	movi.n	a13, 0
   22ae4:	622240        	saltu	a2, a2, a4
   22ae7:	0034e5        	call8	22e34 <xthal_set_region_attribute>
   22aea:	0338      	l32i.n	a3, a3, 0
   22aec:	0020c0        	memw
   22aef:	d40c      	movi.n	a4, 13
   22af1:	0349      	s32i.n	a4, a3, 0
   22af3:	0020c0        	memw
   22af6:	0329      	s32i.n	a2, a3, 0
   22af8:	120c      	movi.n	a2, 1
   22afa:	005100        	simcall	0
   22afd:	018076        	loop	a0, 22b02 <_exit+0x32>
   22b00:	f03d      	nop.n

00022b02 <_exit+0x32>:
   22b02:	fffdc6        	j	22afd <_exit+0x2d>

00022b05 <_exit+0x35>:
   22b05:	000000                                        ...

00022b08 <xtos_interrupt_enable>:
   22b08:	004136        	entry	a1, 32
   22b0b:	023d      	mov.n	a3, a2
   22b0d:	241c      	movi.n	a4, 18
   22b0f:	f27c      	movi.n	a2, -1
   22b11:	273437        	bltu	a4, a3, 22b3c <xtos_interrupt_enable+0x34>
   22b14:	120c      	movi.n	a2, 1
   22b16:	401300        	ssl	a3
   22b19:	a12200        	sll	a2, a2
   22b1c:	006330        	rsil	a3, 3
   22b1f:	f86341        	l32r	a4, 20cac (10928 <xtos_enabled>)
   22b22:	f86351        	l32r	a5, 20cb0 (1092c <xtos_vpri_enabled>)
   22b25:	0468      	l32i.n	a6, a4, 0
   22b27:	0558      	l32i.n	a5, a5, 0
   22b29:	202620        	or	a2, a6, a2
   22b2c:	105520        	and	a5, a5, a2
   22b2f:	0429      	s32i.n	a2, a4, 0
   22b31:	13e450        	wsr.intenable	a5
   22b34:	13e630        	wsr.ps	a3
   22b37:	002010        	rsync
   22b3a:	020c      	movi.n	a2, 0

00022b3c <xtos_interrupt_enable+0x34>:
   22b3c:	f01d      	retw.n

00022b3e <xtos_interrupt_enable+0x36>:
	...

00022b40 <xtos_interrupt_disable>:
   22b40:	004136        	entry	a1, 32
   22b43:	023d      	mov.n	a3, a2
   22b45:	241c      	movi.n	a4, 18
   22b47:	f27c      	movi.n	a2, -1
   22b49:	273437        	bltu	a4, a3, 22b74 <xtos_interrupt_disable+0x34>
   22b4c:	006320        	rsil	a2, 3
   22b4f:	f857f1        	l32r	a15, 20cac (10928 <xtos_enabled>)
   22b52:	f85751        	l32r	a5, 20cb0 (1092c <xtos_vpri_enabled>)
   22b55:	e47c      	movi.n	a4, -2
   22b57:	0f68      	l32i.n	a6, a15, 0
   22b59:	401300        	ssl	a3
   22b5c:	0558      	l32i.n	a5, a5, 0
   22b5e:	814440        	src	a4, a4, a4
   22b61:	104640        	and	a4, a6, a4
   22b64:	105540        	and	a5, a5, a4
   22b67:	0f49      	s32i.n	a4, a15, 0
   22b69:	13e450        	wsr.intenable	a5
   22b6c:	13e620        	wsr.ps	a2
   22b6f:	002010        	rsync
   22b72:	020c      	movi.n	a2, 0

00022b74 <xtos_interrupt_disable+0x34>:
   22b74:	f01d      	retw.n

00022b76 <xtos_interrupt_disable+0x36>:
	...

00022b78 <xtos_set_interrupt_handler>:
   22b78:	004136        	entry	a1, 32
   22b7b:	026d      	mov.n	a6, a2
   22b7d:	271c      	movi.n	a7, 18
   22b7f:	f27c      	movi.n	a2, -1
   22b81:	353767        	bltu	a7, a6, 22bba <xtos_set_interrupt_handler+0x42>
   22b84:	f84c71        	l32r	a7, 20cb4 (10250 <Xthal_intlevel>)
   22b87:	281c      	movi.n	a8, 18
   22b89:	c09860        	sub	a9, a8, a6
   22b8c:	907670        	addx2	a7, a6, a7
   22b8f:	001772        	l16ui	a7, a7, 0
   22b92:	2447f6        	bgeui	a7, 4, 22bba <xtos_set_interrupt_handler+0x42>
   22b95:	f84871        	l32r	a7, 20cb8 (10930 <xtos_interrupt_table>)
   22b98:	f84981        	l32r	a8, 20cbc (23a84 <xtos_unhandled_interrupt>)
   22b9b:	b02970        	addx8	a2, a9, a7
   22b9e:	0278      	l32i.n	a7, a2, 0
   22ba0:	438c      	beqz.n	a3, 22ba8 <xtos_set_interrupt_handler+0x30>
   22ba2:	1249      	s32i.n	a4, a2, 4
   22ba4:	000106        	j	22bac <xtos_set_interrupt_handler+0x34>

00022ba7 <xtos_set_interrupt_handler+0x2f>:
	...

00022ba8 <xtos_set_interrupt_handler+0x30>:
   22ba8:	083d      	mov.n	a3, a8
   22baa:	1269      	s32i.n	a6, a2, 4
   22bac:	0239      	s32i.n	a3, a2, 0
   22bae:	020c      	movi.n	a2, 0
   22bb0:	658c      	beqz.n	a5, 22bba <xtos_set_interrupt_handler+0x42>
   22bb2:	c03780        	sub	a3, a7, a8
   22bb5:	933730        	movnez	a3, a7, a3
   22bb8:	0539      	s32i.n	a3, a5, 0
   22bba:	f01d      	retw.n

00022bbc <_MemErrorHandler>:
   22bbc:	036d00        	rsr.mesr	a0
   22bbf:	3af0e7        	bbsi	a0, 30, 22bfd <_MemErrorHandler+0x41>
   22bc2:	616f20        	xsr.mevaddr	a2
   22bc5:	087087        	bbci	a0, 24, 22bd1 <_MemErrorHandler+0x15>
   22bc8:	f14200        	l32ex	a0, a2
   22bcb:	f15200        	s32ex	a0, a2
   22bce:	0000c6        	j	22bd5 <_MemErrorHandler+0x19>

00022bd1 <_MemErrorHandler+0x15>:
   22bd1:	0208      	l32i.n	a0, a2, 0
   22bd3:	0209      	s32i.n	a0, a2, 0
   22bd5:	616f20        	xsr.mevaddr	a2
   22bd8:	f83a01        	l32r	a0, 20cc0 (0 <_Level2HandlerLabel>)
   22bdb:	509c      	beqz.n	a0, 22bf4 <_MemErrorHandler+0x38>
   22bdd:	f83901        	l32r	a0, 20cc4 (10dfc <_MemErrorSave>)
   22be0:	0029      	s32i.n	a2, a0, 0
   22be2:	1039      	s32i.n	a3, a0, 4
   22be4:	f83701        	l32r	a0, 20cc0 (0 <_Level2HandlerLabel>)
   22be7:	036d20        	rsr.mesr	a2
   22bea:	0000c0        	callx0	a0
   22bed:	f83531        	l32r	a3, 20cc4 (10dfc <_MemErrorSave>)
   22bf0:	0328      	l32i.n	a2, a3, 0
   22bf2:	1338      	l32i.n	a3, a3, 4
   22bf4:	036c00        	rsr.mesave	a0
   22bf7:	003020        	rfme

00022bfa <_MemErrorHandler+0x3e>:
   22bfa:	000000                                        ...

00022bfd <_MemErrorHandler+0x41>:
   22bfd:	f83201        	l32r	a0, 20cc8 (0 <_Level2HandlerLabel>)
   22c00:	ffc016        	beqz	a0, 22c00 <_MemErrorHandler+0x44>
   22c03:	0000a0        	jx	a0

00022c06 <_MemErrorHandler+0x4a>:
	...

00022c08 <_xtos_l1int_handler>:
   22c08:	7159      	s32i.n	a5, a1, 28
   22c0a:	f83021        	l32r	a2, 20ccc (50022 <_memmap_mem_sram_end+0x22>)
   22c0d:	03b130        	rsr.epc1	a3
   22c10:	61e620        	xsr.ps	a2
   22c13:	0139      	s32i.n	a3, a1, 0
   22c15:	1129      	s32i.n	a2, a1, 4
   22c17:	60c112        	addi	a1, a1, 96
   22c1a:	002010        	rsync
   22c1d:	f82c41        	l32r	a4, 20cd0 (c0000000 <_memmap_cacheattr_bp_allvalid+0x7bbbbbbc>)
   22c20:	203430        	or	a3, a4, a3
   22c23:	904430        	addx2	a4, a4, a3

00022c26 <_LevelOneInterrupt>:
   22c26:	00c136        	entry	a1, 96
   22c29:	0061f0        	rsil	a15, 1
   22c2c:	f820e1        	l32r	a14, 20cac (10928 <xtos_enabled>)
   22c2f:	03e2f0        	rsr.interrupt	a15
   22c32:	03e4c0        	rsr.intenable	a12
   22c35:	1ed8      	l32i.n	a13, a14, 4
   22c37:	10ffc0        	and	a15, a15, a12
   22c3a:	0303c0        	rsr.sar	a12
   22c3d:	31d9      	s32i.n	a13, a1, 12
   22c3f:	07df16        	beqz	a15, 22cc0 <spurious_int>
   22c42:	21c9      	s32i.n	a12, a1, 8
   22c44:	8129      	s32i.n	a2, a1, 32
   22c46:	f27c      	movi.n	a2, -1

00022c48 <_LevelOneInterrupt+0x22>:
   22c48:	40ffc0        	nsau	a12, a15
   22c4b:	f822f1        	l32r	a15, 20cd4 (80000000 <_memmap_cacheattr_bp_allvalid+0x3bbbbbbc>)
   22c4e:	400c00        	ssr	a12
   22c51:	91f0f0        	srl	a15, a15
   22c54:	3022f0        	xor	a2, a2, a15
   22c57:	f820d1        	l32r	a13, 20cd8 (108c8 <main.debug_str_3+0x8>)
   22c5a:	13e3f0        	wsr.intclear	a15
   22c5d:	b0ccd0        	addx8	a12, a12, a13
   22c60:	262cd2        	l32i	a13, a12, 152
   22c63:	0063f0        	rsil	a15, 3
   22c66:	0ef8      	l32i.n	a15, a14, 0
   22c68:	1ed9      	s32i.n	a13, a14, 4
   22c6a:	10ffd0        	and	a15, a15, a13
   22c6d:	13e4f0        	wsr.intenable	a15
   22c70:	002010        	rsync
   22c73:	0060f0        	rsil	a15, 0
   22c76:	0302d0        	rsr.lcount	a13
   22c79:	0300f0        	rsr.lbeg	a15
   22c7c:	91d9      	s32i.n	a13, a1, 36
   22c7e:	0301d0        	rsr.lend	a13
   22c81:	a1f9      	s32i.n	a15, a1, 40
   22c83:	b1d9      	s32i.n	a13, a1, 44
   22c85:	0cd8      	l32i.n	a13, a12, 0
   22c87:	01fd      	mov.n	a15, a1
   22c89:	1ce8      	l32i.n	a14, a12, 4
   22c8b:	000df0        	callx12	a13
   22c8e:	91d8      	l32i.n	a13, a1, 36
   22c90:	a1e8      	l32i.n	a14, a1, 40
   22c92:	b1f8      	l32i.n	a15, a1, 44
   22c94:	1302d0        	wsr.lcount	a13
   22c97:	1300e0        	wsr.lbeg	a14
   22c9a:	1301f0        	wsr.lend	a15
   22c9d:	f803e1        	l32r	a14, 20cac (10928 <xtos_enabled>)
   22ca0:	03e2f0        	rsr.interrupt	a15
   22ca3:	0063d0        	rsil	a13, 3
   22ca6:	0ed8      	l32i.n	a13, a14, 0
   22ca8:	31c8      	l32i.n	a12, a1, 12
   22caa:	10ddc0        	and	a13, a13, a12
   22cad:	10ffd0        	and	a15, a15, a13

00022cb0 <_LevelOneInterrupt+0x8a>:
   22cb0:	024f56        	bnez	a15, 22cd8 <preloop>
   22cb3:	8128      	l32i.n	a2, a1, 32
   22cb5:	1ec9      	s32i.n	a12, a14, 4
   22cb7:	0221c2        	l32i	a12, a1, 8
   22cba:	13e4d0        	wsr.intenable	a13
   22cbd:	0062d0        	rsil	a13, 2

00022cc0 <spurious_int>:
   22cc0:	003120        	clrex
   22cc3:	f80601        	l32r	a0, 20cdc (23a9c <_xtos_return_from_exc>)
   22cc6:	f802d1        	l32r	a13, 20cd0 (c0000000 <_memmap_cacheattr_bp_allvalid+0x7bbbbbbc>)
   22cc9:	1303c0        	wsr.sar	a12
   22ccc:	2000d0        	or	a0, a0, a13
   22ccf:	900d00        	addx2	a0, a13, a0
   22cd2:	0062d0        	rsil	a13, 2
   22cd5:	f01d      	retw.n

00022cd7 <spurious_int+0x17>:
	...

00022cd8 <preloop>:
   22cd8:	40ffd0        	nsau	a13, a15
   22cdb:	f7ffc1        	l32r	a12, 20cd8 (108c8 <main.debug_str_3+0x8>)
   22cde:	b0cdc0        	addx8	a12, a13, a12
   22ce1:	272ce2        	l32i	a14, a12, 156
   22ce4:	10ff20        	and	a15, a15, a2
   22ce7:	10ffe0        	and	a15, a15, a14
   22cea:	f7f0e1        	l32r	a14, 20cac (10928 <xtos_enabled>)

00022ced <preloop+0x15>:
   22ced:	f57f56        	bnez	a15, 22c48 <_LevelOneInterrupt+0x22>
   22cf0:	f7f9f1        	l32r	a15, 20cd4 (80000000 <_memmap_cacheattr_bp_allvalid+0x3bbbbbbc>)
   22cf3:	400d00        	ssr	a13
   22cf6:	91d0f0        	srl	a13, a15
   22cf9:	272cf2        	l32i	a15, a12, 156
   22cfc:	13e3d0        	wsr.intclear	a13
   22cff:	2022f0        	or	a2, a2, a15
   22d02:	3022d0        	xor	a2, a2, a13
   22d05:	ffd5c6        	j	22c60 <_LevelOneInterrupt+0x3a>

00022d08 <_Level2FromVector>:
   22d08:	61d220        	xsr.excsave2	a2
   22d0b:	a0c112        	addi	a1, a1, -96
   22d0e:	4129      	s32i.n	a2, a1, 16
   22d10:	f7ef21        	l32r	a2, 20ccc (50022 <_memmap_mem_sram_end+0x22>)
   22d13:	6149      	s32i.n	a4, a1, 24
   22d15:	7159      	s32i.n	a5, a1, 28
   22d17:	13e620        	wsr.ps	a2
   22d1a:	002010        	rsync
   22d1d:	60c112        	addi	a1, a1, 96
   22d20:	03b240        	rsr.epc2	a4
   22d23:	f7eb51        	l32r	a5, 20cd0 (c0000000 <_memmap_cacheattr_bp_allvalid+0x7bbbbbbc>)
   22d26:	204540        	or	a4, a5, a4
   22d29:	904540        	addx2	a4, a5, a4
   22d2c:	00c136        	entry	a1, 96
   22d2f:	0062f0        	rsil	a15, 2
   22d32:	03e2f0        	rsr.interrupt	a15
   22d35:	03e4c0        	rsr.intenable	a12
   22d38:	f7ead1        	l32r	a13, 20ce0 (7ff80 <_memmap_mem_sram_end+0x2ff80>)
   22d3b:	10ffc0        	and	a15, a15, a12
   22d3e:	10ffd0        	and	a15, a15, a13
   22d41:	0303e0        	rsr.sar	a14
   22d44:	05cf16        	beqz	a15, 22da4 <spurious2int>
   22d47:	21e9      	s32i.n	a14, a1, 8
   22d49:	0302d0        	rsr.lcount	a13
   22d4c:	0300e0        	rsr.lbeg	a14
   22d4f:	91d9      	s32i.n	a13, a1, 36
   22d51:	0301d0        	rsr.lend	a13
   22d54:	a1e9      	s32i.n	a14, a1, 40
   22d56:	0b61d2        	s32i	a13, a1, 44

00022d59 <_Level2FromVector+0x51>:
   22d59:	60c0f0        	neg	a12, a15
   22d5c:	10ccf0        	and	a12, a12, a15
   22d5f:	13e3c0        	wsr.intclear	a12
   22d62:	f7d5d1        	l32r	a13, 20cb8 (10930 <xtos_interrupt_table>)
   22d65:	fe1c      	movi.n	a14, 31
   22d67:	40fcc0        	nsau	a12, a12
   22d6a:	c0fec0        	sub	a15, a14, a12
   22d6d:	60f0f0        	neg	a15, a15
   22d70:	12cff2        	addi	a15, a15, 18
   22d73:	b0cfd0        	addx8	a12, a15, a13
   22d76:	0cd8      	l32i.n	a13, a12, 0
   22d78:	1ce8      	l32i.n	a14, a12, 4
   22d7a:	20f110        	or	a15, a1, a1
   22d7d:	000df0        	callx12	a13
   22d80:	03e2f0        	rsr.interrupt	a15
   22d83:	03e4c0        	rsr.intenable	a12
   22d86:	f7d6d1        	l32r	a13, 20ce0 (7ff80 <_memmap_mem_sram_end+0x2ff80>)
   22d89:	10ffc0        	and	a15, a15, a12
   22d8c:	10ffd0        	and	a15, a15, a13

00022d8f <_Level2FromVector+0x87>:
   22d8f:	fc6f56        	bnez	a15, 22d59 <_Level2FromVector+0x51>
   22d92:	91d8      	l32i.n	a13, a1, 36
   22d94:	a1e8      	l32i.n	a14, a1, 40
   22d96:	b1f8      	l32i.n	a15, a1, 44
   22d98:	1302d0        	wsr.lcount	a13
   22d9b:	1300e0        	wsr.lbeg	a14
   22d9e:	1301f0        	wsr.lend	a15
   22da1:	0221e2        	l32i	a14, a1, 8

00022da4 <spurious2int>:
   22da4:	003120        	clrex
   22da7:	f7cf01        	l32r	a0, 20ce4 (22db8 <return2from_exc>)
   22daa:	f7c9d1        	l32r	a13, 20cd0 (c0000000 <_memmap_cacheattr_bp_allvalid+0x7bbbbbbc>)
   22dad:	1303e0        	wsr.sar	a14
   22db0:	2000d0        	or	a0, a0, a13
   22db3:	900d00        	addx2	a0, a13, a0
   22db6:	f01d      	retw.n

00022db8 <return2from_exc>:
   22db8:	4528      	l32i.n	a2, a5, 16
   22dba:	6548      	l32i.n	a4, a5, 24
   22dbc:	7558      	l32i.n	a5, a5, 28
   22dbe:	003210        	rfi	2

00022dc1 <return2from_exc+0x9>:
   22dc1:	000000                                        ...

00022dc4 <_xtos_syscall_handler>:
   22dc4:	03b130        	rsr.epc1	a3
   22dc7:	030120        	rsr.lend	a2
   22dca:	333b      	addi.n	a3, a3, 3
   22dcc:	0c9237        	bne	a2, a3, 22ddc <_xtos_syscall_handler+0x18>
   22dcf:	030220        	rsr.lcount	a2
   22dd2:	628c      	beqz.n	a2, 22ddc <_xtos_syscall_handler+0x18>
   22dd4:	220b      	addi.n	a2, a2, -1
   22dd6:	130220        	wsr.lcount	a2
   22dd9:	030030        	rsr.lbeg	a3

00022ddc <_xtos_syscall_handler+0x18>:
   22ddc:	4128      	l32i.n	a2, a1, 16
   22dde:	13b130        	wsr.epc1	a3
   22de1:	5138      	l32i.n	a3, a1, 20
   22de3:	044256        	bnez	a2, 22e2b <__deep_call+0x7>
   22de6:	116132        	s32i	a3, a1, 68
   22de9:	126142        	s32i	a4, a1, 72
   22dec:	136152        	s32i	a5, a1, 76
   22def:	f7b731        	l32r	a3, 20ccc (50022 <_memmap_mem_sram_end+0x22>)
   22df2:	03e620        	rsr.ps	a2
   22df5:	13e630        	wsr.ps	a3
   22df8:	03b130        	rsr.epc1	a3
   22dfb:	60c112        	addi	a1, a1, 96
   22dfe:	002010        	rsync
   22e01:	040c      	movi.n	a4, 0

00022e03 <_SyscallException>:
   22e03:	008136        	entry	a1, 64
   22e06:	0001f5        	call12	22e24 <__deep_call>
   22e09:	f7b7e1        	l32r	a14, 20ce8 (80000007 <_memmap_cacheattr_bp_allvalid+0x3bbbbbc3>)
   22e0c:	0cea      	add.n	a0, a12, a14
   22e0e:	f01d      	retw.n

00022e10 <_SyscallException+0xd>:
   22e10:	13e620        	wsr.ps	a2
   22e13:	020c      	movi.n	a2, 0
   22e15:	a548      	l32i.n	a4, a5, 40
   22e17:	002010        	rsync
   22e1a:	13b130        	wsr.epc1	a3
   22e1d:	9538      	l32i.n	a3, a5, 36
   22e1f:	b558      	l32i.n	a5, a5, 44
   22e21:	003000        	rfe

00022e24 <__deep_call>:
   22e24:	006136        	entry	a1, 48
   22e27:	0ffd      	mov.n	a15, a15
   22e29:	f01d      	retw.n

00022e2b <__deep_call+0x7>:
   22e2b:	f27c      	movi.n	a2, -1
   22e2d:	60c112        	addi	a1, a1, 96
   22e30:	003000        	rfe

00022e33 <__deep_call+0xf>:
	...

00022e34 <xthal_set_region_attribute>:
   22e34:	004136        	entry	a1, 32
   22e37:	160c      	movi.n	a6, 1
   22e39:	116630        	slli	a6, a6, 13
   22e3c:	0c3467        	bltu	a4, a6, 22e4c <xthal_set_region_attribute+0x18>
   22e3f:	02ad      	mov.n	a10, a2
   22e41:	03bd      	mov.n	a11, a3
   22e43:	04cd      	mov.n	a12, a4
   22e45:	04dd      	mov.n	a13, a4
   22e47:	0002c6        	j	22e56 <xthal_set_region_attribute+0x22>

00022e4a <xthal_set_region_attribute+0x16>:
	...

00022e4c <xthal_set_region_attribute+0x18>:
   22e4c:	34c040        	extui	a12, a4, 0, 4
   22e4f:	41d440        	srli	a13, a4, 4
   22e52:	02ad      	mov.n	a10, a2
   22e54:	03bd      	mov.n	a11, a3
   22e56:	20e550        	or	a14, a5, a5
   22e59:	0000e5        	call8	22e68 <xthal_mpu_set_region_attribute>
   22e5c:	202aa0        	or	a2, a10, a10
   22e5f:	000090        	retw

00022e62 <xthal_set_region_attribute+0x2e>:
   22e62:	00000000                                 ......

00022e68 <xthal_mpu_set_region_attribute>:
   22e68:	02a136        	entry	a1, 0x150
   22e6b:	027d      	mov.n	a7, a2
   22e6d:	c27c      	movi.n	a2, -4
   22e6f:	026687        	bbci	a6, 8, 22e75 <xthal_mpu_set_region_attribute+0xd>
   22e72:	003886        	j	22f58 <xthal_mpu_set_region_attribute+0xf0>
   22e75:	73ac      	beqz.n	a3, 22ea0 <xthal_mpu_set_region_attribute+0x38>
   22e77:	0266d7        	bbci	a6, 13, 22e7d <xthal_mpu_set_region_attribute+0x15>
   22e7a:	003686        	j	22f58 <xthal_mpu_set_region_attribute+0xf0>
   22e7d:	f73a      	add.n	a15, a7, a3
   22e7f:	3f0b      	addi.n	a3, a15, -1
   22e81:	8f1b      	addi.n	a8, a15, 1
   22e83:	833f80        	moveqz	a3, a15, a8
   22e86:	227c      	movi.n	a2, -14
   22e88:	023737        	bltu	a7, a3, 22e8e <xthal_mpu_set_region_attribute+0x26>
   22e8b:	003246        	j	22f58 <xthal_mpu_set_region_attribute+0xf0>
   22e8e:	14e4d7        	bbsi	a4, 13, 22ea6 <xthal_mpu_set_region_attribute+0x3e>
   22e91:	344040        	extui	a4, a4, 0, 4
   22e94:	927c      	movi.n	a2, -7
   22e96:	486142        	s32i	a4, a1, 0x120
   22e99:	181466        	bnei	a4, 1, 22eb5 <xthal_mpu_set_region_attribute+0x4d>
   22e9c:	002e06        	j	22f58 <xthal_mpu_set_region_attribute+0xf0>

00022e9f <xthal_mpu_set_region_attribute+0x37>:
	...

00022ea0 <xthal_mpu_set_region_attribute+0x38>:
   22ea0:	327c      	movi.n	a2, -13
   22ea2:	f01d      	retw.n

00022ea4 <xthal_mpu_set_region_attribute+0x3c>:
	...

00022ea6 <xthal_mpu_set_region_attribute+0x3e>:
   22ea6:	00a0b2        	movi	a11, 0
   22ea9:	20a770        	or	a10, a7, a7
   22eac:	00a065        	call8	238b4 <xthal_get_entry_for_address>
   22eaf:	3428b0        	extui	a2, a11, 8, 4
   22eb2:	486122        	s32i	a2, a1, 0x120
   22eb5:	1de5e7        	bbsi	a5, 14, 22ed6 <xthal_mpu_set_region_attribute+0x6e>
   22eb8:	ffa022        	movi	a2, 255
   22ebb:	1fd222        	addmi	a2, a2, 0x1f00
   22ebe:	67b257        	bgeu	a2, a5, 22f29 <xthal_mpu_set_region_attribute+0xc1>
   22ec1:	20a550        	or	a10, a5, a5
   22ec4:	00cda5        	call8	23ba0 <xthal_encode_memory_type>
   22ec7:	827c      	movi.n	a2, -8
   22ec9:	0a5d      	mov.n	a5, a10
   22ecb:	159a27        	bne	a10, a2, 22ee4 <xthal_mpu_set_region_attribute+0x7c>
   22ece:	002186        	j	22f58 <xthal_mpu_set_region_attribute+0xf0>

00022ed1 <xthal_mpu_set_region_attribute+0x69>:
   22ed1:	000000                                        ...

00022ed4 <xthal_mpu_set_region_attribute+0x6c>:
	...

00022ed6 <xthal_mpu_set_region_attribute+0x6e>:
   22ed6:	0b0c      	movi.n	a11, 0
   22ed8:	20a770        	or	a10, a7, a7
   22edb:	0020f0        	nop
   22ede:	009d65        	call8	238b4 <xthal_get_entry_for_address>
   22ee1:	845cb0        	extui	a5, a11, 12, 9
   22ee4:	55a542        	movi	a4, 0x555
   22ee7:	904440        	addx2	a4, a4, a4
   22eea:	2ee697        	bbsi	a6, 9, 22f1c <xthal_mpu_set_region_attribute+0xb4>
   22eed:	00a422        	movi	a2, 0x400
   22ef0:	f97c      	movi.n	a9, -1
   22ef2:	874a      	add.n	a8, a7, a4
   22ef4:	102620        	and	a2, a6, a2
   22ef7:	1f0c      	movi.n	a15, 1
   22ef9:	119940        	slli	a9, a9, 12
   22efc:	838720        	moveqz	a8, a7, a2
   22eff:	114f40        	slli	a4, a15, 12
   22f02:	10b890        	and	a11, a8, a9
   22f05:	2d0326        	beqi	a3, -1, 22f36 <xthal_mpu_set_region_attribute+0xce>
   22f08:	170c      	movi.n	a7, 1
   22f0a:	837420        	moveqz	a7, a4, a2
   22f0d:	373a      	add.n	a3, a7, a3
   22f0f:	103390        	and	a3, a3, a9
   22f12:	223b37        	bltu	a11, a3, 22f38 <xthal_mpu_set_region_attribute+0xd0>
   22f15:	337c      	movi.n	a3, -13
   22f17:	932320        	movnez	a2, a3, a2
   22f1a:	f01d      	retw.n

00022f1c <xthal_mpu_set_region_attribute+0xb4>:
   22f1c:	e27c      	movi.n	a2, -2
   22f1e:	368477        	bany	a4, a7, 22f58 <xthal_mpu_set_region_attribute+0xf0>
   22f21:	831b      	addi.n	a8, a3, 1
   22f23:	318487        	bany	a4, a8, 22f58 <xthal_mpu_set_region_attribute+0xf0>
   22f26:	fff0c6        	j	22eed <xthal_mpu_set_region_attribute+0x85>

00022f29 <xthal_mpu_set_region_attribute+0xc1>:
   22f29:	ffa142        	movi	a4, 0x1ff
   22f2c:	827c      	movi.n	a2, -8
   22f2e:	b2b457        	bgeu	a4, a5, 22ee4 <xthal_mpu_set_region_attribute+0x7c>
   22f31:	0008c6        	j	22f58 <xthal_mpu_set_region_attribute+0xf0>

00022f34 <xthal_mpu_set_region_attribute+0xcc>:
	...

00022f36 <xthal_mpu_set_region_attribute+0xce>:
   22f36:	f37c      	movi.n	a3, -1
   22f38:	10c172        	addi	a7, a1, 16
   22f3b:	20a770        	or	a10, a7, a7
   22f3e:	476132        	s32i	a3, a1, 0x11c
   22f41:	4661b2        	s32i	a11, a1, 0x118
   22f44:	00b065        	call8	23a4c <xthal_read_map>
   22f47:	4621d2        	l32i	a13, a1, 0x118
   22f4a:	ffaff2        	movi	a15, -1
   22f4d:	11ff40        	slli	a15, a15, 12
   22f50:	202aa0        	or	a2, a10, a10
   22f53:	3a8c      	beqz.n	a10, 22f5a <xthal_mpu_set_region_attribute+0xf2>
   22f55:	002000        	isync
   22f58:	f01d      	retw.n

00022f5a <xthal_mpu_set_region_attribute+0xf2>:
   22f5a:	120c      	movi.n	a2, 1
   22f5c:	112250        	slli	a2, a2, 11
   22f5f:	10e640        	and	a14, a6, a4
   22f62:	102620        	and	a2, a6, a2
   22f65:	082c      	movi.n	a8, 32
   22f67:	036c      	movi.n	a3, -32
   22f69:	4a61e2        	s32i	a14, a1, 0x128
   22f6c:	4b6122        	s32i	a2, a1, 0x12c
   22f6f:	0e8876        	loop	a8, 22f81 <xthal_mpu_set_region_attribute+0x119>
   22f72:	0788      	l32i.n	a8, a7, 0
   22f74:	1028f0        	and	a2, a8, a15
   22f77:	0292d7        	bne	a2, a13, 22f7d <xthal_mpu_set_region_attribute+0x115>
   22f7a:	0039c6        	j	23065 <xthal_mpu_set_region_attribute+0x1fd>
   22f7d:	331b      	addi.n	a3, a3, 1
   22f7f:	778b      	addi.n	a7, a7, 8

00022f81 <xthal_mpu_set_region_attribute+0x119>:
   22f81:	082c      	movi.n	a8, 32
   22f83:	218b      	addi.n	a2, a1, 8
   22f85:	060c      	movi.n	a6, 0
   22f87:	170c      	movi.n	a7, 1
   22f89:	030c      	movi.n	a3, 0
   22f8b:	188876        	loop	a8, 22fa7 <xthal_mpu_set_region_attribute+0x13f>
   22f8e:	2288      	l32i.n	a8, a2, 8
   22f90:	968c      	beqz.n	a6, 22f9d <xthal_mpu_set_region_attribute+0x135>
   22f92:	0298      	l32i.n	a9, a2, 0
   22f94:	308980        	xor	a8, a9, a8
   22f97:	628840        	saltu	a8, a8, a4
   22f9a:	000146        	j	22fa3 <xthal_mpu_set_region_attribute+0x13b>

00022f9d <xthal_mpu_set_region_attribute+0x135>:
   22f9d:	046080        	extui	a6, a8, 0, 1
   22fa0:	308670        	xor	a8, a6, a7
   22fa3:	383a      	add.n	a3, a8, a3
   22fa5:	228b      	addi.n	a2, a2, 8

00022fa7 <xthal_mpu_set_region_attribute+0x13f>:
   22fa7:	f75171        	l32r	a7, 20cec (10410 <Xthal_mpu_bgmap>)
   22faa:	7633f6        	bgeui	a3, 3, 23024 <xthal_mpu_set_region_attribute+0x1bc>
   22fad:	4148      	l32i.n	a4, a1, 16
   22faf:	5198      	l32i.n	a9, a1, 20
   22fb1:	f74f61        	l32r	a6, 20cf0 (1fff00 <_memmap_mem_sram_end+0x1aff00>)
   22fb4:	fa1c      	movi.n	a10, 31
   22fb6:	1cc122        	addi	a2, a1, 28
   22fb9:	130c      	movi.n	a3, 1
   22fbb:	086c      	movi.n	a8, -32
   22fbd:	638a76        	loop	a10, 23024 <xthal_mpu_set_region_attribute+0x1bc>
   22fc0:	fcc2b2        	addi	a11, a2, -4
   22fc3:	0bc8      	l32i.n	a12, a11, 0
   22fc5:	02a8      	l32i.n	a10, a2, 0
   22fc7:	10e4f0        	and	a14, a4, a15
   22fca:	30dc40        	xor	a13, a12, a4
   22fcd:	1bed07        	bbsi	a13, 0, 22fec <xthal_mpu_set_region_attribute+0x184>
   22fd0:	10dcf0        	and	a13, a12, a15
   22fd3:	15bed7        	bgeu	a14, a13, 22fec <xthal_mpu_set_region_attribute+0x184>
   22fd6:	30ea90        	xor	a14, a10, a9
   22fd9:	0f86e7        	bany	a6, a14, 22fec <xthal_mpu_set_region_attribute+0x184>
   22fdc:	07e8      	l32i.n	a14, a7, 0
   22fde:	10eef0        	and	a14, a14, a15
   22fe1:	071ed7        	beq	a14, a13, 22fec <xthal_mpu_set_region_attribute+0x184>
   22fe4:	27e8      	l32i.n	a14, a7, 8
   22fe6:	10eef0        	and	a14, a14, a15
   22fe9:	189ed7        	bne	a14, a13, 23005 <xthal_mpu_set_region_attribute+0x19d>

00022fec <xthal_mpu_set_region_attribute+0x184>:
   22fec:	20dc40        	or	a13, a12, a4
   22fef:	29ed07        	bbsi	a13, 0, 2301c <xthal_mpu_set_region_attribute+0x1b4>
   22ff2:	07e8      	l32i.n	a14, a7, 0
   22ff4:	10dcf0        	and	a13, a12, a15
   22ff7:	10eef0        	and	a14, a14, a15
   22ffa:	1e1ed7        	beq	a14, a13, 2301c <xthal_mpu_set_region_attribute+0x1b4>
   22ffd:	27e8      	l32i.n	a14, a7, 8
   22fff:	10eef0        	and	a14, a14, a15
   23002:	161ed7        	beq	a14, a13, 2301c <xthal_mpu_set_region_attribute+0x1b4>
   23005:	109980        	and	a9, a9, a8
   23008:	20a390        	or	a10, a3, a9
   2300b:	000046        	j	23010 <xthal_mpu_set_region_attribute+0x1a8>

0002300e <xthal_mpu_set_region_attribute+0x1a6>:
	...

00023010 <xthal_mpu_set_region_attribute+0x1a8>:
   23010:	0020c0        	memw
   23013:	50e4a0        	wptlb	a10, a4
   23016:	04cd      	mov.n	a12, a4
   23018:	0b49      	s32i.n	a4, a11, 0
   2301a:	02a9      	s32i.n	a10, a2, 0
   2301c:	331b      	addi.n	a3, a3, 1
   2301e:	228b      	addi.n	a2, a2, 8
   23020:	0a9d      	mov.n	a9, a10
   23022:	0c4d      	mov.n	a4, a12

00023024 <xthal_mpu_set_region_attribute+0x1bc>:
   23024:	2738      	l32i.n	a3, a7, 8
   23026:	4621d2        	l32i	a13, a1, 0x118
   23029:	01d1b2        	addmi	a11, a1, 0x100
   2302c:	1063f0        	and	a6, a3, a15
   2302f:	6226d0        	saltu	a2, a6, a13
   23032:	b02270        	addx8	a2, a2, a7
   23035:	0228      	l32i.n	a2, a2, 0
   23037:	bb8b      	addi.n	a11, a11, 8
   23039:	080c      	movi.n	a8, 0
   2303b:	042c      	movi.n	a4, 32
   2303d:	0c0c      	movi.n	a12, 0
   2303f:	10e2f0        	and	a14, a2, a15

00023042 <xthal_mpu_set_region_attribute+0x1da>:
   23042:	0bad      	mov.n	a10, a11
   23044:	f03d      	nop.n
   23046:	188076        	loop	a0, 23062 <xthal_mpu_set_region_attribute+0x1fa>
   23049:	440b      	addi.n	a4, a4, -1
   2304b:	0c2d      	mov.n	a2, a12
   2304d:	089d      	mov.n	a9, a8
   2304f:	069496        	bltz	a4, 230bc <xthal_mpu_set_region_attribute+0x254>
   23052:	0a88      	l32i.n	a8, a10, 0
   23054:	f8cab2        	addi	a11, a10, -8
   23057:	0bad      	mov.n	a10, a11
   23059:	10c8f0        	and	a12, a8, a15
   2305c:	048080        	extui	a8, a8, 0, 1
   2305f:	563cd7        	bltu	a12, a13, 230b9 <xthal_mpu_set_region_attribute+0x251>

00023062 <xthal_mpu_set_region_attribute+0x1fa>:
   23062:	fff706        	j	23042 <xthal_mpu_set_region_attribute+0x1da>

00023065 <xthal_mpu_set_region_attribute+0x1fd>:
   23065:	472162        	l32i	a6, a1, 0x11c
   23068:	20c392        	addi	a9, a3, 32
   2306b:	08c722        	addi	a2, a7, 8
   2306e:	020666        	bnei	a6, -1, 23074 <xthal_mpu_set_region_attribute+0x20c>
   23071:	004cc6        	j	231a8 <xthal_mpu_set_region_attribute+0x340>
   23074:	02c9b6        	bltui	a9, 32, 2307a <xthal_mpu_set_region_attribute+0x212>
   23077:	ffc186        	j	22f81 <xthal_mpu_set_region_attribute+0x119>
   2307a:	472172        	l32i	a7, a1, 0x11c
   2307d:	206990        	or	a6, a9, a9
   23080:	20a220        	or	a10, a2, a2
   23083:	021d77        	beq	a13, a7, 23089 <xthal_mpu_set_region_attribute+0x221>
   23086:	0071c6        	j	23251 <xthal_mpu_set_region_attribute+0x3e9>
   23089:	02b697        	bgeu	a6, a9, 2308f <xthal_mpu_set_region_attribute+0x227>
   2308c:	005006        	j	231d0 <xthal_mpu_set_region_attribute+0x368>
   2308f:	02e807        	bbsi	a8, 0, 23095 <xthal_mpu_set_region_attribute+0x22d>
   23092:	ffbac6        	j	22f81 <xthal_mpu_set_region_attribute+0x119>
   23095:	1fc332        	addi	a3, a3, 31
   23098:	027d      	mov.n	a7, a2
   2309a:	168076        	loop	a0, 230b4 <xthal_mpu_set_region_attribute+0x24c>
   2309d:	331b      	addi.n	a3, a3, 1
   2309f:	023367        	bltu	a3, a6, 230a5 <xthal_mpu_set_region_attribute+0x23d>
   230a2:	004a86        	j	231d0 <xthal_mpu_set_region_attribute+0x368>
   230a5:	000782        	l8ui	a8, a7, 0
   230a8:	278b      	addi.n	a2, a7, 8
   230aa:	027d      	mov.n	a7, a2
   230ac:	02e807        	bbsi	a8, 0, 230b2 <xthal_mpu_set_region_attribute+0x24a>
   230af:	ffb386        	j	22f81 <xthal_mpu_set_region_attribute+0x119>
   230b2:	f03d      	nop.n

000230b4 <xthal_mpu_set_region_attribute+0x24c>:
   230b4:	fff806        	j	23098 <xthal_mpu_set_region_attribute+0x230>

000230b7 <xthal_mpu_set_region_attribute+0x24f>:
	...

000230b9 <xthal_mpu_set_region_attribute+0x251>:
   230b9:	088856        	bnez	a8, 23145 <xthal_mpu_set_region_attribute+0x2dd>
   230bc:	049916        	beqz	a9, 23109 <xthal_mpu_set_region_attribute+0x2a1>
   230bf:	046216        	beqz	a2, 23109 <xthal_mpu_set_region_attribute+0x2a1>
   230c2:	431627        	beq	a6, a2, 23109 <xthal_mpu_set_region_attribute+0x2a1>
   230c5:	07c8      	l32i.n	a12, a7, 0
   230c7:	628d60        	saltu	a8, a13, a6
   230ca:	290c      	movi.n	a9, 2
   230cc:	104cf0        	and	a4, a12, a15
   230cf:	361427        	beq	a4, a2, 23109 <xthal_mpu_set_region_attribute+0x2a1>
   230d2:	624d40        	saltu	a4, a13, a4
   230d5:	0a0c      	movi.n	a10, 0
   230d7:	c09980        	sub	a9, a9, a8
   230da:	83a940        	moveqz	a10, a9, a4
   230dd:	b04a70        	addx8	a4, a10, a7
   230e0:	0448      	l32i.n	a4, a4, 0
   230e2:	01d1b2        	addmi	a11, a1, 0x100
   230e5:	092c      	movi.n	a9, 32
   230e7:	1044f0        	and	a4, a4, a15
   230ea:	3a1247        	beq	a2, a4, 23128 <xthal_mpu_set_region_attribute+0x2c0>
   230ed:	2b8b      	addi.n	a2, a11, 8
   230ef:	4961e2        	s32i	a14, a1, 0x124
   230f2:	0f8976        	loop	a9, 23105 <xthal_mpu_set_region_attribute+0x29d>
   230f5:	0298      	l32i.n	a9, a2, 0
   230f7:	f8c222        	addi	a2, a2, -8
   230fa:	10b9f0        	and	a11, a9, a15
   230fd:	023db7        	bltu	a13, a11, 23103 <xthal_mpu_set_region_attribute+0x29b>
   23100:	00f046        	j	234c5 <xthal_mpu_set_region_attribute+0x65d>
   23103:	f03d      	nop.n

00023105 <xthal_mpu_set_region_attribute+0x29d>:
   23105:	00efc6        	j	234c8 <xthal_mpu_set_region_attribute+0x660>

00023108 <xthal_mpu_set_region_attribute+0x2a0>:
	...

00023109 <xthal_mpu_set_region_attribute+0x2a1>:
   23109:	10c1a2        	addi	a10, a1, 16
   2310c:	01a0c2        	movi	a12, 1
   2310f:	20bdd0        	or	a11, a13, a13
   23112:	202ee0        	or	a2, a14, a14
   23115:	0042a5        	call8	23540 <insert_entry_if_needed_with_existing_attr>
   23118:	4621d2        	l32i	a13, a1, 0x118
   2311b:	ffaff2        	movi	a15, -1
   2311e:	02ed      	mov.n	a14, a2
   23120:	11ff40        	slli	a15, a15, 12
   23123:	0a2d      	mov.n	a2, a10
   23125:	e2ca56        	bnez	a10, 22f55 <xthal_mpu_set_region_attribute+0xed>
   23128:	191ed7        	beq	a14, a13, 23145 <xthal_mpu_set_region_attribute+0x2dd>
   2312b:	10c1a2        	addi	a10, a1, 16
   2312e:	00a0c2        	movi	a12, 0
   23131:	20bee0        	or	a11, a14, a14
   23134:	0040a5        	call8	23540 <insert_entry_if_needed_with_existing_attr>
   23137:	4621d2        	l32i	a13, a1, 0x118
   2313a:	ffaff2        	movi	a15, -1
   2313d:	11ff40        	slli	a15, a15, 12
   23140:	0a2d      	mov.n	a2, a10
   23142:	e0fa56        	bnez	a10, 22f55 <xthal_mpu_set_region_attribute+0xed>
   23145:	472122        	l32i	a2, a1, 0x11c
   23148:	082c      	movi.n	a8, 32
   2314a:	10c132        	addi	a3, a1, 16
   2314d:	170226        	beqi	a2, -1, 23168 <xthal_mpu_set_region_attribute+0x300>
   23150:	472142        	l32i	a4, a1, 0x11c
   23153:	098876        	loop	a8, 23160 <xthal_mpu_set_region_attribute+0x2f8>
   23156:	0328      	l32i.n	a2, a3, 0
   23158:	338b      	addi.n	a3, a3, 8
   2315a:	1022f0        	and	a2, a2, a15
   2315d:	01b247        	bgeu	a2, a4, 23162 <xthal_mpu_set_region_attribute+0x2fa>

00023160 <xthal_mpu_set_region_attribute+0x2f8>:
   23160:	020c      	movi.n	a2, 0

00023162 <xthal_mpu_set_region_attribute+0x2fa>:
   23162:	021247        	beq	a2, a4, 23168 <xthal_mpu_set_region_attribute+0x300>
   23165:	002ec6        	j	23224 <xthal_mpu_set_region_attribute+0x3bc>
   23168:	0dbd      	mov.n	a11, a13
   2316a:	1fbd67        	bgeu	a13, a6, 2318d <xthal_mpu_set_region_attribute+0x325>
   2316d:	472122        	l32i	a2, a1, 0x11c
   23170:	06bd      	mov.n	a11, a6
   23172:	173627        	bltu	a6, a2, 2318d <xthal_mpu_set_region_attribute+0x325>
   23175:	002722        	l32i	a2, a7, 0
   23178:	20bdd0        	or	a11, a13, a13
   2317b:	1022f0        	and	a2, a2, a15
   2317e:	0bbd27        	bgeu	a13, a2, 2318d <xthal_mpu_set_region_attribute+0x325>
   23181:	472132        	l32i	a3, a1, 0x11c
   23184:	623230        	saltu	a3, a2, a3
   23187:	832d30        	moveqz	a2, a13, a3
   2318a:	20b220        	or	a11, a2, a2
   2318d:	10c1a2        	addi	a10, a1, 16
   23190:	00a0c2        	movi	a12, 0
   23193:	003ae5        	call8	23540 <insert_entry_if_needed_with_existing_attr>
   23196:	4621d2        	l32i	a13, a1, 0x118
   23199:	ffaff2        	movi	a15, -1
   2319c:	11ff40        	slli	a15, a15, 12
   2319f:	202aa0        	or	a2, a10, a10
   231a2:	dafa56        	bnez	a10, 22f55 <xthal_mpu_set_region_attribute+0xed>
   231a5:	0009c6        	j	231d0 <xthal_mpu_set_region_attribute+0x368>

000231a8 <xthal_mpu_set_region_attribute+0x340>:
   231a8:	24c9f6        	bgeui	a9, 32, 231d0 <xthal_mpu_set_region_attribute+0x368>
   231ab:	02e807        	bbsi	a8, 0, 231b1 <xthal_mpu_set_region_attribute+0x349>
   231ae:	ff73c6        	j	22f81 <xthal_mpu_set_region_attribute+0x119>
   231b1:	603030        	neg	a3, a3
   231b4:	026d      	mov.n	a6, a2
   231b6:	128076        	loop	a0, 231cc <xthal_mpu_set_region_attribute+0x364>
   231b9:	330b      	addi.n	a3, a3, -1
   231bb:	139c      	beqz.n	a3, 231d0 <xthal_mpu_set_region_attribute+0x368>
   231bd:	000672        	l8ui	a7, a6, 0
   231c0:	268b      	addi.n	a2, a6, 8
   231c2:	026d      	mov.n	a6, a2
   231c4:	02e707        	bbsi	a7, 0, 231ca <xthal_mpu_set_region_attribute+0x362>
   231c7:	ff6d86        	j	22f81 <xthal_mpu_set_region_attribute+0x119>
   231ca:	f03d      	nop.n

000231cc <xthal_mpu_set_region_attribute+0x364>:
   231cc:	fff906        	j	231b4 <xthal_mpu_set_region_attribute+0x34c>

000231cf <xthal_mpu_set_region_attribute+0x367>:
	...

000231d0 <xthal_mpu_set_region_attribute+0x368>:
   231d0:	020c      	movi.n	a2, 0
   231d2:	136220        	wsr.cacheadrdis	a2
   231d5:	472192        	l32i	a9, a1, 0x11c
   231d8:	022c      	movi.n	a2, 32
   231da:	01d132        	addmi	a3, a1, 0x100
   231dd:	042c      	movi.n	a4, 32
   231df:	0d8276        	loop	a2, 231f0 <xthal_mpu_set_region_attribute+0x388>
   231e2:	2328      	l32i.n	a2, a3, 8
   231e4:	1022f0        	and	a2, a2, a15
   231e7:	1b3297        	bltu	a2, a9, 23206 <xthal_mpu_set_region_attribute+0x39e>
   231ea:	ffc442        	addi	a4, a4, -1
   231ed:	f8c332        	addi	a3, a3, -8

000231f0 <xthal_mpu_set_region_attribute+0x388>:
   231f0:	10c1a2        	addi	a10, a1, 16
   231f3:	20a0b2        	movi	a11, 32
   231f6:	007025        	call8	238f8 <xthal_calc_cacheadrdis_internal>
   231f9:	1362a0        	wsr.cacheadrdis	a10
   231fc:	020c      	movi.n	a2, 0
   231fe:	ff54c6        	j	22f55 <xthal_mpu_set_region_attribute+0xed>

00023201 <xthal_mpu_set_region_attribute+0x399>:
   23201:	000000                                        ...

00023204 <xthal_mpu_set_region_attribute+0x39c>:
	...

00023206 <xthal_mpu_set_region_attribute+0x39e>:
   23206:	740b      	addi.n	a7, a4, -1
   23208:	036d      	mov.n	a6, a3
   2320a:	202440        	or	a2, a4, a4
   2320d:	0f8076        	loop	a0, 23220 <xthal_mpu_set_region_attribute+0x3b8>
   23210:	220b      	addi.n	a2, a2, -1
   23212:	6012a6        	blti	a2, 1, 23276 <xthal_mpu_set_region_attribute+0x40e>
   23215:	0688      	l32i.n	a8, a6, 0
   23217:	f8c662        	addi	a6, a6, -8
   2321a:	1088f0        	and	a8, a8, a15
   2321d:	5738d7        	bltu	a8, a13, 23278 <xthal_mpu_set_region_attribute+0x410>

00023220 <xthal_mpu_set_region_attribute+0x3b8>:
   23220:	fffa46        	j	2320d <xthal_mpu_set_region_attribute+0x3a5>

00023223 <xthal_mpu_set_region_attribute+0x3bb>:
	...

00023224 <xthal_mpu_set_region_attribute+0x3bc>:
   23224:	472192        	l32i	a9, a1, 0x11c
   23227:	623620        	saltu	a3, a6, a2
   2322a:	10c142        	addi	a4, a1, 16
   2322d:	023297        	bltu	a2, a9, 23233 <xthal_mpu_set_region_attribute+0x3cb>
   23230:	003046        	j	232f5 <xthal_mpu_set_region_attribute+0x48d>
   23233:	09bd      	mov.n	a11, a9
   23235:	10c1a2        	addi	a10, a1, 16
   23238:	01a0c2        	movi	a12, 1
   2323b:	003065        	call8	23540 <insert_entry_if_needed_with_existing_attr>
   2323e:	4621d2        	l32i	a13, a1, 0x118
   23241:	ffaff2        	movi	a15, -1
   23244:	11ff40        	slli	a15, a15, 12
   23247:	202aa0        	or	a2, a10, a10
   2324a:	d07a56        	bnez	a10, 22f55 <xthal_mpu_set_region_attribute+0xed>
   2324d:	ffc5c6        	j	23168 <xthal_mpu_set_region_attribute+0x300>

00023250 <xthal_mpu_set_region_attribute+0x3e8>:
	...

00023251 <xthal_mpu_set_region_attribute+0x3e9>:
   23251:	4721c2        	l32i	a12, a1, 0x11c
   23254:	f71c      	movi.n	a7, 31
   23256:	206990        	or	a6, a9, a9
   23259:	168076        	loop	a0, 23273 <xthal_mpu_set_region_attribute+0x40b>
   2325c:	029677        	bne	a6, a7, 23262 <xthal_mpu_set_region_attribute+0x3fa>
   2325f:	ff4786        	j	22f81 <xthal_mpu_set_region_attribute+0x119>
   23262:	0ab8      	l32i.n	a11, a10, 0
   23264:	661b      	addi.n	a6, a6, 1
   23266:	aa8b      	addi.n	a10, a10, 8
   23268:	10bbf0        	and	a11, a11, a15
   2326b:	029bc7        	bne	a11, a12, 23271 <xthal_mpu_set_region_attribute+0x409>
   2326e:	ff85c6        	j	23089 <xthal_mpu_set_region_attribute+0x221>
   23271:	f03d      	nop.n

00023273 <xthal_mpu_set_region_attribute+0x40b>:
   23273:	fff886        	j	23259 <xthal_mpu_set_region_attribute+0x3f1>

00023276 <xthal_mpu_set_region_attribute+0x40e>:
   23276:	020c      	movi.n	a2, 0
   23278:	10c162        	addi	a6, a1, 16
   2327b:	496162        	s32i	a6, a1, 0x124
   2327e:	b06260        	addx8	a6, a2, a6
   23281:	0668      	l32i.n	a6, a6, 0
   23283:	05ad      	mov.n	a10, a5
   23285:	1066f0        	and	a6, a6, a15
   23288:	391697        	beq	a6, a9, 232c5 <xthal_mpu_set_region_attribute+0x45d>
   2328b:	008a65        	call8	23b30 <xthal_is_writeback>
   2328e:	0a6d      	mov.n	a6, a10
   23290:	05ad      	mov.n	a10, a5
   23292:	0086e5        	call8	23b00 <xthal_is_cacheable>
   23295:	4621d2        	l32i	a13, a1, 0x118
   23298:	ff7c      	movi.n	a15, -1
   2329a:	11ff40        	slli	a15, a15, 12
   2329d:	46ec      	bnez.n	a6, 232c5 <xthal_mpu_set_region_attribute+0x45d>
   2329f:	4b2162        	l32i	a6, a1, 0x12c
   232a2:	668c      	beqz.n	a6, 232ac <xthal_mpu_set_region_attribute+0x444>
   232a4:	4a2162        	l32i	a6, a1, 0x128
   232a7:	206a60        	or	a6, a10, a6
   232aa:	76dc      	bnez.n	a6, 232c5 <xthal_mpu_set_region_attribute+0x45d>
   232ac:	67a0c2        	movi	a12, 103
   232af:	c0b420        	sub	a11, a4, a2
   232b2:	11cc80        	slli	a12, a12, 8
   232b5:	02ad      	mov.n	a10, a2
   232b7:	0020f0        	nop
   232ba:	00a265        	call8	23ce0 <xthal_make_noncacheable>
   232bd:	4621d2        	l32i	a13, a1, 0x118
   232c0:	ff7c      	movi.n	a15, -1
   232c2:	11ff40        	slli	a15, a15, 12
   232c5:	5f17a6        	blti	a7, 1, 23328 <xthal_mpu_set_region_attribute+0x4c0>
   232c8:	0d2d      	mov.n	a2, a13
   232ca:	208776        	loop	a7, 232ee <xthal_mpu_set_region_attribute+0x486>
   232cd:	0348      	l32i.n	a4, a3, 0
   232cf:	1044f0        	and	a4, a4, a15
   232d2:	10b4d7        	bgeu	a4, a13, 232e6 <xthal_mpu_set_region_attribute+0x47e>
   232d5:	1368      	l32i.n	a6, a3, 4
   232d7:	848c60        	extui	a8, a6, 12, 9
   232da:	429857        	bne	a8, a5, 23320 <xthal_mpu_set_region_attribute+0x4b8>
   232dd:	482182        	l32i	a8, a1, 0x120
   232e0:	346860        	extui	a6, a6, 8, 4
   232e3:	399687        	bne	a6, a8, 23320 <xthal_mpu_set_region_attribute+0x4b8>
   232e6:	770b      	addi.n	a7, a7, -1
   232e8:	632240        	minu	a2, a2, a4
   232eb:	f8c332        	addi	a3, a3, -8

000232ee <xthal_mpu_set_region_attribute+0x486>:
   232ee:	070c      	movi.n	a7, 0
   232f0:	02dd      	mov.n	a13, a2
   232f2:	000c86        	j	23328 <xthal_mpu_set_region_attribute+0x4c0>

000232f5 <xthal_mpu_set_region_attribute+0x48d>:
   232f5:	b03340        	addx8	a3, a3, a4
   232f8:	002332        	l32i	a3, a3, 0
   232fb:	10c1a2        	addi	a10, a1, 16
   232fe:	00a0c2        	movi	a12, 0
   23301:	10b3f0        	and	a11, a3, a15
   23304:	029b27        	bne	a11, a2, 2330a <xthal_mpu_set_region_attribute+0x4a2>
   23307:	007dc6        	j	23502 <xthal_mpu_set_region_attribute+0x69a>
   2330a:	0239b7        	bltu	a9, a11, 23310 <xthal_mpu_set_region_attribute+0x4a8>
   2330d:	007c46        	j	23502 <xthal_mpu_set_region_attribute+0x69a>
   23310:	0022e5        	call8	23540 <insert_entry_if_needed_with_existing_attr>
   23313:	202aa0        	or	a2, a10, a10
   23316:	c3ba56        	bnez	a10, 22f55 <xthal_mpu_set_region_attribute+0xed>
   23319:	4721b2        	l32i	a11, a1, 0x11c
   2331c:	ffc546        	j	23235 <xthal_mpu_set_region_attribute+0x3cd>

0002331f <xthal_mpu_set_region_attribute+0x4b7>:
	...

00023320 <xthal_mpu_set_region_attribute+0x4b8>:
   23320:	02dd      	mov.n	a13, a2
   23322:	02c7a6        	blti	a7, 32, 23328 <xthal_mpu_set_region_attribute+0x4c0>
   23325:	ffb1c6        	j	231f0 <xthal_mpu_set_region_attribute+0x388>
   23328:	190c      	movi.n	a9, 1
   2332a:	340c      	movi.n	a4, 3
   2332c:	01b470        	slli	a11, a4, 25
   2332f:	160c      	movi.n	a6, 1
   23331:	119910        	slli	a9, a9, 15
   23334:	920c      	movi.n	a2, 9
   23336:	fa0c      	movi.n	a10, 15
   23338:	109590        	and	a9, a5, a9
   2333b:	112200        	slli	a2, a2, 16
   2333e:	116630        	slli	a6, a6, 13
   23341:	ec1c      	movi.n	a12, 30
   23343:	831c      	movi.n	a3, 24
   23345:	10b5b0        	and	a11, a5, a11
   23348:	10e520        	and	a14, a5, a2
   2334b:	933cb0        	movnez	a3, a12, a11
   2334e:	01aac0        	slli	a10, a10, 20
   23351:	62c560        	saltu	a12, a5, a6
   23354:	419f90        	srli	a9, a9, 15
   23357:	1065a0        	and	a6, a5, a10
   2335a:	4661d2        	s32i	a13, a1, 0x118
   2335d:	758850        	extui	a8, a5, 24, 8
   23360:	c0ee20        	sub	a14, a14, a2
   23363:	0d0c      	movi.n	a13, 0
   23365:	20cc90        	or	a12, a12, a9
   23368:	89a042        	movi	a4, 137
   2336b:	042080        	extui	a2, a8, 0, 1
   2336e:	f5a060        	extui	a10, a6, 16, 16
   23371:	62dde0        	saltu	a13, a13, a14
   23374:	04ec56        	bnez	a12, 233c6 <xthal_mpu_set_region_attribute+0x55e>
   23377:	180c      	movi.n	a8, 1
   23379:	018870        	slli	a8, a8, 25
   2337c:	190c      	movi.n	a9, 1
   2337e:	3e0c      	movi.n	a14, 3
   23380:	740c      	movi.n	a4, 7
   23382:	83e9b0        	moveqz	a14, a9, a11
   23385:	c08b80        	sub	a8, a11, a8
   23388:	9b0c      	movi.n	a11, 9
   2338a:	019bc0        	slli	a9, a11, 20
   2338d:	11f5c0        	slli	a15, a5, 4
   23390:	0144c0        	slli	a4, a4, 20
   23393:	104f40        	and	a4, a15, a4
   23396:	10b590        	and	a11, a5, a9
   23399:	934660        	movnez	a4, a6, a6
   2339c:	c0bb90        	sub	a11, a11, a9
   2339f:	190c      	movi.n	a9, 1
   233a1:	628890        	saltu	a8, a8, a9
   233a4:	119e90        	slli	a9, a14, 7
   233a7:	f54040        	extui	a4, a4, 16, 16
   233aa:	25f050        	extui	a15, a5, 16, 3
   233ad:	204940        	or	a4, a9, a4
   233b0:	11eec0        	slli	a14, a14, 4
   233b3:	93e4b0        	movnez	a14, a4, a11
   233b6:	b088f0        	addx8	a8, a8, a15
   233b9:	f97c      	movi.n	a9, -1
   233bb:	11f940        	slli	a15, a9, 12
   233be:	89a042        	movi	a4, 137
   233c1:	98ea      	add.n	a9, a8, a14
   233c3:	000346        	j	233d4 <xthal_mpu_set_region_attribute+0x56c>

000233c6 <xthal_mpu_set_region_attribute+0x55e>:
   233c6:	990c      	movi.n	a9, 9
   233c8:	108890        	and	a8, a8, a9
   233cb:	41bd50        	srli	a11, a5, 13
   233ce:	06c892        	addi	a9, a8, 6
   233d1:	8395b0        	moveqz	a9, a5, a11
   233d4:	492182        	l32i	a8, a1, 0x124
   233d7:	20ea40        	or	a14, a10, a4
   233da:	232a      	add.n	a2, a3, a2
   233dc:	482132        	l32i	a3, a1, 0x120
   233df:	462142        	l32i	a4, a1, 0x118
   233e2:	0a2c      	movi.n	a10, 32
   233e4:	4b6122        	s32i	a2, a1, 0x12c
   233e7:	20cdc0        	or	a12, a13, a12
   233ea:	b02780        	addx8	a2, a7, a8
   233ed:	c08a70        	sub	a8, a10, a7
   233f0:	f641d1        	l32r	a13, 20cf4 (ffe000ff <xthals_hw_configid0+0x3fdf6e79>)
   233f3:	4721a2        	l32i	a10, a1, 0x11c
   233f6:	4a61e2        	s32i	a14, a1, 0x128
   233f9:	11b380        	slli	a11, a3, 8
   233fc:	341b      	addi.n	a3, a4, 1
   233fe:	0e6c      	movi.n	a14, -32
   23400:	424b      	addi.n	a4, a2, 4
   23402:	588876        	loop	a8, 2345e <xthal_mpu_set_region_attribute+0x5f6>
   23405:	0f8d      	mov.n	a8, a15
   23407:	fcc4f2        	addi	a15, a4, -4
   2340a:	0f28      	l32i.n	a2, a15, 0
   2340c:	108280        	and	a8, a2, a8
   2340f:	4eb8a7        	bgeu	a8, a10, 23461 <xthal_mpu_set_region_attribute+0x5f9>
   23412:	0428      	l32i.n	a2, a4, 0
   23414:	098d      	mov.n	a8, a9
   23416:	9a0c      	movi.n	a10, 9
   23418:	1022d0        	and	a2, a2, a13
   2341b:	dccc      	bnez.n	a12, 2342c <xthal_mpu_set_region_attribute+0x5c4>
   2341d:	018ac0        	slli	a8, a10, 20
   23420:	051687        	beq	a6, a8, 23429 <xthal_mpu_set_region_attribute+0x5c1>
   23423:	4a2182        	l32i	a8, a1, 0x128
   23426:	002656        	bnez	a6, 2342c <xthal_mpu_set_region_attribute+0x5c4>
   23429:	4b2182        	l32i	a8, a1, 0x12c
   2342c:	848080        	extui	a8, a8, 0, 9
   2342f:	11a840        	slli	a10, a8, 12
   23432:	2022b0        	or	a2, a2, a11
   23435:	2022a0        	or	a2, a2, a10
   23438:	448070        	extui	a8, a7, 0, 5
   2343b:	10a2e0        	and	a10, a2, a14
   2343e:	8a8a      	add.n	a8, a10, a8
   23440:	0f39      	s32i.n	a3, a15, 0
   23442:	0429      	s32i.n	a2, a4, 0
   23444:	000006        	j	23448 <xthal_mpu_set_region_attribute+0x5e0>

00023447 <xthal_mpu_set_region_attribute+0x5df>:
	...

00023448 <xthal_mpu_set_region_attribute+0x5e0>:
   23448:	0020c0        	memw
   2344b:	50e380        	wptlb	a8, a3
   2344e:	fa7c      	movi.n	a10, -1
   23450:	0f39      	s32i.n	a3, a15, 0
   23452:	11fa40        	slli	a15, a10, 12
   23455:	4721a2        	l32i	a10, a1, 0x11c
   23458:	0489      	s32i.n	a8, a4, 0
   2345a:	771b      	addi.n	a7, a7, 1
   2345c:	448b      	addi.n	a4, a4, 8

0002345e <xthal_mpu_set_region_attribute+0x5f6>:
   2345e:	ff6386        	j	231f0 <xthal_mpu_set_region_attribute+0x388>

00023461 <xthal_mpu_set_region_attribute+0x5f9>:
   23461:	02c7a6        	blti	a7, 32, 23467 <xthal_mpu_set_region_attribute+0x5ff>
   23464:	ff6206        	j	231f0 <xthal_mpu_set_region_attribute+0x388>
   23467:	042020        	extui	a2, a2, 0, 1
   2346a:	d82216        	beqz	a2, 231f0 <xthal_mpu_set_region_attribute+0x388>
   2346d:	026c      	movi.n	a2, -32
   2346f:	f61c      	movi.n	a6, 31
   23471:	4a8076        	loop	a0, 234bf <xthal_mpu_set_region_attribute+0x657>
   23474:	0488      	l32i.n	a8, a4, 0
   23476:	44c070        	extui	a12, a7, 0, 5
   23479:	849c80        	extui	a9, a8, 12, 9
   2347c:	021957        	beq	a9, a5, 23482 <xthal_mpu_set_region_attribute+0x61a>
   2347f:	ff5b46        	j	231f0 <xthal_mpu_set_region_attribute+0x388>
   23482:	4821a2        	l32i	a10, a1, 0x120
   23485:	349880        	extui	a9, a8, 8, 4
   23488:	10b820        	and	a11, a8, a2
   2348b:	0219a7        	beq	a9, a10, 23491 <xthal_mpu_set_region_attribute+0x629>
   2348e:	ff5786        	j	231f0 <xthal_mpu_set_region_attribute+0x388>
   23491:	fcc482        	addi	a8, a4, -4
   23494:	9bca      	add.n	a9, a11, a12
   23496:	0839      	s32i.n	a3, a8, 0
   23498:	000106        	j	234a0 <xthal_mpu_set_region_attribute+0x638>

0002349b <xthal_mpu_set_region_attribute+0x633>:
   2349b:	00000000                                 .....

000234a0 <xthal_mpu_set_region_attribute+0x638>:
   234a0:	0020c0        	memw
   234a3:	50e390        	wptlb	a9, a3
   234a6:	0839      	s32i.n	a3, a8, 0
   234a8:	0499      	s32i.n	a9, a4, 0
   234aa:	029767        	bne	a7, a6, 234b0 <xthal_mpu_set_region_attribute+0x648>
   234ad:	ff4fc6        	j	231f0 <xthal_mpu_set_region_attribute+0x388>
   234b0:	040492        	l8ui	a9, a4, 4
   234b3:	771b      	addi.n	a7, a7, 1
   234b5:	48cb      	addi.n	a4, a8, 12
   234b7:	02e907        	bbsi	a9, 0, 234bd <xthal_mpu_set_region_attribute+0x655>
   234ba:	ff4c86        	j	231f0 <xthal_mpu_set_region_attribute+0x388>
   234bd:	f03d      	nop.n

000234bf <xthal_mpu_set_region_attribute+0x657>:
   234bf:	ffeb86        	j	23471 <xthal_mpu_set_region_attribute+0x609>

000234c2 <xthal_mpu_set_region_attribute+0x65a>:
   234c2:	000000                                        ...

000234c5 <xthal_mpu_set_region_attribute+0x65d>:
   234c5:	07e907        	bbsi	a9, 0, 234d0 <xthal_mpu_set_region_attribute+0x668>
   234c8:	032d      	mov.n	a2, a3
   234ca:	932c80        	movnez	a2, a12, a8
   234cd:	10b2f0        	and	a11, a2, a15
   234d0:	202cc0        	or	a2, a12, a12
   234d3:	10c1a2        	addi	a10, a1, 16
   234d6:	00a0c2        	movi	a12, 0
   234d9:	000665        	call8	23540 <insert_entry_if_needed_with_existing_attr>
   234dc:	ffaf92        	movi	a9, -1
   234df:	20c220        	or	a12, a2, a2
   234e2:	119940        	slli	a9, a9, 12
   234e5:	0a2d      	mov.n	a2, a10
   234e7:	a6aa56        	bnez	a10, 22f55 <xthal_mpu_set_region_attribute+0xed>
   234ea:	01d122        	addmi	a2, a1, 0x100
   234ed:	082c      	movi.n	a8, 32
   234ef:	228b      	addi.n	a2, a2, 8
   234f1:	0a8876        	loop	a8, 234ff <xthal_mpu_set_region_attribute+0x697>
   234f4:	0288      	l32i.n	a8, a2, 0
   234f6:	f8c222        	addi	a2, a2, -8
   234f9:	10b890        	and	a11, a8, a9
   234fc:	21b4b7        	bgeu	a4, a11, 23521 <xthal_mpu_set_region_attribute+0x6b9>

000234ff <xthal_mpu_set_region_attribute+0x697>:
   234ff:	000846        	j	23524 <xthal_mpu_set_region_attribute+0x6bc>

00023502 <xthal_mpu_set_region_attribute+0x69a>:
   23502:	20b990        	or	a11, a9, a9
   23505:	10c1a2        	addi	a10, a1, 16
   23508:	01a0c2        	movi	a12, 1
   2350b:	000365        	call8	23540 <insert_entry_if_needed_with_existing_attr>
   2350e:	4621d2        	l32i	a13, a1, 0x118
   23511:	ffaff2        	movi	a15, -1
   23514:	202aa0        	or	a2, a10, a10
   23517:	11ff40        	slli	a15, a15, 12
   2351a:	a37a56        	bnez	a10, 22f55 <xthal_mpu_set_region_attribute+0xed>
   2351d:	ff11c6        	j	23168 <xthal_mpu_set_region_attribute+0x300>

00023520 <xthal_mpu_set_region_attribute+0x6b8>:
	...

00023521 <xthal_mpu_set_region_attribute+0x6b9>:
   23521:	08e807        	bbsi	a8, 0, 2352d <xthal_mpu_set_region_attribute+0x6c5>
   23524:	622460        	saltu	a2, a4, a6
   23527:	933c20        	movnez	a3, a12, a2
   2352a:	10b390        	and	a11, a3, a9
   2352d:	10c1a2        	addi	a10, a1, 16
   23530:	1c0c      	movi.n	a12, 1
   23532:	0000e5        	call8	23540 <insert_entry_if_needed_with_existing_attr>
   23535:	4621d2        	l32i	a13, a1, 0x118
   23538:	4921e2        	l32i	a14, a1, 0x124
   2353b:	ff7c      	movi.n	a15, -1
   2353d:	fef7c6        	j	23120 <xthal_mpu_set_region_attribute+0x2b8>

00023540 <insert_entry_if_needed_with_existing_attr>:
   23540:	008136        	entry	a1, 64
   23543:	f67c      	movi.n	a6, -1
   23545:	02fd      	mov.n	a15, a2
   23547:	f8a0e2        	movi	a14, 248
   2354a:	052c      	movi.n	a5, 32
   2354c:	f71c      	movi.n	a7, 31
   2354e:	116640        	slli	a6, a6, 12
   23551:	22ea      	add.n	a2, a2, a14
   23553:	0c8576        	loop	a5, 23563 <insert_entry_if_needed_with_existing_attr+0x23>
   23556:	0258      	l32i.n	a5, a2, 0
   23558:	f8c222        	addi	a2, a2, -8
   2355b:	108560        	and	a8, a5, a6
   2355e:	5a1837        	beq	a8, a3, 235bc <insert_entry_if_needed_with_existing_attr+0x7c>
   23561:	770b      	addi.n	a7, a7, -1

00023563 <insert_entry_if_needed_with_existing_attr+0x23>:
   23563:	190c      	movi.n	a9, 1
   23565:	0a2c      	movi.n	a10, 32
   23567:	f8cf22        	addi	a2, a15, -8
   2356a:	070c      	movi.n	a7, 0
   2356c:	150c      	movi.n	a5, 1
   2356e:	119940        	slli	a9, a9, 12
   23571:	080c      	movi.n	a8, 0
   23573:	188a76        	loop	a10, 2358f <insert_entry_if_needed_with_existing_attr+0x4f>
   23576:	22a8      	l32i.n	a10, a2, 8
   23578:	978c      	beqz.n	a7, 23585 <insert_entry_if_needed_with_existing_attr+0x45>
   2357a:	02b8      	l32i.n	a11, a2, 0
   2357c:	30aba0        	xor	a10, a11, a10
   2357f:	62aa90        	saltu	a10, a10, a9
   23582:	000146        	j	2358b <insert_entry_if_needed_with_existing_attr+0x4b>

00023585 <insert_entry_if_needed_with_existing_attr+0x45>:
   23585:	0470a0        	extui	a7, a10, 0, 1
   23588:	30a750        	xor	a10, a7, a5
   2358b:	8a8a      	add.n	a8, a10, a8
   2358d:	228b      	addi.n	a2, a2, 8

0002358f <insert_entry_if_needed_with_existing_attr+0x4f>:
   2358f:	98bc      	beqz.n	a8, 235cc <insert_entry_if_needed_with_existing_attr+0x8c>
   23591:	f57c      	movi.n	a5, -1
   23593:	f0a0e2        	movi	a14, 240
   23596:	072c      	movi.n	a7, 32
   23598:	7149      	s32i.n	a4, a1, 28
   2359a:	022c      	movi.n	a2, 32
   2359c:	9fea      	add.n	a9, a15, a14
   2359e:	115540        	slli	a5, a5, 12
   235a1:	0c8776        	loop	a7, 235b1 <insert_entry_if_needed_with_existing_attr+0x71>
   235a4:	29c8      	l32i.n	a12, a9, 8
   235a6:	104c50        	and	a4, a12, a5
   235a9:	23b347        	bgeu	a3, a4, 235d0 <insert_entry_if_needed_with_existing_attr+0x90>
   235ac:	f8c992        	addi	a9, a9, -8
   235af:	220b      	addi.n	a2, a2, -1
   235b1:	180c      	movi.n	a8, 1
   235b3:	020c      	movi.n	a2, 0
   235b5:	070c      	movi.n	a7, 0
   235b7:	002346        	j	23648 <insert_entry_if_needed_with_existing_attr+0x108>

000235ba <insert_entry_if_needed_with_existing_attr+0x7a>:
	...

000235bc <insert_entry_if_needed_with_existing_attr+0x7c>:
   235bc:	04d050        	extui	a13, a5, 0, 1
   235bf:	20ed40        	or	a14, a13, a4
   235c2:	020c      	movi.n	a2, 0
   235c4:	7149      	s32i.n	a4, a1, 28
   235c6:	133e16        	beqz	a14, 236fd <insert_entry_if_needed_with_existing_attr+0x1bd>
   235c9:	f01d      	retw.n

000235cb <insert_entry_if_needed_with_existing_attr+0x8b>:
	...

000235cc <insert_entry_if_needed_with_existing_attr+0x8c>:
   235cc:	627c      	movi.n	a2, -10
   235ce:	f01d      	retw.n

000235d0 <insert_entry_if_needed_with_existing_attr+0x90>:
   235d0:	520b      	addi.n	a5, a2, -1
   235d2:	6e15a6        	blti	a5, 1, 23644 <insert_entry_if_needed_with_existing_attr+0x104>
   235d5:	55a562        	movi	a6, 0x555
   235d8:	41f9      	s32i.n	a15, a1, 16
   235da:	1b0c      	movi.n	a11, 1
   235dc:	906660        	addx2	a6, a6, a6
   235df:	0d6c      	movi.n	a13, -32
   235e1:	180c      	movi.n	a8, 1
   235e3:	027d      	mov.n	a7, a2
   235e5:	05fd      	mov.n	a15, a5
   235e7:	5159      	s32i.n	a5, a1, 20
   235e9:	09e8      	l32i.n	a14, a9, 0
   235eb:	4f0b      	addi.n	a4, a15, -1
   235ed:	30cce0        	xor	a12, a12, a14
   235f0:	3836c7        	bltu	a6, a12, 2362c <insert_entry_if_needed_with_existing_attr+0xec>
   235f3:	27a457        	bge	a4, a5, 2361e <insert_entry_if_needed_with_existing_attr+0xde>
   235f6:	09cd      	mov.n	a12, a9
   235f8:	04ed      	mov.n	a14, a4
   235fa:	208b76        	loop	a11, 2361e <insert_entry_if_needed_with_existing_attr+0xde>
   235fd:	3ca8      	l32i.n	a10, a12, 12
   235ff:	4450e0        	extui	a5, a14, 0, 5
   23602:	2c68      	l32i.n	a6, a12, 8
   23604:	10aad0        	and	a10, a10, a13
   23607:	5a5a      	add.n	a5, a10, a5
   23609:	0000c6        	j	23610 <insert_entry_if_needed_with_existing_attr+0xd0>

0002360c <insert_entry_if_needed_with_existing_attr+0xcc>:
   2360c:	00000000                                ....

00023610 <insert_entry_if_needed_with_existing_attr+0xd0>:
   23610:	0020c0        	memw
   23613:	50e650        	wptlb	a5, a6
   23616:	0c69      	s32i.n	a6, a12, 0
   23618:	1c59      	s32i.n	a5, a12, 4
   2361a:	cc8b      	addi.n	a12, a12, 8
   2361c:	ee1b      	addi.n	a14, a14, 1

0002361e <insert_entry_if_needed_with_existing_attr+0xde>:
   2361e:	5158      	l32i.n	a5, a1, 20
   23620:	55a562        	movi	a6, 0x555
   23623:	ffc772        	addi	a7, a7, -1
   23626:	ffc882        	addi	a8, a8, -1
   23629:	906660        	addx2	a6, a6, a6

0002362c <insert_entry_if_needed_with_existing_attr+0xec>:
   2362c:	0d2fa6        	blti	a15, 2, 2363d <insert_entry_if_needed_with_existing_attr+0xfd>
   2362f:	a88c      	beqz.n	a8, 2363d <insert_entry_if_needed_with_existing_attr+0xfd>
   23631:	09c8      	l32i.n	a12, a9, 0
   23633:	bb1b      	addi.n	a11, a11, 1
   23635:	f8c992        	addi	a9, a9, -8
   23638:	04fd      	mov.n	a15, a4
   2363a:	ffeac6        	j	235e9 <insert_entry_if_needed_with_existing_attr+0xa9>

0002363d <insert_entry_if_needed_with_existing_attr+0xfd>:
   2363d:	41f8      	l32i.n	a15, a1, 16
   2363f:	58cc      	bnez.n	a8, 23648 <insert_entry_if_needed_with_existing_attr+0x108>
   23641:	002e06        	j	236fd <insert_entry_if_needed_with_existing_attr+0x1bd>

00023644 <insert_entry_if_needed_with_existing_attr+0x104>:
   23644:	180c      	movi.n	a8, 1
   23646:	027d      	mov.n	a7, a2
   23648:	079d      	mov.n	a9, a7
   2364a:	a20b      	addi.n	a10, a2, -1
   2364c:	0b6c      	movi.n	a11, -32
   2364e:	c07780        	sub	a7, a7, a8
   23651:	000a06        	j	2367d <insert_entry_if_needed_with_existing_attr+0x13d>

00023654 <insert_entry_if_needed_with_existing_attr+0x114>:
   23654:	040c      	movi.n	a4, 0
   23656:	1c8a76        	loop	a10, 23676 <insert_entry_if_needed_with_existing_attr+0x136>
   23659:	3c58      	l32i.n	a5, a12, 12
   2365b:	2c68      	l32i.n	a6, a12, 8
   2365d:	44d040        	extui	a13, a4, 0, 5
   23660:	1055b0        	and	a5, a5, a11
   23663:	55da      	add.n	a5, a5, a13
   23665:	ffffc6        	j	23668 <insert_entry_if_needed_with_existing_attr+0x128>

00023668 <insert_entry_if_needed_with_existing_attr+0x128>:
   23668:	0020c0        	memw
   2366b:	50e650        	wptlb	a5, a6
   2366e:	0c69      	s32i.n	a6, a12, 0
   23670:	1c59      	s32i.n	a5, a12, 4
   23672:	cc8b      	addi.n	a12, a12, 8
   23674:	441b      	addi.n	a4, a4, 1

00023676 <insert_entry_if_needed_with_existing_attr+0x136>:
   23676:	880b      	addi.n	a8, a8, -1
   23678:	990b      	addi.n	a9, a9, -1
   2367a:	07f816        	beqz	a8, 236fd <insert_entry_if_needed_with_existing_attr+0x1bd>

0002367d <insert_entry_if_needed_with_existing_attr+0x13d>:
   2367d:	000f42        	l8ui	a4, a15, 0
   23680:	0fcd      	mov.n	a12, a15
   23682:	06e407        	bbsi	a4, 0, 2368c <insert_entry_if_needed_with_existing_attr+0x14c>
   23685:	cb1ae6        	bgei	a10, 1, 23654 <insert_entry_if_needed_with_existing_attr+0x114>
   23688:	fffa86        	j	23676 <insert_entry_if_needed_with_existing_attr+0x136>

0002368b <insert_entry_if_needed_with_existing_attr+0x14b>:
	...

0002368c <insert_entry_if_needed_with_existing_attr+0x14c>:
   2368c:	e41c      	movi.n	a4, 30
   2368e:	097d      	mov.n	a7, a9
   23690:	692427        	blt	a4, a2, 236fd <insert_entry_if_needed_with_existing_attr+0x1bd>
   23693:	097d      	mov.n	a7, a9
   23695:	064816        	beqz	a8, 236fd <insert_entry_if_needed_with_existing_attr+0x1bd>
   23698:	55a5c2        	movi	a12, 0x555
   2369b:	a21b      	addi.n	a10, a2, 1
   2369d:	f8cfb2        	addi	a11, a15, -8
   236a0:	90ccc0        	addx2	a12, a12, a12
   236a3:	0d6c      	movi.n	a13, -32
   236a5:	0002c6        	j	236b4 <insert_entry_if_needed_with_existing_attr+0x174>

000236a8 <insert_entry_if_needed_with_existing_attr+0x168>:
   236a8:	aa1b      	addi.n	a10, a10, 1
   236aa:	097d      	mov.n	a7, a9
   236ac:	4dcae6        	bgei	a10, 32, 236fd <insert_entry_if_needed_with_existing_attr+0x1bd>
   236af:	097d      	mov.n	a7, a9
   236b1:	048816        	beqz	a8, 236fd <insert_entry_if_needed_with_existing_attr+0x1bd>
   236b4:	b04af0        	addx8	a4, a10, a15
   236b7:	f8c452        	addi	a5, a4, -8
   236ba:	0448      	l32i.n	a4, a4, 0
   236bc:	0558      	l32i.n	a5, a5, 0
   236be:	0a7d      	mov.n	a7, a10
   236c0:	304540        	xor	a4, a5, a4
   236c3:	e13c47        	bltu	a12, a4, 236a8 <insert_entry_if_needed_with_existing_attr+0x168>
   236c6:	2ea2a7        	bge	a2, a10, 236f8 <insert_entry_if_needed_with_existing_attr+0x1b8>
   236c9:	c05a20        	sub	a5, a10, a2
   236cc:	b04ab0        	addx8	a4, a10, a11
   236cf:	258576        	loop	a5, 236f8 <insert_entry_if_needed_with_existing_attr+0x1b8>
   236d2:	1458      	l32i.n	a5, a4, 4
   236d4:	0468      	l32i.n	a6, a4, 0
   236d6:	44e070        	extui	a14, a7, 0, 5
   236d9:	1055d0        	and	a5, a5, a13
   236dc:	55ea      	add.n	a5, a5, a14
   236de:	000186        	j	236e8 <insert_entry_if_needed_with_existing_attr+0x1a8>

000236e1 <insert_entry_if_needed_with_existing_attr+0x1a1>:
   236e1:	00000000                                 .......

000236e8 <insert_entry_if_needed_with_existing_attr+0x1a8>:
   236e8:	0020c0        	memw
   236eb:	50e650        	wptlb	a5, a6
   236ee:	2469      	s32i.n	a6, a4, 8
   236f0:	3459      	s32i.n	a5, a4, 12
   236f2:	f8c442        	addi	a4, a4, -8
   236f5:	ffc772        	addi	a7, a7, -1

000236f8 <insert_entry_if_needed_with_existing_attr+0x1b8>:
   236f8:	880b      	addi.n	a8, a8, -1
   236fa:	ffeb06        	j	236aa <insert_entry_if_needed_with_existing_attr+0x16a>

000236fd <insert_entry_if_needed_with_existing_attr+0x1bd>:
   236fd:	71c8      	l32i.n	a12, a1, 28
   236ff:	fa7c      	movi.n	a10, -1
   23701:	0fbd      	mov.n	a11, a15
   23703:	11aa40        	slli	a10, a10, 12
   23706:	0c2c56        	bnez	a12, 237cc <insert_entry_if_needed_with_existing_attr+0x28c>
   23709:	0bf716        	beqz	a7, 237cc <insert_entry_if_needed_with_existing_attr+0x28c>
   2370c:	670b      	addi.n	a6, a7, -1
   2370e:	b026b0        	addx8	a2, a6, a11
   23711:	0248      	l32i.n	a4, a2, 0
   23713:	026407        	bbci	a4, 0, 23719 <insert_entry_if_needed_with_existing_attr+0x1d9>
   23716:	002c86        	j	237cc <insert_entry_if_needed_with_existing_attr+0x28c>
   23719:	f57451        	l32r	a5, 20cec (10410 <Xthal_mpu_bgmap>)
   2371c:	2588      	l32i.n	a8, a5, 8
   2371e:	4189      	s32i.n	a8, a1, 16
   23720:	1094a0        	and	a9, a4, a10
   23723:	10d8a0        	and	a13, a8, a10
   23726:	029d37        	bne	a13, a3, 2372c <insert_entry_if_needed_with_existing_attr+0x1ec>
   23729:	0027c6        	j	237cc <insert_entry_if_needed_with_existing_attr+0x28c>
   2372c:	0558      	l32i.n	a5, a5, 0
   2372e:	6159      	s32i.n	a5, a1, 24
   23730:	f47c      	movi.n	a4, -1
   23732:	10e5a0        	and	a14, a5, a10
   23735:	029e37        	bne	a14, a3, 2373b <insert_entry_if_needed_with_existing_attr+0x1fb>
   23738:	002406        	j	237cc <insert_entry_if_needed_with_existing_attr+0x28c>
   2373b:	625d30        	saltu	a5, a13, a3
   2373e:	62fd90        	saltu	a15, a13, a9
   23741:	90a540        	addx2	a10, a5, a4
   23744:	904f40        	addx2	a4, a15, a4
   23747:	5169      	s32i.n	a6, a1, 20
   23749:	0c8d      	mov.n	a8, a12
   2374b:	626e30        	saltu	a6, a14, a3
   2374e:	935a50        	movnez	a5, a10, a5
   23751:	62ce90        	saltu	a12, a14, a9
   23754:	93f4f0        	movnez	a15, a4, a15
   23757:	835a60        	moveqz	a5, a10, a6
   2375a:	83f4c0        	moveqz	a15, a4, a12
   2375d:	08cd      	mov.n	a12, a8
   2375f:	5168      	l32i.n	a6, a1, 20
   23761:	f56281        	l32r	a8, 20cec (10410 <Xthal_mpu_bgmap>)
   23764:	fa7c      	movi.n	a10, -1
   23766:	11aa40        	slli	a10, a10, 12
   23769:	5f95f7        	bne	a5, a15, 237cc <insert_entry_if_needed_with_existing_attr+0x28c>
   2376c:	fca042        	movi	a4, 252
   2376f:	20a052        	movi	a5, 32
   23772:	804b40        	add	a4, a11, a4
   23775:	0d8576        	loop	a5, 23786 <insert_entry_if_needed_with_existing_attr+0x246>
   23778:	fcc452        	addi	a5, a4, -4
   2377b:	05f8      	l32i.n	a15, a5, 0
   2377d:	105fa0        	and	a5, a15, a10
   23780:	05b957        	bgeu	a9, a5, 23789 <insert_entry_if_needed_with_existing_attr+0x249>
   23783:	f8c442        	addi	a4, a4, -8

00023786 <insert_entry_if_needed_with_existing_attr+0x246>:
   23786:	000086        	j	2378c <insert_entry_if_needed_with_existing_attr+0x24c>

00023789 <insert_entry_if_needed_with_existing_attr+0x249>:
   23789:	19ef07        	bbsi	a15, 0, 237a6 <insert_entry_if_needed_with_existing_attr+0x266>
   2378c:	41f8      	l32i.n	a15, a1, 16
   2378e:	140c      	movi.n	a4, 1
   23790:	0db9d7        	bgeu	a9, a13, 237a1 <insert_entry_if_needed_with_existing_attr+0x261>
   23793:	61f8      	l32i.n	a15, a1, 24
   23795:	040c      	movi.n	a4, 0
   23797:	06b9e7        	bgeu	a9, a14, 237a1 <insert_entry_if_needed_with_existing_attr+0x261>
   2379a:	61f8      	l32i.n	a15, a1, 24
   2379c:	484b      	addi.n	a4, a8, 4
   2379e:	000106        	j	237a6 <insert_entry_if_needed_with_existing_attr+0x266>

000237a1 <insert_entry_if_needed_with_existing_attr+0x261>:
   237a1:	b04480        	addx8	a4, a4, a8
   237a4:	444b      	addi.n	a4, a4, 4
   237a6:	0448      	l32i.n	a4, a4, 0
   237a8:	056c      	movi.n	a5, -32
   237aa:	04f0f0        	extui	a15, a15, 0, 1
   237ad:	104450        	and	a4, a4, a5
   237b0:	446060        	extui	a6, a6, 0, 5
   237b3:	205f90        	or	a5, a15, a9
   237b6:	446a      	add.n	a4, a4, a6
   237b8:	000106        	j	237c0 <insert_entry_if_needed_with_existing_attr+0x280>

000237bb <insert_entry_if_needed_with_existing_attr+0x27b>:
   237bb:	00000000                                 .....

000237c0 <insert_entry_if_needed_with_existing_attr+0x280>:
   237c0:	0020c0        	memw
   237c3:	50e540        	wptlb	a4, a5
   237c6:	006252        	s32i	a5, a2, 0
   237c9:	016242        	s32i	a4, a2, 4
   237cc:	fca022        	movi	a2, 252
   237cf:	20a042        	movi	a4, 32
   237d2:	802b20        	add	a2, a11, a2
   237d5:	0d8476        	loop	a4, 237e6 <insert_entry_if_needed_with_existing_attr+0x2a6>
   237d8:	fcc242        	addi	a4, a2, -4
   237db:	0488      	l32i.n	a8, a4, 0
   237dd:	1048a0        	and	a4, a8, a10
   237e0:	05b347        	bgeu	a3, a4, 237e9 <insert_entry_if_needed_with_existing_attr+0x2a9>
   237e3:	f8c222        	addi	a2, a2, -8

000237e6 <insert_entry_if_needed_with_existing_attr+0x2a6>:
   237e6:	000106        	j	237ee <insert_entry_if_needed_with_existing_attr+0x2ae>

000237e9 <insert_entry_if_needed_with_existing_attr+0x2a9>:
   237e9:	140c      	movi.n	a4, 1
   237eb:	23e807        	bbsi	a8, 0, 23812 <insert_entry_if_needed_with_existing_attr+0x2d2>
   237ee:	f53f21        	l32r	a2, 20cec (10410 <Xthal_mpu_bgmap>)
   237f1:	180c      	movi.n	a8, 1
   237f3:	2248      	l32i.n	a4, a2, 8
   237f5:	1054a0        	and	a5, a4, a10
   237f8:	09b357        	bgeu	a3, a5, 23805 <insert_entry_if_needed_with_existing_attr+0x2c5>
   237fb:	0248      	l32i.n	a4, a2, 0
   237fd:	080c      	movi.n	a8, 0
   237ff:	1054a0        	and	a5, a4, a10
   23802:	023357        	bltu	a3, a5, 23808 <insert_entry_if_needed_with_existing_attr+0x2c8>
   23805:	b02820        	addx8	a2, a8, a2
   23808:	045040        	extui	a5, a4, 0, 1
   2380b:	040c      	movi.n	a4, 0
   2380d:	224b      	addi.n	a2, a2, 4
   2380f:	8345c0        	moveqz	a4, a5, a12
   23812:	0228      	l32i.n	a2, a2, 0
   23814:	056c      	movi.n	a5, -32
   23816:	1033a0        	and	a3, a3, a10
   23819:	102250        	and	a2, a2, a5
   2381c:	44f070        	extui	a15, a7, 0, 5
   2381f:	343a      	add.n	a3, a4, a3
   23821:	42fa      	add.n	a4, a2, a15
   23823:	000046        	j	23828 <insert_entry_if_needed_with_existing_attr+0x2e8>

00023826 <insert_entry_if_needed_with_existing_attr+0x2e6>:
	...

00023828 <insert_entry_if_needed_with_existing_attr+0x2e8>:
   23828:	0020c0        	memw
   2382b:	50e340        	wptlb	a4, a3
   2382e:	b057b0        	addx8	a5, a7, a11
   23831:	020c      	movi.n	a2, 0
   23833:	0539      	s32i.n	a3, a5, 0
   23835:	1549      	s32i.n	a4, a5, 4
   23837:	f01d      	retw.n

00023839 <insert_entry_if_needed_with_existing_attr+0x2f9>:
   23839:	000000                                        ...

0002383c <xthal_is_kernel_readable>:
   2383c:	004136        	entry	a1, 32
   2383f:	09b2f6        	bgeui	a2, 16, 2384c <xthal_is_kernel_readable+0x10>
   23842:	f52d31        	l32r	a3, 20cf8 (10290 <Xthal_intlevel+0x40>)
   23845:	a02230        	addx4	a2, a2, a3
   23848:	0228      	l32i.n	a2, a2, 0
   2384a:	f01d      	retw.n

0002384c <xthal_is_kernel_readable+0x10>:
   2384c:	927c      	movi.n	a2, -7
   2384e:	f01d      	retw.n

00023850 <xthal_is_kernel_writeable>:
   23850:	004136        	entry	a1, 32
   23853:	09b2f6        	bgeui	a2, 16, 23860 <xthal_is_kernel_writeable+0x10>
   23856:	f52931        	l32r	a3, 20cfc (102d0 <Xthal_intlevel+0x80>)
   23859:	a02230        	addx4	a2, a2, a3
   2385c:	0228      	l32i.n	a2, a2, 0
   2385e:	f01d      	retw.n

00023860 <xthal_is_kernel_writeable+0x10>:
   23860:	927c      	movi.n	a2, -7
   23862:	f01d      	retw.n

00023864 <xthal_is_kernel_executable>:
   23864:	004136        	entry	a1, 32
   23867:	09b2f6        	bgeui	a2, 16, 23874 <xthal_is_kernel_executable+0x10>
   2386a:	f52531        	l32r	a3, 20d00 (10310 <Xthal_intlevel+0xc0>)
   2386d:	a02230        	addx4	a2, a2, a3
   23870:	0228      	l32i.n	a2, a2, 0
   23872:	f01d      	retw.n

00023874 <xthal_is_kernel_executable+0x10>:
   23874:	927c      	movi.n	a2, -7
   23876:	f01d      	retw.n

00023878 <xthal_is_user_readable>:
   23878:	004136        	entry	a1, 32
   2387b:	09b2f6        	bgeui	a2, 16, 23888 <xthal_is_user_readable+0x10>
   2387e:	f52131        	l32r	a3, 20d04 (10350 <Xthal_intlevel+0x100>)
   23881:	a02230        	addx4	a2, a2, a3
   23884:	0228      	l32i.n	a2, a2, 0
   23886:	f01d      	retw.n

00023888 <xthal_is_user_readable+0x10>:
   23888:	927c      	movi.n	a2, -7
   2388a:	f01d      	retw.n

0002388c <xthal_is_user_writeable>:
   2388c:	004136        	entry	a1, 32
   2388f:	09b2f6        	bgeui	a2, 16, 2389c <xthal_is_user_writeable+0x10>
   23892:	f51d31        	l32r	a3, 20d08 (10390 <Xthal_intlevel+0x140>)
   23895:	a02230        	addx4	a2, a2, a3
   23898:	0228      	l32i.n	a2, a2, 0
   2389a:	f01d      	retw.n

0002389c <xthal_is_user_writeable+0x10>:
   2389c:	927c      	movi.n	a2, -7
   2389e:	f01d      	retw.n

000238a0 <xthal_is_user_executable>:
   238a0:	004136        	entry	a1, 32
   238a3:	09b2f6        	bgeui	a2, 16, 238b0 <xthal_is_user_executable+0x10>
   238a6:	f51931        	l32r	a3, 20d0c (103d0 <Xthal_intlevel+0x180>)
   238a9:	a02230        	addx4	a2, a2, a3
   238ac:	0228      	l32i.n	a2, a2, 0
   238ae:	f01d      	retw.n

000238b0 <xthal_is_user_executable+0x10>:
   238b0:	927c      	movi.n	a2, -7
   238b2:	f01d      	retw.n

000238b4 <xthal_get_entry_for_address>:
   238b4:	004136        	entry	a1, 32
   238b7:	024d      	mov.n	a4, a2
   238b9:	50d220        	pptlb	a2, a2
   238bc:	01c296        	bltz	a2, 238dc <xthal_get_entry_for_address+0x28>
   238bf:	238c      	beqz.n	a3, 238c5 <xthal_get_entry_for_address+0x11>
   238c1:	020c      	movi.n	a2, 0
   238c3:	0329      	s32i.n	a2, a3, 0

000238c5 <xthal_get_entry_for_address+0x11>:
   238c5:	f50931        	l32r	a3, 20cec (10410 <Xthal_mpu_bgmap>)
   238c8:	f57c      	movi.n	a5, -1
   238ca:	115540        	slli	a5, a5, 12
   238cd:	2328      	l32i.n	a2, a3, 8
   238cf:	105250        	and	a5, a2, a5
   238d2:	1cb457        	bgeu	a4, a5, 238f2 <xthal_get_entry_for_address+0x3e>
   238d5:	0328      	l32i.n	a2, a3, 0
   238d7:	1338      	l32i.n	a3, a3, 4
   238d9:	f01d      	retw.n

000238db <xthal_get_entry_for_address+0x27>:
	...

000238dc <xthal_get_entry_for_address+0x28>:
   238dc:	238c      	beqz.n	a3, 238e2 <xthal_get_entry_for_address+0x2e>
   238de:	140c      	movi.n	a4, 1
   238e0:	0349      	s32i.n	a4, a3, 0
   238e2:	f37c      	movi.n	a3, -1
   238e4:	413b30        	srli	a3, a3, 11
   238e7:	444020        	extui	a4, a2, 0, 5
   238ea:	103230        	and	a3, a2, a3
   238ed:	50b420        	rptlb0	a2, a4
   238f0:	f01d      	retw.n

000238f2 <xthal_get_entry_for_address+0x3e>:
   238f2:	3338      	l32i.n	a3, a3, 12
   238f4:	f01d      	retw.n

000238f6 <xthal_get_entry_for_address+0x42>:
	...

000238f8 <xthal_calc_cacheadrdis_internal>:
   238f8:	004136        	entry	a1, 32
   238fb:	160c      	movi.n	a6, 1
   238fd:	050c      	movi.n	a5, 0
   238ff:	ffa042        	movi	a4, 255
   23902:	016630        	slli	a6, a6, 29
   23905:	00a072        	movi	a7, 0

00023908 <xthal_calc_cacheadrdis_internal+0x10>:
   23908:	50d780        	pptlb	a8, a7
   2390b:	84ac80        	extui	a10, a8, 12, 9
   2390e:	001f25        	call8	23b00 <xthal_is_cacheable>
   23911:	401500        	ssl	a5
   23914:	feaf82        	movi	a8, -2
   23917:	818880        	src	a8, a8, a8
   2391a:	ffaf92        	movi	a9, -1
   2391d:	8389a0        	moveqz	a8, a9, a10
   23920:	01c552        	addi	a5, a5, 1
   23923:	776a      	add.n	a7, a7, a6
   23925:	104840        	and	a4, a8, a4
   23928:	dc8566        	bnei	a5, 8, 23908 <xthal_calc_cacheadrdis_internal+0x10>
   2392b:	2d13a6        	blti	a3, 1, 2395c <xthal_calc_cacheadrdis_internal+0x64>
   2392e:	e67c      	movi.n	a6, -2
   23930:	f77c      	movi.n	a7, -1
   23932:	0258      	l32i.n	a5, a2, 0
   23934:	f87c      	movi.n	a8, -1
   23936:	118840        	slli	a8, a8, 12
   23939:	108580        	and	a8, a5, a8
   2393c:	50d880        	pptlb	a8, a8
   2393f:	255d50        	extui	a5, a5, 29, 3
   23942:	84ac80        	extui	a10, a8, 12, 9
   23945:	001ba5        	call8	23b00 <xthal_is_cacheable>
   23948:	401500        	ssl	a5
   2394b:	815660        	src	a5, a6, a6
   2394e:	8357a0        	moveqz	a5, a7, a10
   23951:	330b      	addi.n	a3, a3, -1
   23953:	08c222        	addi	a2, a2, 8
   23956:	104540        	and	a4, a5, a4
   23959:	fd5356        	bnez	a3, 23932 <xthal_calc_cacheadrdis_internal+0x3a>
   2395c:	f4e421        	l32r	a2, 20cec (10410 <Xthal_mpu_bgmap>)
   2395f:	ffaf32        	movi	a3, -1
   23962:	113340        	slli	a3, a3, 12
   23965:	022222        	l32i	a2, a2, 8
   23968:	103230        	and	a3, a2, a3
   2396b:	50d330        	pptlb	a3, a3
   2396e:	252d20        	extui	a2, a2, 29, 3
   23971:	84ac30        	extui	a10, a3, 12, 9
   23974:	0018a5        	call8	23b00 <xthal_is_cacheable>
   23977:	feaf32        	movi	a3, -2
   2397a:	401200        	ssl	a2
   2397d:	ff7c      	movi.n	a15, -1
   2397f:	813330        	src	a3, a3, a3
   23982:	93f3a0        	movnez	a15, a3, a10
   23985:	102f40        	and	a2, a15, a4
   23988:	f01d      	retw.n

0002398a <xthal_calc_cacheadrdis_internal+0x92>:
	...

0002398c <xthal_check_map>:
   2398c:	004136        	entry	a1, 32
   2398f:	0a7316        	beqz	a3, 23a3a <xthal_check_map+0xae>
   23992:	052c      	movi.n	a5, 32
   23994:	024d      	mov.n	a4, a2
   23996:	627c      	movi.n	a2, -10
   23998:	02b537        	bgeu	a5, a3, 2399e <xthal_check_map+0x12>
   2399b:	002646        	j	23a38 <xthal_check_map+0xac>
   2399e:	0020c0        	memw
   239a1:	f57c      	movi.n	a5, -1
   239a3:	00a072        	movi	a7, 0
   239a6:	115540        	slli	a5, a5, 12
   239a9:	0fa022        	movi	a2, 15
   239ac:	046d      	mov.n	a6, a4
   239ae:	258376        	loop	a3, 239d7 <xthal_check_map+0x4b>
   239b1:	0688      	l32i.n	a8, a6, 0
   239b3:	0020c0        	memw
   239b6:	106807        	bbci	a8, 0, 239ca <xthal_check_map+0x3e>
   239b9:	1698      	l32i.n	a9, a6, 4
   239bb:	419890        	srli	a9, a9, 8
   239be:	080297        	bnone	a2, a9, 239ca <xthal_check_map+0x3e>
   239c1:	349090        	extui	a9, a9, 0, 4
   239c4:	fcc992        	addi	a9, a9, -4
   239c7:	77a9f6        	bgeui	a9, 12, 23a42 <xthal_check_map+0xb6>

000239ca <xthal_check_map+0x3e>:
   239ca:	108850        	and	a8, a8, a5
   239cd:	6d3877        	bltu	a8, a7, 23a3e <xthal_check_map+0xb2>
   239d0:	0020c0        	memw
   239d3:	668b      	addi.n	a6, a6, 8
   239d5:	087d      	mov.n	a7, a8

000239d7 <xthal_check_map+0x4b>:
   239d7:	0428      	l32i.n	a2, a4, 0
   239d9:	0020c0        	memw
   239dc:	1a6207        	bbci	a2, 0, 239fa <xthal_check_map+0x6e>
   239df:	170527        	bnone	a5, a2, 239fa <xthal_check_map+0x6e>
   239e2:	f4c271        	l32r	a7, 20cec (10410 <Xthal_mpu_bgmap>)
   239e5:	106250        	and	a6, a2, a5
   239e8:	727c      	movi.n	a2, -9
   239ea:	0788      	l32i.n	a8, a7, 0
   239ec:	10f850        	and	a15, a8, a5
   239ef:	071f67        	beq	a15, a6, 239fa <xthal_check_map+0x6e>
   239f2:	27f8      	l32i.n	a15, a7, 8
   239f4:	107f50        	and	a7, a15, a5
   239f7:	3d9767        	bne	a7, a6, 23a38 <xthal_check_map+0xac>

000239fa <xthal_check_map+0x6e>:
   239fa:	630b      	addi.n	a6, a3, -1
   239fc:	020c      	movi.n	a2, 0
   239fe:	66bc      	beqz.n	a6, 23a38 <xthal_check_map+0xac>
   23a00:	f4bb31        	l32r	a3, 20cec (10410 <Xthal_mpu_bgmap>)
   23a03:	f03d      	nop.n
   23a05:	2f8676        	loop	a6, 23a38 <xthal_check_map+0xac>
   23a08:	0020c0        	memw
   23a0b:	0468      	l32i.n	a6, a4, 0
   23a0d:	0020c0        	memw
   23a10:	0020c0        	memw
   23a13:	448b      	addi.n	a4, a4, 8
   23a15:	0020c0        	memw
   23a18:	1ae607        	bbsi	a6, 0, 23a36 <xthal_check_map+0xaa>
   23a1b:	0468      	l32i.n	a6, a4, 0
   23a1d:	047060        	extui	a7, a6, 0, 1
   23a20:	279c      	beqz.n	a7, 23a36 <xthal_check_map+0xaa>
   23a22:	0378      	l32i.n	a7, a3, 0
   23a24:	106650        	and	a6, a6, a5
   23a27:	107750        	and	a7, a7, a5
   23a2a:	081767        	beq	a7, a6, 23a36 <xthal_check_map+0xaa>
   23a2d:	022372        	l32i	a7, a3, 8
   23a30:	107750        	and	a7, a7, a5
   23a33:	0f9767        	bne	a7, a6, 23a46 <xthal_check_map+0xba>
   23a36:	f03d      	nop.n

00023a38 <xthal_check_map+0xac>:
   23a38:	f01d      	retw.n

00023a3a <xthal_check_map+0xae>:
   23a3a:	020c      	movi.n	a2, 0
   23a3c:	f01d      	retw.n

00023a3e <xthal_check_map+0xb2>:
   23a3e:	527c      	movi.n	a2, -11
   23a40:	f01d      	retw.n

00023a42 <xthal_check_map+0xb6>:
   23a42:	927c      	movi.n	a2, -7
   23a44:	f01d      	retw.n

00023a46 <xthal_check_map+0xba>:
   23a46:	727c      	movi.n	a2, -9
   23a48:	f01d      	retw.n

00023a4a <xthal_check_map+0xbe>:
	...

00023a4c <xthal_read_map>:
   23a4c:	004136        	entry	a1, 32
   23a4f:	00a216        	beqz	a2, 23a5d <xthal_read_map+0x11>
   23a52:	20a220        	or	a10, a2, a2
   23a55:	0026e5        	call8	23cc4 <xthal_read_map_raw>
   23a58:	00a022        	movi	a2, 0
   23a5b:	f01d      	retw.n

00023a5d <xthal_read_map+0x11>:
   23a5d:	427c      	movi.n	a2, -12
   23a5f:	f01d      	retw.n

00023a61 <xthal_read_map+0x15>:
   23a61:	000000                                        ...

00023a64 <__do_global_ctors_aux>:
   23a64:	004136        	entry	a1, 32
   23a67:	f4aa31        	l32r	a3, 20d10 (10464 <__CTOR_END__>)
   23a6a:	fcc322        	addi	a2, a3, -4
   23a6d:	0228      	l32i.n	a2, a2, 0
   23a6f:	f8c332        	addi	a3, a3, -8
   23a72:	0a0226        	beqi	a2, -1, 23a80 <__do_global_ctors_aux+0x1c>

00023a75 <__do_global_ctors_aux+0x11>:
   23a75:	0002e0        	callx8	a2
   23a78:	0328      	l32i.n	a2, a3, 0
   23a7a:	fcc332        	addi	a3, a3, -4
   23a7d:	f40266        	bnei	a2, -1, 23a75 <__do_global_ctors_aux+0x11>
   23a80:	f01d      	retw.n

00023a82 <__do_global_ctors_aux+0x1e>:
	...

00023a84 <xtos_unhandled_interrupt>:
   23a84:	002136        	entry	a1, 16
   23a87:	0041f0        	break	1, 15
   23a8a:	f01d      	retw.n

00023a8c <xtos_unhandled_exception>:
   23a8c:	4128      	l32i.n	a2, a1, 16
   23a8e:	5138      	l32i.n	a3, a1, 20
   23a90:	60c112        	addi	a1, a1, 96
   23a93:	004110        	break	1, 1
   23a96:	003000        	rfe

00023a99 <xtos_unhandled_exception+0xd>:
   23a99:	000000                                        ...

00023a9c <_xtos_return_from_exc>:
   23a9c:	1528      	l32i.n	a2, a5, 4
   23a9e:	0538      	l32i.n	a3, a5, 0
   23aa0:	13e620        	wsr.ps	a2
   23aa3:	4528      	l32i.n	a2, a5, 16
   23aa5:	6548      	l32i.n	a4, a5, 24
   23aa7:	002010        	rsync
   23aaa:	13b130        	wsr.epc1	a3
   23aad:	5538      	l32i.n	a3, a5, 20
   23aaf:	7558      	l32i.n	a5, a5, 28
   23ab1:	003000        	rfe

00023ab4 <xthal_convert_to_writethru_memtype>:
   23ab4:	004136        	entry	a1, 32
   23ab7:	80a142        	movi	a4, 0x180
   23aba:	e36c      	movi.n	a3, -18
   23abc:	384247        	ball	a2, a4, 23af8 <xthal_convert_to_writethru_memtype+0x44>
   23abf:	88a142        	movi	a4, 0x188
   23ac2:	104240        	and	a4, a2, a4
   23ac5:	2fe426        	beqi	a4, 128, 23af8 <xthal_convert_to_writethru_memtype+0x44>
   23ac8:	f0a1f2        	movi	a15, 0x1f0
   23acb:	043c      	movi.n	a4, 48
   23acd:	1052f0        	and	a5, a2, a15
   23ad0:	e37c      	movi.n	a3, -2
   23ad2:	221547        	beq	a5, a4, 23af8 <xthal_convert_to_writethru_memtype+0x44>
   23ad5:	f8a142        	movi	a4, 0x1f8
   23ad8:	104240        	and	a4, a2, a4
   23adb:	19b426        	beqi	a4, 16, 23af8 <xthal_convert_to_writethru_memtype+0x44>
   23ade:	8fa132        	movi	a3, 0x18f
   23ae1:	f46c      	movi.n	a4, -17
   23ae3:	89a052        	movi	a5, 137
   23ae6:	106230        	and	a6, a2, a3
   23ae9:	10e240        	and	a14, a2, a4
   23aec:	c0f650        	sub	a15, a6, a5
   23aef:	93e2f0        	movnez	a14, a2, a15
   23af2:	0e2d      	mov.n	a2, a14
   23af4:	f01d      	retw.n

00023af6 <xthal_convert_to_writethru_memtype+0x42>:
	...

00023af8 <xthal_convert_to_writethru_memtype+0x44>:
   23af8:	102320        	and	a2, a3, a2
   23afb:	f01d      	retw.n

00023afd <xthal_convert_to_writethru_memtype+0x49>:
   23afd:	000000                                        ...

00023b00 <xthal_is_cacheable>:
   23b00:	004136        	entry	a1, 32
   23b03:	851c      	movi.n	a5, 24
   23b05:	80a132        	movi	a3, 0x180
   23b08:	105250        	and	a5, a2, a5
   23b0b:	063c      	movi.n	a6, 48
   23b0d:	040c      	movi.n	a4, 0
   23b0f:	103230        	and	a3, a2, a3
   23b12:	10e260        	and	a14, a2, a6
   23b15:	1f0c      	movi.n	a15, 1
   23b17:	f0c552        	addi	a5, a5, -16
   23b1a:	d0ce22        	addi	a2, a14, -48
   23b1d:	623430        	saltu	a3, a4, a3
   23b20:	6255f0        	saltu	a5, a5, a15
   23b23:	6222f0        	saltu	a2, a2, a15
   23b26:	203350        	or	a3, a3, a5
   23b29:	202230        	or	a2, a2, a3
   23b2c:	f01d      	retw.n

00023b2e <xthal_is_cacheable+0x2e>:
	...

00023b30 <xthal_is_writeback>:
   23b30:	004136        	entry	a1, 32
   23b33:	023d      	mov.n	a3, a2
   23b35:	81a142        	movi	a4, 0x181
   23b38:	120c      	movi.n	a2, 1
   23b3a:	464347        	ball	a3, a4, 23b84 <xthal_is_writeback+0x54>
   23b3d:	90a142        	movi	a4, 0x190
   23b40:	105340        	and	a5, a3, a4
   23b43:	3d1547        	beq	a5, a4, 23b84 <xthal_is_writeback+0x54>
   23b46:	89a142        	movi	a4, 0x189
   23b49:	81a052        	movi	a5, 129
   23b4c:	104340        	and	a4, a3, a4
   23b4f:	311457        	beq	a4, a5, 23b84 <xthal_is_writeback+0x54>
   23b52:	98a142        	movi	a4, 0x198
   23b55:	90a052        	movi	a5, 144
   23b58:	104340        	and	a4, a3, a4
   23b5b:	251457        	beq	a4, a5, 23b84 <xthal_is_writeback+0x54>
   23b5e:	f0a122        	movi	a2, 0x1f0
   23b61:	043c      	movi.n	a4, 48
   23b63:	102320        	and	a2, a3, a2
   23b66:	1e1247        	beq	a2, a4, 23b88 <xthal_is_writeback+0x58>
   23b69:	f8a122        	movi	a2, 0x1f8
   23b6c:	102320        	and	a2, a3, a2
   23b6f:	15b226        	beqi	a2, 16, 23b88 <xthal_is_writeback+0x58>
   23b72:	8fa1f2        	movi	a15, 0x18f
   23b75:	89a042        	movi	a4, 137
   23b78:	1053f0        	and	a5, a3, a15
   23b7b:	00a022        	movi	a2, 0
   23b7e:	029547        	bne	a5, a4, 23b84 <xthal_is_writeback+0x54>
   23b81:	042430        	extui	a2, a3, 4, 1

00023b84 <xthal_is_writeback+0x54>:
   23b84:	f01d      	retw.n

00023b86 <xthal_is_writeback+0x56>:
	...

00023b88 <xthal_is_writeback+0x58>:
   23b88:	042030        	extui	a2, a3, 0, 1
   23b8b:	f01d      	retw.n

00023b8d <xthal_is_writeback+0x5d>:
   23b8d:	000000                                        ...

00023b90 <xthal_is_device>:
   23b90:	004136        	entry	a1, 32
   23b93:	f0a132        	movi	a3, 0x1f0
   23b96:	102230        	and	a2, a2, a3
   23b99:	1f0c      	movi.n	a15, 1
   23b9b:	6222f0        	saltu	a2, a2, a15
   23b9e:	f01d      	retw.n

00023ba0 <xthal_encode_memory_type>:
   23ba0:	004136        	entry	a1, 32
   23ba3:	f57c      	movi.n	a5, -1
   23ba5:	115530        	slli	a5, a5, 13
   23ba8:	023d      	mov.n	a3, a2
   23baa:	6b0527        	bnone	a5, a2, 23c19 <xthal_encode_memory_type+0x79>
   23bad:	f20c      	movi.n	a2, 15
   23baf:	11f200        	slli	a15, a2, 16
   23bb2:	940c      	movi.n	a4, 9
   23bb4:	114400        	slli	a4, a4, 16
   23bb7:	1063f0        	and	a6, a3, a15
   23bba:	827c      	movi.n	a2, -8
   23bbc:	02b467        	bgeu	a4, a6, 23bc2 <xthal_encode_memory_type+0x22>
   23bbf:	003cc6        	j	23cb6 <xthal_encode_memory_type+0x116>
   23bc2:	105350        	and	a5, a3, a5
   23bc5:	355450        	extui	a5, a5, 20, 4
   23bc8:	117500        	slli	a7, a5, 16
   23bcb:	02b477        	bgeu	a4, a7, 23bd1 <xthal_encode_memory_type+0x31>
   23bce:	003906        	j	23cb6 <xthal_encode_memory_type+0x116>
   23bd1:	105340        	and	a5, a3, a4
   23bd4:	48e3f7        	bbsi	a3, 15, 23c20 <xthal_encode_memory_type+0x80>
   23bd7:	451547        	beq	a5, a4, 23c20 <xthal_encode_memory_type+0x80>
   23bda:	360c      	movi.n	a6, 3
   23bdc:	016670        	slli	a6, a6, 25
   23bdf:	02c367        	bnall	a3, a6, 23be5 <xthal_encode_memory_type+0x45>
   23be2:	003406        	j	23cb6 <xthal_encode_memory_type+0x116>
   23be5:	960c      	movi.n	a6, 9
   23be7:	016680        	slli	a6, a6, 24
   23bea:	106360        	and	a6, a3, a6
   23bed:	0c5656        	bnez	a6, 23cb6 <xthal_encode_memory_type+0x116>

00023bf0 <xthal_encode_memory_type+0x50>:
   23bf0:	f20c      	movi.n	a2, 15
   23bf2:	0122c0        	slli	a2, a2, 20
   23bf5:	102320        	and	a2, a3, a2
   23bf8:	709547        	bne	a5, a4, 23c6c <xthal_encode_memory_type+0xcc>
   23bfb:	928c      	beqz.n	a2, 23c08 <xthal_encode_memory_type+0x68>
   23bfd:	940c      	movi.n	a4, 9
   23bff:	0144c0        	slli	a4, a4, 20
   23c02:	021247        	beq	a2, a4, 23c08 <xthal_encode_memory_type+0x68>
   23c05:	002bc6        	j	23cb8 <xthal_encode_memory_type+0x118>
   23c08:	152930        	extui	a2, a3, 25, 2
   23c0b:	e41c      	movi.n	a4, 30
   23c0d:	851c      	movi.n	a5, 24
   23c0f:	05f830        	extui	a15, a3, 24, 1
   23c12:	935420        	movnez	a5, a4, a2
   23c15:	25fa      	add.n	a2, a5, a15
   23c17:	f01d      	retw.n

00023c19 <xthal_encode_memory_type+0x79>:
   23c19:	842430        	extui	a2, a3, 4, 9
   23c1c:	f01d      	retw.n

00023c1e <xthal_encode_memory_type+0x7e>:
	...

00023c20 <xthal_encode_memory_type+0x80>:
   23c20:	092756        	bnez	a7, 23cb6 <xthal_encode_memory_type+0x116>
   23c23:	180c      	movi.n	a8, 1
   23c25:	090c      	movi.n	a9, 0
   23c27:	62a970        	saltu	a10, a9, a7
   23c2a:	118810        	slli	a8, a8, 15
   23c2d:	107380        	and	a7, a3, a8
   23c30:	2066a0        	or	a6, a6, a10
   23c33:	628970        	saltu	a8, a9, a7
   23c36:	626960        	saltu	a6, a9, a6
   23c39:	106860        	and	a6, a8, a6
   23c3c:	076656        	bnez	a6, 23cb6 <xthal_encode_memory_type+0x116>
   23c3f:	0273b7        	bbci	a3, 27, 23c45 <xthal_encode_memory_type+0xa5>
   23c42:	701547        	beq	a5, a4, 23cb6 <xthal_encode_memory_type+0x116>
   23c45:	360c      	movi.n	a6, 3
   23c47:	016670        	slli	a6, a6, 25
   23c4a:	180c      	movi.n	a8, 1
   23c4c:	106360        	and	a6, a3, a6
   23c4f:	018870        	slli	a8, a8, 25
   23c52:	601687        	beq	a6, a8, 23cb6 <xthal_encode_memory_type+0x116>
   23c55:	180c      	movi.n	a8, 1
   23c57:	018860        	slli	a8, a8, 26
   23c5a:	581687        	beq	a6, a8, 23cb6 <xthal_encode_memory_type+0x116>
   23c5d:	f8f716        	beqz	a7, 23bf0 <xthal_encode_memory_type+0x50>
   23c60:	752830        	extui	a2, a3, 24, 8
   23c63:	9f0c      	movi.n	a15, 9
   23c65:	1022f0        	and	a2, a2, a15
   23c68:	226b      	addi.n	a2, a2, 6
   23c6a:	f01d      	retw.n

00023c6c <xthal_encode_memory_type+0xcc>:
   23c6c:	340c      	movi.n	a4, 3
   23c6e:	014470        	slli	a4, a4, 25
   23c71:	970c      	movi.n	a7, 9
   23c73:	360c      	movi.n	a6, 3
   23c75:	150c      	movi.n	a5, 1
   23c77:	104340        	and	a4, a3, a4
   23c7a:	0177c0        	slli	a7, a7, 20
   23c7d:	935640        	movnez	a5, a6, a4
   23c80:	05c377        	bnall	a3, a7, 23c89 <xthal_encode_memory_type+0xe9>
   23c83:	1125c0        	slli	a2, a5, 4
   23c86:	000586        	j	23ca0 <xthal_encode_memory_type+0x100>

00023c89 <xthal_encode_memory_type+0xe9>:
   23c89:	760c      	movi.n	a6, 7
   23c8b:	0166c0        	slli	a6, a6, 20
   23c8e:	1173c0        	slli	a7, a3, 4
   23c91:	106760        	and	a6, a7, a6
   23c94:	936220        	movnez	a6, a2, a2
   23c97:	11e590        	slli	a14, a5, 7
   23c9a:	f5f060        	extui	a15, a6, 16, 16
   23c9d:	202ef0        	or	a2, a14, a15
   23ca0:	150c      	movi.n	a5, 1
   23ca2:	015570        	slli	a5, a5, 25
   23ca5:	c04450        	sub	a4, a4, a5
   23ca8:	1f0c      	movi.n	a15, 1
   23caa:	253030        	extui	a3, a3, 16, 3
   23cad:	6244f0        	saltu	a4, a4, a15
   23cb0:	b03430        	addx8	a3, a4, a3
   23cb3:	202320        	or	a2, a3, a2
   23cb6:	f01d      	retw.n

00023cb8 <xthal_encode_memory_type+0x118>:
   23cb8:	f52020        	extui	a2, a2, 16, 16
   23cbb:	89a032        	movi	a3, 137
   23cbe:	202230        	or	a2, a2, a3
   23cc1:	f01d      	retw.n

00023cc3 <xthal_encode_memory_type+0x123>:
	...

00023cc4 <xthal_read_map_raw>:
   23cc4:	002136        	entry	a1, 16
   23cc7:	032c      	movi.n	a3, 32
   23cc9:	b02320        	addx8	a2, a3, a2

00023ccc <xthal_read_map_raw+0x8>:
   23ccc:	330b      	addi.n	a3, a3, -1
   23cce:	f8c222        	addi	a2, a2, -8
   23cd1:	50b340        	rptlb0	a4, a3
   23cd4:	0249      	s32i.n	a4, a2, 0
   23cd6:	50f340        	rptlb1	a4, a3
   23cd9:	1249      	s32i.n	a4, a2, 4
   23cdb:	fed356        	bnez	a3, 23ccc <xthal_read_map_raw+0x8>
   23cde:	f01d      	retw.n

00023ce0 <xthal_make_noncacheable>:
   23ce0:	002136        	entry	a1, 16
   23ce3:	01a0a2        	movi	a10, 1
   23ce6:	e3af92        	movi	a9, -29
   23ce9:	108376        	loop	a3, 23cfd <xthal_make_noncacheable+0x1d>
   23cec:	50b280        	rptlb0	a8, a2
   23cef:	108890        	and	a8, a8, a9
   23cf2:	2088a0        	or	a8, a8, a10
   23cf5:	207420        	or	a7, a4, a2
   23cf8:	50e870        	wptlb	a7, a8
   23cfb:	221b      	addi.n	a2, a2, 1

00023cfd <xthal_make_noncacheable+0x1d>:
   23cfd:	002000        	isync
   23d00:	f01d      	retw.n

00023d02 <xthal_make_noncacheable+0x22>:
	...

00023d04 <_fini>:
   23d04:	008136        	entry	a1, 64
   23d07:	f40381        	l32r	a8, 20d14 (20df0 <__do_global_dtors_aux>)
   23d0a:	f03d      	nop.n
   23d0c:	0008e0        	callx8	a8
   23d0f:	f01d      	retw.n

00023d11 <_fini+0xd>:
   23d11:	000000                                        ...

Disassembly of section .debug_aranges:

00000000 <.debug_aranges>:
   0:	0000001c 00000002 00040000 00000000     ................
  10:	00020d30 000000bf 00000000 00000000     0...............
  20:	0000001c 082c0002 00040000 00000000     ......,.........
  30:	00020000 0000014b 00000000 00000000     ....K...........
  40:	0000001c 08520002 00040000 00000000     ......R.........
  50:	000209c0 00000008 00000000 00000000     ................
  60:	0000001c 08780002 00040000 00000000     ......x.........
  70:	00020b00 00000006 00000000 00000000     ................
  80:	0000001c 089e0002 00040000 00000000     ................
  90:	00020a40 0000000e 00000000 00000000     @...............
  a0:	0000001c 0b580002 00040000 00000000     ......X.........
  b0:	00023a84 00000008 00000000 00000000     .:..............
  c0:	0000001c 0b7e0002 00040000 00000000     ......~.........
  d0:	00022bbc 0000004a 00000000 00000000     .+..J...........
  e0:	0000001c 0ba40002 00040000 00000000     ................
  f0:	00020330 00000022 00000000 00000000     0..."...........
 100:	0000001c 0bca0002 00040000 00000000     ................
 110:	00020a00 00000003 00000000 00000000     ................
 120:	0000001c 0bf00002 00040000 00000000     ................
 130:	00020a80 00000017 00000000 00000000     ................
 140:	0000001c 0c160002 00040000 00000000     ................
 150:	00022c08 00000100 00000000 00000000     .,..............
 160:	0000001c 0c3c0002 00040000 00000000     ......<.........
 170:	00020800 0000016a 00000000 00000000     ....j...........
 180:	0000001c 0c620002 00040000 00000000     ......b.........
 190:	00020980 00000006 00000000 00000000     ................
 1a0:	0000001c 0c880002 00040000 00000000     ................
 1b0:	00022d08 000000b9 00000000 00000000     .-..............
 1c0:	0000001c 0cae0002 00040000 00000000     ................
 1d0:	00023a8c 0000000d 00000000 00000000     .:..............
 1e0:	0000001c 0cd40002 00040000 00000000     ................
 1f0:	00022dc4 0000006f 00000000 00000000     .-..o...........
 200:	0000001c 0cfa0002 00040000 00000000     ................
 210:	00023a9c 00000018 00000000 00000000     .:..............
 220:	0000001c 30660002 00040000 00000000     ......f0........
 230:	00023cc4 0000001c 00000000 00000000     .<..............
 240:	0000001c 308c0002 00040000 00000000     .......0........
 250:	00023ce0 00000022 00000000 00000000     .<.."...........

Disassembly of section .debug_ranges:

00000000 <.debug_ranges>:
   0:	00000018 0000001e 00000021 00000024     ........!...$...
	...
  18:	00000117 00000121 00000123 00000125     ....!...#...%...
	...
  30:	00000153 00000159 0000015b 00000164     S...Y...[...d...
  40:	00000167 0000017d 00000000 00000000     g...}...........
  50:	00022ef2 00022ef4 00022efc 00022f05     ............./..
	...
  68:	00022f3b 00022f55 00022f65 00023540     ;/..U/..e/..@5..
	...
  80:	00022f65 00022f81 00023065 000230b4     e/.../..e0...0..
  90:	000231a8 000231cc 0002325c 00023273     .1...1..\2..s2..
	...
  a8:	00023065 000230b4 000231a8 000231cc     e0...0...1...1..
  b8:	0002325c 00023273 00000000 00000000     \2..s2..........
  c8:	00022ff2 00022ff4 00022ff7 00023002     ./.../.../...0..
	...
  e0:	00023024 00023062 000230b9 00023145     $0..b0...0..E1..
  f0:	000234c5 000234ff 00023521 00023540     .4...4..!5..@5..
	...
 108:	00023024 00023029 0002302c 00023032     $0..)0..,0..20..
	...
 120:	000230c2 000230c7 000230cc 000230d2     .0...0...0...0..
	...
 138:	000230e2 000230e7 000230ed 00023105     .0...0...0...1..
 148:	000234c5 000234cd 00000000 00000000     .4...4..........
 158:	000234ea 000234ff 00023521 0002352a     .4...4..!5..*5..
	...
 170:	000230c7 000230cc 000230d2 00023105     .0...0...0...1..
 180:	000234c5 000234ff 00023521 00023540     .4...4..!5..@5..
	...
 198:	00023148 0002314d 00023153 00023160     H1..M1..S1..`1..
	...
 1b0:	00022f81 00023062 000230b9 000231a8     ./..b0...0...1..
 1c0:	00023227 00023251 000232f5 00023320     '2..Q2...2.. 3..
 1d0:	000234c5 00023540 00000000 00000000     .4..@5..........
 1e0:	000231d2 00023220 0002327e 000232ee     .1.. 2..~2...2..
 1f0:	00023322 000234bf 00000000 00000000     "3...4..........
 200:	000231d8 000231f0 00023206 00023220     .1...1...2.. 2..
 210:	0002327e 000232ee 00023322 000234bf     ~2...2.."3...4..
	...
 228:	00023338 00023377 00023412 00023435     83..w3...4..54..
	...
 240:	00023435 00023438 00023442 00023444     54..84..B4..D4..
	...
 258:	00023438 00023440 00023444 0002345a     84..@4..D4..Z4..
	...
 270:	00023476 00023479 00023488 0002348b     v4..y4...4...4..
 280:	00023494 00023496 00023498 000234aa     .4...4...4...4..
	...
 298:	00023491 00023494 00023496 00023498     .4...4...4...4..
	...
 2b0:	00023206 00023220 0002327e 000232e6     .2.. 2..~2...2..
 2c0:	000232e8 000232ee 00023322 000234b3     .2...2.."3...4..
 2d0:	000234b5 000234bf 00000000 00000000     .4...4..........
 2e0:	000235d0 0002368c 00023690 00023693     .5...6...6...6..
 2f0:	00023695 000236aa 000236ac 000236af     .6...6...6...6..
 300:	000236b1 000236fd 00000000 00000000     .6...6..........
 310:	000235ff 00023602 00023604 0002361a     .5...6...6...6..
	...
 328:	0002364a 0002364e 00023656 00023676     J6..N6..V6..v6..
 338:	00023685 0002368c 00000000 00000000     .6...6..........
 348:	00023719 00023720 00023723 00023726     .7.. 7..#7..&7..
	...
 360:	000237aa 000237ad 000237b3 000237b6     .7...7...7...7..
	...
 378:	000237ad 000237b3 000237b6 000237cc     .7...7...7...7..
	...
 390:	000237cf 00023808 00023812 00023816     .7...8...8...8..
	...
 3a8:	000237f5 000237f8 000237ff 00023802     .7...7...7...8..
	...
 3c0:	00023808 00023812 00023816 00023819     .8...8...8...8..
 3d0:	0002381f 00023821 00000000 00000000     .8..!8..........
 3e0:	00023819 0002381f 00023821 00023837     .8...8..!8..78..
	...
 3f8:	00023ab4 00023afd 00022e68 00023540     .:...:..h...@5..
 408:	00023540 00023839 00000000 00000000     @5..98..........
 418:	00023b3a 00023b84 00023b88 00023b8b     :;...;...;...;..
	...
 430:	000238bf 000238d9 000238f2 000238f4     .8...8...8...8..
	...
 448:	0002383c 00023850 00023850 00023864     <8..P8..P8..d8..
 458:	00023864 00023878 00023878 0002388c     d8..x8..x8...8..
 468:	0002388c 000238a0 000238a0 000238b4     .8...8...8...8..
 478:	00023b00 00023b2e 00023b30 00023b8d     .;...;..0;...;..
 488:	00023b90 00023ba0 000238b4 000238f6     .;...;...8...8..
	...
 4a0:	00000044 00000047 0000004a 0000004d     D...G...J...M...
	...
 4b8:	00000073 00000076 00000079 0000007c     s...v...y...|...
	...
 4d0:	00023bb7 00023bc2 00023bc5 00023bf0     .;...;...;...;..
 4e0:	00023c20 00023c5d 00000000 00000000      <..]<..........
 4f0:	00023bb7 00023bc2 00023bc5 00023c17     .;...;...;...<..
 500:	00023c20 00023c6a 00023c77 00023cb6      <..j<..w<...<..
 510:	00023cb8 00023cc1 00000000 00000000     .<...<..........
 520:	000239e2 000239e5 000239ea 000239f7     .9...9...9...9..
	...
 538:	00023a22 00023a24 00023a27 00023a33     ":..$:..':..3:..
	...
 550:	00023ba0 00023cc3 0002398c 00023a4a     .;...<...9..J:..
	...

Disassembly of section .debug_info:

00000000 <.debug_info>:
       0:	00000022 00000002 01040000 00000000     "...............
      10:	00020d30 00020def 00000000 00000056     0...........V...
      20:	000000b2 00cf8001 00040000 00000014     ................
      30:	00be0104 000c0000 000000e6 00000201     ................
      40:	00000140 000228d4 0000001b 0001a702     @....(..........
      50:	03230100 000001b7 0000003e 03052501     ..#.....>....%..
      60:	00010e04 00004304 00480500 2d060000     .....C....H....-
      70:	08000003 28d40701 001b0002 51010000     .......(.......Q
      80:	000001c2 00082801 d2000000 01000001     .....(..........
      90:	0000b628 00130800 01d70000 28010000     (..............(
      a0:	000000bd dc540109 01000001 0000c728     ......T.....(...
      b0:	55010900 000001cd 00cc2901 01090000     ...U.....)......
      c0:	00023a56 cc2a0100 0a000000 00000026     V:....*.....&...
      d0:	000228e8 ed55010b 00000228 00034006     .(....U.(....@..
      e0:	04040500 000000c2 00004804 003e0400     .........H....>.
      f0:	d1040000 0c000000 00011500 b7000400     ................
     100:	04000000 0000be01 e1000c00 d6000001     ................
     110:	40000002 f0000001 6d000228 02000000     ...@....(..m....
     120:	00000239 3f031f01 3e000002 01000000     9......?...>....
     130:	1803052f 04000109 00000049 0000024c     /.......I...L...
     140:	55053f03 45000000 02000002 370601e1     .?.U...E.......7
     150:	07000003 02530304 003e0000 30010000     ......S...>....0
     160:	09180307 04230001 00025c03 00003e00     ......#..\...>..
     170:	05310100 010e0803 02660300 00930000     ..1.......f.....
     180:	34010000 0e080307 04230001 00009e04     ...4......#.....
     190:	00027100 07200100 000000a3 0000a807     .q.... .........
     1a0:	7a030800 bc000002 01000000 08030735     ...z........5...
     1b0:	2300010e 03400608 04050000 00028609     ...#..@.........
     1c0:	0000ce00 072d0100 000000d3 00da0b0a     ......-.........
     1d0:	0c000000 0228f00d 00006d00 a5510100     ......(..m....Q.
     1e0:	01000004 52010e38 0000060d 00bc3801     ....8..R.....8..
     1f0:	260f0000 fc000000 10000228 291c5501     ...&....(....U.)
     200:	01100002 02293156 55011000 00022940     ....V1)....U@)..
     210:	019c0000 00040000 00000181 00be0104     ................
     220:	000c0000 0000028e 000004f5 00000140     ............@...
     230:	00022960 00000017 0002e402 00003700     `)...........7..
     240:	05220300 010e1803 02e50300 01f40000     ..".............
     250:	02ec0431 00f40000 33010000 02f30400     1..........3....
     260:	00fb0000 34010000 02fd0404 01070000     .......4........
     270:	35010000 03170408 011a0000 36010000     ...5...........6
     280:	031d0422 01260000 39010000 03740430     ".....&....90.t.
     290:	01260000 3a010000 03830438 01260000     ..&....:8.....&.
     2a0:	3b010000 03940440 01260000 3c010000     ...;@.....&....<
     2b0:	03a20448 01260000 3d010000 03b00450     H.....&....=P...
     2c0:	01260000 3e010000 03bf0458 01260000     ..&....>X.....&.
     2d0:	3f010000 03d00460 01000000 49010000     ...?`..........I
     2e0:	03da0468 015e0000 4a010000 03e4046c     h.....^....Jl...
     2f0:	015e0000 4b010000 03e90470 016c0000     ..^....Kp.....l.
     300:	4c010000 40050074 05000003 01000604     ...Lt..@........
     310:	2d050000 08000003 01000701 13080000     ...-............
     320:	1a000001 03030900 07080000 00010007     ................
     330:	01130800 000b0000 0001310a 00036a00     .........1...j..
     340:	031e0200 00000360 04040208 0000032b     ....`.......+...
     350:	0000015e 04000602 00000344 00000165     ^.......D...e...
     360:	04040702 00000359 00000165 00060702     ....Y...e.......
     370:	00033205 05040700 0000034a 5e070207     .2......J......^
     380:	08000001 00000113 ed0b0020 89000003     ........ .......
     390:	03000001 0c030523 0600010f 00000037     ....#.......7...
     3a0:	0229600c 00001700 a7510100 03000001     .`).......Q.....
     3b0:	0061002a 00040000 00000223 00be0104     *.a.....#.......
     3c0:	000c0000 000003f8 0000068f 00000447     ............G...
     3d0:	00022978 00000008 0004a402 03050100     x)..............
     3e0:	00000033 03400400 04050000 02297805     3.....@......x).
     3f0:	00000800 aa510100 01000004 00260608     ......Q.......&.
     400:	060d0000 08010000 00000033 00002607     ........3....&..
     410:	02298000 63000000 04000000 00029200     ..)....c........
     420:	be010400 0c000000 0004b000 00071500     ................
     430:	00014000 05050200 00300000 34010000     .@........0....4
     440:	20030501 03000109 00000035 00003a03     ... ....5....:..
     450:	032d0400 01080000 00050d05 00005300     ..-..........S..
     460:	01330100 0e140305 35060001 07000000     ..3........5....
     470:	0000005f 03080001 08000003 03250007     _.............%.
     480:	00040000 000002ef 00be0104 000c0000     ................
     490:	0000051c 0000078a 00000576 00022980     ........v....)..
     4a0:	00000185 0005d602 03230100 00000047     ..........#.G...
     4b0:	00004e03 004f0300 4f030000 03000000     .N....O....O....
     4c0:	0000004f 03400400 04050000 03370405     O.....@.......7.
     4d0:	04070000 00004f06 29800700 000a0002     .....O.....)....
     4e0:	51010000 00000633 00562b02 01080000     ...Q3....+V.....
     4f0:	0006e752 562b0200 00000000 0005f109     R.....+V........
     500:	47590200 01000000 02298c07 00001a00     ..YG......).....
     510:	4f510100 02000006 00005635 52010800     ..QO....5V.....R
     520:	000006e7 00563502 7e0a0000 00000000     .....5V....~....
     530:	02000000 260b0338 a4000000 00000229     ....8..&....)...
     540:	0229a807 00000a00 73510100 02000006     ..).......Qs....
     550:	0000563d 52010800 000006ee 00563d02     =V.....R.....=V.
     560:	0c000000 000229b4 0000000a 06375101     .....).......Q7.
     570:	46020000 00000056 0229c00c 00000a00     ...FV.....).....
     580:	53510100 02000006 0000564c 29cc0c00     ..QS....LV.....)
     590:	000a0002 51010000 00000689 00565302     .......Q.....SV.
     5a0:	d80d0000 19000229 01000000 00007e51     ....).......Q~..
     5b0:	00260b00 29ed0000 0d000002 000229f4     ..&....).....)..
     5c0:	0000002a 01665101 010e0000 00017252     *....Qf.....Rr..
     5d0:	00440f00 017d0000 260b0000 09000000     ..D...}....&....
     5e0:	0000022a 00060410 47a60200 01000000     *..........G....
     5f0:	00061411 47a60200 12000000 00000619     .......G........
     600:	004fab02 13000000 00022a20 0000002e     ..O..... *......
     610:	06a55101 e9020000 00000047 00016614     .Q......G....f..
     620:	022a2300 00002700 0aeb0200 01720115     .#*..'........r.
     630:	00160000 0000017d 00260b00 2a350000     ....}.....&...5*
     640:	13000002 00022a50 0000002e 06af5101     ....P*.......Q..
     650:	ee020000 00000047 00016614 022a5300     ....G....f...S*.
     660:	00002700 0af00200 01720215 00160000     .'........r.....
     670:	0000017d 00260b00 2a650000 0d000002     }.....&...e*....
     680:	00022a80 00000013 021a5101 58170000     .*.......Q.....X
     690:	26000000 00000002 00062410 47f80200     ...&.....$.....G
     6a0:	01000000 00061411 47f80200 00000000     ...........G....
     6b0:	022a9418 00001300 b9510100 02000006     ..*.......Q.....
     6c0:	00470107 76190000 14000000 02000006     ..G....v........
     6d0:	00470107 1a1a0000 18000002 02000000     ..G.............
     6e0:	170a0109 00000094 00000226 a8180000     ........&.......
     6f0:	1600022a 01000000 0006c351 01140200     *.......Q.......
     700:	00000047 1452011b 02000006 00470114     G.....R.......G.
     710:	b21c0000 19000000 02000006 004f0119     ..............O.
     720:	1d000000 00022ac0 00000005 06d85101     .....*.......Q..
     730:	3a020000 52011b01 00000574 47013a02     ...:...Rt....:.G
     740:	00000000 022ac81e 00000700 e0510100     ......*.......Q.
     750:	02000006 0047013f d01f0000 3500022a     ....?.G.....*..5
     760:	01000000 0004a451 01450200 0000c619     ....Q.....E.....
     770:	00060d00 01450200 00000047 0001661a     ......E.G....f..
     780:	00003000 01480200 00ed1705 01720000     .0....H.......r.
     790:	d90f0000 7d000000 00000001 0000260b     .......}.....&..
     7a0:	022aea00 81000000 04000000 0004d600     ..*.............
     7b0:	be010400 0c000000 0006fa00 000b2800     .............(..
     7c0:	00057600 07590200 002f0000 66010000     .v....Y.../....f
     7d0:	0b880305 34030001 04000000 00000039     .......4....9...
     7e0:	00033705 02040700 0000076e 0000002f     .7......n.../...
     7f0:	03056701 00010b8c 00078202 00002f00     .g.........../..
     800:	05680100 010c9003 07960200 002f0000     ..h.........../.
     810:	69010000 0c940305 ab020001 2f000007     ...i.........../
     820:	01000000 9003056a 0000010b 00000022     ....j......."...
     830:	05100002 01040000 00000ba7 00020000     ................
     840:	0002014b 000007c4 00000056 000000b2     K.......V.......
     850:	00228001 00020000 00000524 0da30104     ..".....$.......
     860:	09c00000 09c80002 082c0002 00560000     ..........,...V.
     870:	00b20000 80010000 00000022 05380002     ........".....8.
     880:	01040000 00000e42 00020b00 00020b06     ....B...........
     890:	0000088f 00000056 000000b2 00228001     ....V.........".
     8a0:	00020000 0000054c 0ed70104 0a400000     ....L.........@.
     8b0:	0a4e0002 08ee0002 00560000 00b20000     ..N.......V.....
     8c0:	80010000 000000a2 05600004 01040000     ..........`.....
     8d0:	000000be 0952000c 0f770000 00560000     ......R...w...V.
     8e0:	2b080000 00360002 31020000 c2000000     ...+..6....1....
     8f0:	02000009 003d0327 09b90000 cf010000     ....'.=.........
     900:	03370401 04070000 022b0805 00003600     ..7.......+..6..
     910:	cb510100 03000009 0000873e 01000600     ..Q.....>.......
     920:	09e90000 3e030000 00000026 00011e07     .......>&.......
     930:	0009f000 26420300 07000000 0000013c     ......B&....<...
     940:	000009f5 00264103 02000000 00000092     .....A&.........
     950:	000009c3 9e032202 e1000000 01000009     ....."..........
     960:	400401ce 05000003 00a20004 00040000     ...@............
     970:	000005d1 00be0104 000c0000 000009fd     ................
     980:	00001180 00000056 00022b40 00000036     ....V...@+..6...
     990:	00003102 0009c200 03270200 0000003d     .1........'.=...
     9a0:	000009b9 0401cf01 00000337 40050407     ........7......@
     9b0:	3600022b 01000000 000a6551 873e0300     +..6....Qe....>.
     9c0:	06000000 0000014f 000009e9 00263e03     ....O........>&.
     9d0:	6d070000 f0000001 03000009 00002642     ...m........B&..
     9e0:	01800700 09f50000 41030000 00000026     ...........A&...
     9f0:	00920200 09c30000 22020000 00009e03     ..........."....
     a00:	0009e100 01ce0100 00034004 00040500     .........@......
     a10:	00000144 06420004 01040000 000000be     D.....B.........
     a20:	0a7c000c 13960000 00560000 2b780000     ..|.......V...x+
     a30:	00440002 31020000 c2000000 02000009     ..D....1........
     a40:	003d0327 09b90000 cf010000 03370401     '.=...........7.
     a50:	04070000 00004f02 0009c300 03220200     .....O........".
     a60:	0000005b 000009e1 0401ce01 00000340     [...........@...
     a70:	06050405 00022b78 00000044 0ae15101     ....x+..D....Q..
     a80:	4f030000 00000044 00019307 0009e900     ...OD...........
     a90:	264f0300 07000000 000001b1 00000b13     ..O&............
     aa0:	00cb5003 01080000 000b1b54 62510300     .P......T.....Qb
     ab0:	08000000 0b215501 52030000 000000ed     .....U!....R....
     ac0:	00118609 f26c0300 0a000000 000001c4     ......l.........
     ad0:	00000b47 00cb6d03 02000000 000000d6     G....m..........
     ae0:	00000b0e db0b3604 02000000 000000e6     .....6..........
     af0:	00000afc 0d0c3504 00000062 00cb0b00     .....5..b.......
     b00:	f70b0000 03000000 00000103 00000b33     ............3...
     b10:	0e01be05 00000b33 01b80508 000b130f     ....3...........
     b20:	0000cb00 01b90500 0b270f00 01260000     ..........'...&.
     b30:	bd050000 04100401 0f01ba05 00000b29     ............)...
     b40:	00000062 0001bb05 000b2e0f 00002600     b............&..
     b50:	01bc0500 00000000 00000022 07100002     ........".......
     b60:	01040000 00001625 00023a84 00023a8c     ....%....:...:..
     b70:	00000b4b 00000056 000000b2 00228001     K...V.........".
     b80:	00020000 00000724 16c80104 2bbc0000     ....$..........+
     b90:	2c060002 0bb10002 00560000 00b20000     ...,......V.....
     ba0:	80010000 00000022 07380002 01040000     ....".....8.....
     bb0:	000017f5 00020330 00020352 00000bb1     ....0...R.......
     bc0:	00000056 000000b2 00228001 00020000     V.........".....
     bd0:	0000074c 18c20104 0a000000 0a030002     L...............
     be0:	0c170002 00560000 00b20000 80010000     ......V.........
     bf0:	00000022 07600002 01040000 00001953     ".....`.....S...
     c00:	00020a80 00020a97 00000c78 00000056     ........x...V...
     c10:	000000b2 00228001 00020000 00000774     ......".....t...
     c20:	1a150104 2c080000 2d080002 0cda0002     .......,...-....
     c30:	00560000 00b20000 80010000 00000022     ..V........."...
     c40:	07880002 01040000 00001c8e 00020800     ................
     c50:	0002096a 00000d46 00000056 000000b2     j...F...V.......
     c60:	00228001 00020000 0000079c 1ef80104     ..".............
     c70:	09800000 09860002 0dab0002 00560000     ..............V.
     c80:	00b20000 80010000 00000022 07b00002     ........".......
     c90:	01040000 00001f8f 00022d08 00022dc1     .........-...-..
     ca0:	00000e0c 00000056 000000b2 00228001     ....V.........".
     cb0:	00020000 000007c4 216a0104 3a8c0000     ..........j!...:
     cc0:	3a990002 0e780002 00560000 00b20000     ...:..x...V.....
     cd0:	80010000 00000022 07d80002 01040000     ...."...........
     ce0:	00002216 00022dc4 00022e33 00000edc     ."...-..3.......
     cf0:	00000056 000000b2 00228001 00020000     V.........".....
     d00:	000007ec 23a70104 3a9c0000 3ab40002     .......#...:...:
     d10:	0f460002 00560000 00b20000 80010000     ..F...V.........
     d20:	000000db 08000004 01040000 000000be     ................
     d30:	0fa7000c 246f0000 10010000 2e340000     ......o$......4.
     d40:	002e0002 5c020000 01000010 004c044f     .......\....O.L.
     d50:	53030000 03000000 00000054 00005403     ...S....T....T..
     d60:	00540300 54030000 00000000 00034004     ..T....T.....@..
     d70:	05040500 00033704 06040700 00022e34     .....7......4...
     d80:	0000002e 05d65101 aa020000 000000b0     .....Q..........
     d90:	0001d707 00107b00 53aa0200 08000000     .....{.....S....
     da0:	10815301 aa020000 000000c7 86540108     .S............T.
     db0:	02000010 0000c7aa 55010800 0000108c     ...........U....
     dc0:	00c7aa02 26090000 5c000000 0000022e     .......&...\....
     dd0:	0000bb0a 0009c300 0b220400 0000004c     ..........".L...
     de0:	000009e1 0a01ce03 000000d2 000009c2     ................
     df0:	540b2704 b9000000 03000009 560001cf     .'.T...........V
     e00:	04000000 00089b00 be010400 0c000000     ................
     e10:	00109200 00269f00 00100100 10e80200     ......&.........
     e20:	002f0000 4b020000 02500305 3b030001     ../....K..P....;
     e30:	04000000 00000052 40050020 06000000     ....R... ..@....
     e40:	0000004b 000010f7 4a072601 07000003     K........&.J....
     e50:	03030802 07080000 00173900 f6000400     .........9......
     e60:	04000008 0000be01 00000c00 95000011     ................
     e70:	01000027 00000010 f8000000 02000003     '...............
     e80:	0000115d 3d043d01 03000000 0000007f     ]....=.=........
     e90:	00008003 7c040000 08000011 05037f01     .......|........
     ea0:	00001179 00000061 00038101 00061605     y...a...........
     eb0:	00006100 03820100 6c060004 c2000000     .a.........l....
     ec0:	03000009 00780727 09b90000 cf020000     ....'.x.........
     ed0:	03370801 04070000 00850a09 40080000     ..7............@
     ee0:	05000003 118c0204 eb010000 00008503     ................
     ef0:	00780300 02000000 000011a5 85040001     ..x.............
     f00:	03000000 000000b0 003d0a00 b4020000     ..........=.....
     f10:	01000011 0078044d cc030000 03000000     ....M.x.........
     f20:	00000078 00d10a00 3d0b0000 02000000     x..........=....
     f30:	000011d4 8503f401 03000000 00000078     ............x...
     f40:	11e70200 f3010000 00008503 00780300     ..............x.
     f50:	0c000000 000011fa 85039f04 03000000     ................
     f60:	00000085 00007803 b40d0000 4900023a     .....x......:..I
     f70:	01000000 0015af51 61830400 0e000000     ....Q......a....
     f80:	000001ea 000014d5 00618304 100f0000     ..........a.....
     f90:	ea000002 04000003 00006185 12100000     .........a......
     fa0:	04000012 00006162 86110100 04000010     ....ba..........
     fb0:	00006162 27100000 04000012 00006127     ba.....'....'a..
     fc0:	00110100 04000013 00017527 3d070000     ........'u.....=
     fd0:	7c000000 01000011 38100383 04000012     ...|.......8....
     fe0:	0000612c 00110100 04000013 0001752c     ,a..........,u..
     ff0:	4e100000 04000012 00006177 d5110100     ...N....wa......
    1000:	04000013 00006177 12581100 77040000     ....wa....X....w
    1010:	00000061 12601200 45040000 00025003     a.....`....E.P..
    1020:	70130100 04000012 00610345 76130000     ...p....E.a....v
    1030:	04000012 00610345 7b130000 04000012     ....E.a....{....
    1040:	00610345 88130000 04000012 00610345     E.a.........E.a.
    1050:	dd130000 04000011 02500346 93130000     ........F.P.....
    1060:	04000012 02500346 9e130000 04000012     ....F.P.........
    1070:	02500346 0c140000 04000016 02670364     F.P.........d.g.
    1080:	ea140000 04000003 02500362 14150000     ........b.P.....
    1090:	000013d5 61037204 14000000 000012a5     .....r.a........
    10a0:	61037304 00000000 025b0600 09c30000     .s.a......[.....
    10b0:	22030000 00008507 0009e100 01ce0200     ..."............
    10c0:	00017516 02731700 00200000 00030318     .u....s... .....
    10d0:	19070800 000012a9 12017c05 000012bb     .........|......
    10e0:	50017e04 01000002 00160c13 017e0400     .~.P..........~.
    10f0:	000002ea 00127013 017e0400 00000061     .....p....~.a...
    1100:	00127613 017e0400 00000061 00023d14     .v....~.a....=..
    1110:	01800400 00000250 12d01415 85040000     ....P...........
    1120:	00025001 e5141500 04000011 0250019a     .P............P.
    1130:	15000000 0011e514 018b0400 00000250     ............P...
    1140:	0a000000 000002ef 0001750b 12d21000     .........u......
    1150:	22040000 00000061 13001101 22040000     ..."a.........."
    1160:	00000175 12e71200 ae040000 00006101     u............a..
    1170:	0c130100 04000016 02ea01ae f8140000     ................
    1180:	04000012 025001b2 ea140000 04000003     ......P.........
    1190:	006101b1 3d140000 04000002 025001b0     ..a....=......P.
    11a0:	10000000 00001303 00613104 11010000     .........1a.....
    11b0:	00001300 01753104 1a000000 00001313     .....1u.........
    11c0:	01014704 00160c13 01470400 00000384     .G........G.....
    11d0:	00023d14 01490400 00000250 01750a00     .=....I.P.....u.
    11e0:	2f100000 04000013 000250ae 71110100     .../.....P.....q
    11f0:	04000011 000061ae 023d1b00 b0040000     .....a....=.....
    1200:	00000250 13381c00 58040000 160c1101     P.....8....X....
    1210:	58040000 00000384 00134811 50580400     ...X.....H....XP
    1220:	11000002 00001300 01755804 1a000000     .........Xu.....
    1230:	0000134f 01024e05 00118613 024e0500     O....N........N.
    1240:	00000175 13631200 d0040000 00025001     u.....c......P..
    1250:	70130100 04000012 006101d0 3d140000     ...p......a....=
    1260:	04000002 025001d2 12000000 00001374     ......P.....t...
    1270:	5002d804 01000002 00160c13 02d80400     ...P............
    1280:	00000384 0012a613 02d80400 000002ea     ................
    1290:	0013d513 02d90400 00000061 00139814     ........a.......
    12a0:	02dd0400 00000061 0013ab14 02de0400     ....a...........
    12b0:	00000061 0013bc14 02df0400 00000250     a...........P...
    12c0:	00023d14 02db0400 00000250 0013d714     .=......P.......
    12d0:	02e00400 00000061 0003ea14 02dc0400     ....a...........
    12e0:	00000250 13f11415 05040000 00006103     P............a..
    12f0:	10000000 00001405 0175bb04 11010000     ..........u.....
    1300:	0000160c 02eabb04 6e110000 04000015     ...........n....
    1310:	000061bc 140f1100 bc040000 000004d3     .a..............
    1320:	00023d1b 50be0400 00000002 0002500a     .=.....P.....P..
    1330:	14171200 ca040000 00006102 0c130100     .........a......
    1340:	04000016 02ea02ca d5130000 04000013     ................
    1350:	006102ca 3d140000 04000002 025002cc     ..a....=......P.
    1360:	12000000 00001439 61033004 01000000     ....9....0.a....
    1370:	00160c13 03300400 000002ea 0012a613     ......0.........
    1380:	03300400 000002ea 00127013 03300400     ..0......p....0.
    1390:	00000061 00144e13 03310400 00000061     a....N....1.a...
    13a0:	00156e14 03340400 00000061 00023d14     .n....4.a....=..
    13b0:	03330400 00000250 14651a00 51040000     ..3.P.....e....Q
    13c0:	0c130102 04000016 03840251 70130000     ........Q......p
    13d0:	04000012 00610251 76130000 04000012     ....Q.a....v....
    13e0:	00610252 88130000 04000012 00610252     R.a.........R.a.
    13f0:	7b130000 04000012 00610252 b9130000     ...{....R.a.....
    1400:	04000014 02500252 52130000 04000014     ....R.P....R....
    1410:	02500252 56140000 04000014 00610255     R.P....V....U.a.
    1420:	1a000000 00001462 01020104 00160c13     ....b...........
    1430:	02010400 00000384 00127013 02020400     .........p......
    1440:	00000061 00127613 02020400 00000061     a....v......a...
    1450:	00128813 02030400 00000061 00127b13     ........a....{..
    1460:	02030400 00000061 0014b913 02030400     ....a...........
    1470:	00000250 00145213 02030400 00000250     P....R......P...
    1480:	00023d14 02050400 00000250 00148714     .=......P.......
    1490:	02060400 00000061 12d01415 0f040000     ....a...........
    14a0:	00025002 1a000000 00001491 0101e304     .P..............
    14b0:	00160c13 01e30400 000002ea 00152e13     ................
    14c0:	01e30400 00000250 00130113 01e30400     ....P...........
    14d0:	00000250 00149d13 01e30400 00000061     P...........a...
    14e0:	00128813 01e30400 00000061 0014b913     ........a.......
    14f0:	01e30400 00000250 00145213 01e30400     ....P....R......
    1500:	00000250 0014ac14 01e60400 00000061     P...........a...
    1510:	00156e14 01e50400 00000061 0014b314     .n......a.......
    1520:	01ec0400 00000250 0014bc14 01ed0400     ....P...........
    1530:	00000250 14c51c00 a1040000 023d1101     P.............=.
    1540:	a1040000 00000250 00130111 50a10400     ....P..........P
    1550:	1b000002 000014d1 0061a304 1c000000     ..........a.....
    1560:	000014d8 11014004 00001300 03844004     .....@.......@..
    1570:	d5110000 04000014 00006140 ee1c0000     ........@a......
    1580:	04000014 0011013b 04000013 0003843b     ....;.......;...
    1590:	032f1100 3b040000 00000061 14ff1c00     ../....;a.......
    15a0:	36040000 13001101 36040000 00000384     ...6.......6....
    15b0:	00156e11 61360400 00000000 022e681d     .n....6a.....h..
    15c0:	0006d800 5c510100 04000010 0250055c     ......Q\....\.P.
    15d0:	2b1e0000 7b000002 04000010 007f055c     ...+...{....\...
    15e0:	5c1e0000 81000002 04000010 0061055c     ...\........\.a.
    15f0:	821e0000 7b000002 04000012 0061055c     .......{....\.a.
    1600:	a81e0000 88000002 04000012 0061055c     ............\.a.
    1610:	d91e0000 8c000002 04000010 0061055c     ............\.a.
    1620:	011f0000 0014d555 05630400 00000061     ....U.....c.a...
    1630:	00030a20 00032f00 05620400 00000061      ..../....b.a...
    1640:	00035520 00127000 055f0400 00000061      U...p...._.a...
    1650:	00039c20 00127600 05600400 00000061      ....v....`.a...
    1660:	00066520 0003ea00 05610400 00000250      e........a.P...
    1670:	00014521 022e9100 00000800 05850400     !E..............
    1680:	03fd220e 01510000 21000000 0000015d     ."....Q....!]...
    1690:	00022eaf 00000003 0e058004 00042522     ............"%..
    16a0:	00016900 81210000 e1000001 0300022e     .i....!.........
    16b0:	04000000 220e058d 00000444 0000018d     ......."D.......
    16c0:	01992300 00500000 ab040000 a5240d05     .#....P.......$.
    16d0:	22000001 00000463 000001b0 01992100     ..."c........!..
    16e0:	2f0a0000 00080002 ae040000 aa221005     .../..........".
    16f0:	a5000004 22000001 00000489 000001b0     ......."........
    1700:	01bc2300 00680000 b6040000 f8220a05     .#....h.......".
    1710:	c9000004 22000001 0000052d 000001d5     ......."-.......
    1720:	00056222 0001e100 058c2200 01ed0000     "b......."......
    1730:	b2220000 f9000005 22000001 000004c7     .."........"....
    1740:	00000205 00021124 91022500 00021d10     ....$....%......
    1750:	05e32600 02290000 82230000 80000002     .&....)...#.....
    1760:	04000000 27090370 000002b3 0002f421     ....p..'....!...
    1770:	022f7400 00000300 01830400 0680220d     .t/.........."..
    1780:	03000000 28000000 000000a8 000b0d26     .......(....&...
    1790:	0002c000 30892900 002b0002 cd270000     .....).0..+...'.
    17a0:	00000002 0002f421 02326800 00000b00     ....!....h2.....
    17b0:	01980400 0b33221d 03000000 29000000     ....."3........)
    17c0:	000231a8 00000024 0002db27 00000000     .1..$...'.......
    17d0:	0001b028 0c772600 02360000 38260000     (....&w...6...&8
    17e0:	42000014 21000002 0000030c 00022f81     ...B...!...../..
    17f0:	00000026 0d037c04 00069d26 00032500     &....|..&....%..
    1800:	06c32600 03310000 3d270000 21000003     .&....1...'=...!
    1810:	0000034a 00022f9d 00000003 1101b704     J..../..........
    1820:	0006de22 00035600 21000000 00000362     "....V.....!b...
    1830:	00022fad 00000077 0d037e04 00072222     ./..w....~..""..
    1840:	00036b00 06fb2600 03770000 f4210000     .k...&....w...!.
    1850:	c7000002 0300022f 04000000 2233014d     ..../.......M.3"
    1860:	0000075c 00000300 02f42100 2fd00000     \........!...../
    1870:	00030002 4d040000 3f221501 00000007     .......M.."?....
    1880:	00000003 00038921 022fdc00 00000d00     ....!...../.....
    1890:	01540400 07792216 03950000 94260000     ..T.."y.......&.
    18a0:	a0000007 00000003 00038923 0000c800     ........#.......
    18b0:	01570400 08192225 03950000 e5260000     ..W.%"........&.
    18c0:	a0000007 00000003 0002f421 022ff400     ........!...../.
    18d0:	00000300 01570400 07c8222e 03000000     ......W.."......
    18e0:	21000000 000003ac 00023005 00000017     ...!.....0......
    18f0:	0d015904 0003b424 08812200 03bf0000     .Y..$...."......
    1900:	34220000 ca000008 2a000003 000003d6     .."4.......*....
    1910:	0002300b 0000000d 22055b04 0000089c     .0.......[."....
    1920:	000003df 23000000 00000412 000000e0     .......#........
    1930:	0e038204 000a2322 00041f00 08cc2200     ...."#......."..
    1940:	04370000 10260000 43000009 26000004     ..7...&....C...&
    1950:	00000958 0000044f 0009eb26 00045b00     X...O...&....[..
    1960:	0a672600 04670000 bf260000 7300000a     .&g...g...&....s
    1970:	26000004 00000c29 0000047f 0003ec23     ...&).......#...
    1980:	00010800 02df0400 0995222a 03f90000     ........*"......
    1990:	b2260000 05000009 21000004 000002f4     ..&........!....
    19a0:	0002302c 00000003 1501d504 0009ce22     ,0.........."...
    19b0:	00030000 21000000 000002f4 00023059     .......!....Y0..
    19c0:	00000003 0d02e304 000af022 00030000     ........".......
    19d0:	f4210000 3f000002 03000230 04000000     ..!....?0.......
    19e0:	222a02e0 00000a06 00000300 03892300     ..*".........#..
    19f0:	01200000 f7040000 6a225602 9500000b     .. ......V"j....
    1a00:	26000003 00000b85 000003a0 01702800     ...&.........(p.
    1a10:	a1260000 8c00000b 23000004 0000049a     ..&........#....
    1a20:	00000138 59031704 000bf026 0004c700     8......Y&.......
    1a30:	02f42a00 30fa0000 00030002 c1040000     .*.....0........
    1a40:	0c0c220d 03000000 00000000 0002f421     ."..........!...
    1a50:	0234cd00 00000300 03170400 03002444     ..4.........D$..
    1a60:	23000000 0000049a 00000158 59031c04     ...#....X......Y
    1a70:	00160b26 0004c700 02f42a00 34f90000     &........*.....4
    1a80:	00030002 c1040000 1627220d 03000000     ........."'.....
    1a90:	00000000 0002f421 02352a00 00000300     ....!....*5.....
    1aa0:	031c0400 03002444 21000000 000002f4     ....D$.....!....
    1ab0:	000230e7 00000003 23030d04 000bd322     .0.........#"...
    1ac0:	00030000 00000000 0004d823 00019800     ........#.......
    1ad0:	03990400 04fd2711 f4210000 5a000002     .....'....!....Z
    1ae0:	03000231 04000000 220d02cf 00000c5a     1.........."Z...
    1af0:	00000300 ec210000 27000003 06000232     ......!....'2...
    1b00:	04000000 222f03a8 000013e4 000003f9     ....../"........
    1b10:	0013ff26 00040500 f4210000 01000002     &.........!.....
    1b20:	03000233 04000000 221703a8 0000141b     3.........."....
    1b30:	00000300 050a2100 316a0000 00230002     .....!....j1..#.
    1b40:	d3040000 17244d03 22000005 00000d57     .....M$...."W...
    1b50:	0000052f 000d3a22 00053b00 0cd02600     /...":...;...&..
    1b60:	05470000 f6260000 5300000c 21000005     ..G...&....S...!
    1b70:	000002f4 0002317b 00000003 10033804     ....{1.......8..
    1b80:	000cb322 00030000 00000000 00056023     "...........#`..
    1b90:	0001e000 03db0400 114a2205 05690000     ........."J...i.
    1ba0:	9f220000 7500000e 22000005 00000e68     .."....u..."h...
    1bb0:	00000581 000e3722 00058d00 0e002200     ...."7......."..
    1bc0:	05990000 ba220000 a500000d 22000005     ......"........"
    1bd0:	00000d74 000005b1 00119e26 0005bd00     t.......&.......
    1be0:	05ca2300 02000000 58040000 06220502     .#.........X..".
    1bf0:	d3000011 22000005 000010c2 000005df     ......."........
    1c00:	00107e22 0005eb00 10422200 05f70000     "~......."B.....
    1c10:	fe220000 0300000f 22000006 00000fa6     .."........"....
    1c20:	0000060f 000f4e22 00061b00 0ed62600     ...."N.......&..
    1c30:	06270000 4d260000 33000013 21000006     ..'...&M...3...!
    1c40:	000002f4 000231e4 00000003 0d020d04     .....1..........
    1c50:	00118122 00030000 b0280000 26000002     ".........(....&
    1c60:	000011b9 00000640 0002f421 02321a00     ....@...!.....2.
    1c70:	00000600 02100400 11d4221e 03000000     ........."......
    1c80:	21000000 0000064e 0002327e 00000047     ...!N...~2..G...
    1c90:	0d021404 0012a522 00065700 126d2200     ...."....W..."m.
    1ca0:	06630000 50220000 7b000012 22000006     ..c..."P...{..."
    1cb0:	00001235 00000687 00121322 00069300     5.......".......
    1cc0:	11f12200 069f0000 ab270000 26000006     ."........'....&
    1cd0:	000012c2 000006b7 0012dd26 0006c300     ........&.......
    1ce0:	12f82600 06cf0000 f4210000 85000002     .&........!.....
    1cf0:	03000232 04000000 221601e5 00001288     2.........."....
    1d00:	00000300 06dc2100 32b50000 00100002     .....!.....2....
    1d10:	f4040000 32220501 e4000013 26000006     ......"2.......&
    1d20:	00001313 000006fa f4210000 cf000002     ..........!.....
    1d30:	03000232 04000000 22220229 00001389     2.......).""....
    1d40:	00000300 01812100 32d70000 00030002     .....!.....2....
    1d50:	2a040000 a6221902 8d000013 00000001     ...*..".........
    1d60:	00015d21 0232e000 00000300 022b0400     !]....2.......+.
    1d70:	13c52218 01690000 23000000 00000706     ."....i....#....
    1d80:	00000228 11023904 00070e24 147b2200     (....9..$...."{.
    1d90:	07190000 23000000 00000725 00000240     .......#%...@...
    1da0:	11023a04 00072d24 14962200 07380000     .:..$-..."....8.
    1db0:	23000000 000003ac 00000258 11023d04     ...#....X....=..
    1dc0:	00152c22 0003b400 14f12200 03bf0000     ",......."......
    1dd0:	b3220000 ca000014 2a000003 000003d6     .."........*....
    1de0:	00023444 0000000c 22055b04 0000150c     D4.......[."....
    1df0:	000003df 44210000 40000007 02000234     ......!D...@4...
    1e00:	04000000 2411023c 0000074c 02f42100     ....<..$L....!..
    1e10:	340c0000 00030002 36040000 5e223002     ...4.......6.0"^
    1e20:	00000014 00000003 0003ac23 00027000     ........#....p..
    1e30:	02490400 15ee2211 03b40000 b3220000     ..I.."........".
    1e40:	bf000015 22000003 00001587 000003ca     ......."........
    1e50:	0003d62a 02349800 00000e00 055b0400     *.....4.......[.
    1e60:	0015ce22 0003df00 23000000 00000744     "..........#D...
    1e70:	00000298 11024804 00074c24 81210000     .....H..$L....!.
    1e80:	79000001 03000234 04000000 22210245     ...y4.......E.!"
    1e90:	00001549 0000018d 015d2100 34850000     I........!]....4
    1ea0:	00030002 46040000 68222102 69000015     .......F.!"h...i
    1eb0:	00000001 00000000 00027a2b 022f5500     ........+z...U/.
    1ec0:	00000300 05be0400 00262c05 2eaf0000     .........,&.....
    1ed0:	8c2c0002 c7000000 2c00022e 00000026     ..,........,&...
    1ee0:	00022ee1 00009e2c 022f4700 11012c00     ....,....G/..,..
    1ef0:	31180000 012c0002 37000011 2c000231     ...1..,....71..,
    1f00:	00001101 00023196 0000b52c 0231f900     .....1..,.....1.
    1f10:	11012c00 323e0000 d62c0002 8e000000     .,....>2..,.....
    1f20:	2c000232 000000e8 00023295 0000fa2c     2..,.....2..,...
    1f30:	0232bd00 11012c00 33130000 012c0002     ..2..,.....3..,.
    1f40:	dc000011 2c000234 00001101 0002350e     ....4..,.....5..
    1f50:	0011012c 02353500 402d0000 f9000235     ,....55...-@5...
    1f60:	01000002 0015d251 02970400 00000250     ....Q.......P...
    1f70:	0016441e 00160c00 02970400 00000384     .D..............
    1f80:	0012a613 02970400 000002ea 0016751e     .............u..
    1f90:	00127000 02980400 00000061 0016901e     .p......a.......
    1fa0:	0015fc00 02980400 00000250 0016b620     ........P... ...
    1fb0:	00023d00 029a0400 00000250 0016e820     .=......P... ...
    1fc0:	00160400 029d0400 00000250 00170420     ........P... ...
    1fd0:	00160a00 029c0400 00000250 001b7520     ........P... u..
    1fe0:	00152e00 029b0400 00000250 001f0e20     ........P... ...
    1ff0:	00130100 02bd0400 00000175 0002f421     ........u...!...
    2000:	02355b00 00000300 02a10400 1720220d     .[5.........." .
    2010:	03000000 21000000 0000034a 000235bc     .......!J....5..
    2020:	00000003 1202a304 0017b822 00035600     ........"....V..
    2030:	0c210000 65000003 2a000235 04000000     ..!....e5..*....
    2040:	260d02b1 0000173d 00000325 00176326     ...&=...%...&c..
    2050:	00033100 033d2700 4a210000 85000003     .1...'=...!J....
    2060:	03000235 04000000 221101b7 0000177e     5.........."~...
    2070:	00000356 b5210000 96000015 1b000235     V.....!.....5...
    2080:	04000000 270e02b6 000015da 0002f421     .......'....!...
    2090:	0235a600 00000300 016c0400 179b220d     ..5.......l.."..
    20a0:	03000000 00000000 0015e723 0002e000     ........#.......
    20b0:	02b70400 17d5220e 15f40000 fb220000     ....."........".
    20c0:	0c000017 26000016 00001817 00001618     .......&........
    20d0:	00185526 00162400 18882600 16300000     &U...$...&....0.
    20e0:	3d210000 f3000016 2b000235 04000000     ..!=....5..+....
    20f0:	220d011c 000018ae 00001645 0018ca22     ..."....E..."...
    2100:	00165000 18e52600 16660000 ac230000     .P...&....f...#.
    2110:	10000003 04000003 22090104 00001926     ..........."&...
    2120:	000003b4 00190b22 0003bf00 19422200     ...."........"B.
    2130:	03ca0000 d62a0000 09000003 0d000236     ......*.....6...
    2140:	04000000 7022055b df000019 00000003     ....[."p........
    2150:	3d230000 28000016 04000003 220d0127     ..#=...(....'.."
    2160:	000019eb 00001645 0019c322 00165000     ....E..."....P..
    2170:	19902600 16660000 ac210000 5d000003     .&....f...!....]
    2180:	15000236 04000000 22090104 00001a5a     6.........."Z...
    2190:	000003b4 001a3f22 0003bf00 1a112200     ...."?......."..
    21a0:	03ca0000 d62a0000 65000003 09000236     ......*....e6...
    21b0:	04000000 7522055b df00001a 00000003     ....[."u........
    21c0:	73210000 c6000016 32000236 04000000     ..!s....6..2....
    21d0:	220d0138 00001a95 0000167b 001ab022     8.."....{..."...
    21e0:	00168600 1acb2600 169c0000 ac2a0000     .....&........*.
    21f0:	d6000003 1c000236 04000000 3a2209f9     ....6.........":
    2200:	b400001b 22000003 00001b1f 000003bf     ......."........
    2210:	001af122 0003ca00 03d62a00 36de0000     "........*.....6
    2220:	00100002 5b040000 1b552205 03df0000     .......[."U.....
    2230:	00000000 a8210000 0c000016 c0000237     ......!.....7...
    2240:	04000000 220902bb 00001b90 000016b1     ......."........
    2250:	001bb622 0016c900 1bd12200 16d50000     "........"......
    2260:	19290000 b3000237 26000000 00001bec     ..).7......&....
    2270:	000016e2 001c0726 0016ee00 1c302600     ....&........&0.
    2280:	16fa0000 72260000 0600001c 26000017     ......&r.......&
    2290:	00001cb4 00001712 00034828 1d232600     ........(H...&#.
    22a0:	171f0000 f4210000 23000002 03000237     ......!....#7...
    22b0:	04000000 221d0278 00001cdc 00000300     ....x.."........
    22c0:	6f290000 5d000237 26000000 00001d9c     ..)o7..]...&....
    22d0:	0000172d 00049a21 02376f00 00003b00     -...!....o7..;..
    22e0:	028b0400 1d3e2624 04c70000 f42a0000     ....$&>.......*.
    22f0:	7d000002 03000237 04000000 7f220dc1     ...}7.........".
    2300:	0000001d 00000003 07442300 03600000     .........#D...`.
    2310:	8c040000 4c240d02 22000007 00001e4a     ......$L..."J...
    2320:	00000757 03ac2300 03780000 8d040000     W....#....x.....
    2330:	f3220d02 b400001d 22000003 00001dd8     .."........"....
    2340:	000003bf 001e0e22 0003ca00 03d62a00     ...."........*..
    2350:	37b80000 000e0002 5b040000 1e652205     ...7.......[."e.
    2360:	03df0000 00000000 23000000 0000049a     ...........#....
    2370:	00000390 0902be04 001e8526 0004c700     ........&.......
    2380:	02f42a00 37dd0000 00030002 c1040000     .*.....7........
    2390:	1ed4220d 03000000 2e000000 000002f4     ."..............
    23a0:	000003a8 220dd304 00001ef1 00000300     ......."........
    23b0:	44230000 c0000007 04000003 240502c5     ..#D...........$
    23c0:	0000074c 001f6522 00075700 ac230000     L..."e...W....#.
    23d0:	e0000003 04000003 2f0502c6 03b45b01     .........../.[..
    23e0:	012f0000 0003bf57 1f382200 03ca0000     ../.W...."8.....
    23f0:	d62a0000 23000003 0b000238 04000000     ..*....#8.......
    2400:	8022055b df00001f 00000003 14120000     [.".............
    2410:	04000015 02500167 13010000 0000160c     ....g.P.........
    2420:	ea016704 13000002 00001270 61016704     .g......p....g.a
    2430:	14000000 0000023d 50016904 00000002     ....=....i.P....
    2440:	00151f12 01080400 00000250 160c1301     ........P.......
    2450:	08040000 00038401 152e1300 08040000     ................
    2460:	00025001 15311300 08040000 00025001     .P....1......P..
    2470:	138f1400 0f040000 00025001 023d1400     .........P....=.
    2480:	0d040000 00025001 03ea1400 0e040000     .....P..........
    2490:	00025001 351c0000 04000015 0c1101fd     .P.....5........
    24a0:	04000016 000384fd 15411100 fd040000     ..........A.....
    24b0:	00000250 0003e511 50fd0400 14000002     P..........P....
    24c0:	0000023d 50010104 00000002 0015451c     =......P.....E..
    24d0:	01f10400 00160c11 84f10400 11000003     ................
    24e0:	00001541 0250f104 e5110000 04000003     A.....P.........
    24f0:	000250f1 023d1b00 f6040000 00000250     .P....=.....P...
    2500:	15531a00 5f040000 0c130102 04000016     ..S...._........
    2510:	0384025f a6130000 04000012 02ea025f     _..........._...
    2520:	70130000 04000012 0061025f 2e130000     ...p...._.a.....
    2530:	04000015 0250025f 14150000 00001567     ...._.P.....g...
    2540:	61027204 14000000 0000023d 50027104     .r.a....=....q.P
    2550:	14000002 00001573 50027504 14000002     ....s....u.P....
    2560:	00001587 50027404 14000002 0000159a     .....t.P........
    2570:	50027304 15000002 00156e14 02780400     .s.P.....n....x.
    2580:	00000061 aa141500 04000015 0175028b     a.............u.
    2590:	00000000 04d00000 00040000 00000b61     ............a...
    25a0:	00be0104 000c0000 0000160f 0000375a     ............Z7..
    25b0:	00001001 00000000 00000448 00003102     ........H....1..
    25c0:	0009c200 03270200 0000003d 000009b9     ......'.=.......
    25d0:	0401cf01 00000337 69050407 03000016     ....7......i....
    25e0:	00006782 7b060100 03000012 00006782     .g.....{.....g..
    25f0:	03ea0700 84030000 00000067 00720200     ........g.....r.
    2600:	09c30000 22020000 00007e03 0009e100     .......".~......
    2610:	01ce0100 00034004 08040500 0002383c     .....@......<8..
    2620:	00000014 16635101 e5030000 00006701     .....Qc......g..
    2630:	1fa00900 127b0000 e5030000 00002601     ......{......&..
    2640:	00440a00 383f0000 000d0002 e8030000     ..D...?8........
    2650:	c60b0c01 5000001f 0c000000 00005b79     .......P....y[..
    2660:	05000000 00001682 0067a303 06010000     ..........g.....
    2670:	0000127b 0067a303 ea070000 03000003     {.....g.........
    2680:	000067a5 50080000 14000238 01000000     .g.....P8.......
    2690:	00167c51 01ef0300 00000067 001fec09     Q|......g.......
    26a0:	00127b00 01ef0300 00000026 0000cd0a     .{......&.......
    26b0:	02385300 00000d00 01f20300 20120b0c     .S8............ 
    26c0:	00d90000 790c0000 000000e4 9c050000     .......y........
    26d0:	03000016 000067c4 7b060100 03000012     .....g.....{....
    26e0:	000067c4 03ea0700 c6030000 00000067     .g..........g...
    26f0:	38640800 00140002 51010000 00001696     ..d8.......Q....
    2700:	6701f903 09000000 00002038 0000127b     ...g....8 ..{...
    2710:	2601f903 0a000000 00000138 00023867     ...&....8...g8..
    2720:	0000000d 0c01fc03 00205e0b 00014400     .........^ ..D..
    2730:	4f790c00 00000001 16b70500 e7030000     ..yO............
    2740:	00000067 127b0601 e7030000 00000067     g.....{.....g...
    2750:	0003ea07 67e90300 00000000 02387808     .......g.....x8.
    2760:	00001400 b1510100 03000016 00670203     ......Q.......g.
    2770:	84090000 7b000020 03000012 00260203     .... ..{......&.
    2780:	a30a0000 7b000001 0d000238 03000000     .......{8.......
    2790:	0b0c0206 000020aa 000001af 01ba790c     ..... .......y..
    27a0:	00000000 0016ce0d 01080300 00000067     ............g...
    27b0:	127b0e01 08030000 00006701 03ea0f00     ..{......g......
    27c0:	0a030000 00006701 8c080000 14000238     .....g......8...
    27d0:	01000000 0016c851 020d0300 00000067     ....Q.......g...
    27e0:	0020d009 00127b00 020d0300 00000026     .. ..{......&...
    27f0:	00020e0a 02388f00 00000d00 02100300     ......8.........
    2800:	20f60b0c 021b0000 790c0000 00000227     ... .......y'...
    2810:	e60d0000 03000016 00670129 0e010000     ........).g.....
    2820:	0000127b 67012903 0f000000 000003ea     {....).g........
    2830:	67012b03 00000000 0238a008 00001400     .+.g......8.....
    2840:	e0510100 03000016 00670217 1c090000     ..Q.......g.....
    2850:	7b000021 03000012 00260217 7c0a0000     !..{......&....|
    2860:	a3000002 0d000238 03000000 0b0c021a     ....8...........
    2870:	00002142 00000289 0295790c 00000000     B!.......y......
    2880:	0011ed05 67530300 01000000 0014d506     ......Sg........
    2890:	26530300 07000000 000003ea 00675503     ..S&.........Ug.
    28a0:	08000000 00023b00 0000002e 11e75101     .....;.......Q..
    28b0:	26030000 00006702 21680900 14d50000     ...&.g....h!....
    28c0:	26030000 00002602 02ea0a00 3b080000     ...&.&.........;
    28d0:	00240002 29030000 830b0c02 f6000021     ..$....)....!...
    28e0:	10000002 0000219e 00000301 da050000     .....!..........
    28f0:	03000011 0000675d d5060100 03000014     ....]g..........
    2900:	0000265d 03ea0700 5f030000 00000067     ]&........._g...
    2910:	3b300800 005d0002 51010000 000011d4     ..0;..]....Q....
    2920:	67023003 09000000 000021c5 000014d5     .0.g.....!......
    2930:	26023003 11000000 00000358 00000418     .0.&....X.......
    2940:	0c023303 0021eb0b 00036400 221c1000     .3....!..d....."
    2950:	036f0000 00000000 0016ff05 67780300     ..o...........xg
    2960:	01000000 0014d506 26780300 07000000     ..........x&....
    2970:	000003ea 00677a03 08000000 00023b90     .....zg......;..
    2980:	00000010 16f95101 3a030000 00006702     .....Q.....:.g..
    2990:	22370900 14d50000 3a030000 00002602     ..7".......:.&..
    29a0:	03c20a00 3b960000 00080002 3d030000     .......;.......=
    29b0:	520b0c02 ce000022 10000003 0000226d     ...R".......m"..
    29c0:	000003d9 b4080000 42000238 01000000     ........8..B....
    29d0:	00115d51 02d90300 0000049d 00229409     Q]............".
    29e0:	00170900 02d90300 000004c1 0022c509     ..............".
    29f0:	00140f00 02d90300 000004c2 0022eb12     ..............".
    2a00:	00125e00 02dd0300 00000026 00234512     .^......&....E#.
    2a10:	00170700 02dc0300 000004c7 00043013     .............0..
    2a20:	23111200 023d0000 e9030000 00006702     ...#..=......g..
    2a30:	14000000 0000117c 037f0408 00117915     ....|........y..
    2a40:	00002600 03810400 06161500 00260000     .&............&.
    2a50:	82040000 16000403 00006717 049d0300     .........g......
    2a60:	117c0000 83040000 01c70003 00040000     ..|.............
    2a70:	00000c92 00be0104 000c0000 0000160f     ................
    2a80:	00003bd0 00001001 000238f8 00000092     .;.......8......
    2a90:	0011e702 03f30100 00000038 00003f03     ........8....?..
    2aa0:	40040000 05000003 03370404 04070000     ...@......7.....
    2ab0:	00005105 0009c200 06270300 0000003f     .Q........'.?...
    2ac0:	000009b9 0701cf02 0000170f 46035004     .............P.F
    2ad0:	01000000 00156e08 03500400 00000046     .....n....P.F...
    2ae0:	00125e09 03520400 00000046 38f80a00     .^....R.F......8
    2af0:	00920002 51010000 000011b4 46036204     .......Q.....b.F
    2b00:	0b000000 00002374 0000160c 79036204     ....t#.......b.y
    2b10:	0b000001 00002387 0000172e 46036204     .....#.......b.F
    2b20:	0c000000 0000239a 00001327 b3036804     .....#..'....h..
    2b30:	0c000001 000023ad 0000023d b3036704     .....#..=....g..
    2b40:	0c000001 000023e4 0000156e 46036604     .....#..n....f.F
    2b50:	0c000000 0000240d 0000173a 46036504     .....$..:....e.F
    2b60:	0d000000 0000005d 00023908 00000006     ....]....9......
    2b70:	20036a04 00242b0e 00006a00 243e0f00     .j. .+$..j....>$
    2b80:	00760000 10000000 0000005d 000004a0     ..v.....].......
    2b90:	20036f04 0024510e 00006a00 24640f00     .o. .Q$..j....d$
    2ba0:	00760000 10000000 0000005d 000004b8     ..v.....].......
    2bb0:	20037504 0024770e 00006a00 248a0f00     .u. .w$..j.....$
    2bc0:	00760000 11000000 00000026 00023911     ..v.....&....9..
    2bd0:	00002611 02394800 00261100 39770000     .&...H9...&...w9
    2be0:	12000002 0000017e 00018313 018f0600     ....~...........
    2bf0:	117c0000 83010000 117c1403 01080000     ..|.......|.....
    2c00:	7915037f 46000011 01000000 15000381     ...y...F........
    2c10:	00000616 00000046 04038201 01be0500     ....F...........
    2c20:	09c30000 22030000 00003806 0009e100     .......".8......
    2c30:	01ce0200 00032400 af000400 0400000d     .....$..........
    2c40:	0000be01 0f000c00 8f000016 0100003e     ............>...
    2c50:	00000010 50000000 02000005 00000031     .......P....1...
    2c60:	000009c2 3d032702 b9000000 01000009     .....'.=........
    2c70:	370401cf 07000003 00490504 4e060000     ...7......I....N
    2c80:	02000000 00000059 000009c3 65032202     ....Y........".e
    2c90:	e1000000 01000009 400401ce 05000003     ...........@....
    2ca0:	17430704 b2030000 00004e01 d5080100     ..C......N......
    2cb0:	03000013 002601b2 55090000 03000017     ......&....U....
    2cc0:	002601b5 6a090000 03000017 002601b4     ..&....j......&.
    2cd0:	7c090000 03000017 004e01b8 02090000     ...|......N.....
    2ce0:	03000017 002601be 95090000 03000017     ......&.........
    2cf0:	002601c3 a8090000 03000017 002601bf     ..&...........&.
    2d00:	090a0000 000017bc 2601ce03 00000000     ...........&....
    2d10:	3ba00b00 01230002 51010000 0000118c     ...;..#....Q....
    2d20:	4e025203 0c000000 0000249d 000013d5     .R.N.....$......
    2d30:	26025203 0d000000 000024c3 000017d9     .R.&.....$......
    2d40:	26025a03 0e000000 ffffc080 ffffffff     .Z.&............
    2d50:	17e501ff 56030000 00032202 3ff00e00     .......V.".....?
    2d60:	000017f4 22025503 0f000003 000004f0     .....U."........
    2d70:	00257b0d 00180300 025f0300 0000004e     .{%......._.N...
    2d80:	00006c10 0004d000 025f0300 24de1117     .l........_....$
    2d90:	00790000 f9120000 85000024 12000000     ..y.....$.......
    2da0:	0000251f 00000091 00254512 00009d00     .%.......E%.....
    2db0:	00a91300 b5130000 13000000 000000c1     ................
    2dc0:	023c4c14 00001100 25601200 00ce0000     .L<.......`%....
    2dd0:	00000000 cf070000 03000017 004e0172     ............r.N.
    2de0:	08010000 0000160c f9017203 08000001     .........r......
    2df0:	00001301 26017203 09000000 000017be     .....r.&........
    2e00:	26017503 09000000 0000023d 26017403     .u.&....=....t.&
    2e10:	09000000 00001707 03017603 0a000002     .........v......
    2e20:	0017c609 01980300 00000203 fe050000     ................
    2e30:	06000001 00000203 00020f03 00117c00     .............|..
    2e40:	03830400 00117c15 7f040800 11791603     .....|........y.
    2e50:	00260000 81040000 16160003 26000006     ..&............&
    2e60:	04000000 00040382 00132f07 01510300     ........./....Q.
    2e70:	0000004e 11710801 51030000 00002601     N.....q....Q.&..
    2e80:	023d0900 53030000 00004e01 8c0b0000     ..=....S.N......
    2e90:	be000239 01000000 0017c951 02c70300     9.......Q.......
    2ea0:	0000004e 0025970c 00160c00 02c70300     N.....%.........
    2eb0:	000001f9 0025d30c 00130100 02c70300     ......%.........
    2ec0:	00000026 0001a117 02398f00 0000a900     &.........9.....
    2ed0:	02ca0300 25f9110c 01ae0000 1f110000     .......%........
    2ee0:	ba000026 12000001 0000263a 000001c6     &.......:&......
    2ef0:	00267712 0001d200 26b71200 01de0000     .w&........&....
    2f00:	33100000 20000002 03000005 11110194     ...3... ........
    2f10:	0000273f 00000240 00270b12 00024c00     ?'..@.....'..L..
    2f20:	08140000 2e00023a 12000000 0000275a     ....:.......Z'..
    2f30:	000001eb 00023310 00053800 01a40300     .....3...8......
    2f40:	27ab1115 02400000 77120000 4c000027     ...'..@....w'..L
    2f50:	00000002 06000000 00000026 00010500     ........&.......
    2f60:	d2000400 0400000e 0000be01 0f000c00     ................
    2f70:	dd000016 01000042 4c000010 1500023a     ....B......L:...
    2f80:	02000000 00001807 33033e01 00000000     .........>.3....
    2f90:	00003804 003d0500 7c060000 08000011     .8....=....|....
    2fa0:	07037f04 00001179 00000061 00038104     ....y...a.......
    2fb0:	00061607 00006100 03820400 6c080004     .....a.........l
    2fc0:	c2000000 03000009 00780927 09b90000     ........'.x.....
    2fd0:	cf020000 03370a01 04070000 00181a0b     ......7.........
    2fe0:	00009100 02870100 04100305 9d0c0001     ................
    2ff0:	0d000000 000000ae a2050002 09000000     ................
    3000:	0000003d 0000117c 0e038304 00000303     =...|...........
    3010:	4c0f0708 1500023a 01000000 0011a551     ...L:.......Q...
    3020:	02770100 000000e5 0027c610 00182a00     ..w.......'..*..
    3030:	02770100 00000103 00002611 023a5800     ..w......&...X:.
    3040:	f0080000 c3000000 03000009 00fc0922     ............"...
    3050:	09e10000 ce020000 03400a01 04050000     ..........@.....
    3060:	0000a204 00220000 00020000 00000fad     ......".........
    3070:	44f10104 3cc40000 3ce00002 18310002     ...D...<...<..1.
    3080:	10010000 00b20000 80010000 00000022     ............"...
    3090:	0fc10002 01040000 00004586 00023ce0     .........E...<..
    30a0:	00023d02 00001831 00001001 000000b2     .=..1...........
    30b0:	                                         ..

Disassembly of section .debug_abbrev:

00000000 <.debug_abbrev>:
   0:	10001101 12011106 1b0e0301 130e250e     .............%..
  10:	00000005 25011101 0305130e 1b17100e     .......%........
  20:	1201110e 02000006 0e03002e 0b3b0b3a     ............:.;.
  30:	193c1927 0000193f 03003403 3f13490e     '.<.?....4...I.?
  40:	3b0b3a19 0018020b 000f0400 00001349     .:.;........I...
  50:	49002605 06000013 0e030024 0b0b0b3e     .&.I....$...>...
  60:	2e070000 12011101 97184006 0e031942     .........@..B...
  70:	0b3b0b3a 193f1927 05080000 03170200     :.;.'.?.........
  80:	3b0b3a0e 0013490b 00050900 0e031802     .:.;.I..........
  90:	0b3b0b3a 00001349 0182890a 11133100     :.;.I........1..
  a0:	0b000001 00018289 11184293 0c000001     .........B......
  b0:	19270015 01000000 0e250111 0e030513     ..'.......%.....
  c0:	0e1b1710 06120111 2e020000 3a0e0300     ...............:
  d0:	270b3b0b 3f193c19 03000019 0e030034     .;.'.<.?....4...
  e0:	193f1349 0b3b0b3a 00001802 49001604     I.?.:.;........I
  f0:	3a0e0313 000b3b0b 00160500 0e031349     ...:.;......I...
 100:	053b0b3a 24060000 3e0e0300 000b0b0b     :.;....$...>....
 110:	000f0700 00001349 27001508 09000019     ....I......'....
 120:	0e030034 0b3a1349 00000b3b 2701150a     4...I.:.;......'
 130:	0b000019 13490005 0f0c0000 0d000000     ......I.........
 140:	0111012e 18400612 03194297 3b0b3a0e     ......@..B...:.;
 150:	3f19270b 19018719 050e0000 03180200     .'.?............
 160:	3b0b3a0e 0013490b 82890f00 13310001     .:.;.I........1.
 170:	00000111 01828910 18429300 00000111     ..........B.....
 180:	01110100 05130e25 17100e03 01110e1b     ....%...........
 190:	00000612 03003402 3a13490e 020b3b0b     .....4...I.:.;..
 1a0:	03000018 0e030113 0b3a0b0b 00000b3b     ..........:.;...
 1b0:	03000d04 3a13490e 380b3b0b 0500000b     .....I.:.;.8....
 1c0:	0e030024 0b0b0b3e 0f060000 00134900     $...>........I..
 1d0:	01010700 00001349 49002108 000b3713     ....I....!.I.7..
 1e0:	00240900 0b0b0e03 00000b3e 4900160a     ..$.....>......I
 1f0:	3a0e0313 000b3b0b 00340b00 13490e03     ...:.;....4...I.
 200:	0b3a193f 18020b3b 2e0c0000 12011100     ?.:.;...........
 210:	97184006 0e031942 0b3b0b3a 193f1927     .@..B...:.;.'.?.
 220:	01000000 0e250111 0e030513 0e1b1710     ......%.........
 230:	06120111 2e020000 3a0e0301 270b3b0b     ...........:.;.'
 240:	3f193c19 19018719 05030000 00134900     .<.?.........I..
 250:	00240400 0b3e0e03 00000b0b 11012e05     ..$...>.........
 260:	40061201 19429718 0b3a0e03 19270b3b     ...@..B...:.;.'.
 270:	0187193f 06000019 17020005 0b3a0e03     ?.............:.
 280:	13490b3b 89070000 31000182 00011113     ;.I........1....
 290:	11010000 130e2501 100e0305 000e1b17     .....%..........
 2a0:	00340200 13490e03 0b3a193f 1802053b     ..4...I.?.:.;...
 2b0:	0f030000 00134900 00240400 0b3e0e03     .....I....$...>.
 2c0:	00000b0b 03003405 3a13490e 02053b0b     .....4...I.:.;..
 2d0:	06000018 13490101 21070000 37134900     ......I....!.I.7
 2e0:	0800000b 0e030024 0b3e0b0b 01000000     ....$.....>.....
 2f0:	0e250111 0e030513 0e1b1710 06120111     ..%.............
 300:	2e020000 3a0e0301 27053b0b 3c134919     .......:.;.'.I.<
 310:	00193f19 00050300 00001349 03002404     .?......I....$..
 320:	0b0b3e0e 0500000b 0000000f 49000f06     .>.............I
 330:	07000013 0111012e 18400612 03194297     ..........@..B..
 340:	3b0b3a0e 4919270b 00193f13 00050800     .:.;.'.I.?......
 350:	0e031802 0b3b0b3a 00001349 03002e09     ....:.;.I.......
 360:	3b0b3a0e 3f13490b 000b2019 001d0a00     .:.;.I.?. ......
 370:	17551331 0b590b58 00000b57 0182890b     1.U.X.Y.W.......
 380:	11133100 0c000001 0111002e 18400612     .1............@.
 390:	03194297 3b0b3a0e 3f13490b 0d000019     .B...:.;.I.?....
 3a0:	0111012e 18400612 31194297 0e000013     ......@..B.1....
 3b0:	18020005 00001331 0200340f 00133117     ....1....4...1..
 3c0:	012e1000 0b3a0e03 19270b3b 193f1349     ......:.;.'.I.?.
 3d0:	00000b20 03000511 3b0b3a0e 0013490b      ........:.;.I..
 3e0:	00341200 0b3a0e03 13490b3b 2e130000     ..4...:.;.I.....
 3f0:	12011101 97184006 0e031942 0b3b0b3a     .....@..B...:.;.
 400:	193f1349 1d140000 11133101 58061201     I.?......1.....X
 410:	570b590b 1500000b 0d1c0005 00001331     .Y.W........1...
 420:	1c003416 0013310f 00051700 13311702     .4...1........1.
 430:	2e180000 12011101 97184006 0e031942     .........@..B...
 440:	053b0b3a 13491927 0000193f 02000519     :.;.'.I.?.......
 450:	3a0e0317 49053b0b 1a000013 1331011d     ...:.;.I......1.
 460:	0b581755 0b570559 051b0000 03180200     U.X.Y.W.........
 470:	3b0b3a0e 00134905 00341c00 0e031702     .:.;.I....4.....
 480:	053b0b3a 00001349 11012e1d 40061201     :.;.I..........@
 490:	19429718 0b3a0e03 1927053b 0000193f     ..B...:.;.'.?...
 4a0:	11002e1e 40061201 19429718 0b3a0e03     .......@..B...:.
 4b0:	1927053b 193f1349 2e1f0000 12011101     ;.'.I.?.........
 4c0:	97184006 0e031942 053b0b3a 193f1927     .@..B...:.;.'.?.
 4d0:	00190187 11010000 130e2501 100e0305     .........%......
 4e0:	000e1b17 00340200 13490e03 0b3a193f     ......4...I.?.:.
 4f0:	18020b3b 0f030000 00134900 00350400     ;........I....5.
 500:	00001349 03002405 0b0b3e0e 0000000b     I....$...>......
 510:	10001101 12011106 1b0e0301 130e250e     .............%..
 520:	00000005 10001101 12011106 1b0e0301     ................
 530:	130e250e 00000005 10001101 12011106     .%..............
 540:	1b0e0301 130e250e 00000005 10001101     .....%..........
 550:	12011106 1b0e0301 130e250e 00000005     .........%......
 560:	25011101 0305130e 1b17100e 1201110e     ...%............
 570:	02000006 13490016 0b3a0e03 00000b3b     ......I...:.;...
 580:	49001603 3a0e0313 00053b0b 00240400     ...I...:.;....$.
 590:	0b3e0e03 00000b0b 11012e05 40061201     ..>............@
 5a0:	19429718 0b3a0e03 19270b3b 193f1349     ..B...:.;.'.I.?.
 5b0:	05060000 03170200 3b0b3a0e 0013490b     .........:.;.I..
 5c0:	00340700 0e031702 0b3b0b3a 00001349     ..4.....:.;.I...
 5d0:	01110100 05130e25 17100e03 01110e1b     ....%...........
 5e0:	00000612 49001602 3a0e0313 000b3b0b     .......I...:.;..
 5f0:	00160300 0e031349 053b0b3a 24040000     ....I...:.;....$
 600:	3e0e0300 000b0b0b 012e0500 06120111     ...>............
 610:	42971840 3a0e0319 270b3b0b 3f134919     @..B...:.;.'.I.?
 620:	06000019 17020005 0b3a0e03 13490b3b     ..........:.;.I.
 630:	34070000 03170200 3b0b3a0e 0013490b     ...4.....:.;.I..
 640:	11010000 130e2501 100e0305 110e1b17     .....%..........
 650:	00061201 00160200 0e031349 0b3b0b3a     ........I...:.;.
 660:	16030000 03134900 3b0b3a0e 04000005     .....I...:.;....
 670:	0e030024 0b0b0b3e 0f050000 06000000     $...>...........
 680:	0111012e 18400612 03194297 3b0b3a0e     ......@..B...:.;
 690:	4919270b 00193f13 00050700 0e031702     .'.I.?..........
 6a0:	0b3b0b3a 00001349 02000508 3a0e0318     :.;.I..........:
 6b0:	490b3b0b 09000013 0e030034 0b3b0b3a     .;.I....4...:.;.
 6c0:	00001349 0200340a 3a0e0317 490b3b0b     I....4.....:.;.I
 6d0:	0b000013 1349000f 150c0000 00192701     ......I......'..
 6e0:	00050d00 00001349 0301130e 3a0b0b0e     ....I..........:
 6f0:	00053b0b 000d0f00 13490e03 053b0b3a     .;........I.:.;.
 700:	00000b38 0b011710 3b0b3a0b 00000005     8........:.;....
 710:	10001101 12011106 1b0e0301 130e250e     .............%..
 720:	00000005 10001101 12011106 1b0e0301     ................
 730:	130e250e 00000005 10001101 12011106     .%..............
 740:	1b0e0301 130e250e 00000005 10001101     .....%..........
 750:	12011106 1b0e0301 130e250e 00000005     .........%......
 760:	10001101 12011106 1b0e0301 130e250e     .............%..
 770:	00000005 10001101 12011106 1b0e0301     ................
 780:	130e250e 00000005 10001101 12011106     .%..............
 790:	1b0e0301 130e250e 00000005 10001101     .....%..........
 7a0:	12011106 1b0e0301 130e250e 00000005     .........%......
 7b0:	10001101 12011106 1b0e0301 130e250e     .............%..
 7c0:	00000005 10001101 12011106 1b0e0301     ................
 7d0:	130e250e 00000005 10001101 12011106     .%..............
 7e0:	1b0e0301 130e250e 00000005 10001101     .....%..........
 7f0:	12011106 1b0e0301 130e250e 00000005     .........%......
 800:	25011101 0305130e 1b17100e 1201110e     ...%............
 810:	02000006 0e03012e 053b0b3a 13491927     ........:.;.'.I.
 820:	193f193c 05030000 00134900 00240400     <.?......I....$.
 830:	0b3e0e03 00000b0b 00000f05 012e0600     ..>.............
 840:	06120111 42971840 3a0e0319 270b3b0b     ....@..B...:.;.'
 850:	3f134919 07000019 17020005 0b3a0e03     .I.?..........:.
 860:	13490b3b 05080000 03180200 3b0b3a0e     ;.I..........:.;
 870:	0013490b 82890900 13310001 00000111     .I........1.....
 880:	4900160a 3a0e0313 000b3b0b 00160b00     ...I...:.;......
 890:	0e031349 053b0b3a 01000000 0e250111     I...:.;.......%.
 8a0:	0e030513 0e1b1710 34020000 490e0300     ...........4...I
 8b0:	3a193f13 020b3b0b 03000018 13490101     .?.:.;........I.
 8c0:	21040000 37134900 0500000b 13490026     ...!.I.7....&.I.
 8d0:	16060000 03134900 3b0b3a0e 0700000b     .....I...:.;....
 8e0:	0e030024 0b0b0b3e 24080000 0b0e0300     $...>......$....
 8f0:	000b3e0b 11010000 130e2501 100e0305     .>.......%......
 900:	110e1b17 00175501 012e0200 0b3a0e03     .....U........:.
 910:	1927053b 193c1349 0000193f 49000503     ;.'.I.<.?......I
 920:	04000013 0e030113 0b3a0b0b 0000053b     ..........:.;...
 930:	03000d05 3a13490e 38053b0b 0600000b     .....I.:.;.8....
 940:	13490016 0b3a0e03 00000b3b 49001607     ..I...:.;......I
 950:	3a0e0313 00053b0b 00240800 0b3e0e03     ...:.;....$...>.
 960:	00000b0b 00000f09 000f0a00 00001349     ............I...
 970:	4900260b 0c000013 0e03012e 0b3b0b3a     .&.I........:.;.
 980:	193c1927 0000193f 11012e0d 40061201     '.<.?..........@
 990:	19429718 0b3a0e03 19270b3b 193f1349     ..B...:.;.'.I.?.
 9a0:	050e0000 03170200 3b0b3a0e 0013490b     .........:.;.I..
 9b0:	00340f00 0e031702 0b3b0b3a 00001349     ..4.....:.;.I...
 9c0:	03012e10 3b0b3a0e 4919270b 000b2013     .....:.;.'.I. ..
 9d0:	00051100 0b3a0e03 13490b3b 2e120000     ......:.;.I.....
 9e0:	3a0e0301 27053b0b 20134919 1300000b     ...:.;.'.I. ....
 9f0:	0e030005 053b0b3a 00001349 03003414     ....:.;.I....4..
 a00:	3b0b3a0e 00134905 010b1500 01160000     .:.;.I..........
 a10:	00134901 00211700 0b371349 24180000     .I....!.I.7....$
 a20:	0b0e0300 000b3e0b 002e1900 0b3a0e03     .....>........:.
 a30:	19270b3b 00000b20 03012e1a 3b0b3a0e     ;.'. ........:.;
 a40:	20192705 1b00000b 0e030034 0b3b0b3a     .'. ....4...:.;.
 a50:	00001349 03012e1c 3b0b3a0e 2019270b     I........:.;.'. 
 a60:	1d00000b 0111012e 18400612 03194297     ..........@..B..
 a70:	3b0b3a0e 49192705 00193f13 00051e00     .:.;.'.I.?......
 a80:	0e031702 053b0b3a 00001349 0200341f     ....:.;.I....4..
 a90:	3a0e0318 49053b0b 20000013 17020034     ...:.;.I... 4...
 aa0:	0b3a0e03 1349053b 1d210000 11133101     ..:.;.I...!..1..
 ab0:	58061201 5705590b 2200000b 17020005     ...X.Y.W..."....
 ac0:	00001331 31011d23 58175513 5705590b     1...#..1.U.X.Y.W
 ad0:	2400000b 13310005 34250000 31180200     ...$..1...%4...1
 ae0:	26000013 17020034 00001331 31003427     ...&4...1...'4.1
 af0:	28000013 1755010b 0b290000 12011101     ...(..U...).....
 b00:	2a000006 1331011d 06120111 0b590b58     ...*..1.....X.Y.
 b10:	00000b57 31001d2b 12011113 590b5806     W...+..1.....X.Y
 b20:	000b5705 82892c00 13310001 00000111     .W...,....1.....
 b30:	11012e2d 40061201 19429718 0b3a0e03     -......@..B...:.
 b40:	1927053b 00001349 31011d2e 58175513     ;.'.I......1.U.X
 b50:	570b590b 2f00000b 18020005 00001331     .Y.W.../....1...
 b60:	01110100 05130e25 17100e03 01110e1b     ....%...........
 b70:	00001755 49001602 3a0e0313 000b3b0b     U......I...:.;..
 b80:	00160300 0e031349 053b0b3a 24040000     ....I...:.;....$
 b90:	3e0e0300 000b0b0b 012e0500 0b3a0e03     ...>..........:.
 ba0:	19270b3b 0b201349 05060000 3a0e0300     ;.'.I. ........:
 bb0:	490b3b0b 07000013 0e030034 0b3b0b3a     .;.I....4...:.;.
 bc0:	00001349 11012e08 40061201 19429718     I..........@..B.
 bd0:	0b3a0e03 1927053b 193f1349 05090000     ..:.;.'.I.?.....
 be0:	03170200 3b0b3a0e 00134905 011d0a00     .....:.;.I......
 bf0:	01111331 0b580612 0b570559 050b0000     1.....X.Y.W.....
 c00:	31170200 0c000013 0d1c0034 00001331     ...1....4...1...
 c10:	03012e0d 3b0b3a0e 49192705 000b2013     .....:.;.'.I. ..
 c20:	00050e00 0b3a0e03 1349053b 340f0000     ......:.;.I....4
 c30:	3a0e0300 49053b0b 10000013 17020034     ...:.;.I....4...
 c40:	00001331 31011d11 58175513 5705590b     1......1.U.X.Y.W
 c50:	1200000b 17020034 0b3a0e03 1349053b     ....4.....:.;.I.
 c60:	0b130000 00175501 01131400 0b0b0e03     .....U..........
 c70:	053b0b3a 0d150000 490e0300 3b0b3a13     :.;........I.:.;
 c80:	000b3805 000f1600 0f170000 00134900     .8...........I..
 c90:	11010000 130e2501 100e0305 110e1b17     .....%..........
 ca0:	00061201 012e0200 0b3a0e03 1927053b     ..........:.;.'.
 cb0:	193c1349 0000193f 49000503 04000013     I.<.?......I....
 cc0:	0e030024 0b0b0b3e 16050000 03134900     $...>........I..
 cd0:	3b0b3a0e 0600000b 13490016 0b3a0e03     .:.;......I...:.
 ce0:	0000053b 03012e07 3b0b3a0e 49192705     ;........:.;.'.I
 cf0:	000b2013 00050800 0b3a0e03 1349053b     . ........:.;.I.
 d00:	34090000 3a0e0300 49053b0b 0a000013     ...4...:.;.I....
 d10:	0111012e 18400612 03194297 3b0b3a0e     ......@..B...:.;
 d20:	49192705 00193f13 00050b00 0e031702     .'.I.?..........
 d30:	053b0b3a 00001349 0200340c 3a0e0317     :.;.I....4.....:
 d40:	49053b0b 0d000013 1331011d 06120111     .;.I......1.....
 d50:	05590b58 00000b57 0200050e 00133117     X.Y.W........1..
 d60:	00340f00 13311702 1d100000 55133101     ..4...1......1.U
 d70:	590b5817 000b5705 82891100 13310001     .X.Y.W........1.
 d80:	00000111 49000f12 13000013 13490026     .......I....&.I.
 d90:	13140000 0b0e0301 3b0b3a0b 15000005     .........:.;....
 da0:	0e03000d 0b3a1349 0b38053b 01000000     ....I.:.;.8.....
 db0:	0e250111 0e030513 0e1b1710 17550111     ..%...........U.
 dc0:	16020000 03134900 3b0b3a0e 0300000b     .....I...:.;....
 dd0:	13490016 0b3a0e03 0000053b 03002404     ..I...:.;....$..
 de0:	0b0b3e0e 0500000b 1349000f 26060000     .>........I....&
 df0:	00134900 012e0700 0b3a0e03 1927053b     .I........:.;.'.
 e00:	0b201349 05080000 3a0e0300 49053b0b     I. ........:.;.I
 e10:	09000013 0e030034 053b0b3a 00001349     ....4...:.;.I...
 e20:	00010b0a 012e0b00 06120111 42971840     ............@..B
 e30:	3a0e0319 27053b0b 3f134919 0c000019     ...:.;.'.I.?....
 e40:	17020005 0b3a0e03 1349053b 340d0000     ......:.;.I....4
 e50:	03170200 3b0b3a0e 00134905 00340e00     .....:.;.I....4.
 e60:	0e030f1c 053b0b3a 00001349 55010b0f     ....:.;.I......U
 e70:	10000017 1331011d 0b581755 0b570559     ......1.U.X.Y.W.
 e80:	05110000 31170200 12000013 17020034     .......1....4...
 e90:	00001331 31003413 14000013 0111010b     1....4.1........
 ea0:	00000612 03011315 3a0b0b0e 00053b0b     ...........:.;..
 eb0:	000d1600 13490e03 053b0b3a 00000b38     ......I.:.;.8...
 ec0:	31011d17 12011113 590b5806 000b5705     ...1.....X.Y.W..
 ed0:	11010000 130e2501 100e0305 110e1b17     .....%..........
 ee0:	00061201 012e0200 0b3a0e03 19270b3b     ..........:.;.'.
 ef0:	193f193c 05030000 00134900 000f0400     <.?......I......
 f00:	00001349 49002605 06000013 0e030113     I....&.I........
 f10:	0b3a0b0b 0000053b 03000d07 3a13490e     ..:.;........I.:
 f20:	38053b0b 0800000b 13490016 0b3a0e03     .;.8......I...:.
 f30:	00000b3b 49001609 3a0e0313 00053b0b     ;......I...:.;..
 f40:	00240a00 0b3e0e03 00000b0b 0300340b     ..$...>......4..
 f50:	3f13490e 3b0b3a19 00180205 01010c00     .I.?.:.;........
 f60:	00001349 4900210d 000b3713 00240e00     I....!.I.7....$.
 f70:	0b0b0e03 00000b3e 11012e0f 40061201     ....>..........@
 f80:	19429718 0b3a0e03 1927053b 193f1349     ..B...:.;.'.I.?.
 f90:	05100000 03170200 3b0b3a0e 00134905     .........:.;.I..
 fa0:	82891100 13310001 00000111 00110100     ......1.........
 fb0:	01110610 0e030112 0e250e1b 00000513     ..........%.....
 fc0:	00110100 01110610 0e030112 0e250e1b     ..............%.
 fd0:	00000513                                 .....

Disassembly of section .debug_line:

00000000 <.debug_line>:
       0:	000001fd 006c0003 01010000 000d0efb     ......l.........
      10:	01010101 01000000 2f010000 656d6f68     .........../home
      20:	6770782f 74737563 6572742f 49522f65     /xpgcust/tree/RI
      30:	3230322d 2f392e32 742f6269 736c6f6f     -2022.9/ib/tools
      40:	7477732f 736c6f6f 3638782d 2d34365f     /swtools-x86_64-
      50:	756e696c 74782f78 61736e65 666c652d     linux/xtensa-elf
      60:	6372732f 6f74782f 63000073 2e317472     /src/xtos..crt1.
      70:	00010053 05000000 020d3002 018a0300     S........0......
      80:	090f0301 03010002 00030901 09010301     ................
      90:	03010003 00030901 09010301 03010003     ................
      a0:	0002090f 09010301 03010003 0003090a     ................
      b0:	09010301 03010003 00030901 090c0301     ................
      c0:	03010003 0003090b 09010301 03010003     ................
      d0:	00030902 09130301 03010003 00060901     ................
      e0:	09010301 03010002 00030901 09070301     ................
      f0:	03010002 00030901 09010301 03010003     ................
     100:	00030907 09010301 03010003 00030901     ................
     110:	09010301 03010003 00030901 09010301     ................
     120:	03010003 00020901 09080301 03010003     ................
     130:	00030901 09010301 03010002 00020901     ................
     140:	09010301 03010002 00020901 09010301     ................
     150:	03010003 00030901 09250301 03010003     ..........%.....
     160:	00030901 09010301 03010003 00030901     ................
     170:	09010301 03010003 00030904 09020301     ................
     180:	03010003 0003090c 09010301 03010003     ................
     190:	00030901 09010301 03010006 00030901     ................
     1a0:	09010301 03010003 00050904 09010301     ................
     1b0:	03010003 00030901 09010301 03010003     ................
     1c0:	00030909 09020301 03010002 00030907     ................
     1d0:	09010301 03010003 00030903 09010301     ................
     1e0:	03010003 00020901 09010301 03010006     ................
     1f0:	00020901 09050301 09010003 01000003     ................
     200:	0000d101 70000300 01000000 0d0efb01     .......p........
     210:	01010100 00000001 01000001 6d6f682f     ............/hom
     220:	70782f65 73756367 72742f74 522f6565     e/xpgcust/tree/R
     230:	30322d49 392e3232 2f62692f 6f723470     I-2022.9/ib/p4ro
     240:	582f746f 736e6574 61542f61 74656772     ot/Xtensa/Target
     250:	62696c2d 63782f73 2f62696c 736e6574     -libs/xclib/tens
     260:	63696c69 63000061 7262696c 5f797261     ilica..clibrary_
     270:	74696e69 0100632e 00000000 28d40205     init.c.........(
     280:	2a030002 0a070501 03090103 10050100     ...*............
     290:	02090103 12050100 09000306 05010003     ................
     2a0:	09000310 05010002 0103060b 01000209     ................
     2b0:	02030305 01000509 02030705 01000309     ................
     2c0:	01030505 01000209 01030105 01000309     ................
     2d0:	00000209 021b0101 00030000 000000fc     ................
     2e0:	0efb0101 0101000d 00000101 00000100     ................
     2f0:	6f682f01 782f656d 75636770 742f7473     ./home/xpgcust/t
     300:	2f656572 322d4952 2e323230 62692f39     ree/RI-2022.9/ib
     310:	7234702f 2f746f6f 6e657458 542f6173     /p4root/Xtensa/T
     320:	65677261 696c2d74 782f7362 62696c63     arget-libs/xclib
     330:	6e65742f 696c6973 2f006163 2f2e2f2e     /tensilica./././
     340:	6a6f7270 2f746365 74737563 6e65672f     project/cust/gen
     350:	2f707061 322d4952 2e323230 75622f39     app/RI-2022.9/bu
     360:	2f646c69 65746e69 62615f6c 72702f63     ild/intel_abc/pr
     370:	682f646f 615f6377 6c5f6364 332f3778     od/hwc_adc_lx7/3
     380:	33353137 49522f37 3230322d 2f392e32     71537/RI-2022.9/
     390:	5f637768 5f636461 2f37786c 6e657478     hwc_adc_lx7/xten
     3a0:	652d6173 692f666c 756c636e 632f6564     sa-elf/include/c
     3b0:	00003939 6e657478 655f6173 2e746978     99..xtensa_exit.
     3c0:	00010063 61767900 682e736c 00000200     c....yvals.h....
     3d0:	69647473 00682e6f 00000002 f0020500     stdio.h.........
     3e0:	03000228 09050138 0901030a 03010003     (...8...........
     3f0:	00060901 09020301 05010003 09020310     ................
     400:	05010003 097e0309 05010003 09020310     ......~.........
     410:	05010003 0003061b 01000309 03060905     ................
     420:	0002097e 03130501 00030903 03090501     ~...............
     430:	0003097f 03130501 00030901 06260501     ..............&.
     440:	02090003 11050100 04090003 10050100     ................
     450:	097f0306 05010003 0003061b 01000209     ................
     460:	03061305 00020901 06260501 02090003     ..........&.....
     470:	09050100 097f0306 05010002 09010326     ............&...
     480:	05010003 00030613 01000209 00031105     ................
     490:	01000509 03061e05 00060902 06130501     ................
     4a0:	04090003 11050100 05090003 14050100     ................
     4b0:	097f0306 05010003 09010313 05010002     ................
     4c0:	097f0309 05010002 0903030d 05010003     ................
     4d0:	09010318 05010005 097f0319 05010002     ................
     4e0:	0901030d 05010004 09030305 09010006     ................
     4f0:	01000005 00019601 4f000300 01000001     ...........O....
     500:	0d0efb01 01010100 00000001 01000001     ................
     510:	6d6f682f 70782f65 73756367 72742f74     /home/xpgcust/tr
     520:	522f6565 30322d49 392e3232 2f62692f     ee/RI-2022.9/ib/
     530:	6f723470 582f746f 736e6574 61542f61     p4root/Xtensa/Ta
     540:	74656772 62696c2d 63782f73 2f62696c     rget-libs/xclib/
     550:	736e6574 63696c69 6e692f61 64756c63     tensilica/includ
     560:	79732f65 2e2f0073 702f2e2f 656a6f72     e/sys./././proje
     570:	632f7463 2f747375 616e6567 522f7070     ct/cust/genapp/R
     580:	30322d49 392e3232 6975622f 692f646c     I-2022.9/build/i
     590:	6c65746e 6362615f 6f72702f 77682f64     ntel_abc/prod/hw
     5a0:	64615f63 786c5f63 37332f37 37333531     c_adc_lx7/371537
     5b0:	2d49522f 32323032 682f392e 615f6377     /RI-2022.9/hwc_a
     5c0:	6c5f6364 782f3778 736e6574 6c652d61     dc_lx7/xtensa-el
     5d0:	6e692f66 64756c63 682f0065 2f656d6f     f/include./home/
     5e0:	63677078 2f747375 65657274 2d49522f     xpgcust/tree/RI-
     5f0:	32323032 692f392e 34702f62 746f6f72     2022.9/ib/p4root
     600:	6574582f 2f61736e 67726154 6c2d7465     /Xtensa/Target-l
     610:	2f736269 696c6378 65742f62 6c69736e     ibs/xclib/tensil
     620:	00616369 65657200 682e746e 00000100     ica..reent.h....
     630:	7473626d 74657461 0200682e 65720000     mbstatet.h....re
     640:	5f746e65 2e737362 00030063 03040000     ent_bss.c.......
     650:	60020500 03000229 0e05012a 0901030a     ...`)...*.......
     660:	05010003 09030319 05010008 097d030e     ..............}.
     670:	05010003 09020319 03010002 00030901     ................
     680:	03010501 00020901 00020901 82010100     ................
     690:	03000000 00006500 fb010100 01000d0e     .....e..........
     6a0:	00010101 00010000 682f0100 2f656d6f     ........../home/
     6b0:	63677078 2f747375 65657274 2d49522f     xpgcust/tree/RI-
     6c0:	32323032 692f392e 34702f62 746f6f72     2022.9/ib/p4root
     6d0:	6574582f 2f61736e 67726154 6c2d7465     /Xtensa/Target-l
     6e0:	2f736269 696c6378 6f732f62 65637275     ibs/xclib/source
     6f0:	65780000 2e746978 00010063 05000000     ..xexit.c.......
     700:	02297802 02051a00 0901030a 09010003     .x).............
     710:	01000005 00007101 6b000300 01000000     .....q.....k....
     720:	0d0efb01 01010100 00000001 01000001     ................
     730:	6d6f682f 70782f65 73756367 72742f74     /home/xpgcust/tr
     740:	522f6565 30322d49 392e3232 2f62692f     ee/RI-2022.9/ib/
     750:	6f723470 582f746f 736e6574 61542f61     p4root/Xtensa/Ta
     760:	74656772 62696c2d 63782f73 2f62696c     rget-libs/xclib/
     770:	736e6574 63696c69 73000061 61637379     tensilica..sysca
     780:	2e736c6c 00010063 039a0000 00030000     lls.c...........
     790:	000000dc 0efb0101 0101000d 00000101     ................
     7a0:	00000100 2f2e2f01 6f682f2e 782f656d     ...../././home/x
     7b0:	75636770 742f7473 2f656572 322d4952     pgcust/tree/RI-2
     7c0:	2e323230 62692f39 6f6f742f 732f736c     022.9/ib/tools/s
     7d0:	6f6f7477 782d736c 365f3638 696c2d34     wtools-x86_64-li
     7e0:	2f78756e 6e657478 652d6173 692f666c     nux/xtensa-elf/i
     7f0:	756c636e 782f6564 736e6574 682f0061     nclude/xtensa./h
     800:	2f656d6f 63677078 2f747375 65657274     ome/xpgcust/tree
     810:	2d49522f 32323032 692f392e 34702f62     /RI-2022.9/ib/p4
     820:	746f6f72 6574582f 2f61736e 6f435753     root/Xtensa/SWCo
     830:	6769666e 2f2e2e2f 67726154 6c2d7465     nfig/../Target-l
     840:	2f736269 7262696c 62746665 61680000     ibs/libreftb..ha
     850:	65632d6c 66697472 2e646569 00010068     l-certified.h...
     860:	5f747800 74666572 00632e62 00000002     .xt_reftb.c.....
     870:	05000204 02298002 012b0300 030a1805     ......)...+.....
     880:	00030901 03030501 00050901 03000501     ................
     890:	00040908 0a170501 03090103 03050100     ................
     8a0:	09092603 17050100 06095a03 03050100     .&.......Z......
     8b0:	03092603 5c030100 01000309 05030005     .&.....\........
     8c0:	01000409 030a2005 00030901 03090501     ..... ..........
     8d0:	00050901 03000501 00040907 0a1a0501     ................
     8e0:	03090103 03050100 09000306 05010005     ................
     8f0:	05030600 01000409 030a1a05 00030901     ................
     900:	06030501 05090003 00050100 09060306     ................
     910:	05010004 01030a1a 01000309 03060305     ................
     920:	00050900 06000501 04090503 26050100     ...............&
     930:	0903030a 05010003 00030603 01000b09     ................
     940:	09030306 05010007 00c70300 01000709     ................
     950:	030a2605 00030918 06030501 0b090003     .&..............
     960:	04050100 09100306 05010007 00030619     ................
     970:	01000209 09010306 05010007 09050305     ................
     980:	05010005 090c0303 05010005 09090300     ................
     990:	05010004 55030a26 01000309 03060305     ....&..U........
     9a0:	000b0900 06040501 07091003 19050100     ................
     9b0:	09000306 06010002 07090103 05050100     ................
     9c0:	07090503 03050100 05091603 00050100     ................
     9d0:	06090403 26050100 0950030a 05010003     .......&..P.....
     9e0:	00030603 01000b09 03060405 00070910     ................
     9f0:	06190501 02090003 03060100 00070901     ................
     a00:	03050501 00070905 03030501 0005091b     ................
     a10:	03000501 00060909 0a030501 03090403     ................
     a20:	1c050100 09000306 05010007 02030603     ................
     a30:	01000309 7e031c05 01000209 02030305     .......~........
     a40:	01000209 09030005 01000309 030a0305     ................
     a50:	00030975 061c0501 07090003 03050100     u...............
     a60:	090c0306 05010003 0974031c 05010002     ..........t.....
     a70:	090c0303 05010002 090c0300 05010003     ................
     a80:	1b030a04 01000309 03061905 00050900     ................
     a90:	01030601 01000709 05030305 01000509     ................
     aa0:	05030005 01000409 030a0105 00030902     ................
     ab0:	03000501 00050903 0a050501 03090103     ................
     ac0:	00050100 05090503 26050100 7ef9030a     ...........&...~
     ad0:	01000309 89031c05 00060901 03260501     ..............&.
     ae0:	02097ef7 03050100 09000306 05010005     .~..............
     af0:	8903061c 00040901 03030501 03097ef7     .............~..
     b00:	04050100 03091003 19050100 09000306     ................
     b10:	06010002 07090103 05050100 05090503     ................
     b20:	0d090100 01010000 0000007b 00750003     ........{.....u.
     b30:	01010000 000d0efb 01010101 01000000     ................
     b40:	2f010000 656d6f68 6770782f 74737563     .../home/xpgcust
     b50:	6572742f 49522f65 3230322d 2f392e32     /tree/RI-2022.9/
     b60:	702f6269 6f6f7234 74582f74 61736e65     ib/p4root/Xtensa
     b70:	4357532f 69666e6f 2e2e2f67 7261542f     /SWConfig/../Tar
     b80:	2d746567 7362696c 62696c2f 74666572     get-libs/libreft
     b90:	78000062 65725f74 5f627466 73666564     b..xt_reftb_defs
     ba0:	0100632e f8000000 03000001 00007e00     .c...........~..
     bb0:	fb010100 01000d0e 00010101 00010000     ................
     bc0:	682f0100 2f656d6f 63677078 2f747375     ../home/xpgcust/
     bd0:	65657274 2d49522f 32323032 692f392e     tree/RI-2022.9/i
     be0:	6f742f62 2f736c6f 6f747773 2d736c6f     b/tools/swtools-
     bf0:	5f363878 6c2d3436 78756e69 6574782f     x86_64-linux/xte
     c00:	2d61736e 2f666c65 2f637273 736f7478     nsa-elf/src/xtos
     c10:	6165782f 72000032 74657365 6365762d     /xea2..reset-vec
     c20:	2d726f74 32616578 0100532e 00000000     tor-xea2.S......
     c30:	00000205 d0030002 35030100 01004809     ...........5.H..
     c40:	03090103 01030100 01000209 03093603     .............6..
     c50:	03030100 01000209 0900ed03 03010003     ................
     c60:	00030901 090d0301 03010003 0003093f     ............?...
     c70:	09010301 03010003 00030901 09020301     ................
     c80:	03010003 00030901 09010301 03010003     ................
     c90:	00020901 09010301 03010003 005f0901     .............._.
     ca0:	09010301 03010003 00020901 09010301     ................
     cb0:	03010003 0005090a 09010301 03010003     ................
     cc0:	00030901 09010301 03010003 00020901     ................
     cd0:	09010301 03010002 00020901 09040301     ................
     ce0:	03010003 00030901 09010301 03010003     ................
     cf0:	00030901 09010301 03010002 00030901     ................
     d00:	09010301 03010003 00030901 09010301     ................
     d10:	03010003 00020901 09010301 03010003     ................
     d20:	00030901 09010301 03010002 00020901     ................
     d30:	09010301 03010003 00030904 09150301     ................
     d40:	03010003 00030901 09010301 03010003     ................
     d50:	00030905 09200301 03010003 00030901     ...... .........
     d60:	09010301 03010002 00030901 09010301     ................
     d70:	03010002 0003093c 09010301 03010002     ....<...........
     d80:	00030901 09010301 03010003 00030901     ................
     d90:	09280301 03010002 00060911 00030901     ..(.............
     da0:	9b010100 03000000 00007900 fb010100     .........y......
     db0:	01000d0e 00010101 00010000 682f0100     ............../h
     dc0:	2f656d6f 63677078 2f747375 65657274     ome/xpgcust/tree
     dd0:	2d49522f 32323032 692f392e 6f742f62     /RI-2022.9/ib/to
     de0:	2f736c6f 6f747773 2d736c6f 5f363878     ols/swtools-x86_
     df0:	6c2d3436 78756e69 6574782f 2d61736e     64-linux/xtensa-
     e00:	2f666c65 2f637273 736f7478 6165782f     elf/src/xtos/xea
     e10:	64000032 67756265 6365762d 2e726f74     2..debug-vector.
     e20:	00010053 05000000 0209c002 01290300     S.............).
     e30:	03090103 01030100 01000209 00000309     ................
     e40:	00910101 00030000 00000075 0efb0101     ........u.......
     e50:	0101000d 00000101 00000100 6f682f01     ............./ho
     e60:	782f656d 75636770 742f7473 2f656572     me/xpgcust/tree/
     e70:	322d4952 2e323230 62692f39 6f6f742f     RI-2022.9/ib/too
     e80:	732f736c 6f6f7477 782d736c 365f3638     ls/swtools-x86_6
     e90:	696c2d34 2f78756e 6e657478 652d6173     4-linux/xtensa-e
     ea0:	732f666c 782f6372 00736f74 756f6400     lf/src/xtos..dou
     eb0:	2d656c62 74636576 532e726f 00000100     ble-vector.S....
     ec0:	02050000 00020b00 03013d03 00030908     .........=......
     ed0:	00030901 9c010100 03000000 00007a00     .............z..
     ee0:	fb010100 01000d0e 00010101 00010000     ................
     ef0:	682f0100 2f656d6f 63677078 2f747375     ../home/xpgcust/
     f00:	65657274 2d49522f 32323032 692f392e     tree/RI-2022.9/i
     f10:	6f742f62 2f736c6f 6f747773 2d736c6f     b/tools/swtools-
     f20:	5f363878 6c2d3436 78756e69 6574782f     x86_64-linux/xte
     f30:	2d61736e 2f666c65 2f637273 736f7478     nsa-elf/src/xtos
     f40:	6165782f 6b000032 656e7265 65762d6c     /xea2..kernel-ve
     f50:	726f7463 0100532e 00000000 0a400205     ctor.S........@.
     f60:	3d030002 09080301 03010008 00030908     ...=............
     f70:	00030901 05010100 03000002 00018000     ................
     f80:	fb010100 01000d0e 00010101 00010000     ................
     f90:	2e2f0100 702f2e2f 656a6f72 632f7463     ../././project/c
     fa0:	2f747375 616e6567 522f7070 30322d49     ust/genapp/RI-20
     fb0:	392e3232 6975622f 692f646c 6c65746e     22.9/build/intel
     fc0:	6362615f 6f72702f 77682f64 64615f63     _abc/prod/hwc_ad
     fd0:	786c5f63 37332f37 37333531 2d49522f     c_lx7/371537/RI-
     fe0:	32323032 682f392e 615f6377 6c5f6364     2022.9/hwc_adc_l
     ff0:	782f3778 736e6574 6c652d61 6e692f66     x7/xtensa-elf/in
    1000:	64756c63 39632f65 2e2f0039 702f2e2f     clude/c99./././p
    1010:	656a6f72 632f7463 2f747375 616e6567     roject/cust/gena
    1020:	522f7070 30322d49 392e3232 6975622f     pp/RI-2022.9/bui
    1030:	692f646c 6c65746e 6362615f 6f72702f     ld/intel_abc/pro
    1040:	77682f64 64615f63 786c5f63 37332f37     d/hwc_adc_lx7/37
    1050:	37333531 2d49522f 32323032 682f392e     1537/RI-2022.9/h
    1060:	615f6377 6c5f6364 782f3778 736e6574     wc_adc_lx7/xtens
    1070:	6c652d61 6e692f66 64756c63 682f0065     a-elf/include./h
    1080:	2f656d6f 63677078 2f747375 65657274     ome/xpgcust/tree
    1090:	2d49522f 32323032 692f392e 6f742f62     /RI-2022.9/ib/to
    10a0:	2f736c6f 6f747773 2d736c6f 5f363878     ols/swtools-x86_
    10b0:	6c2d3436 78756e69 6574782f 2d61736e     64-linux/xtensa-
    10c0:	2f666c65 2f637273 736f7478 76790000     elf/src/xtos..yv
    10d0:	2e736c61 00010068 64747300 2e746e69     als.h....stdint.
    10e0:	00020068 6f747800 6e692d73 72726574     h....xtos-interr
    10f0:	2d747075 62616e65 632e656c 00000300     upt-enable.c....
    1100:	00030400 2b080205 3e030002 0a090501     .......+...>....
    1110:	09090803 1d050100 05090603 1a050100     ................
    1120:	06090103 12050100 03090303 1b050100     ................
    1130:	03090103 12050100 03097f03 1b050100     ................
    1140:	02090103 12050100 02097f03 19050100     ................
    1150:	03090103 12050100 03097f03 05050100     ................
    1160:	02090603 01030100 01000309 03090103     ................
    1170:	01050100 05091003 02090100 01010000     ................
    1180:	00000212 01810003 01010000 000d0efb     ................
    1190:	01010101 01000000 2f010000 2f2e2f2e     .........../././
    11a0:	6a6f7270 2f746365 74737563 6e65672f     project/cust/gen
    11b0:	2f707061 322d4952 2e323230 75622f39     app/RI-2022.9/bu
    11c0:	2f646c69 65746e69 62615f6c 72702f63     ild/intel_abc/pr
    11d0:	682f646f 615f6377 6c5f6364 332f3778     od/hwc_adc_lx7/3
    11e0:	33353137 49522f37 3230322d 2f392e32     71537/RI-2022.9/
    11f0:	5f637768 5f636461 2f37786c 6e657478     hwc_adc_lx7/xten
    1200:	652d6173 692f666c 756c636e 632f6564     sa-elf/include/c
    1210:	2f003939 2f2e2f2e 6a6f7270 2f746365     99./././project/
    1220:	74737563 6e65672f 2f707061 322d4952     cust/genapp/RI-2
    1230:	2e323230 75622f39 2f646c69 65746e69     022.9/build/inte
    1240:	62615f6c 72702f63 682f646f 615f6377     l_abc/prod/hwc_a
    1250:	6c5f6364 332f3778 33353137 49522f37     dc_lx7/371537/RI
    1260:	3230322d 2f392e32 5f637768 5f636461     -2022.9/hwc_adc_
    1270:	2f37786c 6e657478 652d6173 692f666c     lx7/xtensa-elf/i
    1280:	756c636e 2f006564 656d6f68 6770782f     nclude./home/xpg
    1290:	74737563 6572742f 49522f65 3230322d     cust/tree/RI-202
    12a0:	2f392e32 742f6269 736c6f6f 7477732f     2.9/ib/tools/swt
    12b0:	736c6f6f 3638782d 2d34365f 756e696c     ools-x86_64-linu
    12c0:	74782f78 61736e65 666c652d 6372732f     x/xtensa-elf/src
    12d0:	6f74782f 79000073 736c6176 0100682e     /xtos..yvals.h..
    12e0:	74730000 746e6964 0200682e 74780000     ..stdint.h....xt
    12f0:	692d736f 7265746e 74707572 7369642d     os-interrupt-dis
    1300:	656c6261 0300632e 04000000 02050003     able.c..........
    1310:	00022b40 05013e03 08030a09 01000909     @+...>..........
    1320:	07031a05 01000309 03031205 01000309     ................
    1330:	01031b05 01000309 7f031205 01000509     ................
    1340:	03061505 00020900 061b0501 03090103     ................
    1350:	15050100 02097f03 12050100 09000306     ................
    1360:	05010003 01030619 01000309 7f031205     ................
    1370:	01000309 06030505 01000209 03090103     ................
    1380:	01030100 01000309 10030105 01000509     ................
    1390:	00000209 028b0101 00030000 000001f9     ................
    13a0:	0efb0101 0101000d 00000101 00000100     ................
    13b0:	2f2e2f01 72702f2e 63656a6f 75632f74     ./././project/cu
    13c0:	672f7473 70616e65 49522f70 3230322d     st/genapp/RI-202
    13d0:	2f392e32 6c697562 6e692f64 5f6c6574     2.9/build/intel_
    13e0:	2f636261 646f7270 6377682f 6364615f     abc/prod/hwc_adc
    13f0:	37786c5f 3137332f 2f373335 322d4952     _lx7/371537/RI-2
    1400:	2e323230 77682f39 64615f63 786c5f63     022.9/hwc_adc_lx
    1410:	74782f37 61736e65 666c652d 636e692f     7/xtensa-elf/inc
    1420:	6564756c 3939632f 2f2e2f00 72702f2e     lude/c99./././pr
    1430:	63656a6f 75632f74 672f7473 70616e65     oject/cust/genap
    1440:	49522f70 3230322d 2f392e32 6c697562     p/RI-2022.9/buil
    1450:	6e692f64 5f6c6574 2f636261 646f7270     d/intel_abc/prod
    1460:	6377682f 6364615f 37786c5f 3137332f     /hwc_adc_lx7/371
    1470:	2f373335 322d4952 2e323230 77682f39     537/RI-2022.9/hw
    1480:	64615f63 786c5f63 74782f37 61736e65     c_adc_lx7/xtensa
    1490:	666c652d 636e692f 6564756c 6f682f00     -elf/include./ho
    14a0:	782f656d 75636770 742f7473 2f656572     me/xpgcust/tree/
    14b0:	322d4952 2e323230 62692f39 6f6f742f     RI-2022.9/ib/too
    14c0:	732f736c 6f6f7477 782d736c 365f3638     ls/swtools-x86_6
    14d0:	696c2d34 2f78756e 6e657478 652d6173     4-linux/xtensa-e
    14e0:	732f666c 782f6372 00736f74 2e2f2e2f     lf/src/xtos././.
    14f0:	6d6f682f 70782f65 73756367 72742f74     /home/xpgcust/tr
    1500:	522f6565 30322d49 392e3232 2f62692f     ee/RI-2022.9/ib/
    1510:	6c6f6f74 77732f73 6c6f6f74 38782d73     tools/swtools-x8
    1520:	34365f36 6e696c2d 782f7875 736e6574     6_64-linux/xtens
    1530:	6c652d61 6e692f66 64756c63 74782f65     a-elf/include/xt
    1540:	61736e65 76790000 2e736c61 00010068     ensa..yvals.h...
    1550:	64747300 2e746e69 00020068 6f747800     .stdint.h....xto
    1560:	65732d73 6e692d74 6e616874 72656c64     s-set-inthandler
    1570:	0300632e 74780000 746e7572 2e656d69     .c....xtruntime.
    1580:	00040068 6f747800 6e692d73 6e726574     h....xtos-intern
    1590:	682e6c61 00000300 00030400 2b780205     al.h..........x+
    15a0:	d2030002 09050100 091c030a 05010009     ................
    15b0:	09060313 05010003 09050324 05010005     ........$.......
    15c0:	097b0313 05010003 00030609 01000609     ..{.............
    15d0:	03061205 00030906 00030601 01000609     ................
    15e0:	03060905 0005090c 03180501 00020902     ................
    15f0:	09040301 03010008 0002097f 03090501     ................
    1600:	00040906 03120501 00020901 06100501     ................
    1610:	06090003 01050100 09100306 09010002     ................
    1620:	01000002 00009f01 7c000300 01000000     ...........|....
    1630:	0d0efb01 01010100 00000001 01000001     ................
    1640:	6d6f682f 70782f65 73756367 72742f74     /home/xpgcust/tr
    1650:	522f6565 30322d49 392e3232 2f62692f     ee/RI-2022.9/ib/
    1660:	6c6f6f74 77732f73 6c6f6f74 38782d73     tools/swtools-x8
    1670:	34365f36 6e696c2d 782f7875 736e6574     6_64-linux/xtens
    1680:	6c652d61 72732f66 74782f63 782f736f     a-elf/src/xtos/x
    1690:	00326165 746e6900 75727265 742d7470     ea2..interrupt-t
    16a0:	656c6261 0100532e 00000000 3a840205     able.S.........:
    16b0:	fb030002 06030100 01000309 03090403     ................
    16c0:	02090100 01010000 00000129 007c0003     ........).....|.
    16d0:	01010000 000d0efb 01010101 01000000     ................
    16e0:	2f010000 656d6f68 6770782f 74737563     .../home/xpgcust
    16f0:	6572742f 49522f65 3230322d 2f392e32     /tree/RI-2022.9/
    1700:	742f6269 736c6f6f 7477732f 736c6f6f     ib/tools/swtools
    1710:	3638782d 2d34365f 756e696c 74782f78     -x86_64-linux/xt
    1720:	61736e65 666c652d 6372732f 6f74782f     ensa-elf/src/xto
    1730:	65782f73 00003261 656d656d 726f7272     s/xea2..memerror
    1740:	6365762d 2e726f74 00010053 05000000     -vector.S.......
    1750:	022bbc02 02bf0300 09060301 03010003     ..+.............
    1760:	00030903 09090301 03010003 00030912     ................
    1770:	09010301 03010003 00030901 09050301     ................
    1780:	03010003 00020901 09020301 03010002     ................
    1790:	0003090f 09010301 03010003 00020901     ................
    17a0:	09010301 03010003 00020901 09010301     ................
    17b0:	03010002 00030901 09010301 03010003     ................
    17c0:	00030901 09010301 03010003 00020901     ................
    17d0:	09020301 03010002 00030901 09080301     ................
    17e0:	03010006 00030902 09010301 09010003     ................
    17f0:	01000003 0000c901 7c000300 01000000     ...........|....
    1800:	0d0efb01 01010100 00000001 01000001     ................
    1810:	6d6f682f 70782f65 73756367 72742f74     /home/xpgcust/tr
    1820:	522f6565 30322d49 392e3232 2f62692f     ee/RI-2022.9/ib/
    1830:	6c6f6f74 77732f73 6c6f6f74 38782d73     tools/swtools-x8
    1840:	34365f36 6e696c2d 782f7875 736e6574     6_64-linux/xtens
    1850:	6c652d61 72732f66 74782f63 782f736f     a-elf/src/xtos/x
    1860:	00326165 6d656d00 6f727265 65762d72     ea2..memerror-ve
    1870:	726f7463 0100532e 00000000 03300205     ctor.S........0.
    1880:	c5030002 0f030100 01000409 03090103     ................
    1890:	01030100 01000309 03091b03 02030100     ................
    18a0:	01000309 03090d03 10030100 01000609     ................
    18b0:	03090203 01030100 01000309 00000309     ................
    18c0:	008d0101 00030000 00000077 0efb0101     ........w.......
    18d0:	0101000d 00000101 00000100 6f682f01     ............./ho
    18e0:	782f656d 75636770 742f7473 2f656572     me/xpgcust/tree/
    18f0:	322d4952 2e323230 62692f39 6f6f742f     RI-2022.9/ib/too
    1900:	732f736c 6f6f7477 782d736c 365f3638     ls/swtools-x86_6
    1910:	696c2d34 2f78756e 6e657478 652d6173     4-linux/xtensa-e
    1920:	732f666c 782f6372 2f736f74 32616578     lf/src/xtos/xea2
    1930:	6d6e0000 65762d69 726f7463 0100532e     ..nmi-vector.S..
    1940:	00000000 0a000205 33030002 00030901     ...........3....
    1950:	be010100 03000000 00007800 fb010100     .........x......
    1960:	01000d0e 00010101 00010000 682f0100     ............../h
    1970:	2f656d6f 63677078 2f747375 65657274     ome/xpgcust/tree
    1980:	2d49522f 32323032 692f392e 6f742f62     /RI-2022.9/ib/to
    1990:	2f736c6f 6f747773 2d736c6f 5f363878     ols/swtools-x86_
    19a0:	6c2d3436 78756e69 6574782f 2d61736e     64-linux/xtensa-
    19b0:	2f666c65 2f637273 736f7478 6165782f     elf/src/xtos/xea
    19c0:	75000032 2d726573 74636576 532e726f     2..user-vector.S
    19d0:	00000100 02050000 00020a80 03012c03     .............,..
    19e0:	00030901 09010301 03010002 00020901     ................
    19f0:	09010301 03010003 00030902 09010301     ................
    1a00:	03010003 00020901 09010301 09010002     ................
    1a10:	01000003 00027501 82000300 01000000     .....u..........
    1a20:	0d0efb01 01010100 00000001 01000001     ................
    1a30:	6d6f682f 70782f65 73756367 72742f74     /home/xpgcust/tr
    1a40:	522f6565 30322d49 392e3232 2f62692f     ee/RI-2022.9/ib/
    1a50:	6c6f6f74 77732f73 6c6f6f74 38782d73     tools/swtools-x8
    1a60:	34365f36 6e696c2d 782f7875 736e6574     6_64-linux/xtens
    1a70:	6c652d61 72732f66 74782f63 782f736f     a-elf/src/xtos/x
    1a80:	00326165 746e6900 776f6c2d 2d697270     ea2..int-lowpri-
    1a90:	70736964 68637461 532e7265 00000100     dispatcher.S....
    1aa0:	02050000 00022c08 0100e303 02090b03     .....,..........
    1ab0:	01030100 01000309 03090103 0a030100     ................
    1ac0:	01000309 02090103 18030100 01000209     ................
    1ad0:	03090103 d3030100 00030900 09010301     ................
    1ae0:	03010003 00030901 09080301 03010003     ................
    1af0:	00030930 09220301 03010003 00030901     0.....".........
    1b00:	09010301 03010003 00030901 09010301     ................
    1b10:	03010002 00030901 09010301 03010003     ................
    1b20:	00020902 09010301 03010003 00020902     ................
    1b30:	09010301 03010002 0002091e 09040301     ................
    1b40:	0301000c 00030901 09010301 03010003     ................
    1b50:	00030901 09040301 03010003 00030905     ................
    1b60:	09040301 03010003 00020901 09010301     ................
    1b70:	03010002 00030902 09030301 03010003     ................
    1b80:	0003090b 00f70301 01000309 0f090403     ................
    1b90:	0a030100 01000209 02090103 01030100     ................
    1ba0:	01000209 03090403 08030100 01000f09     ................
    1bb0:	03090203 01030100 01000309 03090103     ................
    1bc0:	01030100 01000209 02090203 01030100     ................
    1bd0:	01000309 03090903 01030100 01000309     ................
    1be0:	02090b03 01030100 01000209 03090103     ................
    1bf0:	03030100 01000309 03093703 03030100     .........7......
    1c00:	01000309 03090803 01030100 01000309     ................
    1c10:	03090103 01030100 01000309 03090303     ................
    1c20:	02030100 01000309 03091703 06030100     ................
    1c30:	01000309 03090203 01030100 01000309     ................
    1c40:	03090103 01030100 01000309 03090103     ................
    1c50:	01030100 01000309 03090903 01030100     ................
    1c60:	01000309 03090103 07030100 01000309     ................
    1c70:	03090103 01030100 01000309 03090103     ................
    1c80:	01030100 01000309 00000309 02660101     ..............f.
    1c90:	00030000 0000007b 0efb0101 0101000d     ....{...........
    1ca0:	00000101 00000100 6f682f01 782f656d     ........./home/x
    1cb0:	75636770 742f7473 2f656572 322d4952     pgcust/tree/RI-2
    1cc0:	2e323230 62692f39 6f6f742f 732f736c     022.9/ib/tools/s
    1cd0:	6f6f7477 782d736c 365f3638 696c2d34     wtools-x86_64-li
    1ce0:	2f78756e 6e657478 652d6173 732f666c     nux/xtensa-elf/s
    1cf0:	782f6372 2f736f74 32616578 69770000     rc/xtos/xea2..wi
    1d00:	776f646e 6365762d 73726f74 0100532e     ndow-vectors.S..
    1d10:	00000000 08000205 f4030002 01030100     ................
    1d20:	01000309 03090103 01030100 01000309     ................
    1d30:	03090103 22030100 01000409 02090103     ......."........
    1d40:	01030100 01000209 02090103 01030100     ................
    1d50:	01000309 03090103 01030100 01000309     ................
    1d60:	03090103 01030100 01000309 03090103     ................
    1d70:	01030100 01000309 15091203 01030100     ................
    1d80:	01000309 03090103 01030100 01000309     ................
    1d90:	03090103 0b030100 01000409 03090103     ................
    1da0:	01030100 01000309 03090103 01030100     ................
    1db0:	01000309 03090103 01030100 01000309     ................
    1dc0:	03090103 01030100 01000309 03090103     ................
    1dd0:	13030100 01001509 03090103 01030100     ................
    1de0:	01000309 03090103 01030100 01000309     ................
    1df0:	03090103 01030100 01000309 03090103     ................
    1e00:	01030100 01000309 03090103 12030100     ................
    1e10:	01002509 03090103 01030100 01000309     .%..............
    1e20:	03090103 01030100 01000309 03090103     ................
    1e30:	01030100 01000309 03090103 01030100     ................
    1e40:	01000309 03090103 13030100 01002509     .............%..
    1e50:	03090103 01030100 01000309 03090103     ................
    1e60:	01030100 01000309 03090103 01030100     ................
    1e70:	01000309 03090103 01030100 01000309     ................
    1e80:	03090103 01030100 01000309 03090103     ................
    1e90:	01030100 01000309 03090103 12030100     ................
    1ea0:	01001909 03090103 01030100 01000309     ................
    1eb0:	03090103 01030100 01000309 03090103     ................
    1ec0:	01030100 01000309 03090103 01030100     ................
    1ed0:	01000309 03090103 01030100 01000309     ................
    1ee0:	03090103 01030100 01000309 03090103     ................
    1ef0:	03090100 01010000 00000093 00770003     ..............w.
    1f00:	01010000 000d0efb 01010101 01000000     ................
    1f10:	2f010000 656d6f68 6770782f 74737563     .../home/xpgcust
    1f20:	6572742f 49522f65 3230322d 2f392e32     /tree/RI-2022.9/
    1f30:	742f6269 736c6f6f 7477732f 736c6f6f     ib/tools/swtools
    1f40:	3638782d 2d34365f 756e696c 74782f78     -x86_64-linux/xt
    1f50:	61736e65 666c652d 6372732f 6f74782f     ensa-elf/src/xto
    1f60:	65782f73 00003261 2d746e69 74636576     s/xea2..int-vect
    1f70:	532e726f 00000100 02050000 00020980     or.S............
    1f80:	03013303 00030901 00030901 d7010100     .3..............
    1f90:	03000001 00008200 fb010100 01000d0e     ................
    1fa0:	00010101 00010000 682f0100 2f656d6f     ........../home/
    1fb0:	63677078 2f747375 65657274 2d49522f     xpgcust/tree/RI-
    1fc0:	32323032 692f392e 6f742f62 2f736c6f     2022.9/ib/tools/
    1fd0:	6f747773 2d736c6f 5f363878 6c2d3436     swtools-x86_64-l
    1fe0:	78756e69 6574782f 2d61736e 2f666c65     inux/xtensa-elf/
    1ff0:	2f637273 736f7478 6165782f 69000032     src/xtos/xea2..i
    2000:	6d2d746e 72706465 69642d69 74617073     nt-medpri-dispat
    2010:	72656863 0100532e 00000000 2d080205     cher.S.........-
    2020:	c0030002 01030100 01000309 03090103     ................
    2030:	01030100 01000209 03090103 01030100     ................
    2040:	01000209 02090103 01030100 01000309     ................
    2050:	03091403 02030100 01000309 03090103     ................
    2060:	01030100 01000309 03090103 04030100     ................
    2070:	01000309 03090703 24030100 01000309     ...........$....
    2080:	03090103 01030100 01000309 03090103     ................
    2090:	01030100 01000309 03090103 01030100     ................
    20a0:	01000309 03090103 01030100 01000209     ................
    20b0:	10090503 01030100 01000309 03090103     ................
    20c0:	01030100 01000309 03090103 01030100     ................
    20d0:	01000809 06090103 01030100 01000309     ................
    20e0:	02090603 01030100 01000209 03090103     ................
    20f0:	02030100 01000309 03090103 01030100     ................
    2100:	01000309 03090103 01030100 01000309     ................
    2110:	03090103 06030100 01000309 0f090103     ................
    2120:	05030100 01000309 03091903 01030100     ................
    2130:	01000309 03090103 01030100 01000309     ................
    2140:	03090103 08030100 01000309 02090503     ................
    2150:	01030100 01000209 02090103 01030100     ................
    2160:	01000209 00000309 00a80101 00030000     ................
    2170:	0000007a 0efb0101 0101000d 00000101     z...............
    2180:	00000100 6f682f01 782f656d 75636770     ...../home/xpgcu
    2190:	742f7473 2f656572 322d4952 2e323230     st/tree/RI-2022.
    21a0:	62692f39 6f6f742f 732f736c 6f6f7477     9/ib/tools/swtoo
    21b0:	782d736c 365f3638 696c2d34 2f78756e     ls-x86_64-linux/
    21c0:	6e657478 652d6173 732f666c 782f6372     xtensa-elf/src/x
    21d0:	2f736f74 32616578 78650000 6e752d63     tos/xea2..exc-un
    21e0:	646e6168 2e64656c 00010053 05000000     handled.S.......
    21f0:	023a8c02 013d0300 02090103 02030100     ..:...=.........
    2200:	01000209 03090203 07030100 01000309     ................
    2210:	00000309 018d0101 00030000 00000080     ................
    2220:	0efb0101 0101000d 00000101 00000100     ................
    2230:	6f682f01 782f656d 75636770 742f7473     ./home/xpgcust/t
    2240:	2f656572 322d4952 2e323230 62692f39     ree/RI-2022.9/ib
    2250:	6f6f742f 732f736c 6f6f7477 782d736c     /tools/swtools-x
    2260:	365f3638 696c2d34 2f78756e 6e657478     86_64-linux/xten
    2270:	652d6173 732f666c 782f6372 2f736f74     sa-elf/src/xtos/
    2280:	32616578 78650000 79732d63 6c616373     xea2..exc-syscal
    2290:	61682d6c 656c646e 00532e72 00000001     l-handler.S.....
    22a0:	c4020500 0300022d 030100d7 00030906     ....-...........
    22b0:	09010301 03010003 00020901 09010301     ................
    22c0:	03010003 00030901 09010301 03010002     ................
    22d0:	00020901 09010301 03010003 00030902     ................
    22e0:	09060301 03010002 00030901 09040301     ................
    22f0:	03010002 00030907 09010301 03010003     ................
    2300:	00030901 09020301 03010003 00030901     ................
    2310:	09010301 03010003 00030902 09010301     ................
    2320:	03010003 00030901 09070301 03010003     ................
    2330:	00020905 09020301 03010003 00030902     ................
    2340:	09010301 03010003 00020902 09040301     ................
    2350:	03010002 00030901 09010301 03010002     ................
    2360:	00020901 09010301 03010003 00030901     ................
    2370:	09010301 03010002 00020901 09080301     ................
    2380:	03010003 00030902 090b0301 03010002     ................
    2390:	00020905 09010301 03010002 00030901     ................
    23a0:	00030901 c4010100 03000000 00007700     .............w..
    23b0:	fb010100 01000d0e 00010101 00010000     ................
    23c0:	682f0100 2f656d6f 63677078 2f747375     ../home/xpgcust/
    23d0:	65657274 2d49522f 32323032 692f392e     tree/RI-2022.9/i
    23e0:	6f742f62 2f736c6f 6f747773 2d736c6f     b/tools/swtools-
    23f0:	5f363878 6c2d3436 78756e69 6574782f     x86_64-linux/xte
    2400:	2d61736e 2f666c65 2f637273 736f7478     nsa-elf/src/xtos
    2410:	6165782f 65000032 722d6378 72757465     /xea2..exc-retur
    2420:	00532e6e 00000001 9c020500 0300023a     n.S.........:...
    2430:	030100cc 00020901 09010301 03010002     ................
    2440:	00030902 09010301 03010002 00020901     ................
    2450:	09020301 03010003 00030908 09010301     ................
    2460:	03010002 00020902 00030901 2c010100     ...............,
    2470:	03000002 0001df00 fb010100 01000d0e     ................
    2480:	00010101 00010000 2e2f0100 682f2e2f     ........../././h
    2490:	2f656d6f 63677078 2f747375 65657274     ome/xpgcust/tree
    24a0:	2d49522f 32323032 692f392e 6f742f62     /RI-2022.9/ib/to
    24b0:	2f736c6f 6f747773 2d736c6f 5f363878     ols/swtools-x86_
    24c0:	6c2d3436 78756e69 6574782f 2d61736e     64-linux/xtensa-
    24d0:	2f666c65 6c636e69 2f656475 6e657478     elf/include/xten
    24e0:	2f006173 656d6f68 6770782f 74737563     sa./home/xpgcust
    24f0:	6572742f 49522f65 3230322d 2f392e32     /tree/RI-2022.9/
    2500:	742f6269 736c6f6f 7477732f 736c6f6f     ib/tools/swtools
    2510:	3638782d 2d34365f 756e696c 74782f78     -x86_64-linux/xt
    2520:	61736e65 666c652d 6372732f 6c61682f     ensa-elf/src/hal
    2530:	2f2e2f00 72702f2e 63656a6f 75632f74     ./././project/cu
    2540:	672f7473 70616e65 49522f70 3230322d     st/genapp/RI-202
    2550:	2f392e32 6c697562 6e692f64 5f6c6574     2.9/build/intel_
    2560:	2f636261 646f7270 6377682f 6364615f     abc/prod/hwc_adc
    2570:	37786c5f 3137332f 2f373335 322d4952     _lx7/371537/RI-2
    2580:	2e323230 77682f39 64615f63 786c5f63     022.9/hwc_adc_lx
    2590:	74782f37 61736e65 666c652d 636e692f     7/xtensa-elf/inc
    25a0:	6564756c 3939632f 2f2e2f00 72702f2e     lude/c99./././pr
    25b0:	63656a6f 75632f74 672f7473 70616e65     oject/cust/genap
    25c0:	49522f70 3230322d 2f392e32 6c697562     p/RI-2022.9/buil
    25d0:	6e692f64 5f6c6574 2f636261 646f7270     d/intel_abc/prod
    25e0:	6377682f 6364615f 37786c5f 3137332f     /hwc_adc_lx7/371
    25f0:	2f373335 322d4952 2e323230 77682f39     537/RI-2022.9/hw
    2600:	64615f63 786c5f63 74782f37 61736e65     c_adc_lx7/xtensa
    2610:	666c652d 636e692f 6564756c 61680000     -elf/include..ha
    2620:	65632d6c 66697472 2e646569 00010068     l-certified.h...
    2630:	74746100 75626972 632e6574 00000200     .attribute.c....
    2640:	6c617679 00682e73 73000003 6e696474     yvals.h....stdin
    2650:	00682e74 00000004 05000204 022e3402     t.h..........4..
    2660:	01aa0300 0a090501 08090203 0f050100     ................
    2670:	03090203 17050100 0d090503 45050100     ...............E
    2680:	09000306 05010003 7f03060f 01000309     ................
    2690:	c8030105 000d0901 00030901 f2010100     ................
    26a0:	03000000 0000ec00 fb010100 01000d0e     ................
    26b0:	00010101 00010000 2e2f0100 702f2e2f     ........../././p
    26c0:	656a6f72 632f7463 2f747375 616e6567     roject/cust/gena
    26d0:	522f7070 30322d49 392e3232 6975622f     pp/RI-2022.9/bui
    26e0:	692f646c 6c65746e 6362615f 6f72702f     ld/intel_abc/pro
    26f0:	77682f64 64615f63 786c5f63 37332f37     d/hwc_adc_lx7/37
    2700:	37333531 2d49522f 32323032 682f392e     1537/RI-2022.9/h
    2710:	615f6377 6c5f6364 782f3778 736e6574     wc_adc_lx7/xtens
    2720:	6c652d61 6e692f66 64756c63 682f0065     a-elf/include./h
    2730:	2f656d6f 63677078 2f747375 65657274     ome/xpgcust/tree
    2740:	2d49522f 32323032 692f392e 6f742f62     /RI-2022.9/ib/to
    2750:	2f736c6f 6f747773 2d736c6f 5f363878     ols/swtools-x86_
    2760:	6c2d3436 78756e69 6574782f 2d61736e     64-linux/xtensa-
    2770:	2f666c65 2f637273 006c6168 64747300     elf/src/hal..std
    2780:	2e746e69 00010068 6e6f6300 632e7473     int.h....const.c
    2790:	00000200 000fc100 f8000300 01000001     ................
    27a0:	0d0efb01 01010100 00000001 01000001     ................
    27b0:	2e2f2e2f 6d6f682f 70782f65 73756367     /././home/xpgcus
    27c0:	72742f74 522f6565 30322d49 392e3232     t/tree/RI-2022.9
    27d0:	2f62692f 6c6f6f74 77732f73 6c6f6f74     /ib/tools/swtool
    27e0:	38782d73 34365f36 6e696c2d 782f7875     s-x86_64-linux/x
    27f0:	736e6574 6c652d61 6e692f66 64756c63     tensa-elf/includ
    2800:	74782f65 61736e65 2f2e2f00 72702f2e     e/xtensa./././pr
    2810:	63656a6f 75632f74 672f7473 70616e65     oject/cust/genap
    2820:	49522f70 3230322d 2f392e32 6c697562     p/RI-2022.9/buil
    2830:	6e692f64 5f6c6574 2f636261 646f7270     d/intel_abc/prod
    2840:	6377682f 6364615f 37786c5f 3137332f     /hwc_adc_lx7/371
    2850:	2f373335 322d4952 2e323230 77682f39     537/RI-2022.9/hw
    2860:	64615f63 786c5f63 74782f37 61736e65     c_adc_lx7/xtensa
    2870:	666c652d 636e692f 6564756c 3939632f     -elf/include/c99
    2880:	2f2e2f00 72702f2e 63656a6f 75632f74     ./././project/cu
    2890:	672f7473 70616e65 49522f70 3230322d     st/genapp/RI-202
    28a0:	2f392e32 6c697562 6e692f64 5f6c6574     2.9/build/intel_
    28b0:	2f636261 646f7270 6377682f 6364615f     abc/prod/hwc_adc
    28c0:	37786c5f 3137332f 2f373335 322d4952     _lx7/371537/RI-2
    28d0:	2e323230 77682f39 64615f63 786c5f63     022.9/hwc_adc_lx
    28e0:	74782f37 61736e65 666c652d 636e692f     7/xtensa-elf/inc
    28f0:	6564756c 6f682f00 782f656d 75636770     lude./home/xpgcu
    2900:	742f7473 2f656572 322d4952 2e323230     st/tree/RI-2022.
    2910:	62692f39 6f6f742f 732f736c 6f6f7477     9/ib/tools/swtoo
    2920:	782d736c 365f3638 696c2d34 2f78756e     ls-x86_64-linux/
    2930:	6e657478 652d6173 732f666c 682f6372     xtensa-elf/src/h
    2940:	00006c61 2d6c6168 74726563 65696669     al..hal-certifie
    2950:	00682e64 79000001 736c6176 0200682e     d.h....yvals.h..
    2960:	74730000 746e6964 0300682e 706d0000     ..stdint.h....mp
    2970:	65735f75 74615f74 632e7274 00000400     u_set_attr.c....
    2980:	65726f63 63616d2d 2d736f72 32616578     core-macros-xea2
    2990:	0100682e 04000000 02050004 00023ab4     .h...........:..
    29a0:	01018303 030a3405 00080903 00030601     .....4..........
    29b0:	01000909 03060f05 00080907 06350501     ..............5.
    29c0:	05090003 00030100 01000909 03061005     ................
    29d0:	000b0906 03130501 00030902 030b0501     ................
    29e0:	0003097e 03030501 000f0908 00020901     ~...............
    29f0:	04010100 02050004 00022e68 010adc03     ........h.......
    2a00:	030a0905 00070908 09040301 03010006     ................
    2a10:	00020904 03120501 00060906 030d0501     ................
    2a20:	00020903 03090501 0002097e 09040301     ........~.......
    2a30:	03010007 00060905 03130501 030975e7     .............u..
    2a40:	0d050100 090aa203 05010008 00c20301     ................
    2a50:	01000909 b8031f05 0004097f 030c0501     ................
    2a60:	090975a9 05050100 090ad903 05010003     .u..............
    2a70:	09090309 05010003 0906030d 05010009     ................
    2a80:	0902031c 06010003 08090003 0d050100     ................
    2a90:	090b0306 05010002 096f0324 0501000b     ........$.o.....
    2aa0:	75a1030c 01000b09 f5030905 0009090a     ...u............
    2ab0:	75d60301 01000809 b2032505 0002090a     ...u.....%......
    2ac0:	03090501 080975ce b3030100 0009090a     .....u..........
    2ad0:	75cd0301 01000509 b6030d05 0008090a     ...u............
    2ae0:	03140501 00050902 03010501 00030917     ................
    2af0:	03310501 0004095d 06460501 03090003     ..1.].....F.....
    2b00:	11050100 09720306 0501000d 7bcf030a     ......r........{
    2b10:	01000d09 09000306 03010009 000c0900     ................
    2b20:	06090501 03090103 05040100 98030505     ................
    2b30:	0002097a 05040401 0ac90301 01000309     z...............
    2b40:	b9030505 000d0977 00030601 01000a09     ....w...........
    2b50:	03060d05 00030902 030c0501 02097da1     .............}..
    2b60:	0d050100 0902df03 05010003 097e0313     ..............~.
    2b70:	05010006 00030605 01000409 09320306     ..............2.
    2b80:	05010000 0902030d 0501000f 090e0330     ............0...
    2b90:	05010002 0003062d 01000209 03060c05     ....-...........
    2ba0:	09097cf0 11050100 09038403 05010003     .|..............
    2bb0:	097c0313 05010005 00030605 01000209     ..|.............
    2bc0:	03060d05 030903c9 2e050100 097bd003     ..............{.
    2bd0:	05010003 097e0305 06010007 09090003     ......~.........
    2be0:	14050100 09020306 05010003 7dd8030c     ...............}
    2bf0:	01000709 a8032b05 00030902 03110501     .....+..........
    2c00:	00030901 030c0501 03097dd7 11050100     .........}......
    2c10:	0902aa03 05010003 00030632 01000309     ........2.......
    2c20:	03061105 00030901 030d0501 03097ee4     .............~..
    2c30:	03060100 00050900 09000301 05010003     ................
    2c40:	a2030611 00050901 03190501 00030901     ................
    2c50:	030d0501 06097edd 0c050100 097ef103     .....~........~.
    2c60:	05010002 018f030d 01000309 09000306     ................
    2c70:	03010003 00030900 99030601 00050901     ................
    2c80:	03140501 03097e8e 2c050100 09000306     .....~.....,....
    2c90:	04010003 06050505 0903f803 04010003     ................
    2ca0:	03120504 0d097c8a 29050100 0901ee03     .....|.....)....
    2cb0:	05010004 00030613 01000209 03062e05     ................
    2cc0:	00020902 03050501 0004097e 03150501     ........~.......
    2cd0:	0009018b 0a050100 09028c03 05010005     ................
    2ce0:	7ac3030c 01000309 b1031305 00030903     ...z............
    2cf0:	032a0501 0309028b 0a050100 05090103     ..*.............
    2d00:	0c050100 097ac303 05010008 05bd0327     ......z.....'...
    2d10:	01000a09 03060505 00060900 060d0501     ................
    2d20:	03090203 0c050100 097ac103 05010007     ..........z.....
    2d30:	02e50311 01000c09 09000306 05010006     ................
    2d40:	0d03060d 01000909 02031505 01000609     ................
    2d50:	0f090303 1d050100 06090203 23050100     ...............#
    2d60:	0e097e03 15050100 09000306 05010002     .~..............
    2d70:	02030634 01000609 c8031105 00140902     4...............
    2d80:	032d0501 00030912 030d0501 06097bbc     ..-..........{..
    2d90:	11050100 0904d503 05010005 7bab030d     ...............{
    2da0:	01000809 d5031105 00030904 03230501     ..............#.
    2db0:	000b0905 03050501 05097bb2 0c050100     .........{......
    2dc0:	097ee503 05010005 05e9030d 01000309     ..~.............
    2dd0:	b2030505 0003097b 00030601 01000509     ....{...........
    2de0:	03060d05 00030902 03270501 0002097e     ..........'.~...
    2df0:	030c0501 03097ee5 0d050100 09019d03     .....~..........
    2e00:	05010003 097e0305 05010008 04be030e     ......~.........
    2e10:	01000709 28030905 01001c09 02030e05     .......(........
    2e20:	01000609 09000306 05010012 0103060d     ................
    2e30:	01000209 0900ec03 05010003 7eb90305     ...............~
    2e40:	01000309 c7030d05 00050901 03050501     ................
    2e50:	06097eb9 0d050100 03090203 13050100     .~..............
    2e60:	02097e03 0c050100 097ad703 05010002     .~........z.....
    2e70:	05ab030d 01000309 7e030505 01000309     ...........~....
    2e80:	cd031105 00020901 030d0501 08097f9f     ................
    2e90:	04030100 01000309 7b031005 01000809     ...........{....
    2ea0:	ec030c05 00060979 030d0501 03090695     ....y...........
    2eb0:	04030100 01000309 96030e05 000f0901     ................
    2ec0:	00030601 01000f09 03061105 09097bb9     .............{..
    2ed0:	19050100 03090203 1f050100 0e097e03     .............~..
    2ee0:	11050100 09000306 05010002 02030630     ............0...
    2ef0:	01000209 c8030505 00150901 7fb20301     ................
    2f00:	01000609 05030d05 01000a09 97030c05     ................
    2f10:	0002097c 030d0501 030903e9 05050100     |...............
    2f20:	06097b03 13050100 0900d203 05010006     .{..............
    2f30:	09010305 05010006 7fb5030d 01000d09     ................
    2f40:	03061a05 000c0900 031e0501 00030900     ................
    2f50:	030d0501 00020900 060c0501 097c9403     ..............|.
    2f60:	05010003 03b10313 01000d09 c8031605     ................
    2f70:	00060903 030d0501 2f097bf9 1d050100     .........{./....
    2f80:	06090203 15050100 09000306 05010004     ................
    2f90:	8c03060c 0002097d 03160501 160903c1     ....}...........
    2fa0:	18050100 05090703 0c050100 097cb803     ..............|.
    2fb0:	05010002 03c30309 01000309 05031805     ................
    2fc0:	01000309 05090103 19050100 0d090303     ................
    2fd0:	27050100 09000306 03010002 000b0900     ...'............
    2fe0:	06050501 097db503 0501000b 0384031c     ......}.........
    2ff0:	01001009 09000306 05010005 09000322     ............"...
    3000:	05010003 fb03060c 0002097b 03140501     ........{.......
    3010:	03090486 0c050100 097c8403 05010005     ..........|.....
    3020:	03fd0314 01000309 7e030d05 01000309     ...........~....
    3030:	80030c05 0003097c 030d0501 03090480     ....|...........
    3040:	1d050100 05090503 17050100 03097b03     .............{..
    3050:	1c050100 09000306 05010003 ff030617     ................
    3060:	00070902 031a0501 0009090b 030c0501     ................
    3070:	030978f1 20050100 09078903 05010003     .x..... ........
    3080:	0906031a 0501000c 09020319 05010006     ................
    3090:	0904031a 05010003 7cfd032c 01000909     ........,..|....
    30a0:	09000306 030100b2 00160900 09000301     ................
    30b0:	05010016 09000330 05010007 ee03060c     ....0...........
    30c0:	0005097b 030d0501 03090492 05050100     {...............
    30d0:	097c9003 03010003 00230977 03430501     ..|.....w.#...C.
    30e0:	0003091d 06140501 03090003 2c050100     ...............,
    30f0:	03090003 05050100 095e0306 03010002     ..........^.....
    3100:	00020905 03050401 02090495 04040100     ................
    3110:	8a031205 000c097c 03160501 0a0903db     ....|...........
    3120:	2c050100 02097f03 0e030100 01000509     ...,............
    3130:	09000306 05010009 09000330 0501000a     ........0.......
    3140:	96030643 0002097c 030c0501 00030954     C...|.......T...
    3150:	031d0501 03090498 0d050100 06097e03     .............~..
    3160:	0c050100 097be503 05010003 09310314     ......{.......1.
    3170:	05010003 03ea030d 01000309 f4030505     ................
    3180:	0006097b 032c0501 00030922 03050501     {.....,.".......
    3190:	0002095e 03050401 0209049a 04040100     ^...............
    31a0:	8a031205 000e097c 032c0501 040903e8     ....|.....,.....
    31b0:	47050100 09000306 05010006 0103061d     ...G............
    31c0:	01000509 fe031105 0010097c 030d0501     ........|.......
    31d0:	00030910 030c0501 05097ed1 12050100     .........~......
    31e0:	0905f303 06010009 0f090003 11050100     ................
    31f0:	09010306 05010002 7ba70305 01000309     ...........{....
    3200:	02030d05 01000a09 7e032705 01000209     .........'.~....
    3210:	e5030c05 0003097e 030d0501 0309019d     ....~...........
    3220:	05050100 03097e03 1a050100 09068603     .....~..........
    3230:	06010009 0c090003 15050100 09020306     ................
    3240:	05010006 79fc0311 01000709 10030d05     .......y........
    3250:	01000309 d1030c05 0006097e 03120501     ........~.......
    3260:	060905f8 10090100 01010000 05000404     ................
    3270:	02354002 05980300 0a050501 0a090603     .@5.............
    3280:	03060100 00070900 060d0501 05090203     ................
    3290:	27050100 02097e03 0c050100 097b8503     ...'.~........{.
    32a0:	05010003 04fd030d 01000309 7e032e05     ...............~
    32b0:	01000309 03060505 00020900 94030601     ................
    32c0:	0002097e 00030601 01000e09 03060d05     ~...............
    32d0:	00050902 03300501 0002090e 062d0501     ......0.......-.
    32e0:	02090003 0c050100 7cf00306 01000909     ...........|....
    32f0:	84031105 00030903 03130501 0005097c     ............|...
    3300:	06050501 02090003 0d050100 01fe0306     ................
    3310:	01000009 b9030505 0007097d 030d0501     ........}.......
    3320:	000e0902 030c0501 02097db8 0d050100     .........}......
    3330:	0902c803 05010003 097e0305 05010003     ..........~.....
    3340:	00030627 01000309 00030505 01000209     '...............
    3350:	03060c05 0b097dc9 39050100 0904f003     .....}.....9....
    3360:	05010003 09250301 0601000a 05090003     ......%.........
    3370:	0e050100 7cd00306 01000209 03060505     .......|........
    3380:	00020900 060d0501 15090203 03060100     ................
    3390:	00020900 03290501 00040900 030d0501     ......).........
    33a0:	00030900 06050501 03096803 03060100     .........h......
    33b0:	00070900 06090501 03090203 43050100     ...............C
    33c0:	097ed603 05010002 01aa0309 01000309     ..~.............
    33d0:	d6031405 0002097e 062c0501 03090003     ....~.....,.....
    33e0:	05040100 03060505 020903f8 04040100     ................
    33f0:	8a031205 000d097c 03090501 040901a8     ....|...........
    3400:	25050100 09000306 05010002 7e030605     ...%...........~
    3410:	01000209 1b030f05 01000509 01031505     ................
    3420:	01000309 7a030505 01000609 02032c05     .......z.....,..
    3430:	01000509 7e030505 01000209 0c090b03     .......~........
    3440:	03060100 000f0900 5f030601 01000809     ..........._....
    3450:	02030905 01000309 d6034305 0004097e     .........C..~...
    3460:	06140501 03090003 2c050100 03090003     ...........,....
    3470:	05040100 03060505 020903f8 04040100     ................
    3480:	8a031205 0009097c 03090501 040901a8     ....|...........
    3490:	25050100 09000306 05010002 7e030605     ...%...........~
    34a0:	01000209 27031505 01000009 7f030f05     .......'........
    34b0:	01000209 7b030505 01000209 02032405     .......{.....$..
    34c0:	01000309 03060d05 00050900 06050501     ................
    34d0:	03095d03 32030100 01000b09 09000306     .].....2........
    34e0:	05010005 7f03060c 01000609 01030505     ................
    34f0:	01000209 09030e05 01000b09 77030505     ...............w
    3500:	01000409 09000306 05010005 0203060d     ................
    3510:	01000309 03062c05 00030900 030d0501     .....,..........
    3520:	00030900 032c0501 00020900 03290501     ......,.......).
    3530:	00040900 030d0501 00030900 06050501     ................
    3540:	03094103 03060100 00060900 06090501     .A..............
    3550:	06090203 43050100 097ee103 05010004     .......C..~.....
    3560:	00030614 01000309 00032c05 01000309     .........,......
    3570:	05050504 03f80306 01000209 12050404     ................
    3580:	097c8a03 05010010 019b0315 01000409     ..|.............
    3590:	02032505 01000309 7e030505 01000309     .%.........~....
    35a0:	c2031505 00000900 03090501 0e090380     ................
    35b0:	2d050100 097fb203 05010006 00030617     ...-............
    35c0:	01000209 00030905 01000509 03061d05     ................
    35d0:	0006090d 030c0501 0a097bac 24050100     .........{.....$
    35e0:	0904e203 06010003 0f090003 00030100     ................
    35f0:	01003409 03060505 06097cb9 0d050100     .4.......|......
    3600:	09090203 0c050100 097ee303 05010005     ..........~.....
    3610:	019d030d 01000309 7e032705 01000309     .........'.~....
    3620:	03060505 00030900 06110501 03090403     ................
    3630:	0d050100 07091003 03060100 00070900     ................
    3640:	09000301 0501000a e5030605 0009097e     ............~...
    3650:	03140501 00030922 06430501 03090003     ....".....C.....
    3660:	05050100 095e0306 05010003 0922032c     ......^.....,.".
    3670:	04010003 03050505 020903f8 04040100     ................
    3680:	8a031205 000e097c 03050501 090900e3     ....|...........
    3690:	0d050100 09090203 0c050100 097ee303     ..............~.
    36a0:	05010005 019d030d 01000309 7e032705     .............'.~
    36b0:	01000309 03060505 00030900 06110501     ................
    36c0:	05090403 0d050100 03091003 0c050100     ................
    36d0:	097ed103 05010007 01af030d 01000309     ..~.............
    36e0:	09000306 05010003 d103060c 0004097e     ............~...
    36f0:	030d0501 030901af 03060100 00030900     ................
    3700:	06050501 097ee503 06010003 0e090003     ......~.........
    3710:	14050100 09220306 05010003 00030643     ......".....C...
    3720:	01000309 03060505 0003095e 032c0501     ........^.....,.
    3730:	00020922 05050401 03f80305 01000209     "...............
    3740:	12050404 097c8a03 0501000b 04ec0301     ......|.........
    3750:	01000909 00000209 04720101 00030000     ..........r.....
    3760:	000001d9 0efb0101 0101000d 00000101     ................
    3770:	00000100 2f2e2f01 72702f2e 63656a6f     ...../././projec
    3780:	75632f74 672f7473 70616e65 49522f70     t/cust/genapp/RI
    3790:	3230322d 2f392e32 6c697562 6e692f64     -2022.9/build/in
    37a0:	5f6c6574 2f636261 646f7270 6377682f     tel_abc/prod/hwc
    37b0:	6364615f 37786c5f 3137332f 2f373335     _adc_lx7/371537/
    37c0:	322d4952 2e323230 77682f39 64615f63     RI-2022.9/hwc_ad
    37d0:	786c5f63 74782f37 61736e65 666c652d     c_lx7/xtensa-elf
    37e0:	636e692f 6564756c 3939632f 2f2e2f00     /include/c99././
    37f0:	72702f2e 63656a6f 75632f74 672f7473     ./project/cust/g
    3800:	70616e65 49522f70 3230322d 2f392e32     enapp/RI-2022.9/
    3810:	6c697562 6e692f64 5f6c6574 2f636261     build/intel_abc/
    3820:	646f7270 6377682f 6364615f 37786c5f     prod/hwc_adc_lx7
    3830:	3137332f 2f373335 322d4952 2e323230     /371537/RI-2022.
    3840:	77682f39 64615f63 786c5f63 74782f37     9/hwc_adc_lx7/xt
    3850:	61736e65 666c652d 636e692f 6564756c     ensa-elf/include
    3860:	6f682f00 782f656d 75636770 742f7473     ./home/xpgcust/t
    3870:	2f656572 322d4952 2e323230 62692f39     ree/RI-2022.9/ib
    3880:	6f6f742f 732f736c 6f6f7477 782d736c     /tools/swtools-x
    3890:	365f3638 696c2d34 2f78756e 6e657478     86_64-linux/xten
    38a0:	652d6173 732f666c 682f6372 2f006c61     sa-elf/src/hal./
    38b0:	2f2e2f2e 656d6f68 6770782f 74737563     ././home/xpgcust
    38c0:	6572742f 49522f65 3230322d 2f392e32     /tree/RI-2022.9/
    38d0:	742f6269 736c6f6f 7477732f 736c6f6f     ib/tools/swtools
    38e0:	3638782d 2d34365f 756e696c 74782f78     -x86_64-linux/xt
    38f0:	61736e65 666c652d 636e692f 6564756c     ensa-elf/include
    3900:	6574782f 0061736e 61767900 682e736c     /xtensa..yvals.h
    3910:	00000100 69647473 682e746e 00000200     ....stdint.h....
    3920:	2e75706d 00030063 6c616800 7265632d     mpu.c....hal-cer
    3930:	69666974 682e6465 00000400 00030400     tified.h........
    3940:	383c0205 e5030002 05050103 7d9f030a     ..<8...........}
    3950:	01000309 0902e303 0901000d 01000004     ................
    3960:	00030401 38500205 ef030002 05050103     ......P8........
    3970:	7db6030a 01000309 0902cc03 0901000d     ...}............
    3980:	01000004 00030401 38640205 f9030002     ..........d8....
    3990:	05050103 7dcd030a 01000309 0902b503     .......}........
    39a0:	0901000d 01000004 00030401 38780205     ..............x8
    39b0:	83030002 05050104 7de6030a 01000309     ...........}....
    39c0:	09029c03 0901000d 01000004 00030401     ................
    39d0:	388c0205 8d030002 05050104 7dfd030a     ...8...........}
    39e0:	01000309 09028503 0901000d 01000004     ................
    39f0:	00030401 38a00205 97030002 05050104     .......8........
    3a00:	7e94030a 01000309 0901ee03 0901000d     ...~............
    3a10:	01000004 00030401 3b000205 a6030002     ...........;....
    3a20:	27050104 7caf030a 01000809 03061805     ...'...|........
    3a30:	00050900 03120501 00020900 03420501     ..............B.
    3a40:	00030900 03300501 00030900 034b0501     ......0.......K.
    3a50:	00050900 03180501 00030900 03300501     ..............0.
    3a60:	00030900 034b0501 00030900 031f0501     ......K.........
    3a70:	00030900 06050501 0903d303 09010006     ................
    3a80:	01000002 00030401 3b300205 b0030002     ..........0;....
    3a90:	23050104 7caf030a 01000a09 09000306     ...#...|........
    3aa0:	05010009 04030617 01000909 03062705     .............'..
    3ab0:	00030900 09000301 0501000c 04030614     ................
    3ac0:	01000809 03062805 00030900 09000301     .....(..........
    3ad0:	05010009 04030613 01000909 03060e05     ................
    3ae0:	00060900 060d0501 03090203 05050100     ................
    3af0:	0903c503 05010003 7cb70313 01000409     ...........|....
    3b00:	c9030505 00030903 00020901 04010100     ................
    3b10:	02050003 00023b90 0104ba03 030a0d05     .....;..........
    3b20:	06097cc0 17050100 09000306 05010003     .|..............
    3b30:	c2030605 00050903 00020901 04010100     ................
    3b40:	02050003 000238b4 0105d903 030a0505     .....8..........
    3b50:	00050904 03090501 00030901 03060501     ................
    3b60:	0003090b 030b0501 00040901 030a0501     ................
    3b70:	00020903 00030601 01000809 05090003     ................
    3b80:	09050100 09050306 05010003 09080303     ................
    3b90:	05010004 09660306 05010003 0901030e     ......f.........
    3ba0:	05010004 09020342 05010007 097f030c     ....B...........
    3bb0:	05010003 09010302 05010003 09170303     ................
    3bc0:	06010003 04090003 02090100 01010000     ................
    3bd0:	000002bb 01d90003 01010000 000d0efb     ................
    3be0:	01010101 01000000 2f010000 2f2e2f2e     .........../././
    3bf0:	656d6f68 6770782f 74737563 6572742f     home/xpgcust/tre
    3c00:	49522f65 3230322d 2f392e32 742f6269     e/RI-2022.9/ib/t
    3c10:	736c6f6f 7477732f 736c6f6f 3638782d     ools/swtools-x86
    3c20:	2d34365f 756e696c 74782f78 61736e65     _64-linux/xtensa
    3c30:	666c652d 636e692f 6564756c 6574782f     -elf/include/xte
    3c40:	0061736e 2e2f2e2f 6f72702f 7463656a     nsa./././project
    3c50:	7375632f 65672f74 7070616e 2d49522f     /cust/genapp/RI-
    3c60:	32323032 622f392e 646c6975 746e692f     2022.9/build/int
    3c70:	615f6c65 702f6362 2f646f72 5f637768     el_abc/prod/hwc_
    3c80:	5f636461 2f37786c 35313733 522f3733     adc_lx7/371537/R
    3c90:	30322d49 392e3232 6377682f 6364615f     I-2022.9/hwc_adc
    3ca0:	37786c5f 6574782f 2d61736e 2f666c65     _lx7/xtensa-elf/
    3cb0:	6c636e69 2f656475 00393963 2e2f2e2f     include/c99././.
    3cc0:	6f72702f 7463656a 7375632f 65672f74     /project/cust/ge
    3cd0:	7070616e 2d49522f 32323032 622f392e     napp/RI-2022.9/b
    3ce0:	646c6975 746e692f 615f6c65 702f6362     uild/intel_abc/p
    3cf0:	2f646f72 5f637768 5f636461 2f37786c     rod/hwc_adc_lx7/
    3d00:	35313733 522f3733 30322d49 392e3232     371537/RI-2022.9
    3d10:	6377682f 6364615f 37786c5f 6574782f     /hwc_adc_lx7/xte
    3d20:	2d61736e 2f666c65 6c636e69 00656475     nsa-elf/include.
    3d30:	6d6f682f 70782f65 73756367 72742f74     /home/xpgcust/tr
    3d40:	522f6565 30322d49 392e3232 2f62692f     ee/RI-2022.9/ib/
    3d50:	6c6f6f74 77732f73 6c6f6f74 38782d73     tools/swtools-x8
    3d60:	34365f36 6e696c2d 782f7875 736e6574     6_64-linux/xtens
    3d70:	6c652d61 72732f66 61682f63 6800006c     a-elf/src/hal..h
    3d80:	632d6c61 69747265 64656966 0100682e     al-certified.h..
    3d90:	76790000 2e736c61 00020068 64747300     ..yvals.h....std
    3da0:	2e746e69 00030068 75706d00 0400632e     int.h....mpu.c..
    3db0:	04000000 02050004 000238f8 0106e203     .........8......
    3dc0:	030a0505 00100970 031c0501 00030901     ....p...........
    3dd0:	030d0501 00030916 00030601 01000309     ................
    3de0:	03062205 000f097f 062b0501 03090003     ."........+.....
    3df0:	0d050100 09010306 05010002 097f0305     ................
    3e00:	03010003 00030903 03100501 00070902     ................
    3e10:	03050501 000a0965 030d0501 0003091c     ....e...........
    3e20:	031c0501 00030965 030d0501 0003091b     ....e...........
    3e30:	00030601 01000309 03061105 0009097d     ............}...
    3e40:	030d0501 00050903 03050501 0003097d     ............}...
    3e50:	03100501 00030908 03050501 000f095f     ............_...
    3e60:	030d0501 00030922 031c0501 0003095f     ...."......._...
    3e70:	030d0501 00030921 00030601 01000609     ....!...........
    3e80:	03060505 000e0903 00020901 4a010100     ...............J
    3e90:	03000004 0001d900 fb010100 01000d0e     ................
    3ea0:	00010101 00010000 2e2f0100 702f2e2f     ........../././p
    3eb0:	656a6f72 632f7463 2f747375 616e6567     roject/cust/gena
    3ec0:	522f7070 30322d49 392e3232 6975622f     pp/RI-2022.9/bui
    3ed0:	692f646c 6c65746e 6362615f 6f72702f     ld/intel_abc/pro
    3ee0:	77682f64 64615f63 786c5f63 37332f37     d/hwc_adc_lx7/37
    3ef0:	37333531 2d49522f 32323032 682f392e     1537/RI-2022.9/h
    3f00:	615f6377 6c5f6364 782f3778 736e6574     wc_adc_lx7/xtens
    3f10:	6c652d61 6e692f66 64756c63 39632f65     a-elf/include/c9
    3f20:	2e2f0039 702f2e2f 656a6f72 632f7463     9./././project/c
    3f30:	2f747375 616e6567 522f7070 30322d49     ust/genapp/RI-20
    3f40:	392e3232 6975622f 692f646c 6c65746e     22.9/build/intel
    3f50:	6362615f 6f72702f 77682f64 64615f63     _abc/prod/hwc_ad
    3f60:	786c5f63 37332f37 37333531 2d49522f     c_lx7/371537/RI-
    3f70:	32323032 682f392e 615f6377 6c5f6364     2022.9/hwc_adc_l
    3f80:	782f3778 736e6574 6c652d61 6e692f66     x7/xtensa-elf/in
    3f90:	64756c63 682f0065 2f656d6f 63677078     clude./home/xpgc
    3fa0:	2f747375 65657274 2d49522f 32323032     ust/tree/RI-2022
    3fb0:	692f392e 6f742f62 2f736c6f 6f747773     .9/ib/tools/swto
    3fc0:	2d736c6f 5f363878 6c2d3436 78756e69     ols-x86_64-linux
    3fd0:	6574782f 2d61736e 2f666c65 2f637273     /xtensa-elf/src/
    3fe0:	006c6168 2e2f2e2f 6d6f682f 70782f65     hal./././home/xp
    3ff0:	73756367 72742f74 522f6565 30322d49     gcust/tree/RI-20
    4000:	392e3232 2f62692f 6c6f6f74 77732f73     22.9/ib/tools/sw
    4010:	6c6f6f74 38782d73 34365f36 6e696c2d     tools-x86_64-lin
    4020:	782f7875 736e6574 6c652d61 6e692f66     ux/xtensa-elf/in
    4030:	64756c63 74782f65 61736e65 76790000     clude/xtensa..yv
    4040:	2e736c61 00010068 64747300 2e746e69     als.h....stdint.
    4050:	00020068 75706d00 0300632e 61680000     h....mpu.c....ha
    4060:	65632d6c 66697472 2e646569 00040068     l-certified.h...
    4070:	03040000 a0020500 0300023b 050104d2     ........;.......
    4080:	08030a09 01000a09 d9032205 000d097e     ........."..~...
    4090:	03370501 00050902 00030601 01000f09     ..7.............
    40a0:	03062405 00060909 03100501 00030906     .$..............
    40b0:	030d0501 000b0910 00030601 01000e09     ................
    40c0:	03061405 0809018e 03060100 000d0900     ................
    40d0:	06010501 15090603 25050100 02097303     ...........%.s..
    40e0:	01050100 03090d03 20050100 097ede03     ........... ..~.
    40f0:	06010004 10090003 00030100 01000609     ................
    4100:	03062105 00090904 031c0501 000d0903     .!..............
    4110:	03320501 00060901 00030601 01000809     ..2.............
    4120:	03061405 03090194 01050100 0d090603     ................
    4130:	14050100 0d097a03 03060100 00170900     .....z..........
    4140:	09000301 05010017 06030601 01001109     ................
    4150:	7a031405 01000209 06030105 01000909     ...z............
    4160:	00000209 03040101 8c020500 03000239     ............9...
    4170:	050105c7 b0030a09 0003097d 09020301     ........}.......
    4180:	05010009 09020305 05010016 09030310     ................
    4190:	05010003 09010309 05010002 0903032a     ............*...
    41a0:	05010003 097e0310 05010003 0902033e     ......~.....>...
    41b0:	05010002 0003060d 01000309 09090003     ................
    41c0:	0e050100 09030306 05010003 0003060d     ................
    41d0:	01000309 03061305 00060976 06050501     ........v.......
    41e0:	04090003 0c050100 09130306 05010000     ................
    41f0:	09010305 05010002 0903033d 05010003     ........=.......
    4200:	0901030d 03010003 00030941 00030601     ........A.......
    4210:	01000809 05090003 00030100 01000309     ................
    4220:	03060905 0005093e 03160501 00030903     ....>...........
    4230:	06050501 04090003 00030100 01000709     ................
    4240:	03060905 00030904 03100501 00030901     ................
    4250:	03090501 00020901 09020301 05010003     ................
    4260:	09010311 05010003 09010309 05010002     ................
    4270:	09030342 06010003 08090003 0d050100     B...............
    4280:	7fb20306 01000209 cf031e05 00020900     ................
    4290:	030d0501 03097fb1 03060100 00030900     ................
    42a0:	09000301 06010003 0900ce03 05010006     ................
    42b0:	09730305 03010003 020902b4 03060100     ..s.............
    42c0:	00040900 09000301 03010004 00040900     ................
    42d0:	09000301 09010004 01000002 00021001     ................
    42e0:	d9000300 01000001 0d0efb01 01010100     ................
    42f0:	00000001 01000001 6d6f682f 70782f65     ......../home/xp
    4300:	73756367 72742f74 522f6565 30322d49     gcust/tree/RI-20
    4310:	392e3232 2f62692f 6c6f6f74 77732f73     22.9/ib/tools/sw
    4320:	6c6f6f74 38782d73 34365f36 6e696c2d     tools-x86_64-lin
    4330:	782f7875 736e6574 6c652d61 72732f66     ux/xtensa-elf/sr
    4340:	61682f63 2e2f006c 702f2e2f 656a6f72     c/hal./././proje
    4350:	632f7463 2f747375 616e6567 522f7070     ct/cust/genapp/R
    4360:	30322d49 392e3232 6975622f 692f646c     I-2022.9/build/i
    4370:	6c65746e 6362615f 6f72702f 77682f64     ntel_abc/prod/hw
    4380:	64615f63 786c5f63 37332f37 37333531     c_adc_lx7/371537
    4390:	2d49522f 32323032 682f392e 615f6377     /RI-2022.9/hwc_a
    43a0:	6c5f6364 782f3778 736e6574 6c652d61     dc_lx7/xtensa-el
    43b0:	6e692f66 64756c63 39632f65 2e2f0039     f/include/c99./.
    43c0:	702f2e2f 656a6f72 632f7463 2f747375     /./project/cust/
    43d0:	616e6567 522f7070 30322d49 392e3232     genapp/RI-2022.9
    43e0:	6975622f 692f646c 6c65746e 6362615f     /build/intel_abc
    43f0:	6f72702f 77682f64 64615f63 786c5f63     /prod/hwc_adc_lx
    4400:	37332f37 37333531 2d49522f 32323032     7/371537/RI-2022
    4410:	682f392e 615f6377 6c5f6364 782f3778     .9/hwc_adc_lx7/x
    4420:	736e6574 6c652d61 6e692f66 64756c63     tensa-elf/includ
    4430:	2e2f0065 682f2e2f 2f656d6f 63677078     e./././home/xpgc
    4440:	2f747375 65657274 2d49522f 32323032     ust/tree/RI-2022
    4450:	692f392e 6f742f62 2f736c6f 6f747773     .9/ib/tools/swto
    4460:	2d736c6f 5f363878 6c2d3436 78756e69     ols-x86_64-linux
    4470:	6574782f 2d61736e 2f666c65 6c636e69     /xtensa-elf/incl
    4480:	2f656475 6e657478 00006173 2e75706d     ude/xtensa..mpu.
    4490:	00010063 61767900 682e736c 00000200     c....yvals.h....
    44a0:	69647473 682e746e 00000300 2d6c6168     stdint.h....hal-
    44b0:	74726563 65696669 00682e64 00000004     certified.h.....
    44c0:	4c020500 0300023a 050104f7 02030a09     ...L:...........
    44d0:	01000309 02030505 01000309 06030105     ................
    44e0:	01000909 09000306 09010004 01000002     ................
    44f0:	00009101 6e000300 01000000 0d0efb01     .......n........
    4500:	01010100 00000001 01000001 6d6f682f     ............/hom
    4510:	70782f65 73756367 72742f74 522f6565     e/xpgcust/tree/R
    4520:	30322d49 392e3232 2f62692f 6c6f6f74     I-2022.9/ib/tool
    4530:	77732f73 6c6f6f74 38782d73 34365f36     s/swtools-x86_64
    4540:	6e696c2d 782f7875 736e6574 6c652d61     -linux/xtensa-el
    4550:	72732f66 61682f63 6d00006c 615f7570     f/src/hal..mpu_a
    4560:	532e6d73 00000100 02050000 00023cc4     sm.S.........<..
    4570:	0100ee03 03090103 01030100 01001709     ................
    4580:	00000209 00c70101 00030000 0000006e     ............n...
    4590:	0efb0101 0101000d 00000101 00000100     ................
    45a0:	6f682f01 782f656d 75636770 742f7473     ./home/xpgcust/t
    45b0:	2f656572 322d4952 2e323230 62692f39     ree/RI-2022.9/ib
    45c0:	6f6f742f 732f736c 6f6f7477 782d736c     /tools/swtools-x
    45d0:	365f3638 696c2d34 2f78756e 6e657478     86_64-linux/xten
    45e0:	652d6173 732f666c 682f6372 00006c61     sa-elf/src/hal..
    45f0:	5f75706d 2e6d7361 00010053 05000000     mpu_asm.S.......
    4600:	023ce002 01830300 09040301 03010003     ..<.............
    4610:	00030901 09010301 03010003 00030901     ................
    4620:	09010301 03010003 00030901 09010301     ................
    4630:	03010003 00030901 09010301 03010003     ................
    4640:	00020902 09020301 09010003 01000002     ................
    4650:	                                         .

Disassembly of section .debug_frame:

00000000 <.debug_frame>:
   0:	00000010 ffffffff 7c010001 00010c10     ...........|....
  10:	0000010c 00000010 00000000 000228d4     .............(..
  20:	0000001b 00200e43 00000010 ffffffff     ....C. .........
  30:	7c010001 00010c10 0000010c 00000010     ...|............
  40:	00000028 000228f0 0000006d 00200e43     (....(..m...C. .
  50:	00000010 ffffffff 7c010001 00010c10     ...........|....
  60:	0000010c 00000010 00000050 00022960     ........P...`)..
  70:	00000017 00200e43 00000010 ffffffff     ....C. .........
  80:	7c010001 00010c10 0000010c 00000010     ...|............
  90:	00000078 00022978 00000008 00200e43     x...x)......C. .
  a0:	00000010 ffffffff 7c010001 00010c10     ...........|....
  b0:	0000010c 00000010 000000a0 00022980     .............)..
  c0:	0000000a 00200e43 00000010 000000a0     ....C. .........
  d0:	0002298c 0000001a 00200e43 00000010     .)......C. .....
  e0:	000000a0 000229a8 0000000a 00200e43     .....)......C. .
  f0:	00000010 000000a0 000229b4 0000000a     .........)......
 100:	00200e43 00000010 000000a0 000229c0     C. ..........)..
 110:	0000000a 00200e43 00000010 000000a0     ....C. .........
 120:	000229cc 0000000a 00200e43 00000010     .)......C. .....
 130:	000000a0 000229d8 00000019 00200e43     .....)......C. .
 140:	00000010 000000a0 000229f4 0000002a     .........)..*...
 150:	00200e43 00000010 000000a0 00022a20     C. ......... *..
 160:	0000002e 00200e43 00000010 000000a0     ....C. .........
 170:	00022a50 0000002e 00200e43 00000010     P*......C. .....
 180:	000000a0 00022a80 00000013 00200e43     .....*......C. .
 190:	00000010 000000a0 00022a94 00000013     .........*......
 1a0:	00200e43 00000010 000000a0 00022aa8     C. ..........*..
 1b0:	00000016 00200e43 00000010 000000a0     ....C. .........
 1c0:	00022ac0 00000005 00200e43 00000010     .*......C. .....
 1d0:	000000a0 00022ac8 00000007 00200e43     .....*......C. .
 1e0:	00000010 000000a0 00022ad0 00000035     .........*..5...
 1f0:	00200e43 00000010 ffffffff 7c010001     C. ............|
 200:	00010c10 0000010c 00000010 000001f4     ................
 210:	00022b08 00000036 00200e43 00000010     .+..6...C. .....
 220:	ffffffff 7c010001 00010c10 0000010c     .......|........
 230:	00000010 0000021c 00022b40 00000036     ........@+..6...
 240:	00200e43 00000010 ffffffff 7c010001     C. ............|
 250:	00010c10 0000010c 00000010 00000244     ............D...
 260:	00022b78 00000044 00200e43 00000010     x+..D...C. .....
 270:	ffffffff 7c010001 00010c10 0000010c     .......|........
 280:	00000010 0000026c 00022e34 0000002e     ....l...4.......
 290:	00200e43 00000010 ffffffff 7c010001     C. ............|
 2a0:	00010c10 0000010c 00000010 00000294     ................
 2b0:	00023ab4 00000049 00200e43 00000010     .:..I...C. .....
 2c0:	00000294 00022e68 000006d8 02d00e43     ....h.......C...
 2d0:	00000010 00000294 00023540 000002f9     ........@5......
 2e0:	00400e43 00000010 ffffffff 7c010001     C.@............|
 2f0:	00010c10 0000010c 00000010 000002e4     ................
 300:	0002383c 00000014 00200e43 00000010     <8......C. .....
 310:	000002e4 00023850 00000014 00200e43     ....P8......C. .
 320:	00000010 000002e4 00023864 00000014     ........d8......
 330:	00200e43 00000010 000002e4 00023878     C. .........x8..
 340:	00000014 00200e43 00000010 000002e4     ....C. .........
 350:	0002388c 00000014 00200e43 00000010     .8......C. .....
 360:	000002e4 000238a0 00000014 00200e43     .....8......C. .
 370:	00000010 000002e4 00023b00 0000002e     .........;......
 380:	00200e43 00000010 000002e4 00023b30     C. .........0;..
 390:	0000005d 00200e43 00000010 000002e4     ]...C. .........
 3a0:	00023b90 00000010 00200e43 00000010     .;......C. .....
 3b0:	000002e4 000238b4 00000042 00200e43     .....8..B...C. .
 3c0:	00000010 ffffffff 7c010001 00010c10     ...........|....
 3d0:	0000010c 00000010 000003c0 000238f8     .............8..
 3e0:	00000092 00200e43 00000010 ffffffff     ....C. .........
 3f0:	7c010001 00010c10 0000010c 00000010     ...|............
 400:	000003e8 00023ba0 00000123 00200e43     .....;..#...C. .
 410:	00000010 000003e8 0002398c 000000be     .........9......
 420:	00200e43 00000010 ffffffff 7c010001     C. ............|
 430:	00010c10 0000010c 00000010 00000424     ............$...
 440:	00023a4c 00000015 00200e43              L:......C. .

Disassembly of section .debug_str:

00000000 <.debug_str>:
       0:	6d6f682f 70782f65 73756367 72742f74     /home/xpgcust/tr
      10:	522f6565 30322d49 392e3232 2f62692f     ee/RI-2022.9/ib/
      20:	6c6f6f74 77732f73 6c6f6f74 38782d73     tools/swtools-x8
      30:	34365f36 6e696c2d 782f7875 736e6574     6_64-linux/xtens
      40:	6c652d61 72732f66 74782f63 632f736f     a-elf/src/xtos/c
      50:	2e317472 702f0053 656a6f72 632f7463     rt1.S./project/c
      60:	2f747375 616e6567 522f7070 30322d49     ust/genapp/RI-20
      70:	392e3232 6975622f 692f646c 6c65746e     22.9/build/intel
      80:	6362615f 6f72702f 77682f64 64615f63     _abc/prod/hwc_ad
      90:	786c5f63 37332f37 37333531 7562782f     c_lx7/371537/xbu
      a0:	2f646c69 6f435753 6769666e 6f74782f     ild/SWConfig/xto
      b0:	4e470073 53412055 332e3220 74580034     s.GNU AS 2.34.Xt
      c0:	61736e65 6c6f6f54 34312d73 2039302e     ensaTools-14.09 
      d0:	6e616c63 65762067 6f697372 3031206e     clang version 10
      e0:	312e302e 682f0020 2f656d6f 63677078     .0.1 ./home/xpgc
      f0:	2f747375 65657274 2d49522f 32323032     ust/tree/RI-2022
     100:	692f392e 34702f62 746f6f72 6574582f     .9/ib/p4root/Xte
     110:	2f61736e 67726154 6c2d7465 2f736269     nsa/Target-libs/
     120:	696c6378 65742f62 6c69736e 2f616369     xclib/tensilica/
     130:	62696c63 79726172 696e695f 00632e74     clibrary_init.c.
     140:	6f72702f 7463656a 7375632f 65672f74     /project/cust/ge
     150:	7070616e 2d49522f 32323032 622f392e     napp/RI-2022.9/b
     160:	646c6975 746e692f 615f6c65 702f6362     uild/intel_abc/p
     170:	2f646f72 5f637768 5f636461 2f37786c     rod/hwc_adc_lx7/
     180:	35313733 782f3733 6c697562 57532f64     371537/xbuild/SW
     190:	666e6f43 782f6769 62696c63 6e65742f     Config/xclib/ten
     1a0:	696c6973 5f006163 74696e69 6565725f     silica._init_ree
     1b0:	625f746e 5f007373 6f72705f 6d616e67     nt_bss.__prognam
     1c0:	5f5f0065 62696c63 79726172 696e695f     e.__clibrary_ini
     1d0:	72610074 61006367 00766772 70766e65     t.argc.argv.envp
     1e0:	6f682f00 782f656d 75636770 742f7473     ./home/xpgcust/t
     1f0:	2f656572 322d4952 2e323230 62692f39     ree/RI-2022.9/ib
     200:	7234702f 2f746f6f 6e657458 542f6173     /p4root/Xtensa/T
     210:	65677261 696c2d74 782f7362 62696c63     arget-libs/xclib
     220:	6e65742f 696c6973 782f6163 736e6574     /tensilica/xtens
     230:	78655f61 632e7469 69665f00 5f00696e     a_exit.c._fini._
     240:	7374614e 69535f00 0074657a 657a6973     Nats._Sizet.size
     250:	5f00745f 6f637441 00746e75 6374415f     _t._Atcount._Atc
     260:	746e756f 615f0030 69786574 736e6674     ount0._atexitfns
     270:	76705000 6664696f 615f006e 69786574     .Ppvoidfn._atexi
     280:	65726674 72660065 665f6565 682f006e     tfree.free_fn./h
     290:	2f656d6f 63677078 2f747375 65657274     ome/xpgcust/tree
     2a0:	2d49522f 32323032 692f392e 34702f62     /RI-2022.9/ib/p4
     2b0:	746f6f72 6574582f 2f61736e 67726154     root/Xtensa/Targ
     2c0:	6c2d7465 2f736269 696c6378 65742f62     et-libs/xclib/te
     2d0:	6c69736e 2f616369 6e656572 73625f74     nsilica/reent_bs
     2e0:	00632e73 65725f67 00746e65 7272655f     s.c.g_reent._err
     2f0:	5f006f6e 74727473 705f6b6f 62745f00     no._strtok_p._tb
     300:	5f006675 5252415f 535f5941 5f455a49     uf.__ARRAY_SIZE_
     310:	45505954 5f005f5f 66756265 626d5f00     TYPE__._ebuf._mb
     320:	6e656c72 6174735f 5f006574 61686357     rlen_state._Wcha
     330:	6f6c0072 7520676e 6769736e 2064656e     r.long unsigned 
     340:	00746e69 7479425f 6e750065 6e676973     int._Byte.unsign
     350:	73206465 74726f68 74535f00 00657461     ed short._State.
     360:	73624d5f 65746174 626d0074 74617473     _Mbstatet.mbstat
     370:	00745f65 72626d5f 63776f74 6174735f     e_t._mbrtowc_sta
     380:	5f006574 7273626d 63776f74 74735f73     te._mbsrtowcs_st
     390:	00657461 74626d5f 5f63776f 74617473     ate._mbtowc_stat
     3a0:	775f0065 6d6f7463 74735f62 00657461     e._wctomb_state.
     3b0:	7263775f 626d6f74 6174735f 5f006574     _wcrtomb_state._
     3c0:	72736377 626d6f74 74735f73 00657461     wcsrtombs_state.
     3d0:	6e61525f 696e6964 525f0074 73646e61     _Randinit._Rands
     3e0:	00646565 7864695f 76725f00 65725f00     eed._idx._rv._re
     3f0:	5f746e65 00727470 6d6f682f 70782f65     ent_ptr./home/xp
     400:	73756367 72742f74 522f6565 30322d49     gcust/tree/RI-20
     410:	392e3232 2f62692f 6f723470 582f746f     22.9/ib/p4root/X
     420:	736e6574 61542f61 74656772 62696c2d     tensa/Target-lib
     430:	63782f73 2f62696c 72756f73 782f6563     s/xclib/source/x
     440:	74697865 2f00632e 6a6f7270 2f746365     exit.c./project/
     450:	74737563 6e65672f 2f707061 322d4952     cust/genapp/RI-2
     460:	2e323230 75622f39 2f646c69 65746e69     022.9/build/inte
     470:	62615f6c 72702f63 682f646f 615f6377     l_abc/prod/hwc_a
     480:	6c5f6364 332f3778 33353137 62782f37     dc_lx7/371537/xb
     490:	646c6975 4357532f 69666e6f 63782f67     uild/SWConfig/xc
     4a0:	0062696c 6978655f 455f0074 00746978     lib._exit._Exit.
     4b0:	6d6f682f 70782f65 73756367 72742f74     /home/xpgcust/tr
     4c0:	522f6565 30322d49 392e3232 2f62692f     ee/RI-2022.9/ib/
     4d0:	6f723470 582f746f 736e6574 61542f61     p4root/Xtensa/Ta
     4e0:	74656772 62696c2d 63782f73 2f62696c     rget-libs/xclib/
     4f0:	736e6574 63696c69 79732f61 6c616373     tensilica/syscal
     500:	632e736c 766e6500 6e6f7269 655f5f00     ls.c.environ.__e
     510:	7269766e 745f6e6f 006d7265 6d6f682f     nviron_term./hom
     520:	70782f65 73756367 72742f74 522f6565     e/xpgcust/tree/R
     530:	30322d49 392e3232 2f62692f 6f723470     I-2022.9/ib/p4ro
     540:	582f746f 736e6574 57532f61 666e6f43     ot/Xtensa/SWConf
     550:	2e2f6769 61542f2e 74656772 62696c2d     ig/../Target-lib
     560:	696c2f73 66657262 782f6274 65725f74     s/libreftb/xt_re
     570:	2e627466 702f0063 656a6f72 632f7463     ftb.c./project/c
     580:	2f747375 616e6567 522f7070 30322d49     ust/genapp/RI-20
     590:	392e3232 6975622f 692f646c 6c65746e     22.9/build/intel
     5a0:	6362615f 6f72702f 77682f64 64615f63     _abc/prod/hwc_ad
     5b0:	786c5f63 37332f37 37333531 7562782f     c_lx7/371537/xbu
     5c0:	2f646c69 6f435753 6769666e 62696c2f     ild/SWConfig/lib
     5d0:	74666572 74780062 5f6c6168 5f746573     reftb.xthal_set_
     5e0:	69676572 615f6e6f 69727474 65747562     region_attribute
     5f0:	74657300 705f7075 7265776f 676f745f     .setup_power_tog
     600:	00656c67 5f746573 67616964 6174735f     gle.set_diag_sta
     610:	00737574 74617473 69727000 68735f64     tus.stat.prid_sh
     620:	00746669 5f746573 5f6c7473 74617473     ift.set_stl_stat
     630:	73007375 745f7465 62747365 68636e65     us.set_testbench
     640:	6978655f 6f6c5f74 69746163 73006e6f     _exit_location.s
     650:	745f7465 62747365 68636e65 776f705f     et_testbench_pow
     660:	745f7265 6c67676f 6f6c5f65 69746163     er_toggle_locati
     670:	73006e6f 735f7465 695f6c74 5f6f666e     on.set_stl_info_
     680:	61636f6c 6e6f6974 73657400 6e656274     location.testben
     690:	735f6863 695f6c74 5f6f666e 61636f6c     ch_stl_info_loca
     6a0:	6e6f6974 61696400 61705f67 64007373     tion.diag_pass.d
     6b0:	5f676169 6c696166 6c747300 6174735f     iag_fail.stl_sta
     6c0:	73007472 645f7465 5f676169 74617473     rt.set_diag_stat
     6d0:	665f7375 00747361 6274756f 00657479     us_fast.outbyte.
     6e0:	79626e69 65006574 6f6c5f78 74730063     inbyte.ex_loc.st
     6f0:	666e496c 6f6c5f6f 682f0063 2f656d6f     lInfo_loc./home/
     700:	63677078 2f747375 65657274 2d49522f     xpgcust/tree/RI-
     710:	32323032 692f392e 34702f62 746f6f72     2022.9/ib/p4root
     720:	6574582f 2f61736e 6f435753 6769666e     /Xtensa/SWConfig
     730:	2f2e2e2f 67726154 6c2d7465 2f736269     /../Target-libs/
     740:	7262696c 62746665 5f74782f 74666572     libreftb/xt_reft
     750:	65645f62 632e7366 65725f00 5f627466     b_defs.c._reftb_
     760:	74697865 636f6c5f 6f697461 725f006e     exit_location._r
     770:	62746665 776f705f 745f7265 6c67676f     eftb_power_toggl
     780:	725f0065 62746665 746e695f 6165645f     e._reftb_int_dea
     790:	72657373 725f0074 62746665 6d74785f     ssert._reftb_xtm
     7a0:	735f6d65 74617263 5f006863 74666572     em_scratch._reft
     7b0:	74735f62 6e695f6c 6c5f6f66 7461636f     b_stl_info_locat
     7c0:	006e6f69 6d6f682f 70782f65 73756367     ion./home/xpgcus
     7d0:	72742f74 522f6565 30322d49 392e3232     t/tree/RI-2022.9
     7e0:	2f62692f 6c6f6f74 77732f73 6c6f6f74     /ib/tools/swtool
     7f0:	38782d73 34365f36 6e696c2d 782f7875     s-x86_64-linux/x
     800:	736e6574 6c652d61 72732f66 74782f63     tensa-elf/src/xt
     810:	782f736f 2f326165 65736572 65762d74     os/xea2/reset-ve
     820:	726f7463 6165782d 00532e32 6d6f682f     ctor-xea2.S./hom
     830:	70782f65 73756367 72742f74 522f6565     e/xpgcust/tree/R
     840:	30322d49 392e3232 2f62692f 6c6f6f74     I-2022.9/ib/tool
     850:	77732f73 6c6f6f74 38782d73 34365f36     s/swtools-x86_64
     860:	6e696c2d 782f7875 736e6574 6c652d61     -linux/xtensa-el
     870:	72732f66 74782f63 782f736f 2f326165     f/src/xtos/xea2/
     880:	75626564 65762d67 726f7463 2f00532e     debug-vector.S./
     890:	656d6f68 6770782f 74737563 6572742f     home/xpgcust/tre
     8a0:	49522f65 3230322d 2f392e32 742f6269     e/RI-2022.9/ib/t
     8b0:	736c6f6f 7477732f 736c6f6f 3638782d     ools/swtools-x86
     8c0:	2d34365f 756e696c 74782f78 61736e65     _64-linux/xtensa
     8d0:	666c652d 6372732f 6f74782f 6f642f73     -elf/src/xtos/do
     8e0:	656c6275 6365762d 2e726f74 682f0053     uble-vector.S./h
     8f0:	2f656d6f 63677078 2f747375 65657274     ome/xpgcust/tree
     900:	2d49522f 32323032 692f392e 6f742f62     /RI-2022.9/ib/to
     910:	2f736c6f 6f747773 2d736c6f 5f363878     ols/swtools-x86_
     920:	6c2d3436 78756e69 6574782f 2d61736e     64-linux/xtensa-
     930:	2f666c65 2f637273 736f7478 6165782f     elf/src/xtos/xea
     940:	656b2f32 6c656e72 6365762d 2e726f74     2/kernel-vector.
     950:	682f0053 2f656d6f 63677078 2f747375     S./home/xpgcust/
     960:	65657274 2d49522f 32323032 692f392e     tree/RI-2022.9/i
     970:	6f742f62 2f736c6f 6f747773 2d736c6f     b/tools/swtools-
     980:	5f363878 6c2d3436 78756e69 6574782f     x86_64-linux/xte
     990:	2d61736e 2f666c65 2f637273 736f7478     nsa-elf/src/xtos
     9a0:	6f74782f 6e692d73 72726574 2d747075     /xtos-interrupt-
     9b0:	62616e65 632e656c 69555f00 3233746e     enable.c._Uint32
     9c0:	69750074 3233746e 7800745f 5f736f74     t.uint32_t.xtos_
     9d0:	65746e69 70757272 6e655f74 656c6261     interrupt_enable
     9e0:	6e495f00 74323374 746e6900 006d756e     ._Int32t.intnum.
     9f0:	6b73616d 76617300 73705f65 6f682f00     mask.save_ps./ho
     a00:	782f656d 75636770 742f7473 2f656572     me/xpgcust/tree/
     a10:	322d4952 2e323230 62692f39 6f6f742f     RI-2022.9/ib/too
     a20:	732f736c 6f6f7477 782d736c 365f3638     ls/swtools-x86_6
     a30:	696c2d34 2f78756e 6e657478 652d6173     4-linux/xtensa-e
     a40:	732f666c 782f6372 2f736f74 736f7478     lf/src/xtos/xtos
     a50:	746e692d 75727265 642d7470 62617369     -interrupt-disab
     a60:	632e656c 6f747800 6e695f73 72726574     le.c.xtos_interr
     a70:	5f747075 61736964 00656c62 6d6f682f     upt_disable./hom
     a80:	70782f65 73756367 72742f74 522f6565     e/xpgcust/tree/R
     a90:	30322d49 392e3232 2f62692f 6c6f6f74     I-2022.9/ib/tool
     aa0:	77732f73 6c6f6f74 38782d73 34365f36     s/swtools-x86_64
     ab0:	6e696c2d 782f7875 736e6574 6c652d61     -linux/xtensa-el
     ac0:	72732f66 74782f63 782f736f 2d736f74     f/src/xtos/xtos-
     ad0:	2d746573 68746e69 6c646e61 632e7265     set-inthandler.c
     ae0:	6f747800 65735f73 6e695f74 72726574     .xtos_set_interr
     af0:	5f747075 646e6168 0072656c 736f7478     upt_handler.xtos
     b00:	6e61685f 72656c64 6e75665f 74780063     _handler_func.xt
     b10:	685f736f 6c646e61 70007265 6d617261     os_handler.param
     b20:	72707000 75007665 72617600 616e0067     .pprev.u.varg.na
     b30:	58006772 49736f74 6148746e 656c646e     rg.XtosIntHandle
     b40:	746e4572 6f007972 2f00646c 656d6f68     rEntry.old./home
     b50:	6770782f 74737563 6572742f 49522f65     /xpgcust/tree/RI
     b60:	3230322d 2f392e32 742f6269 736c6f6f     -2022.9/ib/tools
     b70:	7477732f 736c6f6f 3638782d 2d34365f     /swtools-x86_64-
     b80:	756e696c 74782f78 61736e65 666c652d     linux/xtensa-elf
     b90:	6372732f 6f74782f 65782f73 692f3261     /src/xtos/xea2/i
     ba0:	7265746e 74707572 6261742d 532e656c     nterrupt-table.S
     bb0:	6f682f00 782f656d 75636770 742f7473     ./home/xpgcust/t
     bc0:	2f656572 322d4952 2e323230 62692f39     ree/RI-2022.9/ib
     bd0:	6f6f742f 732f736c 6f6f7477 782d736c     /tools/swtools-x
     be0:	365f3638 696c2d34 2f78756e 6e657478     86_64-linux/xten
     bf0:	652d6173 732f666c 782f6372 2f736f74     sa-elf/src/xtos/
     c00:	32616578 6d656d2f 6f727265 65762d72     xea2/memerror-ve
     c10:	726f7463 2f00532e 656d6f68 6770782f     ctor.S./home/xpg
     c20:	74737563 6572742f 49522f65 3230322d     cust/tree/RI-202
     c30:	2f392e32 742f6269 736c6f6f 7477732f     2.9/ib/tools/swt
     c40:	736c6f6f 3638782d 2d34365f 756e696c     ools-x86_64-linu
     c50:	74782f78 61736e65 666c652d 6372732f     x/xtensa-elf/src
     c60:	6f74782f 65782f73 6e2f3261 762d696d     /xtos/xea2/nmi-v
     c70:	6f746365 00532e72 6d6f682f 70782f65     ector.S./home/xp
     c80:	73756367 72742f74 522f6565 30322d49     gcust/tree/RI-20
     c90:	392e3232 2f62692f 6c6f6f74 77732f73     22.9/ib/tools/sw
     ca0:	6c6f6f74 38782d73 34365f36 6e696c2d     tools-x86_64-lin
     cb0:	782f7875 736e6574 6c652d61 72732f66     ux/xtensa-elf/sr
     cc0:	74782f63 782f736f 2f326165 72657375     c/xtos/xea2/user
     cd0:	6365762d 2e726f74 682f0053 2f656d6f     -vector.S./home/
     ce0:	63677078 2f747375 65657274 2d49522f     xpgcust/tree/RI-
     cf0:	32323032 692f392e 6f742f62 2f736c6f     2022.9/ib/tools/
     d00:	6f747773 2d736c6f 5f363878 6c2d3436     swtools-x86_64-l
     d10:	78756e69 6574782f 2d61736e 2f666c65     inux/xtensa-elf/
     d20:	2f637273 736f7478 6165782f 6e692f32     src/xtos/xea2/in
     d30:	6f6c2d74 69727077 7369642d 63746170     t-lowpri-dispatc
     d40:	2e726568 682f0053 2f656d6f 63677078     her.S./home/xpgc
     d50:	2f747375 65657274 2d49522f 32323032     ust/tree/RI-2022
     d60:	692f392e 6f742f62 2f736c6f 6f747773     .9/ib/tools/swto
     d70:	2d736c6f 5f363878 6c2d3436 78756e69     ols-x86_64-linux
     d80:	6574782f 2d61736e 2f666c65 2f637273     /xtensa-elf/src/
     d90:	736f7478 6165782f 69772f32 776f646e     xtos/xea2/window
     da0:	6365762d 73726f74 2f00532e 656d6f68     -vectors.S./home
     db0:	6770782f 74737563 6572742f 49522f65     /xpgcust/tree/RI
     dc0:	3230322d 2f392e32 742f6269 736c6f6f     -2022.9/ib/tools
     dd0:	7477732f 736c6f6f 3638782d 2d34365f     /swtools-x86_64-
     de0:	756e696c 74782f78 61736e65 666c652d     linux/xtensa-elf
     df0:	6372732f 6f74782f 65782f73 692f3261     /src/xtos/xea2/i
     e00:	762d746e 6f746365 00532e72 6d6f682f     nt-vector.S./hom
     e10:	70782f65 73756367 72742f74 522f6565     e/xpgcust/tree/R
     e20:	30322d49 392e3232 2f62692f 6c6f6f74     I-2022.9/ib/tool
     e30:	77732f73 6c6f6f74 38782d73 34365f36     s/swtools-x86_64
     e40:	6e696c2d 782f7875 736e6574 6c652d61     -linux/xtensa-el
     e50:	72732f66 74782f63 782f736f 2f326165     f/src/xtos/xea2/
     e60:	2d746e69 7064656d 642d6972 61707369     int-medpri-dispa
     e70:	65686374 00532e72 6d6f682f 70782f65     tcher.S./home/xp
     e80:	73756367 72742f74 522f6565 30322d49     gcust/tree/RI-20
     e90:	392e3232 2f62692f 6c6f6f74 77732f73     22.9/ib/tools/sw
     ea0:	6c6f6f74 38782d73 34365f36 6e696c2d     tools-x86_64-lin
     eb0:	782f7875 736e6574 6c652d61 72732f66     ux/xtensa-elf/sr
     ec0:	74782f63 782f736f 2f326165 2d637865     c/xtos/xea2/exc-
     ed0:	61686e75 656c646e 00532e64 6d6f682f     unhandled.S./hom
     ee0:	70782f65 73756367 72742f74 522f6565     e/xpgcust/tree/R
     ef0:	30322d49 392e3232 2f62692f 6c6f6f74     I-2022.9/ib/tool
     f00:	77732f73 6c6f6f74 38782d73 34365f36     s/swtools-x86_64
     f10:	6e696c2d 782f7875 736e6574 6c652d61     -linux/xtensa-el
     f20:	72732f66 74782f63 782f736f 2f326165     f/src/xtos/xea2/
     f30:	2d637865 63737973 2d6c6c61 646e6168     exc-syscall-hand
     f40:	2e72656c 682f0053 2f656d6f 63677078     ler.S./home/xpgc
     f50:	2f747375 65657274 2d49522f 32323032     ust/tree/RI-2022
     f60:	692f392e 6f742f62 2f736c6f 6f747773     .9/ib/tools/swto
     f70:	2d736c6f 5f363878 6c2d3436 78756e69     ols-x86_64-linux
     f80:	6574782f 2d61736e 2f666c65 2f637273     /xtensa-elf/src/
     f90:	736f7478 6165782f 78652f32 65722d63     xtos/xea2/exc-re
     fa0:	6e727574 2f00532e 656d6f68 6770782f     turn.S./home/xpg
     fb0:	74737563 6572742f 49522f65 3230322d     cust/tree/RI-202
     fc0:	2f392e32 742f6269 736c6f6f 7477732f     2.9/ib/tools/swt
     fd0:	736c6f6f 3638782d 2d34365f 756e696c     ools-x86_64-linu
     fe0:	74782f78 61736e65 666c652d 6372732f     x/xtensa-elf/src
     ff0:	6c61682f 7474612f 75626972 632e6574     /hal/attribute.c
    1000:	72702f00 63656a6f 75632f74 672f7473     ./project/cust/g
    1010:	70616e65 49522f70 3230322d 2f392e32     enapp/RI-2022.9/
    1020:	6c697562 6e692f64 5f6c6574 2f636261     build/intel_abc/
    1030:	646f7270 6377682f 6364615f 37786c5f     prod/hwc_adc_lx7
    1040:	3137332f 2f373335 69756278 532f646c     /371537/xbuild/S
    1050:	6e6f4357 2f676966 006c6168 61687478     WConfig/hal.xtha
    1060:	706d5f6c 65735f75 65725f74 6e6f6967     l_mpu_set_region
    1070:	7474615f 75626972 76006574 72646461     _attribute.vaddr
    1080:	7a697300 61630065 00727474 67616c66     .size.cattr.flag
    1090:	682f0073 2f656d6f 63677078 2f747375     s./home/xpgcust/
    10a0:	65657274 2d49522f 32323032 692f392e     tree/RI-2022.9/i
    10b0:	6f742f62 2f736c6f 6f747773 2d736c6f     b/tools/swtools-
    10c0:	5f363878 6c2d3436 78756e69 6574782f     x86_64-linux/xte
    10d0:	2d61736e 2f666c65 2f637273 2f6c6168     nsa-elf/src/hal/
    10e0:	736e6f63 00632e74 61687458 6e695f6c     const.c.Xthal_in
    10f0:	76656c74 75006c65 31746e69 00745f36     tlevel.uint16_t.
    1100:	6d6f682f 70782f65 73756367 72742f74     /home/xpgcust/tr
    1110:	522f6565 30322d49 392e3232 2f62692f     ee/RI-2022.9/ib/
    1120:	6c6f6f74 77732f73 6c6f6f74 38782d73     tools/swtools-x8
    1130:	34365f36 6e696c2d 782f7875 736e6574     6_64-linux/xtens
    1140:	6c652d61 72732f66 61682f63 706d2f6c     a-elf/src/hal/mp
    1150:	65735f75 74615f74 632e7274 68747800     u_set_attr.c.xth
    1160:	675f6c61 655f7465 7972746e 726f665f     al_get_entry_for
    1170:	6464615f 73736572 00736100 61687478     _address.as.xtha
    1180:	504d5f6c 6e655f55 00797274 61687478     l_MPU_entry.xtha
    1190:	6e655f6c 65646f63 6d656d5f 5f79726f     l_encode_memory_
    11a0:	65707974 68747800 725f6c61 5f646165     type.xthal_read_
    11b0:	0070616d 61687478 61635f6c 635f636c     map.xthal_calc_c
    11c0:	65686361 64726461 695f7369 7265746e     acheadrdis_inter
    11d0:	006c616e 61687478 73695f6c 6972775f     nal.xthal_is_wri
    11e0:	61626574 78006b63 6c616874 5f73695f     teback.xthal_is_
    11f0:	68636163 6c626165 74780065 5f6c6168     cacheable.xthal_
    1200:	656b616d 6e6f6e5f 68636163 6c626165     make_noncacheabl
    1210:	6e650065 65646f63 6363615f 5f737365     e.encode_access_
    1220:	68676972 65007374 7972746e 7465675f     rights.entry_get
    1230:	6363615f 00737365 72746e65 65675f79     _access.entry_ge
    1240:	656d5f74 79726f6d 7079745f 706d0065     t_memory_type.mp
    1250:	6c615f75 006e6769 6e756f72 00705564     u_align.roundUp.
    1260:	65666173 6464615f 6765725f 006e6f69     safe_add_region.
    1270:	73726966 616c0074 61007473 73656363     first.last.acces
    1280:	67695273 00737468 6f6d656d 79547972     sRights.memoryTy
    1290:	69006570 6c61766e 74616469 6f6c0065     pe.invalidate.lo
    12a0:	64656b63 67627000 68747800 695f6c61     cked.pbg.xthal_i
    12b0:	68636163 79735f65 6e00636e 65646565     cache_sync.neede
    12c0:	6e655f64 65697274 78655f73 00747369     d_entries_exist.
    12d0:	6e65006a 5f797274 5f746567 61747376     j.entry_get_vsta
    12e0:	64617472 6e007264 65626d75 76615f72     rtaddr.number_av
    12f0:	616c6961 00656c62 696c6176 65735f64     ailable.valid_se
    1300:	65006e65 7972746e 7465675f 6c61765f     en.entry_get_val
    1310:	72006469 766f6d65 6e695f65 65636361     id.remove_inacce
    1320:	62697373 655f656c 6972746e 69007365     ssible_entries.i
    1330:	67625f6e 0070616d 74697277 616d5f65     n_bgmap.write_ma
    1340:	6e655f70 00797274 6e5f6e65 78006d75     p_entry.en_num.x
    1350:	6c616874 75706d5f 7465735f 746e655f     thal_mpu_set_ent
    1360:	67007972 625f7465 616d5f67 6e695f70     ry.get_bg_map_in
    1370:	00786564 61657263 615f6574 6e67696c     dex.create_align
    1380:	5f676e69 72746e65 5f736569 725f6669     ing_entries_if_r
    1390:	69757165 00646572 7478656e 746e655f     equired.next_ent
    13a0:	615f7972 65726464 6e007373 5f747865     ry_address.next_
    13b0:	72746e65 61765f79 0064696c 63657270     entry_valid.prec
    13c0:	6e696465 67625f67 746e655f 695f7972     eding_bg_entry_i
    13d0:	7865646e 7000785f 65636572 676e6964     ndex_x.preceding
    13e0:	5f67625f 72746e65 5f785f79 72646461     _bg_entry_x_addr
    13f0:	78656e00 67625f74 746e655f 695f7972     .next_bg_entry_i
    1400:	7865646e 74656700 746e655f 69007972     ndex.get_entry.i
    1410:	6d67666e 73007061 6c6c616d 5f747365     nfgmap.smallest_
    1420:	72746e65 72675f79 65746165 68745f72     entry_greater_th
    1430:	655f6e61 6c617571 61747300 695f7472     an_equal.start_i
    1440:	6974696e 725f6c61 6f696765 6e65006e     nitial_region.en
    1450:	6e690064 61630076 64656863 64617369     d.inv.cachedisad
    1460:	6f640072 6661735f 6e615f65 6f635f64     r.do_safe_and_co
    1470:	74696d6d 65766f5f 70616c72 725f6465     mmit_overlaped_r
    1480:	6f696765 6200736e 5f657361 72646461     egions.base_addr
    1490:	66617300 65725f65 6e6f6967 646e6500     .safe_region.end
    14a0:	5f666f5f 6d676573 00746e65 676e656c     _of_segment.leng
    14b0:	6d006874 73695f74 0062775f 695f746d     th.mt_is_wb.mt_i
    14c0:	68635f73 756c6600 635f6873 65686361     s_ch.flush_cache
    14d0:	77656e00 00746d5f 72746e65 65735f79     .new_mt.entry_se
    14e0:	656d5f74 79726f6d 7079745f 6e650065     t_memory_type.en
    14f0:	5f797274 5f746573 65636361 65007373     try_set_access.e
    1500:	7972746e 7465735f 7473765f 61747261     ntry_set_vstarta
    1510:	00726464 646e6966 746e655f 62007972     ddr.find_entry.b
    1520:	6c626275 72665f65 745f6565 70695f6f     ubble_free_to_ip
    1530:	71657200 766f6d00 616d5f65 70755f70     .req.move_map_up
    1540:	70756400 766f6d00 616d5f65 6f645f70     .dup.move_map_do
    1550:	68006e77 6c646e61 6e695f65 696c6176     wn.handle_invali
    1560:	72705f64 66006465 6d706967 64615f31     d_pred.fgipm1_ad
    1570:	66007264 6d706967 67625f31 70616d5f     dr.fgipm1_bg_map
    1580:	646e695f 66007865 74737269 5f67625f     _index.first_bg_
    1590:	5f70616d 65646e69 69660078 5f747372     map_index.first_
    15a0:	625f6e69 616d5f67 65740070 7800706d     in_bg_map.temp.x
    15b0:	6c616874 6e6f635f 74726576 5f6f745f     thal_convert_to_
    15c0:	74697277 72687465 656d5f75 7079746d     writethru_memtyp
    15d0:	6e690065 74726573 746e655f 695f7972     e.insert_entry_i
    15e0:	656e5f66 64656465 7469775f 78655f68     f_needed_with_ex
    15f0:	69747369 615f676e 00727474 61766e69     isting_attr.inva
    1600:	0064696c 6e756f66 6e690064 2f006766     lid.found.infg./
    1610:	656d6f68 6770782f 74737563 6572742f     home/xpgcust/tre
    1620:	49522f65 3230322d 2f392e32 742f6269     e/RI-2022.9/ib/t
    1630:	736c6f6f 7477732f 736c6f6f 3638782d     ools/swtools-x86
    1640:	2d34365f 756e696c 74782f78 61736e65     _64-linux/xtensa
    1650:	666c652d 6372732f 6c61682f 75706d2f     -elf/src/hal/mpu
    1660:	7800632e 6c616874 5f73695f 6e72656b     .c.xthal_is_kern
    1670:	725f6c65 61646165 00656c62 61687478     el_readable.xtha
    1680:	73695f6c 72656b5f 5f6c656e 74697277     l_is_kernel_writ
    1690:	6c626165 74780065 5f6c6168 6b5f7369     eable.xthal_is_k
    16a0:	656e7265 78655f6c 74756365 656c6261     ernel_executable
    16b0:	68747800 695f6c61 73755f73 725f7265     .xthal_is_user_r
    16c0:	61646165 00656c62 61687478 73695f6c     eadable.xthal_is
    16d0:	6573755f 72775f72 61657469 00656c62     _user_writeable.
    16e0:	61687478 73695f6c 6573755f 78655f72     xthal_is_user_ex
    16f0:	74756365 656c6261 68747800 695f6c61     ecutable.xthal_i
    1700:	65645f73 65636976 64617000 67007264     s_device.paddr.g
    1710:	6d5f7465 79746d65 665f6570 5f6d6f72     et_memtype_from_
    1720:	72646461 746e695f 616e7265 756e006c     addr_internal.nu
    1730:	6e655f6d 65697274 61630073 64656863     m_entries.cached
    1740:	63007369 6b636568 6d656d5f 5f79726f     is.check_memory_
    1750:	65707974 6f727000 73736563 635f726f     type.processor_c
    1760:	65686361 7079745f 79730065 6d657473     ache_type.system
    1770:	6361635f 745f6568 00657079 636f7270     _cache_type.proc
    1780:	6f737365 61635f72 5f656863 65707974     essor_cache_type
    1790:	7465735f 636f6c00 6e5f6c61 61636e6f     _set.local_nonca
    17a0:	61656863 00656c62 74737973 6e5f6d65     cheable.system_n
    17b0:	61636e6f 61656863 00656c62 7563007a     oncacheable.z.cu
    17c0:	6e657272 32650074 68747800 635f6c61     rrent.e2.xthal_c
    17d0:	6b636568 70616d5f 6d656d00 4679726f     heck_map.memoryF
    17e0:	7367616c 6d654d00 4679726f 4d67616c     lags.MemoryFlagM
    17f0:	006b7361 6f6d654d 79547972 614d6570     ask.MemoryTypeMa
    1800:	63006b73 78006b68 6c616874 6165725f     sk.chk.xthal_rea
    1810:	616d5f64 61725f70 74580077 5f6c6168     d_map_raw.Xthal_
    1820:	5f75706d 616d6762 67660070 70616d5f     mpu_bgmap.fg_map
    1830:	6f682f00 782f656d 75636770 742f7473     ./home/xpgcust/t
    1840:	2f656572 322d4952 2e323230 62692f39     ree/RI-2022.9/ib
    1850:	6f6f742f 732f736c 6f6f7477 782d736c     /tools/swtools-x
    1860:	365f3638 696c2d34 2f78756e 6e657478     86_64-linux/xten
    1870:	652d6173 732f666c 682f6372 6d2f6c61     sa-elf/src/hal/m
    1880:	615f7570 532e6d73                        pu_asm.S.

Disassembly of section .debug_loc:

00000000 <.debug_loc>:
       0:	00000000 00000008 00520001 00000000     ..........R.....
      10:	00000000 0a000000 01000000 00005300     .............S..
	...
      28:	00050000 00010000 00000552 00000800     ........R.......
      38:	5a000100 00000000 00000000 00000082     ...Z............
      48:	0000009e 9f300002 00000000 00000000     ......0.........
      58:	00000100 00000108 08520001 13000001     ..........R.....
      68:	01000001 00005300 00000000 01140000     .....S..........
      78:	011c0000 00010000 00011c52 00012700     ........R....'..
      88:	53000100 00000000 00000000 00000114     ...S............
      98:	0000011c 1c520001 27000001 01000001     ......R....'....
      a8:	00005300 00000000 01300000 013e0000     .S........0...>.
      b8:	00020000 00009f30 00000000 01500000     ....0.........P.
      c8:	01670000 00010000 00000052 00000000     ..g.....R.......
      d8:	00016700 00018500 30000200 0000009f     .g.........0....
      e8:	00000000 00016700 00018500 52000100     .....g.........R
	...
     104:	00000009 09520001 17000000 01000000     ......R.........
     114:	00005300 00000000 00140000 00240000     .S............$.
     124:	00010000 00002752 00003400 55000100     ....R'...4.....U
	...
     13c:	00000017 00000034 00530001 00000000     ....4.....S.....
     14c:	00000000 09000000 01000000 00095200     .............R..
     15c:	00360000 00010000 00000053 00000000     ..6.....S.......
     16c:	00002700 00003400 55000100 00000000     .'...4.....U....
     17c:	00000000 0000000f 00000034 00520001     ........4.....R.
	...
     194:	09000000 01000000 00095200 00440000     .........R....D.
     1a4:	00010000 00000056 00000000 00000000     ....V...........
     1b4:	00003200 53000100 00000000 00000000     .2.....S........
     1c4:	00000028 00000042 00570001 00000000     (...B.....W.....
     1d4:	00000000 2b000000 01000000 00005200     .......+.....R..
     1e4:	00000000 ffff0000 3ab4ffff 00000002     ...........:....
     1f4:	00400000 00010000 00004452 00004700     ..@.....RD...G..
     204:	52000100 00000000 00000000 ffffffff     ...R............
     214:	00023ab4 00000047 00000049 00520001     .:..G...I.....R.
     224:	00000000 ff000000 68ffffff 0000022e     ...........h....
     234:	07000000 01000000 00075200 00a20000     .........R......
     244:	00010000 0000b457 0000d000 57000100     ....W..........W
	...
     25c:	ffffffff 00022e68 00000000 00000019     ....h...........
     26c:	38530001 3e000000 01000000 00005300     ..S8...>.....S..
     27c:	00000000 ffff0000 2e68ffff 00000002     ..........h.....
     28c:	002c0000 00010000 00003854 00004d00     ..,.....T8...M..
     29c:	54000100 00000000 00000000 ffffffff     ...T............
     2ac:	00022e68 00000000 00000063 6e550001     h.......c.....Un
     2bc:	7c000000 01000000 00c15500 00ce0000     ...|.....U......
     2cc:	00010000 00000055 00000000 ffffff00     ....U...........
     2dc:	022e68ff 00000000 0000ed00 56000100     .h.............V
     2ec:	000000f2 00000119 fd560001 00000001     ..........V.....
     2fc:	01000002 00005600 00000000 ffff0000     .....V..........
     30c:	2e68ffff 00070002 002c0000 00010000     ..h.......,.....
     31c:	00003854 00004a00 54000100 0000004a     T8...J.....TJ...
     32c:	0000004d 4d520001 f0000000 03000000     M.....RM........
     33c:	02a07100 000000f2 000006d8 a0710003     .q............q.
     34c:	00000002 00000000 ffffff00 022e68ff     .............h..
     35c:	00001500 00003800 57000100 0000003e     .....8.....W>...
     36c:	0000009d 9d570001 b4000000 01000000     ......W.........
     37c:	00b45b00 00ce0000 00010000 0000ce57     .[..........W...
     38c:	0000df00 5b000100 00000000 00000000     .......[........
     39c:	ffffffff 00022e68 00000017 0000001e     ....h...........
     3ac:	1e5f0001 38000000 01000000 003e5300     .._....8.....S>.
     3bc:	00a70000 00010000 0000aa53 0000af00     ........S.......
     3cc:	53000100 000000b4 000000d9 d9530001     ...S..........S.
     3dc:	f0000000 03000000 029c7100 000000f2     .........q......
     3ec:	000006d8 9c710003 00000002 00000000     ......q.........
     3fc:	ffffff00 022e68ff 00002900 00003100     .....h...)...1..
     40c:	54000100 00000031 00000038 a0710003     ...T1...8.....q.
     41c:	00000002 00000000 ffffff00 022e68ff     .............h..
     42c:	00004700 00004d00 93000500 04935b04     .G...M.......[..
	...
     444:	ffffffff 00022e68 00000079 0000007c     ....h...y...|...
     454:	04930005 0004935b 00000000 ff000000     ....[...........
     464:	68ffffff 9400022e a0000000 01000000     ...h............
     474:	00ce5200 00d00000 00010000 00000052     .R..........R...
     484:	00000000 ffffff00 022e68ff 0000a200     .........h......
     494:	0000ad00 72000700 31253a00 00009f27     .......r.:%1'...
     4a4:	00000000 ffff0000 2e68ffff 00a20002     ..........h.....
     4b4:	00a70000 00030000 009f0173 00000000     ........s.......
     4c4:	ff000000 68ffffff fa00022e 04000000     .......h........
     4d4:	05000001 31007e00 01049f27 06d80000     .....~.1'.......
     4e4:	00080000 9402a871 9f273104 00000000     ....q....1'.....
     4f4:	00000000 ffffffff 00022e68 000000d0     ........h.......
     504:	000000dc dc5b0001 ed000000 03000000     ......[.........
     514:	02987100 000000f2 000006d8 98710003     .q............q.
     524:	00000002 00000000 ffffff00 022e68ff     .............h..
     534:	0000d000 0000d900 53000100 000000d9     ...........S....
     544:	000000ed 9c710003 0000f202 0006d800     ......q.........
     554:	71000300 0000029c 00000000 ffff0000     ...q............
     564:	2e68ffff 00d00002 00ed0000 00030000     ..h.............
     574:	f202a071 d8000000 03000006 02a07100     q............q..
	...
     58c:	ffffffff 00022e68 000000d0 000000ed     ....h...........
     59c:	f2550001 d8000000 01000006 00005500     ..U..........U..
     5ac:	00000000 ffff0000 2e68ffff 00fd0002     ..........h.....
     5bc:	01070000 00050000 27310072 0001079f     ........r.1'....
     5cc:	0006d800 71000800 049402ac 009f2731     .......q....1'..
     5dc:	00000000 ff000000 68ffffff eb00022e     ...........h....
     5ec:	ed000000 01000000 00f25200 00f40000     .........R......
     5fc:	00010000 0002dd52 00030000 30000200     ....R..........0
     60c:	00033a9f 00034000 52000100 000003bc     .:...@.....R....
     61c:	000003cd 9f300002 000003e2 000003e9     ......0.........
     62c:	8d520001 ae000004 02000004 ae9f3000     ..R..........0..
     63c:	b8000004 01000004 069a5200 06af0000     .........R......
     64c:	00020000 06af9f30 06b90000 00010000     ....0...........
     65c:	00000052 00000000 ffffff00 022e68ff     R............h..
     66c:	0000ed00 0000f000 52000100 00000000     ...........R....
     67c:	00000000 ffffffff 00022e68 0000010c     ........h.......
     68c:	00000115 93580003 00000004 00000000     ......X.........
     69c:	ffffff00 022e68ff 00012600 00013800     .....h...&...8..
     6ac:	56000100 0000013d 0000013f 00560001     ...V=...?.....V.
     6bc:	00000000 ff000000 68ffffff 2600022e     ...........h...&
     6cc:	3f000001 01000001 00005300 00000000     ...?.....S......
     6dc:	ffff0000 2e68ffff 01350002 013b0000     ......h...5...;.
     6ec:	00030000 00049358 00000000 ff000000     ....X...........
     6fc:	68ffffff 4500022e 58000001 02000001     ...h...E...X....
     70c:	589f3100 bc000001 01000001 00005300     .1.X.........S..
     71c:	00000000 ffff0000 2e68ffff 01530002     ..........h...S.
     72c:	01bc0000 00030000 009f1071 00000000     ........q.......
     73c:	ff000000 68ffffff 6800022e 6e000001     .......h...h...n
     74c:	03000001 04935c00 00000000 00000000     .....\..........
     75c:	ffffffff 00022e68 0000016b 0000016e     ....h...k...n...
     76c:	93540003 00000004 00000000 ffffff00     ..T.............
     77c:	022e68ff 00017400 00018400 5d000100     .h...t.........]
	...
     794:	ffffffff 00022e68 00000174 00000179     ....h...t...y...
     7a4:	9f300002 00000179 00000181 9f310002     ..0.y.........1.
     7b4:	00000181 00000184 9f320002 00000000     ..........2.....
     7c4:	00000000 ffffffff 00022e68 0000018c     ........h.......
     7d4:	00000195 935c0003 00000004 00000000     ......\.........
     7e4:	ffffff00 022e68ff 00018f00 00019200     .....h..........
     7f4:	30000200 0001929f 00019a00 31000200     ...0...........1
     804:	00019a9f 00019d00 32000200 0000009f     ...........2....
     814:	00000000 ffffff00 022e68ff 00018f00     .........h......
     824:	00019d00 5d000100 00000000 00000000     .......]........
     834:	ffffffff 00022e68 0000019d 000001a0     ....h...........
     844:	93540006 04935904 000001a0 000001a3     ..T..Y..........
     854:	93540003 0001a304 0001b000 54000600     ..T............T
     864:	935a0493 0001b004 0001b400 5c000600     ..Z............\
     874:	935a0493 00000004 00000000 ffffff00     ..Z.............
     884:	022e68ff 00019d00 0001b400 53000100     .h.............S
	...
     89c:	ffffffff 00022e68 000001a3 000001b0     ....h...........
     8ac:	93540006 04935a04 000001b0 000001b4     ..T..Z..........
     8bc:	935c0006 04935a04 00000000 00000000     ..\..Z..........
     8cc:	ffffffff 00022e68 000001bc 000001fd     ....h...........
     8dc:	98710003 00025102 0002dd00 71000300     ..q..Q.........q
     8ec:	065d0298 069a0000 00030000 b9029871     ..].........q...
     8fc:	d8000006 03000006 02987100 00000000     .........q......
     90c:	00000000 ffffffff 00022e68 000001bc     ........h.......
     91c:	000001da 9f300002 000001e7 000001f7     ......0.........
     92c:	f7520001 fd000001 01000001 02515c00     ..R..........\Q.
     93c:	02870000 00010000 0002a152 0002ad00     ........R.......
     94c:	52000100 00000000 00000000 ffffffff     ...R............
     95c:	00022e68 000001bc 000001da 9f300002     h.............0.
     96c:	000001e7 000001f7 f7590001 fd000001     ..........Y.....
     97c:	01000001 02515800 02640000 00010000     .....XQ...d.....
     98c:	00000059 00000000 ffffff00 022e68ff     Y............h..
     99c:	0001bc00 0001da00 71000300 00000298     ...........q....
     9ac:	00000000 ffff0000 2e68ffff 01bc0002     ..........h.....
     9bc:	01da0000 00020000 00009f31 00000000     ........1.......
     9cc:	ffff0000 2e68ffff 01be0002 01da0000     ......h.........
     9dc:	00030000 00049353 00000000 ff000000     ....S...........
     9ec:	68ffffff ca00022e cd000001 01000001     ...h............
     9fc:	00005200 00000000 ffff0000 2e68ffff     .R............h.
     a0c:	01d70002 01da0000 00030000 00049352     ............R...
     a1c:	00000000 ff000000 68ffffff d500022e     ...........h....
     a2c:	fd000001 03000001 9f107100 00000251     .........q..Q...
     a3c:	000002dd 10710003 00065d9f 00069a00     ......q..]......
     a4c:	71000300 06b99f10 06d80000 00030000     ...q............
     a5c:	009f1071 00000000 ff000000 68ffffff     q..............h
     a6c:	da00022e e7000001 02000001 ea9f4f00     .............O..
     a7c:	f7000001 02000001 fa9f4f00 fd000001     .........O......
     a8c:	02000001 519f4f00 dd000002 02000002     .....O.Q........
     a9c:	5d9f4f00 9a000006 02000006 b99f4f00     .O.].........O..
     aac:	d8000006 02000006 009f4f00 00000000     .........O......
     abc:	ff000000 68ffffff da00022e fd000001     .......h........
     acc:	01000001 02515e00 02b00000 00010000     .....^Q.........
     adc:	00065d5e 00067400 5e000100 00000000     ^]...t.....^....
     aec:	00000000 ffffffff 00022e68 000001f1     ........h.......
     afc:	000001f7 93580003 00000004 00000000     ......X.........
     b0c:	ffffff00 022e68ff 00022100 00025100     .....h...!...Q..
     b1c:	56000100 000003fc 0000040e 00560001     ...V..........V.
     b2c:	00000000 ff000000 68ffffff 1200022e     ...........h....
     b3c:	21000002 03000002 04935800 000003e9     ...!.....X......
     b4c:	000003f1 93580003 0003fe04 00040300     ......X.........
     b5c:	5b000300 00000493 00000000 ffff0000     ...[............
     b6c:	2e68ffff 025a0002 026a0000 00010000     ..h...Z...j.....
     b7c:	00000052 00000000 ffffff00 022e68ff     R............h..
     b8c:	00025a00 00026a00 32000200 0000009f     .Z...j.....2....
     b9c:	00000000 ffffff00 022e68ff 00026a00     .........h...j..
     bac:	00027500 30000200 0002759f 0002a100     .u.....0.u......
     bbc:	5a000100 0000065d 0000066e 005a0001     ...Z]...n.....Z.
     bcc:	00000000 ff000000 68ffffff 7a00022e     ...........h...z
     bdc:	82000002 03000002 04935400 00000000     .........T......
     bec:	00000000 ffffffff 00022e68 00000660     ........h...`...
     bfc:	00000668 9f310002 00000000 00000000     h.....1.........
     c0c:	ffffffff 00022e68 0000028f 0000029d     ....h...........
     c1c:	93590003 00000004 00000000 ffffff00     ..Y.............
     c2c:	022e68ff 0002bd00 0002c000 52000100     .h.............R
     c3c:	000002da 000002dd 7f520001 85000006     ..........R.....
     c4c:	01000006 00005200 00000000 ffff0000     .....R..........
     c5c:	2e68ffff 02f00002 02f50000 00030000     ..h.............
     c6c:	00049352 00000000 ff000000 68ffffff     R..............h
     c7c:	fa00022e 00000002 01000003 03bc5200     .............R..
     c8c:	03cd0000 00010000 00048d52 0004ae00     ........R.......
     c9c:	52000100 0000069a 000006af 00520001     ...R..........R.
     cac:	00000000 ff000000 68ffffff 1000022e     ...........h....
     cbc:	16000003 03000003 04935200 00000000     .........R......
     ccc:	00000000 ffffffff 00022e68 00000302     ........h.......
     cdc:	00000316 16560001 22000003 01000003     ......V...."....
     cec:	00005200 00000000 ffff0000 2e68ffff     .R............h.
     cfc:	03020002 03050000 00020000 03059f31     ............1...
     d0c:	030d0000 00040000 9f1c3131 0000030d     ........11......
     d1c:	00000319 9f300002 00000319 00000325     ......0.....%...
     d2c:	31300004 00009f1c 00000000 ffff0000     ..01............
     d3c:	2e68ffff 03020002 03250000 00030000     ..h.......%.....
     d4c:	00029c71 00000000 ff000000 68ffffff     q..............h
     d5c:	0200022e 25000003 03000003 02987100     .......%.....q..
	...
     d74:	ffffffff 00022e68 0000036a 000003bc     ....h...j.......
     d84:	a8710008 31049402 040e9f27 048d0000     ..q....1'.......
     d94:	00080000 9402a871 9f273104 000004b8     ....q....1'.....
     da4:	0000065d a8710008 31049402 00009f27     ].....q....1'...
     db4:	00000000 ffff0000 2e68ffff 036a0002     ..........h...j.
     dc4:	03bc0000 00080000 9402ac71 9f273104     ........q....1'.
     dd4:	0000040e 0000048d ac710008 31049402     ..........q....1
     de4:	04b89f27 065d0000 00080000 9402ac71     '.....].....q...
     df4:	9f273104 00000000 00000000 ffffffff     .1'.............
     e04:	00022e68 0000036a 000003bc a0710003     h...j.........q.
     e14:	00040e02 00048d00 71000300 04b802a0     ...........q....
     e24:	065d0000 00030000 0002a071 00000000     ..].....q.......
     e34:	ff000000 68ffffff 6a00022e bc000003     .......h...j....
     e44:	01000003 040e5500 048d0000 00010000     .....U..........
     e54:	0004b855 00065d00 55000100 00000000     U....].....U....
     e64:	00000000 ffffffff 00022e68 0000036a     ........h...j...
     e74:	000003bc 9c710003 00040e02 00048d00     ......q.........
     e84:	71000300 04b8029c 065d0000 00030000     ...q......].....
     e94:	00029c71 00000000 ff000000 68ffffff     q..............h
     ea4:	6a00022e bc000003 03000003 02987100     ...j.........q..
     eb4:	0000040e 0000048d 98710003 0004b802     ..........q.....
     ec4:	00065d00 71000300 00000298 00000000     .].....q........
     ed4:	ffff0000 2e68ffff 036d0002 037a0000     ......h...m...z.
     ee4:	00020000 03829f4f 03850000 00020000     ....O...........
     ef4:	039e9f4f 03bc0000 00020000 040e9f4f     O...........O...
     f04:	045d0000 00020000 04609f4f 04650000     ..].....O.`...e.
     f14:	00020000 04659f4f 04880000 00010000     ....O.e.........
     f24:	0004b857 0004c000 57000100 0000059d     W..........W....
     f34:	00000642 48570001 5d000006 01000006     B.....WH...]....
     f44:	00005700 00000000 ffff0000 2e68ffff     .W............h.
     f54:	036d0002 03880000 00080000 9402a871     ..m.........q...
     f64:	9f273104 0000039e 000003bc a8710008     .1'...........q.
     f74:	31049402 040e9f27 048d0000 00080000     ...1'...........
     f84:	9402a871 9f273104 000004b8 0000065d     q....1'.....]...
     f94:	a8710008 31049402 00009f27 00000000     ..q....1'.......
     fa4:	ffff0000 2e68ffff 036d0002 03880000     ......h...m.....
     fb4:	00080000 9402ac71 9f273104 0000039e     ....q....1'.....
     fc4:	000003bc ac710008 31049402 040e9f27     ......q....1'...
     fd4:	048d0000 00080000 9402ac71 9f273104     ........q....1'.
     fe4:	000004b8 0000065d ac710008 31049402     ....].....q....1
     ff4:	00009f27 00000000 ffff0000 2e68ffff     '.............h.
    1004:	036d0002 03880000 00030000 9e02a071     ..m.........q...
    1014:	bc000003 03000003 02a07100 0000040e     .........q......
    1024:	0000048d a0710003 0004b802 00065d00     ......q......]..
    1034:	71000300 000002a0 00000000 ffff0000     ...q............
    1044:	2e68ffff 036d0002 03880000 00010000     ..h...m.........
    1054:	00039e55 0003bc00 55000100 0000040e     U..........U....
    1064:	0000048d b8550001 5d000004 01000006     ......U....]....
    1074:	00005500 00000000 ffff0000 2e68ffff     .U............h.
    1084:	036d0002 03880000 00030000 9e029c71     ..m.........q...
    1094:	bc000003 03000003 029c7100 0000040e     .........q......
    10a4:	0000048d 9c710003 0004b802 00065d00     ......q......]..
    10b4:	71000300 0000029c 00000000 ffff0000     ...q............
    10c4:	2e68ffff 036d0002 03880000 00030000     ..h...m.........
    10d4:	9e029871 bc000003 03000003 02987100     q............q..
    10e4:	0000040e 0000048d 98710003 0004b802     ..........q.....
    10f4:	00065d00 71000300 00000298 00000000     .].....q........
    1104:	ffff0000 2e68ffff 03770002 03880000     ......h...w.....
    1114:	00030000 9e9f1071 bc000003 03000003     ....q...........
    1124:	9f107100 0000040e 0000048d 10710003     .q............q.
    1134:	0004b89f 00065d00 71000300 00009f10     .....].....q....
    1144:	00000000 ffff0000 2e68ffff 03770002     ..........h...w.
    1154:	03bc0000 00030000 0e9f1071 8d000004     ........q.......
    1164:	03000004 9f107100 000004b8 0000065d     .....q......]...
    1174:	10710003 0000009f 00000000 ffffff00     ..q.............
    1184:	022e68ff 00037c00 00037f00 52000300     .h...|.........R
    1194:	00000493 00000000 ffff0000 2e68ffff     ..............h.
    11a4:	03910002 039e0000 00010000 0000005a     ............Z...
    11b4:	00000000 ffffff00 022e68ff 00041000     .........h......
    11c4:	00046200 52000100 00000000 00000000     .b.....R........
    11d4:	ffffffff 00022e68 000003af 000003b5     ....h...........
    11e4:	93580003 00000004 00000000 ffffff00     ..X.............
    11f4:	022e68ff 00041600 00045d00 71000800     .h.......].....q
    1204:	049402a8 009f2731 00000000 ff000000     ....1'..........
    1214:	68ffffff 1600022e 5d000004 08000004     ...h.......]....
    1224:	02ac7100 27310494 0000009f 00000000     .q....1'........
    1234:	ffffff00 022e68ff 00041600 00045d00     .....h.......]..
    1244:	55000100 00000000 00000000 ffffffff     ...U............
    1254:	00022e68 00000416 0000045d 9c710003     h.......].....q.
    1264:	00000002 00000000 ffffff00 022e68ff     .............h..
    1274:	00041600 00045d00 52000100 00000000     .....].....R....
    1284:	00000000 ffffffff 00022e68 0000041b     ........h.......
    1294:	00000420 93560003 00000004 00000000      .....V.........
    12a4:	ffffff00 022e68ff 00042000 00045d00     .....h... ...]..
    12b4:	71000300 00009f10 00000000 ffff0000     ...q............
    12c4:	2e68ffff 04200002 04280000 00010000     ..h... ...(.....
    12d4:	00000056 00000000 ffffff00 022e68ff     V............h..
    12e4:	00042800 00043a00 56000100 00000000     .(...:.....V....
    12f4:	00000000 ffffffff 00022e68 00000435     ........h...5...
    1304:	0000044f 005a0001 00000000 ff000000     O.....Z.........
    1314:	68ffffff 4a00022e 5d000004 05000004     ...h...J...]....
    1324:	ce801000 00009f01 00000000 ffff0000     ................
    1334:	2e68ffff 044a0002 045d0000 00010000     ..h...J...].....
    1344:	00000052 00000000 ffffff00 022e68ff     R............h..
    1354:	00045d00 00046500 5d000100 00000465     .]...e.....]e...
    1364:	0000048d b8520001 ba000004 01000004     ......R.........
    1374:	04ba5200 04c00000 00010000 0000005d     .R..........]...
    1384:	00000000 ffffff00 022e68ff 00046700     .........h...g..
    1394:	00046a00 54000300 00000493 00000000     .j.....T........
    13a4:	ffff0000 2e68ffff 046f0002 04750000     ......h...o...u.
    13b4:	00050000 93560493 00000004 00000000     ......V.........
    13c4:	ffffff00 022e68ff 00047500 00047b00     .....h...u...{..
    13d4:	93000500 04935604 00000000 00000000     .....V..........
    13e4:	ffffffff 00022e68 0000048d 000004a2     ....h...........
    13f4:	00520001 00000000 ff000000 68ffffff     ..R............h
    1404:	8d00022e a2000004 02000004 009f3100     .............1..
    1414:	00000000 ff000000 68ffffff 9300022e     ...........h....
    1424:	a2000004 03000004 04935300 00000000     .........S......
    1434:	00000000 ffffffff 00022e68 0000049c     ........h.......
    1444:	000004ab 9a5b0001 9d000006 01000006     ......[.........
    1454:	00005b00 00000000 ffff0000 2e68ffff     .[............h.
    1464:	05a40002 05aa0000 00030000 00049352     ............R...
    1474:	00000000 ff000000 68ffffff aa00022e     ...........h....
    1484:	f9000005 01000005 00005500 00000000     .........U......
    1494:	ffff0000 2e68ffff 05ca0002 05f90000     ......h.........
    14a4:	00030000 0002a071 00000000 ff000000     ....q...........
    14b4:	68ffffff d800022e da000005 05000005     ...h............
    14c4:	58049300 05da0493 05dc0000 00050000     ...X............
    14d4:	93520493 0005dc04 0005f900 53000600     ..R............S
    14e4:	93520493 00000004 00000000 ffffff00     ..R.............
    14f4:	022e68ff 0005dc00 0005f400 57000100     .h.............W
	...
    150c:	ffffffff 00022e68 000005dc 000005f9     ....h...........
    151c:	93530006 04935804 00000000 00000000     ..S..X..........
    152c:	ffffffff 00022e68 000005f6 000005f9     ....h...........
    153c:	10710003 0000009f 00000000 ffffff00     ..q.............
    154c:	022e68ff 00060e00 00061a00 93000500     .h..............
    155c:	04935804 00000000 00000000 ffffffff     .X..............
    156c:	00022e68 0000061a 00000629 04930005     h.......).......
    157c:	00049358 00000000 ff000000 68ffffff     X..............h
    158c:	2e00022e 30000006 05000006 59049300     .......0.......Y
    159c:	06300493 06480000 00030000 00049353     ..0...H.....S...
    15ac:	00000000 ff000000 68ffffff 3000022e     ...........h...0
    15bc:	48000006 01000006 00005700 00000000     ...H.....W......
    15cc:	ffff0000 2e68ffff 06300002 06480000     ......h...0...H.
    15dc:	00060000 59049353 00000493 00000000     ....S..Y........
    15ec:	ffff0000 2e68ffff 06420002 06480000     ......h...B...H.
    15fc:	00030000 009f1071 00000000 ff000000     ....q...........
    160c:	68ffffff bc00022e c5000006 02000006     ...h............
    161c:	009f3100 00000000 ff000000 68ffffff     .1.............h
    162c:	8e00022e 97000006 03000006 04935800     .............X..
	...
    1644:	ffffffff 00023540 00000000 0000000e     ....@5..........
    1654:	0e520001 a7000000 01000000 01045f00     ..R.........._..
    1664:	01080000 00010000 0000005f 00000000     ........_.......
    1674:	ffffff00 023540ff 00000000 0002d900     .....@5.........
    1684:	53000100 00000000 00000000 ffffffff     ...S............
    1694:	00023540 00000000 00000064 7c540001     @5......d.....T|
    16a4:	90000000 01000000 00005400 00000000     .........T......
    16b4:	ffff0000 3540ffff 000e0002 00160000     ......@5........
    16c4:	00020000 00169f4f 002c0000 00010000     ....O.....,.....
    16d4:	00007c57 00008c00 57000100 00000000     W|.........W....
    16e4:	00000000 ffffffff 00023540 0000000e     ........@5......
    16f4:	000002f9 9f300002 00000000 00000000     ......0.........
    1704:	ffffffff 00023540 0000000e 000002f9     ....@5..........
    1714:	9f300002 00000000 00000000 ffffffff     ..0.............
    1724:	00023540 00000018 00000021 93550003     @5......!.....U.
    1734:	00000004 00000000 ffffff00 023540ff     .............@5.
    1744:	00003600 00004800 57000100 0000004d     .6...H.....WM...
    1754:	0000004f 00570001 00000000 ff000000     O.....W.........
    1764:	40ffffff 36000235 4f000000 01000000     ...@5..6...O....
    1774:	00005800 00000000 ffff0000 3540ffff     .X............@5
    1784:	00450002 004b0000 00030000 0004935a     ..E...K.....Z...
    1794:	00000000 ff000000 40ffffff 66000235     ...........@5..f
    17a4:	6c000000 03000000 04935c00 00000000     ...l.....\......
    17b4:	00000000 ffffffff 00023540 0000007c     ........@5..|...
    17c4:	00000089 93550003 00000004 00000000     ......U.........
    17d4:	ffffff00 023540ff 00009000 0000a700     .....@5.........
    17e4:	5f000100 00000104 00000108 005f0001     ..._.........._.
    17f4:	00000000 ff000000 40ffffff 90000235     ...........@5...
    1804:	08000000 02000001 009f3100 00000000     .........1......
    1814:	ff000000 40ffffff 90000235 a9000000     .......@5.......
    1824:	02000000 ad9f3100 04000000 01000001     .....1..........
    1834:	01045800 01080000 00020000 01149f31     .X..........1...
    1844:	01bd0000 00010000 00000058 00000000     ........X.......
    1854:	ffffff00 023540ff 0000ad00 0000ec00     .....@5.........
    1864:	54000100 000000ec 00000104 7f740003     ...T..........t.
    1874:	00015d9f 0001bd00 5a000100 00000000     .].........Z....
    1884:	00000000 ffffffff 00023540 000000ad     ........@5......
    1894:	00000104 14570001 bd000001 01000001     ......W.........
    18a4:	00005900 00000000 ffff0000 3540ffff     .Y............@5
    18b4:	00b30002 00de0000 00020000 00001071     ............q...
    18c4:	00000000 ffff0000 3540ffff 00b30002     ..........@5....
    18d4:	00de0000 00010000 00000054 00000000     ........T.......
    18e4:	ffffff00 023540ff 0000b300 0000bd00     .....@5.........
    18f4:	54000100 000000bd 000000de 005e0001     ...T..........^.
    1904:	00000000 ff000000 40ffffff bf000235     ...........@5...
    1914:	de000000 01000000 00005e00 00000000     .........^......
    1924:	ffff0000 3540ffff 00bf0002 00de0000     ......@5........
    1934:	00020000 00001071 00000000 ffff0000     ....q...........
    1944:	3540ffff 00bf0002 00c90000 00050000     ..@5............
    1954:	935a0493 0000c904 0000de00 93000500     ..Z.............
    1964:	04935504 00000000 00000000 ffffffff     .U..............
    1974:	00023540 000000c9 000000de 93560006     @5............V.
    1984:	04935504 00000000 00000000 ffffffff     .U..............
    1994:	00023540 00000114 00000119 9f300002     @5............0.
    19a4:	00000119 00000136 45540001 4c000001     ....6.....TE...L
    19b4:	02000001 009f3000 00000000 ff000000     .....0..........
    19c4:	40ffffff 14000235 36000001 02000001     ...@5......6....
    19d4:	459f3000 4c000001 02000001 009f3000     .0.E...L.....0..
    19e4:	00000000 ff000000 40ffffff 14000235     ...........@5...
    19f4:	36000001 01000001 01455f00 014c0000     ...6....._E...L.
    1a04:	00010000 0000005f 00000000 ffffff00     ...._...........
    1a14:	023540ff 00011d00 00012300 93000500     .@5......#......
    1a24:	04935504 00000125 00000136 04930005     .U..%...6.......
    1a34:	00049355 00000000 ff000000 40ffffff     U..............@
    1a44:	1d000235 36000001 01000001 00005400     5......6.....T..
    1a54:	00000000 ffff0000 3540ffff 011d0002     ..........@5....
    1a64:	01360000 00010000 0000005f 00000000     ..6....._.......
    1a74:	ffffff00 023540ff 00012500 00013600     .....@5..%...6..
    1a84:	56000600 93550493 00000004 00000000     ...V..U.........
    1a94:	ffffff00 023540ff 00018600 0001b800     .....@5.........
    1aa4:	5f000100 00000000 00000000 ffffffff     ..._............
    1ab4:	00023540 00000186 000001b8 005a0001     @5............Z.
    1ac4:	00000000 ff000000 40ffffff 86000235     ...........@5...
    1ad4:	92000001 01000001 01925a00 01b80000     .........Z......
    1ae4:	00010000 00000057 00000000 ffffff00     ....W...........
    1af4:	023540ff 00019600 00019c00 93000500     .@5.............
    1b04:	04935504 0000019e 000001b8 04930005     .U..............
    1b14:	00049355 00000000 ff000000 40ffffff     U..............@
    1b24:	96000235 b8000001 01000001 00005700     5............W..
    1b34:	00000000 ffff0000 3540ffff 01960002     ..........@5....
    1b44:	01b80000 00010000 0000005f 00000000     ........_.......
    1b54:	ffffff00 023540ff 00019e00 0001b800     .....@5.........
    1b64:	56000600 93550493 00000004 00000000     ...V..U.........
    1b74:	ffffff00 023540ff 0001bd00 0002f900     .....@5.........
    1b84:	57000100 00000000 00000000 ffffffff     ...W............
    1b94:	00023540 000001bd 000001c3 c35f0001     @5............_.
    1ba4:	c9000001 01000001 00005b00 00000000     .........[......
    1bb4:	ffff0000 3540ffff 01bd0002 01c90000     ......@5........
    1bc4:	00010000 00000053 00000000 ffffff00     ....S...........
    1bd4:	023540ff 0001bd00 0001c900 57000100     .@5............W
	...
    1bec:	ffffffff 00023540 000001fb 0000028c     ....@5..........
    1bfc:	00590001 00000000 ff000000 40ffffff     ..Y............@
    1c0c:	d9000235 e6000001 02000001 e69f3100     5............1..
    1c1c:	8c000001 03000002 9f203000 00000000     .........0 .....
    1c2c:	00000000 ffffffff 00023540 000001d9     ........@5......
    1c3c:	000001e6 20300003 0001ec9f 0001f500     ......0 ........
    1c4c:	30000300 01fb9f20 021d0000 00030000     ...0 ...........
    1c5c:	1d9f2030 38000002 01000002 00005f00     0 .....8....._..
    1c6c:	00000000 ffff0000 3540ffff 01d90002     ..........@5....
    1c7c:	01e60000 00030000 ec9f2030 f5000001     ........0 ......
    1c8c:	03000001 9f203000 000001fb 0000021a     .....0 .........
    1c9c:	20300003 00021a9f 00023200 55000100     ..0 .....2.....U
	...
    1cb4:	ffffffff 00023540 000001d9 000001e6     ....@5..........
    1cc4:	9f300002 000001ec 0000028c 9f300002     ..0...........0.
	...
    1cdc:	ffffffff 00023540 000001e0 000001e6     ....@5..........
    1cec:	10710004 01ec0493 01ee0000 00040000     ..q.............
    1cfc:	04931071 000001ee 000001f0 93550003     q.............U.
    1d0c:	0001f004 0001fb00 71000400 00049318     ...........q....
    1d1c:	00000000 ff000000 40ffffff f5000235     ...........@5...
    1d2c:	fb000001 01000001 00005e00 00000000     .........^......
    1d3c:	ffff0000 3540ffff 024c0002 02530000     ......@5..L...S.
    1d4c:	00020000 02539f31 02570000 00020000     ....1.S...W.....
    1d5c:	02579f30 02610000 00040000 9f1c3130     0.W...a.....01..
    1d6c:	00000261 00000264 00540001 00000000     a...d.....T.....
    1d7c:	ff000000 40ffffff 3d000235 43000002     .......@5..=...C
    1d8c:	03000002 04935f00 00000000 00000000     ....._..........
    1d9c:	ffffffff 00023540 00000268 0000026d     ....@5..h...m...
    1dac:	935f0006 04935404 0000026d 00000270     .._..T..m...p...
    1dbc:	04930005 76049354 8c000002 03000002     ....T..v........
    1dcc:	04935f00 00000000 00000000 ffffffff     ._..............
    1ddc:	00023540 0000026a 0000028c 00560001     @5..j.........V.
    1dec:	00000000 ff000000 40ffffff 6a000235     ...........@5..j
    1dfc:	8c000002 01000002 00005b00 00000000     .........[......
    1e0c:	ffff0000 3540ffff 026a0002 02700000     ......@5..j...p.
    1e1c:	00050000 93540493 00027604 00027800     ......T..v...x..
    1e2c:	5f000300 02780493 028c0000 00060000     ..._..x.........
    1e3c:	5404935f 00000493 00000000 ffff0000     _..T............
    1e4c:	3540ffff 02700002 028c0000 00010000     ..@5..p.........
    1e5c:	00000059 00000000 ffffff00 023540ff     Y............@5.
    1e6c:	00027800 00028c00 55000600 93540493     .x.........U..T.
    1e7c:	00000004 00000000 ffffff00 023540ff     .............@5.
    1e8c:	0002ae00 0002b300 31000200 0002b39f     ...........1....
    1e9c:	0002bb00 31000400 bb9f1c31 bf000002     .......11.......
    1eac:	02000002 bf9f3000 c5000002 04000002     .....0..........
    1ebc:	1c313000 0002c59f 0002c800 58000100     .01............X
	...
    1ed4:	ffffffff 00023540 0000029d 000002a3     ....@5..........
    1ee4:	93580003 00000004 00000000 ffffff00     ..X.............
    1ef4:	023540ff 0002b500 0002c500 54000300     .@5............T
    1f04:	00000493 00000000 ffff0000 3540ffff     ..............@5
    1f14:	02cf0002 02d20000 00030000 e1049354     ............T...
    1f24:	f9000002 03000002 04935300 00000000     .........S......
    1f34:	00000000 ffffffff 00023540 000002e1     ........@5......
    1f44:	000002e3 93530003 0002e304 0002f900     ......S.........
    1f54:	53000600 93540493 00000004 00000000     ...S..T.........
    1f64:	ffffff00 023540ff 0002d600 0002d900     .....@5.........
    1f74:	53000100 00000000 00000000 ffffffff     ...S............
    1f84:	00023540 000002e3 000002f9 93530006     @5............S.
    1f94:	04935404 00000000 00000000 ffffffff     .T..............
    1fa4:	0002383c 00000000 0000000c 10520001     <8............R.
    1fb4:	12000000 01000000 00005200 00000000     .........R......
    1fc4:	ffff0000 383cffff 00000002 000c0000     ......<8........
    1fd4:	00010000 00001052 00001200 52000100     ....R..........R
	...
    1fec:	ffffffff 00023850 00000000 0000000c     ....P8..........
    1ffc:	10520001 12000000 01000000 00005200     ..R..........R..
    200c:	00000000 ffff0000 3850ffff 00000002     ..........P8....
    201c:	000c0000 00010000 00001052 00001200     ........R.......
    202c:	52000100 00000000 00000000 ffffffff     ...R............
    203c:	00023864 00000000 0000000c 10520001     d8............R.
    204c:	12000000 01000000 00005200 00000000     .........R......
    205c:	ffff0000 3864ffff 00000002 000c0000     ......d8........
    206c:	00010000 00001052 00001200 52000100     ....R..........R
	...
    2084:	ffffffff 00023878 00000000 0000000c     ....x8..........
    2094:	10520001 12000000 01000000 00005200     ..R..........R..
    20a4:	00000000 ffff0000 3878ffff 00000002     ..........x8....
    20b4:	000c0000 00010000 00001052 00001200     ........R.......
    20c4:	52000100 00000000 00000000 ffffffff     ...R............
    20d4:	0002388c 00000000 0000000c 10520001     .8............R.
    20e4:	12000000 01000000 00005200 00000000     .........R......
    20f4:	ffff0000 388cffff 00000002 000c0000     .......8........
    2104:	00010000 00001052 00001200 52000100     ....R..........R
	...
    211c:	ffffffff 000238a0 00000000 0000000c     .....8..........
    212c:	10520001 12000000 01000000 00005200     ..R..........R..
    213c:	00000000 ffff0000 38a0ffff 00000002     ...........8....
    214c:	000c0000 00010000 00001052 00001200     ........R.......
    215c:	52000100 00000000 00000000 ffffffff     ...R............
    216c:	00023b00 00000000 0000001d 00520001     .;............R.
    217c:	00000000 ff000000 00ffffff 0000023b     ............;...
    218c:	1d000000 01000000 00005200 00000000     .........R......
    219c:	ffff0000 3b00ffff 00080002 002c0000     .......;......,.
    21ac:	00020000 002c9f30 002e0000 00010000     ....0.,.........
    21bc:	00000052 00000000 ffffff00 023b30ff     R............0;.
    21cc:	00000000 00000a00 52000100 0000000a     ...........R....
    21dc:	0000005d 00530001 00000000 ff000000     ].....S.........
    21ec:	30ffffff 0000023b 0a000000 01000000     ...0;...........
    21fc:	000a5200 00540000 00010000 00005853     .R....T.....SX..
    220c:	00005d00 53000100 00000000 00000000     .].....S........
    221c:	ffffffff 00023b30 0000005b 0000005d     ....0;..[...]...
    222c:	00520001 00000000 ff000000 90ffffff     ..R.............
    223c:	0000023b 09000000 01000000 00005200     ;............R..
    224c:	00000000 ffff0000 3b90ffff 00000002     ...........;....
    225c:	00090000 00010000 00000052 00000000     ........R.......
    226c:	ffffff00 023b90ff 00000600 00000e00     ......;.........
    227c:	30000200 00000e9f 00001000 52000100     ...0...........R
	...
    2294:	ffffffff 000238b4 00000000 00000005     .....8..........
    22a4:	05520001 2c000000 01000000 003e5400     ..R....,.....T>.
    22b4:	00420000 00010000 00000054 00000000     ..B.....T.......
    22c4:	ffffff00 0238b4ff 00000000 00001400     ......8.........
    22d4:	53000100 00000028 00000030 00530001     ...S(...0.....S.
    22e4:	00000000 ff000000 b4ffffff 08000238     ............8...
    22f4:	0f000000 01000000 00285200 003c0000     .........R(...<.
    2304:	00010000 00000052 00000000 ffffff00     ....R...........
    2314:	0238b4ff 00001100 00002100 31000200     ..8......!.....1
    2324:	0000219f 00002800 30000200 00003e9f     .!...(.....0.>..
    2334:	00004200 31000200 0000009f 00000000     .B.....1........
    2344:	ffffff00 0238b4ff 00003900 00003c00     ......8..9...<..
    2354:	93000500 04935304 0000003c 0000003e     .....S..<...>...
    2364:	93520006 04935304 00000000 00000000     ..R..S..........
    2374:	00000000 0000003a 00520001 00000000     ....:.....R.....
    2384:	00000000 3a000000 01000000 00005300     .......:.....S..
    2394:	00000000 00030000 003a0000 00010000     ..........:.....
    23a4:	00000053 00000000 00001000 00003300     S............3..
    23b4:	55000100 00000033 0000003a 9f300002     ...U3...:.....0.
    23c4:	00000064 00000090 9f310002 00000090     d.........1.....
    23d4:	00000092 9f320002 00000000 00000000     ......2.........
    23e4:	00000010 0000002d 44570001 47000000     ....-.....WD...G
    23f4:	01000000 00735800 00760000 00010000     .....Xs...v.....
    2404:	00000053 00000000 00001000 00009000     S...............
    2414:	54000100 00000090 00000092 005f0001     ...T.........._.
    2424:	00000000 10000000 2d000000 01000000     ...........-....
    2434:	00005700 00000000 00130000 00190000     .W..............
    2444:	00010000 00000058 00000000 00004400     ....X........D..
    2454:	00004700 58000100 00000000 00000000     .G.....X........
    2464:	00000047 00000050 00580001 00000000     G...P.....X.....
    2474:	73000000 76000000 01000000 00005300     ...s...v.....S..
    2484:	00000000 00760000 00820000 00010000     ......v.........
    2494:	00000053 00000000 ffffff00 023ba0ff     S.............;.
    24a4:	00000000 00000800 52000100 00000008     ...........R....
    24b4:	0000000a 00530001 00000000 ff000000     ......S.........
    24c4:	a0ffffff 2500023b 28000000 01000000     ....;..%...(....
    24d4:	00005500 00000000 ffff0000 3ba0ffff     .U.............;
    24e4:	00250002 00280000 00010000 00000055     ..%...(.....U...
    24f4:	00000000 ffffff00 023ba0ff 00002b00     ..........;..+..
    2504:	00005000 57000100 00000080 00000090     .P.....W........
    2514:	00570001 00000000 ff000000 a0ffffff     ..W.............
    2524:	1a00023b 3c000000 01000000 00805600     ;......<.....V..
    2534:	00930000 00010000 00000056 00000000     ........V.......
    2544:	ffffff00 023ba0ff 00008a00 0000bd00     ......;.........
    2554:	5a000100 00000000 00000000 ffffffff     ...Z............
    2564:	00023ba0 000000af 000000bd 00560001     .;............V.
    2574:	00000000 ff000000 a0ffffff bd00023b     ............;...
    2584:	cc000000 02000000 009f3000 00000000     .........0......
    2594:	ff000000 8cffffff 00000239 0a000000     ........9.......
    25a4:	01000000 000a5200 007c0000 00010000     .....R....|.....
    25b4:	0000ae54 0000b000 52000100 000000b2     T..........R....
    25c4:	000000ba 00540001 00000000 ff000000     ......T.........
    25d4:	8cffffff 00000239 77000000 01000000     ....9......w....
    25e4:	00ae5300 00ba0000 00010000 00000053     .S..........S...
    25f4:	00000000 ffffff00 02398cff 00000000     ..........9.....
    2604:	00000a00 52000100 0000000a 0000007c     .......R....|...
    2614:	00540001 00000000 ff000000 8cffffff     ..T.............
    2624:	00000239 77000000 01000000 00005300     9......w.....S..
    2634:	00000000 ffff0000 398cffff 00030002     ...........9....
    2644:	00250000 00020000 00259f30 00410000     ..%.....0.%...A.
    2654:	00010000 00004157 00004b00 58000100     ....WA...K.....X
    2664:	0000004b 00000059 00570001 00000000     K...Y.....W.....
    2674:	ff000000 8cffffff 12000239 25000000     ........9......%
    2684:	02000000 2d9f3000 41000000 02000000     .....0.-...A....
    2694:	4b9f3000 7c000000 02000000 8f9f3000     .0.K...|.....0..
    26a4:	aa000000 02000000 009f3000 00000000     .........0......
    26b4:	ff000000 8cffffff 27000239 2f000000     ........9..'.../
    26c4:	03000000 04935800 0000002f 00000032     .....X../...2...
    26d4:	93580006 04935904 00000032 00000041     ..X..Y..2...A...
    26e4:	93580003 00004d04 00005e00 52000300     ..X..M...^.....R
    26f4:	00810493 00910000 00030000 00049356     ............V...
    2704:	00000000 ff000000 8cffffff 5c000239     ............9..\
    2714:	63000000 02000000 639f3000 68000000     ...c.....0.c...h
    2724:	02000000 689f3100 6e000000 02000000     .....1.h...n....
    2734:	009f3200 00000000 ff000000 8cffffff     .2..............
    2744:	5c000239 6e000000 01000000 00005600     9..\...n.....V..
    2754:	00000000 ffff0000 398cffff 00910002     ...........9....
    2764:	009b0000 00030000 00049356 00000000     ........V.......
    2774:	ff000000 8cffffff 9b000239 9e000000     ........9.......
    2784:	02000000 9e9f3000 a7000000 02000000     .....0..........
    2794:	a79f3100 aa000000 02000000 009f3200     .1...........2..
    27a4:	00000000 ff000000 8cffffff 9b000239     ............9...
    27b4:	aa000000 01000000 00005600 00000000     .........V......
    27c4:	00000000 000f0000 00010000 00001152     ............R...
    27d4:	00001300 52000100 00000000 00000000     .......R........

Disassembly of section .xt.prop:

00000000 <.xt.prop>:
       0:	00020b48 0000002c 00000001 00020d30     H...,.......0...
      10:	00000010 00000082 00020d40 00000028     ........@...(...
      20:	000000a2 00020d68 0000001d 000000a2     ....h...........
      30:	00020d85 00000000 00000008 00020d85     ................
      40:	00000014 000000a2 00020d99 0000002a     ............*...
      50:	000000a2 00020dc3 00000000 00000008     ................
      60:	00020dc5 0000000c 000000a2 00020dd1     ................
      70:	0000001b 000000a2 00020dec 00000003     ................
      80:	000000a2 00020d18 00000000 00002804     .............(..
      90:	00020d18 00000003 00000082 00023d04     .............=..
      a0:	00000000 00002804 00023d04 00000003     .....(...=......
      b0:	00000082 00020d14 00000004 00000001     ................
      c0:	00020b40 00000004 00000001 00020b74     @...........t...
      d0:	00000014 00000001 00020df0 00000000     ................
      e0:	00002804 00020df0 0000000b 00000082     .(..............
      f0:	00020dfb 00000010 000000a2 00020e0b     ................
     100:	00000001 00000008 00020e0c 0000000e     ................
     110:	000000a2 00020e1a 00000005 000000a2     ................
     120:	00020e1f 00000002 000000a2 00020e21     ............!...
     130:	00000000 00002808 00020e24 00000014     .....(..$.......
     140:	00000082 00020e38 00000002 000000a2     ....8...........
     150:	00020e3a 00000000 00000008 00010b64     :...........d...
     160:	00000004 00002804 00010b80 00000000     .....(..........
     170:	00002804 00023d07 00000008 00000082     .(...=..........
     180:	00020d1b 00000008 00000082 00020b88     ................
     190:	00000014 00000001 00020b9c 00000010     ................
     1a0:	00000001 00020bac 0000001c 00000001     ................
     1b0:	00020e3c 00000000 00002804 00020e3c     <........(..<...
     1c0:	0000000d 00000082 00020e49 00000013     ........I.......
     1d0:	000000a2 00020e5c 00000000 00000008     ....\...........
     1e0:	00020e5c 00000054 000000a2 00020eb0     \...T...........
     1f0:	00000000 00000008 00020eb0 00000000     ................
     200:	00002804 00020eb0 0000002c 00000082     .(......,.......
     210:	00020edc 00000011 000000a2 00020eed     ................
     220:	00000003 00000092 00020ef0 00000000     ................
     230:	00000008 00020ef0 00000012 000000a2     ................
     240:	00020f02 00000003 00000008 00020f05     ................
     250:	00000011 000000a2 00020f16 00000002     ................
     260:	00000008 00020f18 00000035 000000a2     ........5.......
     270:	00020f4d 00000014 000000a2 00020f61     M...........a...
     280:	00000000 00000008 00020f64 00000000     ........d.......
     290:	00002804 00020f64 00000018 00000082     .(..d...........
     2a0:	00020f7c 00000000 00000008 00020f7c     |...........|...
     2b0:	0000003f 000000a2 00020fbb 00000002     ?...............
     2c0:	00000008 00020fbd 00000003 000000a2     ................
     2d0:	00020fc0 0000000f 000000a2 00020fcf     ................
     2e0:	00000001 00000008 00020fd0 00000006     ................
     2f0:	000000a2 00020fd6 00000003 00000008     ................
     300:	00020fd9 00000060 000000a2 00021039     ....`.......9...
     310:	0000003b 000000a2 00021074 0000001e     ;.......t.......
     320:	000000a2 00021092 00000003 00000008     ................
     330:	00021095 00000009 000000a2 0002109e     ................
     340:	00000018 000000a2 000210b6 00000006     ................
     350:	000000a2 000210bc 00000002 000000a2     ................
     360:	000210be 00000000 00000008 00010480     ................
     370:	00000089 00004804 00010510 00000028     .....H......(...
     380:	00004804 00010540 00000028 00004804     .H..@...(....H..
     390:	00010570 00000028 00004804 000105a0     p...(....H......
     3a0:	00000028 00004804 000105d0 0000003f     (....H......?...
     3b0:	00004804 00010610 0000003f 00004804     .H......?....H..
     3c0:	00010650 0000003b 00004804 00010690     P...;....H......
     3d0:	0000003b 00004804 000106d0 00000025     ;....H......%...
     3e0:	00004804 00010700 00000028 00004804     .H......(....H..
     3f0:	00020bc8 00000004 00000001 00020bcc     ................
     400:	00000008 00000001 00020bd4 00000008     ................
     410:	00000001 00020bdc 00000004 00000001     ................
     420:	00020be0 00000004 00000001 00020be4     ................
     430:	00000004 00000001 00020be8 00000004     ................
     440:	00000001 00020bec 00000004 00000001     ................
     450:	000210c0 00000000 00002804 000210c0     .........(......
     460:	0000000a 00000082 000210ca 00000000     ................
     470:	00000008 000210cc 00000000 00002804     .............(..
     480:	000210cc 0000000a 00000082 000210d6     ................
     490:	00000000 00000008 000210d8 00000000     ................
     4a0:	00002804 000210d8 00000013 00000082     .(..............
     4b0:	000210eb 00000001 00000008 000210ec     ................
     4c0:	00000005 000000a2 000210f1 00000005     ................
     4d0:	000000a2 000210f6 00000007 000000a2     ................
     4e0:	000210fd 00000000 00000008 00021100     ................
     4f0:	00000000 00002804 00021100 00000025     .....(......%...
     500:	00000082 00021125 00000017 000000a2     ....%...........
     510:	0002113c 00000005 000000a2 00021141     <...........A...
     520:	00000002 000000a2 00021143 00000000     ........C.......
     530:	00000008 00021144 00000000 00002804     ....D........(..
     540:	00021144 00000025 00000082 00021169     D...%.......i...
     550:	0000000f 000000a2 00021178 00000015     ........x.......
     560:	000000a2 0002118d 00000005 000000a2     ................
     570:	00021192 00000002 000000a2 00021194     ................
     580:	00000000 00000008 00021194 00000000     ................
     590:	00002804 00021194 0000002c 00000082     .(......,.......
     5a0:	000211c0 0000000a 000000a2 000211ca     ................
     5b0:	00000005 000000a2 000211cf 00000015     ................
     5c0:	000000a2 000211e4 00000005 000000a2     ................
     5d0:	000211e9 00000002 000000a2 000211eb     ................
     5e0:	00000001 00000008 000211ec 00000010     ................
     5f0:	000000a2 000211fc 00000013 000000a2     ................
     600:	0002120f 00000000 00000008 00021210     ................
     610:	00000000 00002804 00021210 0000002c     .....(......,...
     620:	00000082 0002123c 0000000c 000000a2     ....<...........
     630:	00021248 0000000a 000000a2 00021252     H...........R...
     640:	00000005 000000a2 00021257 00000015     ........W.......
     650:	000000a2 0002126c 00000005 000000a2     ....l...........
     660:	00021271 00000002 000000a2 00021273     q...........s...
     670:	00000001 00000008 00021274 00000010     ........t.......
     680:	000000a2 00021284 00000010 000000a2     ................
     690:	00021294 00000013 000000a2 000212a7     ................
     6a0:	00000000 00000008 000212a8 00000000     ................
     6b0:	00002804 000212a8 0000002c 00000082     .(......,.......
     6c0:	000212d4 0000000c 000000a2 000212e0     ................
     6d0:	0000000c 000000a2 000212ec 0000000a     ................
     6e0:	000000a2 000212f6 00000005 000000a2     ................
     6f0:	000212fb 00000015 000000a2 00021310     ................
     700:	00000005 000000a2 00021315 00000002     ................
     710:	000000a2 00021317 00000001 00000008     ................
     720:	00021318 00000010 000000a2 00021328     ............(...
     730:	00000010 000000a2 00021338 00000010     ........8.......
     740:	000000a2 00021348 00000013 000000a2     ....H...........
     750:	0002135b 00000000 00000008 0002135c     [...........\...
     760:	00000000 00002804 0002135c 0000002c     .....(..\...,...
     770:	00000082 00021388 0000000c 000000a2     ................
     780:	00021394 0000000c 000000a2 000213a0     ................
     790:	0000000c 000000a2 000213ac 0000000a     ................
     7a0:	000000a2 000213b6 00000005 000000a2     ................
     7b0:	000213bb 00000015 000000a2 000213d0     ................
     7c0:	00000005 000000a2 000213d5 00000002     ................
     7d0:	000000a2 000213d7 00000001 00000008     ................
     7e0:	000213d8 00000010 000000a2 000213e8     ................
     7f0:	00000010 000000a2 000213f8 00000010     ................
     800:	000000a2 00021408 00000010 000000a2     ................
     810:	00021418 00000013 000000a2 0002142b     ............+...
     820:	00000000 00000008 00020bf0 00000008     ................
     830:	00000001 00020bf8 00000004 00000001     ................
     840:	00020bfc 00000008 00000001 00020c04     ................
     850:	00000004 00000001 00020c08 00000004     ................
     860:	00000001 00020c0c 00000004 00000001     ................
     870:	00020c10 00000004 00000001 00020c14     ................
     880:	00000004 00000001 0002142c 00000000     ........,.......
     890:	00002804 0002142c 00000033 00000082     .(..,...3.......
     8a0:	0002145f 00000000 00000008 00021460     _...........`...
     8b0:	00000000 00002804 00021460 0000003c     .....(..`...<...
     8c0:	00000082 0002149c 00000000 00000008     ................
     8d0:	0002149c 00000000 00002804 0002149c     .........(......
     8e0:	0000002a 00000082 000214c6 00000000     *...............
     8f0:	00000008 000214c8 00000000 00002804     .............(..
     900:	000214c8 00000014 00000082 000214dc     ................
     910:	00000000 00000008 000214dc 00000000     ................
     920:	00002804 000214dc 00000014 00000082     .(..............
     930:	000214f0 00000000 00000008 000214f0     ................
     940:	00000000 00002804 000214f0 0000001a     .....(..........
     950:	00000082 0002150a 00000000 00000008     ................
     960:	0002150c 00000000 00002804 0002150c     .........(......
     970:	0000001a 00000082 00021526 00000000     ........&.......
     980:	00000008 00021528 00000000 00002804     ....(........(..
     990:	00021528 0000001a 00000082 00021542     (...........B...
     9a0:	00000000 00000008 00021544 00000000     ........D.......
     9b0:	00002804 00021544 0000001a 00000082     .(..D...........
     9c0:	0002155e 00000000 00000008 00021560     ^...........`...
     9d0:	00000000 00002804 00021560 0000001a     .....(..`.......
     9e0:	00000082 0002157a 00000000 00000008     ....z...........
     9f0:	00010760 00000044 00004804 000107b0     `...D....H......
     a00:	0000002a 00004804 000107e0 00000029     *....H......)...
     a10:	00004804 00010810 0000002c 00004804     .H......,....H..
     a20:	00010840 00000030 00004804 00020c18     @...0....H......
     a30:	00000010 00000001 0002157c 00000000     ........|.......
     a40:	00002804 0002157c 00000060 00000082     .(..|...`.......
     a50:	000215dc 0000000e 000000a2 000215ea     ................
     a60:	00000000 00000008 000108a0 0000001d     ................
     a70:	00004804 00020c28 00000010 00000001     .H..(...........
     a80:	000215ec 00000000 00002804 000215ec     .........(......
     a90:	00000032 00000082 0002161e 00000000     2...............
     aa0:	00000008 0002161e 00000014 00000082     ................
     ab0:	00021632 00000000 00000008 00021632     2...........2...
     ac0:	0000002f 00000082 00021661 00000015     /.......a.......
     ad0:	000000a2 00021676 0000011d 000000a2     ....v...........
     ae0:	00021793 00000042 00000092 000217d5     ....B...........
     af0:	00000016 00000092 000217eb 00000001     ................
     b00:	00000008 000217ec 00000058 000000a2     ........X.......
     b10:	00021844 0000000f 000000a2 00021853     D...........S...
     b20:	00000002 00000008 00021855 00000003     ........U.......
     b30:	000000a2 00021858 00000018 000000a2     ....X...........
     b40:	00021870 00000149 000000a2 000219b9     p...I...........
     b50:	00000069 00000092 00021a22 0000005d     i......."...]...
     b60:	00000092 00021a7f 00000006 000000a2     ................
     b70:	00021a85 00000000 00000008 00021a85     ................
     b80:	00000006 000000a2 00021a8b 00000008     ................
     b90:	000000a2 00021a93 0000001c 00000092     ................
     ba0:	00021aaf 00000006 000000a2 00021ab5     ................
     bb0:	00000000 00000008 00021ab5 00000009     ................
     bc0:	000000a2 00021abe 00000008 000000a2     ................
     bd0:	00021ac6 0000001e 00000092 00021ae4     ................
     be0:	00000006 000000a2 00021aea 00000002     ................
     bf0:	00000008 00021aec 00000006 000000a2     ................
     c00:	00021af2 0000001f 000000a2 00021b11     ................
     c10:	00000006 000000a2 00021b17 00000001     ................
     c20:	00000008 00021b18 00000006 000000a2     ................
     c30:	00021b1e 00000023 000000a2 00021b41     ....#.......A...
     c40:	00000006 000000a2 00021b47 00000001     ........G.......
     c50:	00000008 00021b48 00000006 000000a2     ....H...........
     c60:	00021b4e 0000001f 000000a2 00021b6d     N...........m...
     c70:	00000006 000000a2 00021b73 00000001     ........s.......
     c80:	00000008 00021b74 00000006 000000a2     ....t...........
     c90:	00021b7a 00000023 000000a2 00021b9d     z...#...........
     ca0:	00000006 000000a2 00021ba3 00000001     ................
     cb0:	00000008 00021ba4 00000006 000000a2     ................
     cc0:	00021baa 00000026 000000a2 00021bd0     ....&...........
     cd0:	00000006 000000a2 00021bd6 00000002     ................
     ce0:	00000008 00021bd8 00000006 000000a2     ................
     cf0:	00021bde 0000002f 000000a2 00021c0d     ..../...........
     d00:	00000000 00000008 00021c0d 00000002     ................
     d10:	000000a2 00021c0f 00000000 00000008     ................
     d20:	00020c38 0000001c 00000001 00021c10     8...............
     d30:	00000000 00002804 00021c10 00000042     .....(......B...
     d40:	00000082 00021c52 00000019 00000092     ....R...........
     d50:	00021c6b 00000002 00000008 00021c6d     k...........m...
     d60:	00000007 000000a2 00021c74 0000000a     ........t.......
     d70:	000000a2 00021c7e 00000003 00000008     ....~...........
     d80:	00021c81 00000003 000000a2 00021c84     ................
     d90:	00000032 000000a2 00021cb6 00000002     2...............
     da0:	000000a2 00021cb8 00000012 000000a2     ................
     db0:	00021cca 00000003 00000092 00021ccd     ................
     dc0:	00000000 00000008 00021ccd 0000003e     ............>...
     dd0:	000000a2 00021d0b 00000002 00000008     ................
     de0:	00021d0d 00000003 000000a2 00021d10     ................
     df0:	00000005 000000a2 00021d15 00000020     ............ ...
     e00:	00000092 00021d35 00000000 00000008     ....5...........
     e10:	00021d35 0000000d 000000a2 00021d42     5...........B...
     e20:	000000f1 000000a2 00021e33 0000003c     ........3...<...
     e30:	00000092 00021e6f 00000002 00000008     ....o...........
     e40:	00021e71 00000034 000000a2 00021ea5     q...4...........
     e50:	00000005 00000092 00021eaa 00000000     ................
     e60:	00000008 00021eac 00000000 00002804     .............(..
     e70:	00021eac 000000d1 00000082 00021f7d     ............}...
     e80:	00000004 000000a2 00021f81 00000017     ................
     e90:	000000b2 00021f98 00000002 00000008     ................
     ea0:	00021f9a 0000000b 000000a2 00021fa5     ................
     eb0:	00000033 000000a2 00021fd8 00000044     3...........D...
     ec0:	000000a2 0002201c 00000006 00000092     ..... ..........
     ed0:	00022022 00000027 000000a2 00022049     " ..'.......I ..
     ee0:	00000000 00000008 00022049 00000002     ........I ......
     ef0:	000000a2 0002204b 00000000 00000008     ....K ..........
     f00:	00020c54 00000018 00000001 0002204c     T...........L ..
     f10:	00000000 00002804 0002204c 000000c0     .....(..L ......
     f20:	00000082 0002210c 00000034 00000092     .....!..4.......
     f30:	00022140 00000000 00000008 00022140     @!..........@!..
     f40:	00000005 000000a2 00022145 0000000d     ........E!......
     f50:	000000a2 00022152 00000003 00000008     ....R!..........
     f60:	00022155 00000003 000000a2 00022158     U!..........X!..
     f70:	00000055 000000a2 000221ad 00000003     U........!......
     f80:	00000092 000221b0 00000000 00000008     .....!..........
     f90:	000221b0 00000023 000000a2 000221d3     .!..#........!..
     fa0:	00000000 00000008 00020c6c 00000008     ........l.......
     fb0:	00000001 000221d4 00000000 00002804     .....!.......(..
     fc0:	000221d4 0000003e 00000082 00022212     .!..>........"..
     fd0:	00000029 00000092 0002223b 00000001     ).......;"......
     fe0:	00000008 0002223c 00000009 000000a2     ....<"..........
     ff0:	00022245 0000000e 000000a2 00022253     E"..........S"..
    1000:	00000002 00000008 00022255 00000005     ........U"......
    1010:	000000a2 0002225a 00000034 000000a2     ....Z"..4.......
    1020:	0002228e 0000000a 000000a2 00022298     ."..........."..
    1030:	0000000f 000000a2 000222a7 00000003     ........."......
    1040:	00000092 000222aa 00000002 00000008     ....."..........
    1050:	000222ac 00000012 000000a2 000222be     ."..........."..
    1060:	00000000 00000008 000222be 0000004d     ........."..M...
    1070:	000000a2 0002230b 00000002 00000008     .....#..........
    1080:	0002230d 00000003 000000a2 00022310     .#...........#..
    1090:	0000001d 000000a2 0002232d 00000020     ........-#.. ...
    10a0:	00000092 0002234d 00000000 00000008     ....M#..........
    10b0:	0002234d 0000001a 000000a2 00022367     M#..........g#..
    10c0:	00000002 000000a2 00022369 00000002     ........i#......
    10d0:	00000092 0002236b 00000000 00000008     ....k#..........
    10e0:	00020c74 0000000c 00000001 0002236c     t...........l#..
    10f0:	00000000 00002804 0002236c 00000042     .....(..l#..B...
    1100:	00000082 000223ae 0000004c 00000092     .....#..L.......
    1110:	000223fa 0000001d 00000092 00022417     .#...........$..
    1120:	00000001 00000008 00022418 00000002     .........$......
    1130:	000000a2 0002241a 00000005 000000a2     .....$..........
    1140:	0002241f 00000008 000000a2 00022427     .$..........'$..
    1150:	00000002 00000008 00022429 00000003     ........)$......
    1160:	000000a2 0002242c 0000004a 000000a2     ....,$..J.......
    1170:	00022476 00000002 000000a2 00022478     v$..........x$..
    1180:	00000012 000000a2 0002248a 00000003     .........$......
    1190:	00000092 0002248d 00000000 00000008     .....$..........
    11a0:	0002248d 0000003c 000000a2 000224c9     .$..<........$..
    11b0:	00000006 000000a2 000224cf 0000004f     .........$..O...
    11c0:	00000092 0002251e 0000002a 00000092     .....%..*.......
    11d0:	00022548 00000060 000000a2 000225a8     H%..`........%..
    11e0:	00000002 000000a2 000225aa 00000048     .........%..H...
    11f0:	00000092 000225f2 00000027 00000092     .....%..'.......
    1200:	00022619 0000005f 000000a2 00022678     .&.._.......x&..
    1210:	00000002 000000a2 0002267a 00000083     ........z&......
    1220:	00000092 000226fd 0000005f 000000a2     .....&.._.......
    1230:	0002275c 00000002 000000a2 0002275e     \'..........^'..
    1240:	00000065 00000092 000227c3 00000002     e........'......
    1250:	00000008 000227c5 00000003 000000a2     .....'..........
    1260:	000227c8 00000050 000000a2 00022818     .'..P........(..
    1270:	00000061 000000a2 00022879 00000024     a.......y(..$...
    1280:	000000a2 0002289d 00000000 00000008     .....(..........
    1290:	0002289d 00000003 000000a2 000228a0     .(...........(..
    12a0:	00000033 000000a2 000228d3 00000000     3........(......
    12b0:	00000008 00020c80 00000008 00000001     ................
    12c0:	000228d4 00000000 00002804 000228d4     .(.......(...(..
    12d0:	0000000c 00000082 000228e0 0000000d     .........(......
    12e0:	000000a2 000228ed 00000002 000000a2     .....(..........
    12f0:	000228ef 00000000 00000008 00020c88     .(..............
    1300:	0000000c 00000001 000228f0 00000000     .........(......
    1310:	00002804 000228f0 0000000c 00000082     .(...(..........
    1320:	000228fc 00000020 000000a2 0002291c     .(.. ........)..
    1330:	00000018 000000a2 00022934 00000000     ........4)......
    1340:	00000008 00022934 0000000c 000000a2     ....4)..........
    1350:	00022940 00000018 000000a2 00022958     @)..........X)..
    1360:	00000005 000000a2 00020c94 0000000c     ................
    1370:	00000001 00022960 00000000 00002804     ....`).......(..
    1380:	00022960 00000017 00000082 00022977     `)..........w)..
    1390:	00000000 00000008 00010f0c 00000000     ................
    13a0:	00002804 00022978 00000000 00002804     .(..x).......(..
    13b0:	00022978 00000008 00000082 00020ca0     x)..............
    13c0:	0000000c 00000001 00022980 00000000     .........)......
    13d0:	00002804 00022980 0000000a 00000082     .(...)..........
    13e0:	0002298a 00000000 00002808 0002298c     .).......(...)..
    13f0:	0000001a 00000082 000229a6 00000000     .........)......
    1400:	00002808 000229a8 0000000a 00000082     .(...)..........
    1410:	000229b2 00000000 00002808 000229b4     .).......(...)..
    1420:	0000000a 00000082 000229be 00000000     .........)......
    1430:	00002808 000229c0 0000000a 00000082     .(...)..........
    1440:	000229ca 00000000 00002808 000229cc     .).......(...)..
    1450:	0000000a 00000082 000229d6 00000000     .........)......
    1460:	00002808 000229d8 00000019 00000082     .(...)..........
    1470:	000229f1 00000000 00002808 000229f4     .).......(...)..
    1480:	0000002a 00000082 00022a1e 00000000     *........*......
    1490:	00002808 00022a20 0000002e 00000082     .(.. *..........
    14a0:	00022a4e 00000000 00002808 00022a50     N*.......(..P*..
    14b0:	0000002e 00000082 00022a7e 00000000     ........~*......
    14c0:	00002808 00022a80 00000013 00000082     .(...*..........
    14d0:	00022a93 00000000 00002808 00022a94     .*.......(...*..
    14e0:	00000013 00000082 00022aa7 00000000     .........*......
    14f0:	00002808 00022aa8 00000016 00000082     .(...*..........
    1500:	00022abe 00000000 00002808 00022ac0     .*.......(...*..
    1510:	00000005 00000082 00022ac5 00000000     .........*......
    1520:	00002808 00022ac8 00000007 00000082     .(...*..........
    1530:	00022acf 00000000 00002808 00022ad0     .*.......(...*..
    1540:	00000032 00000082 00022b02 00000003     2........+......
    1550:	00000092 00022b05 00000000 00000008     .....+..........
    1560:	00010b88 00000008 00002804 00020000     .........(......
    1570:	00000003 00000082 00020003 00000000     ................
    1580:	00002808 00020004 0000002c 00002801     .(......,....(..
    1590:	00020034 00000014 00002804 00020048     4........(..H...
    15a0:	00000008 000000a2 00020050 00000031     ........P...1...
    15b0:	000000a2 00020081 00000000 00004808     .............H..
    15c0:	00020090 00000013 000000a2 000200a3     ................
    15d0:	00000000 00004808 000200b0 0000000c     .....H..........
    15e0:	000000a2 000200bc 00000015 000000a2     ................
    15f0:	000200d1 00000000 00000008 000200d1     ................
    1600:	0000000b 000000a2 000200dc 00000000     ................
    1610:	00000008 000200de 00000012 000000a2     ................
    1620:	000200f0 00000029 000000a2 00020119     ....)...........
    1630:	0000001c 000000a2 00020135 00000016     ........5.......
    1640:	000000a2 000209c0 00000008 00000082     ................
    1650:	00020b00 00000006 000000a2 00020b06     ................
    1660:	00000000 00000008 00020a40 00000003     ........@.......
    1670:	00000186 00020a43 00000000 0000010c     ....C...........
    1680:	00020a48 00000006 000000a2 00020a4e     H...........N...
    1690:	00000000 00000008 00020cac 00000008     ................
    16a0:	00000001 00022b08 00000000 00002804     .....+.......(..
    16b0:	00022b08 00000034 00000082 00022b3c     .+..4.......<+..
    16c0:	00000002 000000a2 00022b3e 00000000     ........>+......
    16d0:	00000008 00022b40 00000000 00002804     ....@+.......(..
    16e0:	00022b40 00000034 00000082 00022b74     @+..4.......t+..
    16f0:	00000002 000000a2 00022b76 00000000     ........v+......
    1700:	00000008 00020cb4 0000000c 00000001     ................
    1710:	00022b78 00000000 00002804 00022b78     x+.......(..x+..
    1720:	0000002f 00000082 00022ba7 00000001     /........+......
    1730:	00000008 00022ba8 00000004 000000a2     .....+..........
    1740:	00022bac 0000000e 000000a2 00022bba     .+...........+..
    1750:	00000002 000000a2 00022bbc 00000000     .........+......
    1760:	00000008 00023a84 00000000 00002804     .....:.......(..
    1770:	00023a84 00000008 00000082 00023a8c     .:...........:..
    1780:	00000000 00000008 0001092c 00000004     ........,.......
    1790:	00003804 00020cc0 0000000c 00000001     .8..............
    17a0:	00022bbc 00000015 00000082 00022bd1     .+...........+..
    17b0:	00000000 00000008 00022bd1 00000004     .........+......
    17c0:	000000a2 00022bd5 0000001f 000000a2     .....+..........
    17d0:	00022bf4 00000006 000000a2 00022bfa     .+...........+..
    17e0:	00000003 00000008 00022bfd 00000003     .........+......
    17f0:	000000a2 00022c00 00000006 000000a2     .....,..........
    1800:	00022c06 00000000 00000008 00020300     .,..............
    1810:	00000004 00000001 00020330 00000003     ........0.......
    1820:	00000082 00020333 00000000 00002808     ....3........(..
    1830:	00020334 00000012 000000a2 00020346     4...........F...
    1840:	00000003 00000008 00020349 00000003     ........I.......
    1850:	000000a2 0002034c 00000006 000000a2     ....L...........
    1860:	00020352 00000000 00000008 00020a00     R...............
    1870:	00000003 00000082 00020a03 00000000     ................
    1880:	00000008 00020a78 00000004 00000001     ....x...........
    1890:	00020a80 00000017 00000082 00020a97     ................
    18a0:	00000000 00000008 00020ccc 00000014     ................
    18b0:	00000001 00022c08 0000001e 00000082     .....,..........
    18c0:	00022c26 00000003 00000186 00022c29     &,..........),..
    18d0:	00000016 00000082 00022c3f 00000003     ........?,......
    18e0:	00000186 00022c42 00000006 00000082     ....B,..........
    18f0:	00022c48 00000018 000000a2 00022c60     H,..........`,..
    1900:	00000050 000000a2 00022cb0 00000003     P........,......
    1910:	00000186 00022cb3 0000000d 00000082     .....,..........
    1920:	00022cc0 00000017 000000a2 00022cd7     .,...........,..
    1930:	00000001 00000008 00022cd8 00000015     .........,......
    1940:	000000a2 00022ced 00000003 00000186     .....,..........
    1950:	00022cf0 00000018 00000082 00022d08     .,...........-..
    1960:	00000000 00000008 00020800 0000000f     ................
    1970:	00000186 0002080f 00000000 0000290c     .............)..
    1980:	00020810 0000001e 00000186 0002082e     ................
    1990:	00000000 0000010c 00020840 0000000f     ........@.......
    19a0:	000001a6 0002084f 00000000 0000290c     ....O........)..
    19b0:	00020850 0000001e 000001a6 0002086e     P...........n...
    19c0:	00000000 0000010c 00020880 0000001e     ................
    19d0:	00000186 0002089e 00000000 0000010c     ................
    19e0:	000208c0 0000001e 000001a6 000208de     ................
    19f0:	00000000 0000010c 00020900 0000002a     ............*...
    1a00:	00000186 0002092a 00000000 0000010c     ....*...........
    1a10:	00020940 0000002a 000000a2 0002096a     @...*.......j...
    1a20:	00000000 00000008 00020980 00000006     ................
    1a30:	00000082 00020986 00000000 00000008     ................
    1a40:	00020ce0 00000008 00000001 00022d08     .............-..
    1a50:	00000024 00000082 00022d2c 00000003     $.......,-......
    1a60:	00000186 00022d2f 00000015 00000082     ..../-..........
    1a70:	00022d44 00000003 00000186 00022d47     D-..........G-..
    1a80:	00000012 00000082 00022d59 00000036     ........Y-..6...
    1a90:	000000a2 00022d8f 00000003 00000186     .....-..........
    1aa0:	00022d92 00000012 00000082 00022da4     .-...........-..
    1ab0:	00000014 000000a2 00022db8 00000000     .........-......
    1ac0:	00000008 00022db8 00000009 00000082     .....-..........
    1ad0:	00022dc1 00000000 00000008 00023a8c     .-...........:..
    1ae0:	0000000d 00000082 00023a99 00000000     .........:......
    1af0:	00000008 00020ce8 00000004 00000001     ................
    1b00:	00022dc4 00000018 00000082 00022ddc     .-...........-..
    1b10:	00000027 000000a2 00022e03 00000006     '...............
    1b20:	00000186 00022e09 00000007 00000082     ................
    1b30:	00022e10 00000000 00000008 00022e10     ................
    1b40:	00000014 00000082 00022e24 00000000     ........$.......
    1b50:	00002808 00022e24 00000007 00000082     .(..$...........
    1b60:	00022e2b 00000000 00000008 00022e2b     +...........+...
    1b70:	00000008 000000a2 00022e33 00000000     ........3.......
    1b80:	00000008 00023a9c 00000018 00000082     .....:..........
    1b90:	00023ab4 00000000 00000008 00022e34     .:..........4...
    1ba0:	00000000 00002804 00022e34 00000016     .....(..4.......
    1bb0:	00000082 00022e4a 00000000 00000008     ....J...........
    1bc0:	00022e4c 0000000a 000000a2 00022e56     L...........V...
    1bd0:	0000000c 000000a2 00022e62 00000000     ........b.......
    1be0:	00000008 00020cec 0000000c 00000001     ................
    1bf0:	00023ab4 00000000 00002804 00023ab4     .:.......(...:..
    1c00:	00000042 00000082 00023af6 00000002     B........:......
    1c10:	00000008 00023af8 00000005 000000a2     .....:..........
    1c20:	00023afd 00000000 00000008 00022e68     .:..........h...
    1c30:	00000000 00002804 00022e68 00000037     .....(..h...7...
    1c40:	00000082 00022e9f 00000000 00000008     ................
    1c50:	00022ea0 00000004 000000a2 00022ea4     ................
    1c60:	00000000 00000008 00022ea6 0000000f     ................
    1c70:	000000a2 00022eb5 0000001c 000000a2     ................
    1c80:	00022ed1 00000003 00000008 00022ed6     ................
    1c90:	0000000e 000000a2 00022ee4 00000009     ................
    1ca0:	000000a2 00022eed 0000002f 000000a2     ......../.......
    1cb0:	00022f1c 00000000 00000008 00022f1c     ./.........../..
    1cc0:	0000000d 000000a2 00022f29 00000000     ........)/......
    1cd0:	00000008 00022f29 0000000b 000000a2     ....)/..........
    1ce0:	00022f34 00000000 00000008 00022f36     4/..........6/..
    1cf0:	00000002 000000a2 00022f38 0000001d     ........8/......
    1d00:	000000a2 00022f55 00000003 000000a2     ....U/..........
    1d10:	00022f58 00000002 000000a2 00022f5a     X/..........Z/..
    1d20:	00000000 00000008 00022f5a 00000027     ........Z/..'...
    1d30:	000000a2 00022f81 0000001c 000000b2     ...../..........
    1d40:	00022f9d 00000000 00000008 00022f9d     ./.........../..
    1d50:	00000006 000000a2 00022fa3 00000004     ........./......
    1d60:	000000a2 00022fa7 00000045 00000092     ...../..E.......
    1d70:	00022fec 00000019 000000a2 00023005     ./...........0..
    1d80:	00000009 000000a2 0002300e 00000000     .........0......
    1d90:	00003808 00023010 0000000c 000000a2     .8...0..........
    1da0:	0002301c 00000008 000000a2 00023024     .0..........$0..
    1db0:	0000001e 000000b2 00023042 00000020     ........B0.. ...
    1dc0:	000000a2 00023062 00000003 00000092     ....b0..........
    1dd0:	00023065 00000000 00000008 00023065     e0..........e0..
    1de0:	00000024 000000a2 00023089 0000000f     $........0......
    1df0:	000000a2 00023098 0000001c 000000a2     .....0..........
    1e00:	000230b4 00000003 00000092 000230b7     .0...........0..
    1e10:	00000000 00000008 000230b9 00000003     .........0......
    1e20:	000000a2 000230bc 00000049 000000a2     .....0..I.......
    1e30:	00023105 00000003 00000092 00023108     .1...........1..
    1e40:	00000000 00000008 00023109 00000017     .........1......
    1e50:	000000a2 00023120 00000008 000000a2     .... 1..........
    1e60:	00023128 0000001d 000000a2 00023145     (1..........E1..
    1e70:	0000001b 000000a2 00023160 00000002     ........`1......
    1e80:	00000092 00023162 00000006 000000a2     ....b1..........
    1e90:	00023168 00000025 000000a2 0002318d     h1..%........1..
    1ea0:	0000001b 000000a2 000231a8 00000000     .........1......
    1eb0:	00000008 000231a8 0000000c 000000a2     .....1..........
    1ec0:	000231b4 00000018 000000a2 000231cc     .1...........1..
    1ed0:	00000003 00000092 000231cf 00000000     .........1......
    1ee0:	00000008 000231d0 00000020 000000a2     .....1.. .......
    1ef0:	000231f0 00000011 000000b2 00023201     .1...........2..
    1f00:	00000003 00000008 00023206 0000001a     .........2......
    1f10:	000000a2 00023220 00000003 00000092     .... 2..........
    1f20:	00023223 00000000 00000008 00023224     #2..........$2..
    1f30:	00000011 000000a2 00023235 0000001b     ........52......
    1f40:	000000a2 00023250 00000000 00000008     ....P2..........
    1f50:	00023251 00000022 000000a2 00023273     Q2..".......s2..
    1f60:	00000003 00000092 00023276 00000000     ........v2......
    1f70:	00000008 00023276 00000002 000000a2     ....v2..........
    1f80:	00023278 00000034 000000a2 000232ac     x2..4........2..
    1f90:	00000019 000000a2 000232c5 00000021     .........2..!...
    1fa0:	000000a2 000232e6 00000008 000000a2     .....2..........
    1fb0:	000232ee 00000007 00000092 000232f5     .2...........2..
    1fc0:	00000000 00000008 000232f5 0000002a     .........2..*...
    1fd0:	000000a2 0002331f 00000000 00000008     .....3..........
    1fe0:	00023320 00000008 000000a2 00023328      3..........(3..
    1ff0:	0000009e 000000a2 000233c6 00000000     .........3......
    2000:	00000008 000233c6 0000000e 000000a2     .....3..........
    2010:	000233d4 00000055 000000a2 00023429     .3..U.......)4..
    2020:	00000003 000000a2 0002342c 0000001b     ........,4......
    2030:	000000a2 00023447 00000000 00003808     ....G4.......8..
    2040:	00023448 00000016 000000a2 0002345e     H4..........^4..
    2050:	00000003 00000092 00023461 00000000     ........a4......
    2060:	00000008 00023461 0000003a 000000a2     ....a4..:.......
    2070:	0002349b 00000000 00003808 000234a0     .4.......8...4..
    2080:	0000001f 000000a2 000234bf 00000003     .........4......
    2090:	00000092 000234c2 00000000 00000008     .....4..........
    20a0:	000234c5 00000003 000000a2 000234c8     .4...........4..
    20b0:	00000008 000000a2 000234d0 0000002f     .........4../...
    20c0:	000000a2 000234ff 00000003 00000092     .....4..........
    20d0:	00023502 00000000 00000008 00023502     .5...........5..
    20e0:	0000001e 000000a2 00023520 00000000     ........ 5......
    20f0:	00000008 00023521 00000003 000000a2     ....!5..........
    2100:	00023524 00000009 000000a2 0002352d     $5..........-5..
    2110:	00000013 000000a2 00023540 00000000     ........@5......
    2120:	00000008 00023540 00000000 00002804     ....@5.......(..
    2130:	00023540 00000023 00000082 00023563     @5..#.......c5..
    2140:	00000022 00000092 00023585 00000000     "........5......
    2150:	00000008 00023585 00000006 000000a2     .....5..........
    2160:	0002358b 00000004 000000a2 0002358f     .5...........5..
    2170:	00000022 00000092 000235b1 00000009     "........5......
    2180:	00000092 000235ba 00000002 00000008     .....5..........
    2190:	000235bc 0000000f 000000a2 000235cb     .5...........5..
    21a0:	00000001 00000008 000235cc 00000004     .........5......
    21b0:	000000a2 000235d0 00000000 00000008     .....5..........
    21c0:	000235d0 00000019 000000a2 000235e9     .5...........5..
    21d0:	00000023 000000a2 0002360c 00000000     #........6......
    21e0:	00003808 00023610 0000000e 000000a2     .8...6..........
    21f0:	0002361e 0000000e 000000b2 0002362c     .6..........,6..
    2200:	00000011 000000a2 0002363d 00000000     ........=6......
    2210:	00000008 0002363d 00000007 000000a2     ....=6..........
    2220:	00023644 00000000 00000008 00023644     D6..........D6..
    2230:	00000004 000000a2 00023648 0000000c     ........H6......
    2240:	000000a2 00023654 00000000 00000008     ....T6..........
    2250:	00023654 00000014 000000a2 00023668     T6..........h6..
    2260:	00000000 00003808 00023668 0000000e     .....8..h6......
    2270:	000000a2 00023676 00000007 000000b2     ....v6..........
    2280:	0002367d 0000000e 000000a2 0002368b     }6...........6..
    2290:	00000001 00000008 0002368c 0000001c     .........6......
    22a0:	000000a2 000236a8 00000000 00000008     .....6..........
    22b0:	000236a8 00000002 000000a2 000236aa     .6...........6..
    22c0:	0000000a 000000a2 000236b4 0000002d     .........6..-...
    22d0:	000000a2 000236e1 00000000 00003808     .....6.......8..
    22e0:	000236e8 00000010 000000a2 000236f8     .6...........6..
    22f0:	00000005 000000b2 000236fd 00000000     .........6......
    2300:	00000008 000236fd 00000089 000000a2     .....6..........
    2310:	00023786 00000003 00000092 00023789     .7...........7..
    2320:	00000000 00000008 00023789 00000003     .........7......
    2330:	000000a2 0002378c 00000015 000000a2     .....7..........
    2340:	000237a1 00000000 00000008 000237a1     .7...........7..
    2350:	00000005 000000a2 000237a6 00000015     .........7......
    2360:	000000a2 000237bb 00000000 00003808     .....7.......8..
    2370:	000237c0 0000000c 000000a2 000237cc     .7...........7..
    2380:	0000001a 000000a2 000237e6 00000003     .........7......
    2390:	00000092 000237e9 00000000 00000008     .....7..........
    23a0:	000237e9 00000005 000000a2 000237ee     .7...........7..
    23b0:	00000017 000000a2 00023805 00000003     .........8......
    23c0:	000000a2 00023808 0000000a 000000a2     .....8..........
    23d0:	00023812 00000014 000000a2 00023826     .8..........&8..
    23e0:	00000000 00003808 00023828 00000011     .....8..(8......
    23f0:	000000a2 00023839 00000000 00000008     ....98..........
    2400:	00020cf8 00000004 00000001 00020cfc     ................
    2410:	00000004 00000001 00020d00 00000004     ................
    2420:	00000001 00020d04 00000004 00000001     ................
    2430:	00020d08 00000004 00000001 00020d0c     ................
    2440:	00000004 00000001 0002383c 00000000     ........<8......
    2450:	00002804 0002383c 00000010 00000082     .(..<8..........
    2460:	0002384c 00000000 00000008 0002384c     L8..........L8..
    2470:	00000004 000000a2 00023850 00000000     ........P8......
    2480:	00000008 00023850 00000000 00002804     ....P8.......(..
    2490:	00023850 00000010 00000082 00023860     P8..........`8..
    24a0:	00000000 00000008 00023860 00000004     ........`8......
    24b0:	000000a2 00023864 00000000 00000008     ....d8..........
    24c0:	00023864 00000000 00002804 00023864     d8.......(..d8..
    24d0:	00000010 00000082 00023874 00000000     ........t8......
    24e0:	00000008 00023874 00000004 000000a2     ....t8..........
    24f0:	00023878 00000000 00000008 00023878     x8..........x8..
    2500:	00000000 00002804 00023878 00000010     .....(..x8......
    2510:	00000082 00023888 00000000 00000008     .....8..........
    2520:	00023888 00000004 000000a2 0002388c     .8...........8..
    2530:	00000000 00000008 0002388c 00000000     .........8......
    2540:	00002804 0002388c 00000010 00000082     .(...8..........
    2550:	0002389c 00000000 00000008 0002389c     .8...........8..
    2560:	00000004 000000a2 000238a0 00000000     .........8......
    2570:	00000008 000238a0 00000000 00002804     .....8.......(..
    2580:	000238a0 00000010 00000082 000238b0     .8...........8..
    2590:	00000000 00000008 000238b0 00000004     .........8......
    25a0:	000000a2 000238b4 00000000 00000008     .....8..........
    25b0:	00023b00 00000000 00002804 00023b00     .;.......(...;..
    25c0:	0000002e 00000082 00023b2e 00000000     .........;......
    25d0:	00000008 00023b30 00000000 00002804     ....0;.......(..
    25e0:	00023b30 00000054 00000082 00023b84     0;..T........;..
    25f0:	00000002 000000a2 00023b86 00000002     .........;......
    2600:	00000008 00023b88 00000005 000000a2     .....;..........
    2610:	00023b8d 00000000 00000008 00023b90     .;...........;..
    2620:	00000000 00002804 00023b90 00000010     .....(...;......
    2630:	00000082 00023ba0 00000000 00000008     .....;..........
    2640:	000238b4 00000000 00002804 000238b4     .8.......(...8..
    2650:	00000011 00000082 000238c5 00000016     .........8......
    2660:	000000a2 000238db 00000001 00000008     .....8..........
    2670:	000238dc 00000006 000000a2 000238e2     .8...........8..
    2680:	00000010 000000a2 000238f2 00000000     .........8......
    2690:	00000008 000238f2 00000004 000000a2     .....8..........
    26a0:	000238f6 00000000 00000008 00010290     .8..............
    26b0:	00000140 00002804 000238f8 00000000     @....(...8......
    26c0:	00002804 000238f8 00000010 00000082     .(...8..........
    26d0:	00023908 0000002a 000000a2 00023932     .9..*.......29..
    26e0:	0000002a 000000a2 0002395c 0000002e     *.......\9......
    26f0:	000000a2 0002398a 00000000 00000008     .....9..........
    2700:	00023ba0 00000000 00002804 00023ba0     .;.......(...;..
    2710:	00000050 00000082 00023bf0 00000018     P........;......
    2720:	000000a2 00023c08 00000011 000000a2     .....<..........
    2730:	00023c19 00000000 00000008 00023c19     .<...........<..
    2740:	00000005 000000a2 00023c1e 00000002     .........<......
    2750:	00000008 00023c20 00000025 000000a2     .... <..%.......
    2760:	00023c45 00000027 000000a2 00023c6c     E<..'.......l<..
    2770:	00000000 00000008 00023c6c 0000001d     ........l<......
    2780:	000000a2 00023c89 00000000 00000008     .....<..........
    2790:	00023c89 00000017 000000a2 00023ca0     .<...........<..
    27a0:	00000016 000000a2 00023cb6 00000002     .........<......
    27b0:	000000a2 00023cb8 00000000 00000008     .....<..........
    27c0:	00023cb8 0000000b 000000a2 00023cc3     .<...........<..
    27d0:	00000000 00000008 0002398c 00000000     .........9......
    27e0:	00002804 0002398c 0000003e 00000082     .(...9..>.......
    27f0:	000239ca 0000000d 000000a2 000239d7     .9...........9..
    2800:	00000023 00000092 000239fa 0000003c     #........9..<...
    2810:	000000a2 00023a36 00000002 000000a2     ....6:..........
    2820:	00023a38 00000002 000000b2 00023a3a     8:..........::..
    2830:	00000000 00000008 00023a3a 00000004     ........::......
    2840:	00000082 00023a3e 00000000 00000008     ....>:..........
    2850:	00023a3e 00000004 000000a2 00023a42     >:..........B:..
    2860:	00000000 00000008 00023a42 00000004     ........B:......
    2870:	000000a2 00023a46 00000000 00000008     ....F:..........
    2880:	00023a46 00000004 000000a2 00023a4a     F:..........J:..
    2890:	00000000 00000008 00023a4c 00000000     ........L:......
    28a0:	00002804 00023a4c 00000011 00000082     .(..L:..........
    28b0:	00023a5d 00000000 00000008 00023a5d     ]:..........]:..
    28c0:	00000004 00000082 00023a61 00000000     ........a:......
    28d0:	00000008 00023cc4 00000000 00002804     .....<.......(..
    28e0:	00023cc4 00000008 00000002 00023ccc     .<...........<..
    28f0:	00000014 00000022 00023ce0 00000000     ...."....<......
    2900:	00000008 00023ce0 00000000 00002804     .....<.......(..
    2910:	00023ce0 00000003 00000082 00023ce3     .<...........<..
    2920:	00000006 00000186 00023ce9 00000014     .........<......
    2930:	00000082 00023cfd 00000005 00000092     .....<..........
    2940:	00023d02 00000000 00000008 00020b44     .=..........D...
    2950:	00000004 00000001 00020d10 00000004     ................
    2960:	00000001 00023a64 00000000 00002804     ....d:.......(..
    2970:	00023a64 00000011 00000082 00023a75     d:..........u:..
    2980:	0000000b 000000a2 00023a80 00000002     .........:......
    2990:	000000a2 00023a82 00000000 00000008     .....:..........
    29a0:	00020d23 00000008 00000082 00020d2b     #...........+...
    29b0:	00000002 00000082 00020d2d 00000000     ........-.......
    29c0:	00000008 00023d0f 00000002 00000082     .....=..........
    29d0:	00023d11 00000000 00000008              .=..........

Disassembly of section .xt.lit:

00000000 <.xt.lit>:
   0:	00020b48 0000002c 00020d14 00000004     H...,...........
  10:	00020b40 00000004 00020b74 00000014     @.......t.......
  20:	00020b88 00000014 00020b9c 00000010     ................
  30:	00020bac 0000001c 00020bc8 00000004     ................
  40:	00020bcc 00000008 00020bd4 00000008     ................
  50:	00020bdc 00000004 00020be0 00000004     ................
  60:	00020be4 00000004 00020be8 00000004     ................
  70:	00020bec 00000004 00020bf0 00000008     ................
  80:	00020bf8 00000004 00020bfc 00000008     ................
  90:	00020c04 00000004 00020c08 00000004     ................
  a0:	00020c0c 00000004 00020c10 00000004     ................
  b0:	00020c14 00000004 00020c18 00000010     ................
  c0:	00020c28 00000010 00020c38 0000001c     (.......8.......
  d0:	00020c54 00000018 00020c6c 00000008     T.......l.......
  e0:	00020c74 0000000c 00020c80 00000008     t...............
  f0:	00020c88 0000000c 00020c94 0000000c     ................
 100:	00020ca0 0000000c 00020004 0000002c     ............,...
 110:	00020cac 00000008 00020cb4 0000000c     ................
 120:	00020cc0 0000000c 00020300 00000004     ................
 130:	00020a78 00000004 00020ccc 00000014     x...............
 140:	00020ce0 00000008 00020ce8 00000004     ................
 150:	00020cec 0000000c 00020cf8 00000004     ................
 160:	00020cfc 00000004 00020d00 00000004     ................
 170:	00020d04 00000004 00020d08 00000004     ................
 180:	00020d0c 00000004 00020b44 00000004     ........D.......
 190:	00020d10 00000004                       ........

Disassembly of section .xtensa.info:

00000000 <.xtensa.info>:
   0:	0000000c 000001d0 00000001 6e657458     ............Xten
  10:	495f6173 006f666e 435f5748 49464e4f     sa_Info.HW_CONFI
  20:	30444947 6378303d 39303030 0a363832     GID0=0xc0009286.
  30:	435f5748 49464e4f 31444947 3278303d     HW_CONFIGID1=0x2
  40:	30613461 0a333936 4c495542 4e555f44     a4a0693.BUILD_UN
  50:	45555149 3d44495f 30307830 36306130     IQUE_ID=0x000a06
  60:	410a3339 303d4942 4553550a 5342415f     93.ABI=0.USE_ABS
  70:	54554c4f 494c5f45 41524554 303d534c     OLUTE_LITERALS=0
  80:	5f57530a 414f4c46 474e4954 494f505f     .SW_FLOATING_POI
  90:	415f544e 313d4942 5f57480a 53524556     NT_ABI=1.HW_VERS
  a0:	3d4e4f49 37584c22 392e312e 57480a22     ION="LX7.1.9".HW
  b0:	4e494d5f 5245565f 4e4f4953 4a414d5f     _MIN_VERSION_MAJ
  c0:	323d524f 0a303138 4d5f5748 565f4e49     OR=2810.HW_MIN_V
  d0:	49535245 4d5f4e4f 524f4e49 0a30393d     ERSION_MINOR=90.
  e0:	4d5f5748 565f5841 49535245 4d5f4e4f     HW_MAX_VERSION_M
  f0:	524f4a41 3138323d 57480a30 58414d5f     AJOR=2810.HW_MAX
 100:	5245565f 4e4f4953 4e494d5f 393d524f     _VERSION_MINOR=9
 110:	45520a30 5341454c 414e5f45 223d454d     0.RELEASE_NAME="
 120:	322d4952 2e323230 520a2239 41454c45     RI-2022.9".RELEA
 130:	565f4553 49535245 223d4e4f 302e3431     SE_VERSION="14.0
 140:	520a2239 41454c45 4d5f4553 524f4a41     9".RELEASE_MAJOR
 150:	3078303d 33303030 0a613037 454c4552     =0x0000370a.RELE
 160:	5f455341 4f4e494d 0a303d52 45524f43     ASE_MINOR=0.CORE
 170:	4d414e5f 68223d45 615f6377 6c5f6364     _NAME="hwc_adc_l
 180:	0a223778 45435845 4f495450 52415f4e     x7".EXCEPTION_AR
 190:	323d4843 4549540a 4548435f 55534b43     CH=2.TIE_CHECKSU
 1a0:	3d305f4d 49540a30 48435f45 534b4345     M_0=0.TIE_CHECKS
 1b0:	315f4d55 540a303d 435f4549 4b434548     UM_1=0.TIE_CHECK
 1c0:	5f4d5553 0a303d32 5f454954 43454843     SUM_2=0.TIE_CHEC
 1d0:	4d55534b 303d335f 4b44540a 5441505f     KSUM_3=0.TDK_PAT
 1e0:	22223d48 0000000a                       H=""....

Disassembly of section .comment:

00000000 <.comment>:
   0:	6e657458 6f546173 2d736c6f 302e3431     XtensaTools-14.0
  10:	6c632039 20676e61 73726576 206e6f69     9 clang version 
  20:	302e3031 0020312e                       10.0.1 .
