
/nfs/site/disks/zsc14.xne_abc_fe_001/users/chandrbi/emulval_0p8_17Jun/abc_emul-srvrgen4/src/rcs_fw/out/bin/ax_hw.elf:     file format elf32-xtensa-le


Disassembly of section .srom.text:

00000000 <__BootRom>:
   0:	100c                                    	movi.n	a0, 1
   2:	010040                                    	slli	a0, a0, 28
   5:	0000a0                                    	jx	a0

Disassembly of section .ResetVector.text:

10000000 <_ResetVector>:
10000000:	001506                                    	j	10000058 <_ResetHandler>

10000003 <_ResetVector+0x3>:
	...

10000004 <_ResetVector+0x4>:
10000004:	100057e4 10000800 00000000 00000000     .W..............
10000014:	00000000 44444444 10000044 20000000     ....DDDDD...... 
10000024:	00000001 00000000 00000000 1000592c     ............,Y..
10000034:	100059ec 10005a6c 100245dc              .Y..lZ...E..

10000040 <_ResetVector+0x40>:
10000040:	00000000                                ....

10000044 <_xtos_mpu_attribs>:
10000044:	00006018 000f7718 000d5718 000c4718     .`...w...W...G..
10000054:	00006718                                .g..

10000058 <_ResetHandler>:
10000058:	ffeb21                                    	l32r	a2, 10000004 (100057e4 <__reset_hook>)
1000005b:	128c                                    	beqz.n	a2, 10000060 <_ResetHandler+0x8>
1000005d:	0002c0                                    	callx0	a2
10000060:	000c                                    	movi.n	a0, 0
10000062:	13e400                                    	wsr.intenable	a0
10000065:	ffe821                                    	l32r	a2, 10000008 (10000800 <_WindowOverflow4>)
10000068:	13e720                                    	wsr.vecbase	a2
1000006b:	006120                                    	rsil	a2, 1
1000006e:	ffe721                                    	l32r	a2, 1000000c (0 <_Level2HandlerLabel>)
10000071:	ffe731                                    	l32r	a3, 10000010 (0 <_Level2HandlerLabel>)
10000074:	ffe841                                    	l32r	a4, 10000014 (0 <_Level2HandlerLabel>)
10000077:	089216                                    	beqz	a2, 10000104 <_ResetHandler+0xac>
1000007a:	086316                                    	beqz	a3, 10000104 <_ResetHandler+0xac>
1000007d:	0338                                    	l32i.n	a3, a3, 0
1000007f:	081316                                    	beqz	a3, 10000104 <_ResetHandler+0xac>
10000082:	090c                                    	movi.n	a9, 0
10000084:	136290                                    	wsr.cacheadrdis	a9
10000087:	000146                                    	j	10000090 <_ResetHandler+0x38>

1000008a <_ResetHandler+0x32>:
1000008a:	00000000                                 ......

10000090 <_ResetHandler+0x38>:
10000090:	135a90                                    	wsr.mpuenb	a9
10000093:	002000                                    	isync
10000096:	00a0a2                                    	movi	a10, 0
10000099:	20a0b2                                    	movi	a11, 32
1000009c:	0caa37                                    	bge	a10, a3, 100000ac <_ResetHandler+0x54>
1000009f:	b0fa20                                    	addx8	a15, a10, a2
100000a2:	0fd8                                    	l32i.n	a13, a15, 0
100000a4:	1fc8                                    	l32i.n	a12, a15, 4
100000a6:	44e0c0                                    	extui	a14, a12, 0, 5
100000a9:	30cce0                                    	xor	a12, a12, a14
100000ac:	14e0d0                                    	extui	a14, a13, 0, 2
100000af:	30fde0                                    	xor	a15, a13, a14
100000b2:	20eca0                                    	or	a14, a12, a10
100000b5:	50efe0                                    	wptlb	a14, a15
100000b8:	01fd10                                    	slli	a15, a13, 31
100000bb:	419190                                    	srli	a9, a9, 1
100000be:	2099f0                                    	or	a9, a9, a15
100000c1:	aa1b                                    	addi.n	a10, a10, 1
100000c3:	d59ab7                                    	bne	a10, a11, 1000009c <_ResetHandler+0x44>
100000c6:	000186                                    	j	100000d0 <_ResetHandler+0x78>

100000c9 <_ResetHandler+0x71>:
100000c9:	00000000                                 .......

100000d0 <_ResetHandler+0x78>:
100000d0:	135a90                                    	wsr.mpuenb	a9
100000d3:	002000                                    	isync
100000d6:	20a330                                    	or	a10, a3, a3
100000d9:	b0b320                                    	addx8	a11, a3, a2
100000dc:	aa0b                                    	addi.n	a10, a10, -1
100000de:	f8cbb2                                    	addi	a11, a11, -8
100000e1:	1bc8                                    	l32i.n	a12, a11, 4
100000e3:	0bd8                                    	l32i.n	a13, a11, 0
100000e5:	44e0c0                                    	extui	a14, a12, 0, 5
100000e8:	30cce0                                    	xor	a12, a12, a14
100000eb:	20eca0                                    	or	a14, a12, a10
100000ee:	50ede0                                    	wptlb	a14, a13
100000f1:	fe7a56                                    	bnez	a10, 100000dc <_ResetHandler+0x84>
100000f4:	050416                                    	beqz	a4, 10000148 <_ResetHandler+0xf0>
100000f7:	0448                                    	l32i.n	a4, a4, 0
100000f9:	136240                                    	wsr.cacheadrdis	a4
100000fc:	002030                                    	dsync
100000ff:	001146                                    	j	10000148 <_ResetHandler+0xf0>

10000102 <_ResetHandler+0xaa>:
	...

10000104 <_ResetHandler+0xac>:
10000104:	ffc521                                    	l32r	a2, 10000018 (44444444 <_memmap_cacheattr_bp_allvalid>)
10000107:	ffc531                                    	l32r	a3, 1000001c (10000044 <_xtos_mpu_attribs>)
1000010a:	ffc541                                    	l32r	a4, 10000020 (20000000 <__stack+0xffc0000>)
1000010d:	860c                                    	movi.n	a6, 8
1000010f:	170c                                    	movi.n	a7, 1
10000111:	090c                                    	movi.n	a9, 0
10000113:	136290                                    	wsr.cacheadrdis	a9
10000116:	002030                                    	dsync
10000119:	358c20                                    	extui	a8, a2, 28, 4
1000011c:	145080                                    	extui	a5, a8, 0, 2
1000011f:	1199f0                                    	slli	a9, a9, 1
10000122:	a91b                                    	addi.n	a10, a9, 1
10000124:	839a50                                    	moveqz	a9, a10, a5
10000127:	a05830                                    	addx4	a5, a8, a3
1000012a:	fbc882                                    	addi	a8, a8, -5
1000012d:	b35380                                    	movgez	a5, a3, a8
10000130:	0558                                    	l32i.n	a5, a5, 0
10000132:	1122c0                                    	slli	a2, a2, 4
10000135:	c07740                                    	sub	a7, a7, a4
10000138:	660b                                    	addi.n	a6, a6, -1
1000013a:	556a                                    	add.n	a5, a5, a6
1000013c:	50e750                                    	wptlb	a5, a7
1000013f:	fd6656                                    	bnez	a6, 10000119 <_ResetHandler+0xc1>
10000142:	136290                                    	wsr.cacheadrdis	a9
10000145:	002030                                    	dsync
10000148:	036120                                    	rsr.memctl	a2
1000014b:	ffb631                                    	l32r	a3, 10000024 (1 <_memmap_cacheattr_wb_base>)
1000014e:	202230                                    	or	a2, a2, a3
10000151:	136120                                    	wsr.memctl	a2
10000154:	ffb521                                    	l32r	a2, 10000028 (0 <_Level2HandlerLabel>)
10000157:	528c                                    	beqz.n	a2, 10000160 <_ResetHandler+0x108>
10000159:	0002c0                                    	callx0	a2
1000015c:	000c                                    	movi.n	a0, 0
1000015e:	52ec                                    	bnez.n	a2, 10000187 <unpackdone>
10000160:	ffb321                                    	l32r	a2, 1000002c (0 <_Level2HandlerLabel>)
10000163:	02ac                                    	beqz.n	a2, 10000187 <unpackdone>

10000165 <unpack>:
10000165:	0238                                    	l32i.n	a3, a2, 0
10000167:	1248                                    	l32i.n	a4, a2, 4
10000169:	2258                                    	l32i.n	a5, a2, 8
1000016b:	22cb                                    	addi.n	a2, a2, 12
1000016d:	10b347                                    	bgeu	a3, a4, 10000181 <upnext>

10000170 <uploop>:
10000170:	0568                                    	l32i.n	a6, a5, 0
10000172:	554b                                    	addi.n	a5, a5, 4
10000174:	0369                                    	s32i.n	a6, a3, 0
10000176:	334b                                    	addi.n	a3, a3, 4
10000178:	f43347                                    	bltu	a3, a4, 10000170 <uploop>
1000017b:	fff986                                    	j	10000165 <unpack>

1000017e <uploop+0xe>:
1000017e:	000000                                        ...

10000181 <upnext>:
10000181:	fe0356                                    	bnez	a3, 10000165 <unpack>
10000184:	fdd556                                    	bnez	a5, 10000165 <unpack>

10000187 <unpackdone>:
10000187:	002000                                    	isync
1000018a:	01a012                                    	movi	a1, 1
1000018d:	134910                                    	wsr.windowstart	a1
10000190:	134800                                    	wsr.windowbase	a0
10000193:	002010                                    	rsync
10000196:	00a002                                    	movi	a0, 0
10000199:	ffa541                                    	l32r	a4, 10000030 (1000592c <_Level2FromVector>)
1000019c:	13d240                                    	wsr.excsave2	a4
1000019f:	ffa541                                    	l32r	a4, 10000034 (100059ec <_Level3FromVector>)
100001a2:	13d340                                    	wsr.excsave3	a4
100001a5:	ffa441                                    	l32r	a4, 10000038 (10005a6c <_Level4FromVector>)
100001a8:	13d440                                    	wsr.excsave4	a4
100001ab:	ffa451                                    	l32r	a5, 1000003c (100245dc <_Pri_4_HandlerAddress>)
100001ae:	006542                                    	s32i	a4, a5, 0
100001b1:	00f485                                    	call0	100010fc <_start>

Disassembly of section .MemoryExceptionVector.text:

10000330 <_MemErrorVector>:
10000330:	000106                                    	j	10000338 <_MemErrorVector+0x8>

10000333 <_MemErrorVector+0x3>:
	...

10000334 <_MemErrorVector+0x4>:
10000334:	00000000                                ....

10000338 <_MemErrorVector+0x8>:
10000338:	136c00                                    	wsr.mesave	a0
1000033b:	036d00                                    	rsr.mesr	a0
1000033e:	0be017                                    	bbsi	a0, 1, 1000034d <_MemErrorVector+0x1d>
10000341:	03e700                                    	rsr.vecbase	a0
10000344:	b12002                                    	l32i	a0, a0, 0x2c4
10000347:	0000a0                                    	jx	a0

1000034a <_MemErrorVector+0x1a>:
1000034a:	000000                                        ...

1000034d <_MemErrorVector+0x1d>:
1000034d:	fff901                                    	l32r	a0, 10000334 (0 <_Level2HandlerLabel>)
10000350:	ffc016                                    	beqz	a0, 10000350 <_MemErrorVector+0x20>
10000353:	0000a0                                    	jx	a0

10000356 <_MemErrorVector+0x26>:
	...

Disassembly of section .WindowVectors.text:

10000800 <_WindowOverflow4>:
10000800:	49c500                                    	s32e	a0, a5, -16
10000803:	49d510                                    	s32e	a1, a5, -12
10000806:	49e520                                    	s32e	a2, a5, -8
10000809:	49f530                                    	s32e	a3, a5, -4
1000080c:	003400                                    	rfwo

1000080f <_WindowOverflow4+0xf>:
	...

10000810 <_xtos_alloca_handler>:
10000810:	4128                                    	l32i.n	a2, a1, 16
10000812:	5138                                    	l32i.n	a3, a1, 20
10000814:	6148                                    	l32i.n	a4, a1, 24
10000816:	60c112                                    	addi	a1, a1, 96
10000819:	13d100                                    	wsr.excsave1	a0
1000081c:	034800                                    	rsr.windowbase	a0
1000081f:	4080f0                                    	rotw	-1
10000822:	03e620                                    	rsr.ps	a2
10000825:	343820                                    	extui	a3, a2, 8, 4
10000828:	303340                                    	xor	a3, a3, a4
1000082b:	000846                                    	j	10000850 <_xtos_alloca_2>

1000082e <_xtos_alloca_handler+0x1e>:
	...

10000840 <_WindowUnderflow4>:
10000840:	09c500                                    	l32e	a0, a5, -16
10000843:	09d510                                    	l32e	a1, a5, -12
10000846:	09e520                                    	l32e	a2, a5, -8
10000849:	09f530                                    	l32e	a3, a5, -4
1000084c:	003500                                    	rfwu

1000084f <_WindowUnderflow4+0xf>:
	...

10000850 <_xtos_alloca_2>:
10000850:	03d140                                    	rsr.excsave1	a4
10000853:	113380                                    	slli	a3, a3, 8
10000856:	302230                                    	xor	a2, a2, a3
10000859:	13e620                                    	wsr.ps	a2
1000085c:	002010                                    	rsync
1000085f:	dd74f7                                    	bbci	a4, 31, 10000840 <_WindowUnderflow4>
10000862:	4080f0                                    	rotw	-1
10000865:	5778e7                                    	bbci	a8, 30, 100008c0 <_WindowUnderflow8>
10000868:	4080f0                                    	rotw	-1
1000086b:	003446                                    	j	10000940 <_WindowUnderflow12>

1000086e <_xtos_alloca_2+0x1e>:
	...

10000880 <_WindowOverflow8>:
10000880:	49c900                                    	s32e	a0, a9, -16
10000883:	09d100                                    	l32e	a0, a1, -12
10000886:	49d910                                    	s32e	a1, a9, -12
10000889:	49e920                                    	s32e	a2, a9, -8
1000088c:	49f930                                    	s32e	a3, a9, -4
1000088f:	498040                                    	s32e	a4, a0, -32
10000892:	499050                                    	s32e	a5, a0, -28
10000895:	49a060                                    	s32e	a6, a0, -24
10000898:	49b070                                    	s32e	a7, a0, -20
1000089b:	003400                                    	rfwo

1000089e <_WindowOverflow8+0x1e>:
	...

100008c0 <_WindowUnderflow8>:
100008c0:	09c900                                    	l32e	a0, a9, -16
100008c3:	09d910                                    	l32e	a1, a9, -12
100008c6:	09e920                                    	l32e	a2, a9, -8
100008c9:	09d170                                    	l32e	a7, a1, -12
100008cc:	09f930                                    	l32e	a3, a9, -4
100008cf:	098740                                    	l32e	a4, a7, -32
100008d2:	099750                                    	l32e	a5, a7, -28
100008d5:	09a760                                    	l32e	a6, a7, -24
100008d8:	09b770                                    	l32e	a7, a7, -20
100008db:	003500                                    	rfwu

100008de <_WindowUnderflow8+0x1e>:
	...

10000900 <_WindowOverflow12>:
10000900:	49cd00                                    	s32e	a0, a13, -16
10000903:	09d100                                    	l32e	a0, a1, -12
10000906:	49dd10                                    	s32e	a1, a13, -12
10000909:	49ed20                                    	s32e	a2, a13, -8
1000090c:	49fd30                                    	s32e	a3, a13, -4
1000090f:	494040                                    	s32e	a4, a0, -48
10000912:	495050                                    	s32e	a5, a0, -44
10000915:	496060                                    	s32e	a6, a0, -40
10000918:	497070                                    	s32e	a7, a0, -36
1000091b:	498080                                    	s32e	a8, a0, -32
1000091e:	499090                                    	s32e	a9, a0, -28
10000921:	49a0a0                                    	s32e	a10, a0, -24
10000924:	49b0b0                                    	s32e	a11, a0, -20
10000927:	003400                                    	rfwo

1000092a <_WindowOverflow12+0x2a>:
	...

10000940 <_WindowUnderflow12>:
10000940:	09cd00                                    	l32e	a0, a13, -16
10000943:	09dd10                                    	l32e	a1, a13, -12
10000946:	09ed20                                    	l32e	a2, a13, -8
10000949:	09d1b0                                    	l32e	a11, a1, -12
1000094c:	09fd30                                    	l32e	a3, a13, -4
1000094f:	094b40                                    	l32e	a4, a11, -48
10000952:	095b50                                    	l32e	a5, a11, -44
10000955:	096b60                                    	l32e	a6, a11, -40
10000958:	097b70                                    	l32e	a7, a11, -36
1000095b:	098b80                                    	l32e	a8, a11, -32
1000095e:	099b90                                    	l32e	a9, a11, -28
10000961:	09aba0                                    	l32e	a10, a11, -24
10000964:	09bbb0                                    	l32e	a11, a11, -20
10000967:	003500                                    	rfwu

1000096a <_WindowUnderflow12+0x2a>:
	...

Disassembly of section .Level2InterruptVector.text:

10000980 <_Level2Vector>:
10000980:	61d220                                    	xsr.excsave2	a2
10000983:	0002a0                                    	jx	a2

10000986 <_Level2Vector+0x6>:
	...

Disassembly of section .Level3InterruptVector.text:

100009c0 <_Level3Vector>:
100009c0:	61d320                                    	xsr.excsave3	a2
100009c3:	0002a0                                    	jx	a2

100009c6 <_Level3Vector+0x6>:
	...

Disassembly of section .Level4InterruptVector.text:

10000a00 <_Level4Vector>:
10000a00:	61d420                                    	xsr.excsave4	a2
10000a03:	0002a0                                    	jx	a2

10000a06 <_Level4Vector+0x6>:
	...

Disassembly of section .DebugExceptionVector.literal:

10000a38 <_memmap_seg_iram0_11_end-0x8>:
10000a38:	00050023 10005d54                       #...T]..

Disassembly of section .DebugExceptionVector.text:

10000a40 <_DebugExceptionVector>:
10000a40:	a0c112                                    	addi	a1, a1, -96
10000a43:	4129                                    	s32i.n	a2, a1, 16
10000a45:	5139                                    	s32i.n	a3, a1, 20
10000a47:	03e620                                    	rsr.ps	a2
10000a4a:	1129                                    	s32i.n	a2, a1, 4
10000a4c:	03b120                                    	rsr.epc1	a2
10000a4f:	0129                                    	s32i.n	a2, a1, 0
10000a51:	3109                                    	s32i.n	a0, a1, 12
10000a53:	6149                                    	s32i.n	a4, a1, 24
10000a55:	7159                                    	s32i.n	a5, a1, 28
10000a57:	fff821                                    	l32r	a2, 10000a38 <_DebugExceptionVector_literal_start>
10000a5a:	13e620                                    	wsr.ps	a2
10000a5d:	016d                                    	mov.n	a6, a1
10000a5f:	fff731                                    	l32r	a3, 10000a3c <_DebugExceptionVector_literal_start+0x4>
10000a62:	0003d0                                    	callx4	a3

10000a65 <_DebugExceptionVector+0x25>:
10000a65:	000000                                        ...

10000a68 <_DebugExceptionVector>:
10000a68:	13d520                                    	wsr.excsave5	a2
10000a6b:	827c                                    	movi.n	a2, -8
10000a6d:	005100                                    	simcall	0

10000a70 <_DebugExceptionVector+0x8>:
10000a70:	ffff06                                    	j	10000a70 <_DebugExceptionVector+0x8>

10000a73 <_DebugExceptionVector+0xb>:
	...

Disassembly of section .NMIExceptionVector.text:

10000a80 <_NMIExceptionVector>:
10000a80:	003610                                    	rfi	6

10000a83 <_NMIExceptionVector+0x3>:
	...

Disassembly of section .KernelExceptionVector.literal:

10000ab8 <_memmap_seg_iram0_15_end-0x8>:
10000ab8:	00050023 10005cdc                       #....\..

Disassembly of section .KernelExceptionVector.text:

10000ac0 <_KernelExceptionVector>:
10000ac0:	a0c112                                    	addi	a1, a1, -96
10000ac3:	4129                                    	s32i.n	a2, a1, 16
10000ac5:	5139                                    	s32i.n	a3, a1, 20
10000ac7:	03e620                                    	rsr.ps	a2
10000aca:	1129                                    	s32i.n	a2, a1, 4
10000acc:	03b120                                    	rsr.epc1	a2
10000acf:	0129                                    	s32i.n	a2, a1, 0
10000ad1:	3109                                    	s32i.n	a0, a1, 12
10000ad3:	6149                                    	s32i.n	a4, a1, 24
10000ad5:	7159                                    	s32i.n	a5, a1, 28
10000ad7:	fff821                                    	l32r	a2, 10000ab8 <_KernelExceptionVector_literal_start>
10000ada:	13e620                                    	wsr.ps	a2
10000add:	016d                                    	mov.n	a6, a1
10000adf:	fff731                                    	l32r	a3, 10000abc <_KernelExceptionVector_literal_start+0x4>
10000ae2:	0003d0                                    	callx4	a3

10000ae5 <_KernelExceptionVector+0x25>:
10000ae5:	000000                                        ...

Disassembly of section .UserExceptionVector.literal:

10000af8 <_memmap_seg_iram0_17_end-0x8>:
10000af8:	10024000                                .@..

Disassembly of section .UserExceptionVector.text:

10000b00 <_UserExceptionVector>:
10000b00:	a0c112                                    	addi	a1, a1, -96
10000b03:	4129                                    	s32i.n	a2, a1, 16
10000b05:	056132                                    	s32i	a3, a1, 20
10000b08:	03e820                                    	rsr.exccause	a2
10000b0b:	fffb31                                    	l32r	a3, 10000af8 <_UserExceptionVector_literal_start>
10000b0e:	02a2f6                                    	bgeui	a2, 12, 10000b14 <_UserExceptionVector+0x14>
10000b11:	a03230                                    	addx4	a3, a2, a3

10000b14 <_UserExceptionVector+0x14>:
10000b14:	0338                                    	l32i.n	a3, a3, 0
10000b16:	6149                                    	s32i.n	a4, a1, 24
10000b18:	0003a0                                    	jx	a3

10000b1b <_UserExceptionVector+0x1b>:
	...

Disassembly of section .DoubleExceptionVector.literal:

10000b38 <_memmap_seg_iram0_19_end-0x8>:
10000b38:	00050023 10005d18                       #....]..

Disassembly of section .DoubleExceptionVector.text:

10000b80 <_DoubleExceptionVector>:
10000b80:	a0c112                                    	addi	a1, a1, -96
10000b83:	4129                                    	s32i.n	a2, a1, 16
10000b85:	5139                                    	s32i.n	a3, a1, 20
10000b87:	03e620                                    	rsr.ps	a2
10000b8a:	1129                                    	s32i.n	a2, a1, 4
10000b8c:	03b120                                    	rsr.epc1	a2
10000b8f:	0129                                    	s32i.n	a2, a1, 0
10000b91:	3109                                    	s32i.n	a0, a1, 12
10000b93:	6149                                    	s32i.n	a4, a1, 24
10000b95:	7159                                    	s32i.n	a5, a1, 28
10000b97:	ffe821                                    	l32r	a2, 10000b38 <_DoubleExceptionVector_literal_start>
10000b9a:	13e620                                    	wsr.ps	a2
10000b9d:	016d                                    	mov.n	a6, a1
10000b9f:	ffe731                                    	l32r	a3, 10000b3c <_DoubleExceptionVector_literal_start+0x4>
10000ba2:	0003d0                                    	callx4	a3

10000ba5 <_DoubleExceptionVector+0x25>:
10000ba5:	000000                                        ...

Disassembly of section .iram0.text:

10000bc0 <_user_exception_c_trampoline-0x14>:
10000bc0:	00050023 10005ca0 10024cb8 10025568     #....\...L..hU..
10000bd0:	1002556c                                lU..

10000bd4 <_user_exception_c_trampoline>:
10000bd4:	03e620                                    	rsr.ps	a2
10000bd7:	1129                                    	s32i.n	a2, a1, 4
10000bd9:	03b120                                    	rsr.epc1	a2
10000bdc:	0129                                    	s32i.n	a2, a1, 0
10000bde:	3109                                    	s32i.n	a0, a1, 12
10000be0:	6149                                    	s32i.n	a4, a1, 24
10000be2:	076152                                    	s32i	a5, a1, 28
10000be5:	fff621                                    	l32r	a2, 10000bc0 (50023 <_memmap_mem_srom_end+0x30023>)
10000be8:	13e620                                    	wsr.ps	a2
10000beb:	206110                                    	or	a6, a1, a1
10000bee:	fff531                                    	l32r	a3, 10000bc4 (10005ca0 <com_cpu_user_exception>)
10000bf1:	0003d0                                    	callx4	a3

10000bf4 <_user_exception_11_handler>:
10000bf4:	fff521                                    	l32r	a2, 10000bc8 (10024cb8 <exception_11_cnt>)
10000bf7:	0238                                    	l32i.n	a3, a2, 0
10000bf9:	331b                                    	addi.n	a3, a3, 1
10000bfb:	0239                                    	s32i.n	a3, a2, 0
10000bfd:	03ee20                                    	rsr.excvaddr	a2
10000c00:	fff331                                    	l32r	a3, 10000bcc (10025568 <com_shm_lock_first_addr>)
10000c03:	0338                                    	l32i.n	a3, a3, 0
10000c05:	132237                                    	blt	a2, a3, 10000c1c <_user_exception_11_handler+0x28>
10000c08:	fff231                                    	l32r	a3, 10000bd0 (1002556c <com_shm_lock_last_addr>)
10000c0b:	0338                                    	l32i.n	a3, a3, 0
10000c0d:	0b2327                                    	blt	a3, a2, 10000c1c <_user_exception_11_handler+0x28>
10000c10:	6148                                    	l32i.n	a4, a1, 24
10000c12:	5138                                    	l32i.n	a3, a1, 20
10000c14:	4128                                    	l32i.n	a2, a1, 16
10000c16:	60c112                                    	addi	a1, a1, 96
10000c19:	003000                                    	rfe

10000c1c <_user_exception_11_handler+0x28>:
10000c1c:	0338                                    	l32i.n	a3, a3, 0
10000c1e:	0003a0                                    	jx	a3

10000c21 <_user_exception_11_handler+0x2d>:
10000c21:	000000                                        ...

Disassembly of section .text:

10000c30 <_stext>:
10000c30:	10040000 00040020 10024ed0 10026370     .... ....N..pc..
10000c40:	100245e4 10024ed0 10020000 10020314     .E...N..........
10000c50:	10024ed4 aaaaaaaa 55555555 00103020     .N......UUUU 0..
10000c60:	00103024 10001000 00100014 00100018     $0..............
10000c70:	00100004 10024f00 00100008 100248e8     .....O.......H..
10000c80:	ddda0000 00100010 0010000c 0026c1b0     ..............&.
10000c90:	10025230 0026c1d8 0026c200 100245f0     0R....&...&..E..
10000ca0:	10024f10 1000182c 10024160 0026c1b4     .O..,...`A....&.
10000cb0:	0026c1dc 0026c204 0026c234 0026c2d4     ..&...&.4.&...&.
10000cc0:	10024188 0026c6b4 0026c04c 0026c0a0     .A....&.L.&...&.
10000cd0:	0026c1a8 10001488 0383c008 00268c3c     ..&.........<.&.
10000ce0:	10025530 0507f054 0507f04c 0510f214     0U..T...L.......
10000cf0:	0510f20c 041f0714 041f070c 04501514     ..............P.
10000d00:	0450150c 050ff054 050ff04c 0511f214     ..P.T...L.......
10000d10:	0511f20c 043f0714 043f070c 04701514     ......?...?...p.
10000d20:	0470150c 049f3114 049f310c 04bf3114     ..p..1...1...1..
10000d30:	04bf310c 04df3114 04df310c 04ff3114     .1...1...1...1..
10000d40:	04ff310c 100241a0 06705054 0670504c     .1...A..TPp.LPp.
10000d50:	06f05054 06f0504c 07705054 0770504c     TP..LP..TPp.LPp.
10000d60:	07f05054 07f0504c 0507f040 0510f200     TP..LP..@.......
10000d70:	041f0700 04501500 050ff040 0511f200     ......P.@.......
10000d80:	043f0700 04701500 049f3100 04bf3100     ..?...p..1...1..
10000d90:	04df3100 04ff3100 06705040 06f05040     .1...1..@Pp.@P..
10000da0:	07705040 07f05040 00268c1c 00268c54     @Pp.@P....&.T.&.
10000db0:	100247d4 00e0ffff 00268c18 100024e4     .G........&..$..
10000dc0:	fffcffce 00268c40 0026c20e 0026c20c     ....@.&...&...&.
10000dd0:	00268c20 00268c4c 0507f048 0510f208      .&.L.&.H.......
10000de0:	041f0708 04501508 050ff048 0511f208     ......P.H.......
10000df0:	043f0708 04701508 049f3108 04bf3108     ..?...p..1...1..
10000e00:	04df3108 04ff3108 06705048 06f05048     .1...1..HPp.HP..
10000e10:	07705048 07f05048 10025558 bbba0000     HPp.HP..XU......
10000e20:	ffff0002 10025560 10024320 10024354     ....`U.. C..TC..
10000e30:	100247d8 1000314c 100245e0 10025568     .G..L1...E..hU..
10000e40:	10025570 00110014 100031d8 100031fc     pU.......1...1..
10000e50:	100247dc 00110040 10024030 80000003     .G..@...0@......
10000e60:	11111111 00110008 00110010 80000007     ................
10000e70:	10024050 0011000c 10024380 000cc050     P@.......C..P...
10000e80:	100035c4 100247e0 00270014 00270010     .5...G....'...'.
10000e90:	100243c0 fa3f7fe0 100245a0 fa3f7fe2     .C....?..E....?.
10000ea0:	7f801018 10025580 100248d0 10003bf0     .....U...H...;..
10000eb0:	10025d60 10003dbc 0026c2e4 10003e14     `]...=....&..>..
10000ec0:	00268010 10025d70 493e0000 b6c20000     ..&.p]....>I....
10000ed0:	0000beef 0026c0f0 0026c004 100248f0     ......&...&..H..
10000ee0:	0026c078 100045a0 100249a0 10024b48     x.&..E...I..HK..
10000ef0:	10024a20 0026c058 100047c4 10024ad0      J..X.&..G...J..
10000f00:	10025db0 06701050 06700050 06703050     .]..P.p.P.p.P0p.
10000f10:	06702050 01b0104c 06706010 100243f0     P p.L....`p..C..
10000f20:	10024440 06706030 06706034 0670602c     @D..0`p.4`p.,`p.
10000f30:	06706028 10024580 0004000b 06706024     (`p..E......$`p.
10000f40:	067080f0 06706048 06706040 00030005     ..p.H`p.@`p.....
10000f50:	06700024 067002c0 06700018 10024550     $.p...p...p.PE..
10000f60:	10024560 0670013c 06700368 067003e0     `E..<.p.h.p...p.
10000f70:	067002cc 067002d4 06701024 06701018     ..p...p.$.p...p.
10000f80:	0670113c 067012c0 06701368 067013e0     <.p...p.h.p...p.
10000f90:	067012c4 067012d4 0670d200 10024490     ..p...p...p..D..
10000fa0:	06708010 0670d240 100244d0 06708014     ..p.@.p..D....p.
10000fb0:	06708068 00f78650 0670d030 0670801c     h.p.P...0.p...p.
10000fc0:	06705400 06705480 06705484 06708050     .Tp..Tp..Tp.P.p.
10000fd0:	06708054 0670d008 0670d000 0670d100     T.p...p...p...p.
10000fe0:	06706080 067060a0 067060a4 0670609c     .`p..`p..`p..`p.
10000ff0:	06706098 06706094 067060b8 067060b0     .`p..`p..`p..`p.
10001000:	06702018 067022c4 0670213c 067022d8     . p.."p.<!p.."p.
10001010:	06702368 067022cc 067022d4 0670313c     h#p.."p.."p.<1p.
10001020:	06703018 06703368 067032c4 067032d4     .0p.h3p..2p..2p.
10001030:	0670c180 0670c1c0 0670c010 10024510     ..p...p...p..E..
10001040:	06707010 0670c300 0670c380 0026c00c     .pp...p...p...&.
10001050:	10024c90 10024b58 afafafaf 10024bd0     .L..XK.......K..
10001060:	10025e14 01e10008 01e10010 01b03004     .^...........0..
10001070:	031f3fff 01b04004 01b0105c 01b0106c     .?...@..\...l...
10001080:	01b0107c 01b01050 01b01060 01b01070     |...P...`...p...
10001090:	01b01080 01b01054 01b01064 01b01074     ....T...d...t...
100010a0:	01b01084 02408094 02408090 100245b0     ......@...@..E..
100010b0:	02408098 100057dc 10024cc0 10024cc4     ..@..W...L...L..
100010c0:	10024060 10024cc8 00050023 00000005     `@...L..#.......
100010d0:	c0000000 840f0f0e 100059e0 10024d90     .........Y...M..
100010e0:	10005a61 10026220 100245dc 00050024     aZ.. b...E..$...
100010f0:	08000000 80000000 100060e0              .........`..

100010fc <_start>:
100010fc:	00a002                                    	movi	a0, 0
100010ff:	fecc11                                    	l32r	a1, 10000c30 (10040000 <__stack>)
10001102:	fecc31                                    	l32r	a3, 10000c34 (40020 <_memmap_mem_srom_end+0x20020>)
10001105:	13e630                                    	wsr.ps	a3
10001108:	002010                                    	rsync
1000110b:	fecb61                                    	l32r	a6, 10000c38 (10024ed0 <g_trace_base>)
1000110e:	fecb71                                    	l32r	a7, 10000c3c (10026370 <_bss_end>)
10001111:	f03d                                    	nop.n
10001113:	06b677                                    	bgeu	a6, a7, 1000111d <_start+0x21>

10001116 <_start+0x1a>:
10001116:	0609                                    	s32i.n	a0, a6, 0
10001118:	664b                                    	addi.n	a6, a6, 4
1000111a:	f83677                                    	bltu	a6, a7, 10001116 <_start+0x1a>
1000111d:	040315                                    	call4	10005150 <main>
10001120:	120c                                    	movi.n	a2, 1
10001122:	005100                                    	simcall	0
10001125:	0041f0                                    	break	1, 15
10001128:	fffd06                                    	j	10001120 <_start+0x24>

1000112b <_start+0x2f>:
	...

1000112c <com_set_print_level>:
1000112c:	004136                                    	entry	a1, 32
1000112f:	fec431                                    	l32r	a3, 10000c40 (100245e4 <g_com_print_level>)
10001132:	0329                                    	s32i.n	a2, a3, 0
10001134:	f01d                                    	retw.n

10001136 <com_set_print_level+0xa>:
	...

10001138 <com_get_print_level>:
10001138:	004136                                    	entry	a1, 32
1000113b:	fec121                                    	l32r	a2, 10000c40 (100245e4 <g_com_print_level>)
1000113e:	0228                                    	l32i.n	a2, a2, 0
10001140:	f01d                                    	retw.n

10001142 <com_get_print_level+0xa>:
	...

10001144 <com_test_FW>:
10001144:	004136                                    	entry	a1, 32
10001147:	febf31                                    	l32r	a3, 10000c44 (10024ed0 <g_trace_base>)
1000114a:	febf61                                    	l32r	a6, 10000c48 (10020000 <com_static_data_init>)
1000114d:	0348                                    	l32i.n	a4, a3, 0
1000114f:	febf51                                    	l32r	a5, 10000c4c (10020314 <ax_static_data_init>)
10001152:	648c                                    	beqz.n	a4, 1000115c <com_test_FW+0x18>
10001154:	d30c                                    	movi.n	a3, 13
10001156:	329c                                    	beqz.n	a2, 1000116d <com_test_FW+0x29>

10001158 <com_test_FW+0x14>:
10001158:	f439                                    	s32i.n	a3, a4, 60
1000115a:	f01d                                    	retw.n

1000115c <com_test_FW+0x18>:
1000115c:	0648                                    	l32i.n	a4, a6, 0
1000115e:	144040                                    	extui	a4, a4, 0, 2
10001161:	a04450                                    	addx4	a4, a4, a5
10001164:	0448                                    	l32i.n	a4, a4, 0
10001166:	0349                                    	s32i.n	a4, a3, 0
10001168:	d30c                                    	movi.n	a3, 13
1000116a:	fea256                                    	bnez	a2, 10001158 <com_test_FW+0x14>
1000116d:	230c                                    	movi.n	a3, 2
1000116f:	f439                                    	s32i.n	a3, a4, 60
10001171:	f01d                                    	retw.n

10001173 <com_test_FW+0x2f>:
	...

10001180 <com_heap_create>:
10001180:	004136                                    	entry	a1, 32
10001183:	205230                                    	or	a5, a2, a3
10001186:	f63c                                    	movi.n	a6, 63
10001188:	544050                                    	extui	a4, a5, 0, 6
1000118b:	3d8657                                    	bany	a6, a5, 100011cc <com_heap_create+0x4c>
1000118e:	feb051                                    	l32r	a5, 10000c50 (10024ed4 <heap>)
10001191:	060c                                    	movi.n	a6, 0
10001193:	feb0c1                                    	l32r	a12, 10000c54 (aaaaaaaa <_memmap_cacheattr_bp_allvalid+0x66666666>)
10001196:	3569                                    	s32i.n	a6, a5, 12
10001198:	6569                                    	s32i.n	a6, a5, 24
1000119a:	9529                                    	s32i.n	a2, a5, 36
1000119c:	4529                                    	s32i.n	a2, a5, 16
1000119e:	5529                                    	s32i.n	a2, a5, 20
100011a0:	7529                                    	s32i.n	a2, a5, 28
100011a2:	8529                                    	s32i.n	a2, a5, 32
100011a4:	0529                                    	s32i.n	a2, a5, 0
100011a6:	02c9                                    	s32i.n	a12, a2, 0
100011a8:	076c                                    	movi.n	a7, -32
100011aa:	0568                                    	l32i.n	a6, a5, 0
100011ac:	10a370                                    	and	a10, a3, a7
100011af:	e54b                                    	addi.n	a14, a5, 4
100011b1:	418530                                    	srli	a8, a3, 5
100011b4:	1b0c                                    	movi.n	a11, 1
100011b6:	fea8d1                                    	l32r	a13, 10000c58 (55555555 <_memmap_cacheattr_bp_allvalid+0x11111111>)
100011b9:	f6aa                                    	add.n	a15, a6, a10
100011bb:	2289                                    	s32i.n	a8, a2, 8
100011bd:	52b9                                    	s32i.n	a11, a2, 20
100011bf:	32e9                                    	s32i.n	a14, a2, 12
100011c1:	42e9                                    	s32i.n	a14, a2, 16
100011c3:	62e9                                    	s32i.n	a14, a2, 24
100011c5:	72e9                                    	s32i.n	a14, a2, 28
100011c7:	16d9                                    	s32i.n	a13, a6, 4
100011c9:	0a65f2                                    	s32i	a15, a5, 40

100011cc <com_heap_create+0x4c>:
100011cc:	120c                                    	movi.n	a2, 1
100011ce:	622420                                    	saltu	a2, a4, a2
100011d1:	f01d                                    	retw.n

100011d3 <com_heap_create+0x53>:
	...

100011d4 <com_calloc>:
100011d4:	004136                                    	entry	a1, 32
100011d7:	82f320                                    	mull	a15, a3, a2
100011da:	fe9d41                                    	l32r	a4, 10000c50 (10024ed4 <heap>)
100011dd:	1fcf32                                    	addi	a3, a15, 31
100011e0:	9468                                    	l32i.n	a6, a4, 36
100011e2:	413530                                    	srli	a3, a3, 5
100011e5:	062d                                    	mov.n	a2, a6
100011e7:	531b                                    	addi.n	a5, a3, 1
100011e9:	0b8176                                    	loop	a1, 100011f8 <com_calloc+0x24>

100011ec <com_calloc+0x18>:
100011ec:	3238                                    	l32i.n	a3, a2, 12
100011ee:	2378                                    	l32i.n	a7, a3, 8
100011f0:	09b757                                    	bgeu	a7, a5, 100011fd <com_calloc+0x29>
100011f3:	032d                                    	mov.n	a2, a3
100011f5:	171367                                    	beq	a3, a6, 10001210 <com_calloc+0x3c>

100011f8 <com_calloc+0x24>:
100011f8:	032d                                    	mov.n	a2, a3
100011fa:	fffb86                                    	j	100011ec <com_calloc+0x18>

100011fd <com_calloc+0x29>:
100011fd:	139757                                    	bne	a7, a5, 10001214 <com_calloc+0x40>
10001200:	050c                                    	movi.n	a5, 0
10001202:	3368                                    	l32i.n	a6, a3, 12
10001204:	5359                                    	s32i.n	a5, a3, 20
10001206:	3269                                    	s32i.n	a6, a2, 12
10001208:	33f8                                    	l32i.n	a15, a3, 12
1000120a:	4f29                                    	s32i.n	a2, a15, 16
1000120c:	000b06                                    	j	1000123c <com_calloc+0x68>

1000120f <com_calloc+0x3b>:
	...

10001210 <com_calloc+0x3c>:
10001210:	020c                                    	movi.n	a2, 0
10001212:	f01d                                    	retw.n

10001214 <com_calloc+0x40>:
10001214:	c06750                                    	sub	a6, a7, a5
10001217:	1176b0                                    	slli	a7, a6, 5
1000121a:	737a                                    	add.n	a7, a3, a7
1000121c:	7388                                    	l32i.n	a8, a3, 28
1000121e:	7789                                    	s32i.n	a8, a7, 28
10001220:	7379                                    	s32i.n	a7, a3, 28
10001222:	77c8                                    	l32i.n	a12, a7, 28
10001224:	0d0c                                    	movi.n	a13, 0
10001226:	fe8be1                                    	l32r	a14, 10000c54 (aaaaaaaa <_memmap_cacheattr_bp_allvalid+0x66666666>)
10001229:	fe8bf1                                    	l32r	a15, 10000c58 (55555555 <_memmap_cacheattr_bp_allvalid+0x11111111>)
1000122c:	2369                                    	s32i.n	a6, a3, 8
1000122e:	6739                                    	s32i.n	a3, a7, 24
10001230:	2759                                    	s32i.n	a5, a7, 8
10001232:	6c79                                    	s32i.n	a7, a12, 24
10001234:	073d                                    	mov.n	a3, a7
10001236:	57d9                                    	s32i.n	a13, a7, 20
10001238:	07e9                                    	s32i.n	a14, a7, 0
1000123a:	17f9                                    	s32i.n	a15, a7, 4
1000123c:	9429                                    	s32i.n	a2, a4, 36
1000123e:	20c322                                    	addi	a2, a3, 32
10001241:	f01d                                    	retw.n

10001243 <com_calloc+0x6f>:
	...

10001244 <com_free>:
10001244:	004136                                    	entry	a1, 32
10001247:	023d                                    	mov.n	a3, a2
10001249:	120c                                    	movi.n	a2, 1
1000124b:	0d9316                                    	beqz	a3, 10001328 <com_free+0xe4>
1000124e:	e0c352                                    	addi	a5, a3, -32
10001251:	f41c                                    	movi.n	a4, 31
10001253:	020c                                    	movi.n	a2, 0
10001255:	020457                                    	bnone	a4, a5, 1000125b <com_free+0x17>
10001258:	003306                                    	j	10001328 <com_free+0xe4>
1000125b:	fe7d41                                    	l32r	a4, 10000c50 (10024ed4 <heap>)
1000125e:	fe7d81                                    	l32r	a8, 10000c54 (aaaaaaaa <_memmap_cacheattr_bp_allvalid+0x66666666>)
10001261:	0468                                    	l32i.n	a6, a4, 0
10001263:	a478                                    	l32i.n	a7, a4, 40
10001265:	02b567                                    	bgeu	a5, a6, 1000126b <com_free+0x27>
10001268:	002f06                                    	j	10001328 <com_free+0xe4>
1000126b:	076d                                    	mov.n	a6, a7
1000126d:	023577                                    	bltu	a5, a7, 10001273 <com_free+0x2f>
10001270:	002d06                                    	j	10001328 <com_free+0xe4>
10001273:	0578                                    	l32i.n	a7, a5, 0
10001275:	e4c392                                    	addi	a9, a3, -28
10001278:	021787                                    	beq	a7, a8, 1000127e <com_free+0x3a>
1000127b:	002a46                                    	j	10001328 <com_free+0xe4>
1000127e:	fe7681                                    	l32r	a8, 10000c58 (55555555 <_memmap_cacheattr_bp_allvalid+0x11111111>)
10001281:	0978                                    	l32i.n	a7, a9, 0
10001283:	021787                                    	beq	a7, a8, 10001289 <com_free+0x45>
10001286:	002786                                    	j	10001328 <com_free+0xe4>
10001289:	e8c372                                    	addi	a7, a3, -24
1000128c:	0788                                    	l32i.n	a8, a7, 0
1000128e:	94b8                                    	l32i.n	a11, a4, 36
10001290:	1198b0                                    	slli	a9, a8, 5
10001293:	959a                                    	add.n	a9, a5, a9
10001295:	02b697                                    	bgeu	a6, a9, 1000129b <com_free+0x57>
10001298:	002306                                    	j	10001328 <com_free+0xe4>
1000129b:	fcc362                                    	addi	a6, a3, -4
1000129e:	0698                                    	l32i.n	a9, a6, 0
100012a0:	0b2d                                    	mov.n	a2, a11
100012a2:	59a8                                    	l32i.n	a10, a9, 20
100012a4:	29b8                                    	l32i.n	a11, a9, 8
100012a6:	261a66                                    	bnei	a10, 1, 100012d0 <com_free+0x8c>
100012a9:	1f0c                                    	movi.n	a15, 1
100012ab:	8b8a                                    	add.n	a8, a11, a8
100012ad:	0789                                    	s32i.n	a8, a7, 0
100012af:	7988                                    	l32i.n	a8, a9, 28
100012b1:	6859                                    	s32i.n	a5, a8, 24
100012b3:	0688                                    	l32i.n	a8, a6, 0
100012b5:	38e8                                    	l32i.n	a14, a8, 12
100012b7:	35e9                                    	s32i.n	a14, a5, 12
100012b9:	4898                                    	l32i.n	a9, a8, 16
100012bb:	4599                                    	s32i.n	a9, a5, 16
100012bd:	3888                                    	l32i.n	a8, a8, 12
100012bf:	4859                                    	s32i.n	a5, a8, 16
100012c1:	0688                                    	l32i.n	a8, a6, 0
100012c3:	4888                                    	l32i.n	a8, a8, 16
100012c5:	3859                                    	s32i.n	a5, a8, 12
100012c7:	0688                                    	l32i.n	a8, a6, 0
100012c9:	7888                                    	l32i.n	a8, a8, 28
100012cb:	55f9                                    	s32i.n	a15, a5, 20
100012cd:	006682                                    	s32i	a8, a6, 0

100012d0 <com_free+0x8c>:
100012d0:	f8c382                                    	addi	a8, a3, -8
100012d3:	0898                                    	l32i.n	a9, a8, 0
100012d5:	59a8                                    	l32i.n	a10, a9, 20
100012d7:	29c8                                    	l32i.n	a12, a9, 8
100012d9:	2c1a66                                    	bnei	a10, 1, 10001309 <com_free+0xc5>
100012dc:	0728                                    	l32i.n	a2, a7, 0
100012de:	2c2a                                    	add.n	a2, a12, a2
100012e0:	2929                                    	s32i.n	a2, a9, 8
100012e2:	06d8                                    	l32i.n	a13, a6, 0
100012e4:	08e8                                    	l32i.n	a14, a8, 0
100012e6:	6de9                                    	s32i.n	a14, a13, 24
100012e8:	0878                                    	l32i.n	a7, a8, 0
100012ea:	06f8                                    	l32i.n	a15, a6, 0
100012ec:	f4c322                                    	addi	a2, a3, -12
100012ef:	77f9                                    	s32i.n	a15, a7, 28
100012f1:	0238                                    	l32i.n	a3, a2, 0
100012f3:	0b1366                                    	bnei	a3, 1, 10001302 <com_free+0xbe>
100012f6:	4538                                    	l32i.n	a3, a5, 16
100012f8:	3568                                    	l32i.n	a6, a5, 12
100012fa:	3369                                    	s32i.n	a6, a3, 12
100012fc:	3538                                    	l32i.n	a3, a5, 12
100012fe:	45f8                                    	l32i.n	a15, a5, 16
10001300:	43f9                                    	s32i.n	a15, a3, 16
10001302:	130c                                    	movi.n	a3, 1
10001304:	0239                                    	s32i.n	a3, a2, 0
10001306:	000586                                    	j	10001320 <com_free+0xdc>

10001309 <com_free+0xc5>:
10001309:	f4c332                                    	addi	a3, a3, -12
1000130c:	0368                                    	l32i.n	a6, a3, 0
1000130e:	170c                                    	movi.n	a7, 1
10001310:	c6cc                                    	bnez.n	a6, 10001320 <com_free+0xdc>
10001312:	0379                                    	s32i.n	a7, a3, 0
10001314:	3238                                    	l32i.n	a3, a2, 12
10001316:	3539                                    	s32i.n	a3, a5, 12
10001318:	3238                                    	l32i.n	a3, a2, 12
1000131a:	4359                                    	s32i.n	a5, a3, 16
1000131c:	3259                                    	s32i.n	a5, a2, 12
1000131e:	4529                                    	s32i.n	a2, a5, 16
10001320:	9428                                    	l32i.n	a2, a4, 36
10001322:	32f8                                    	l32i.n	a15, a2, 12
10001324:	120c                                    	movi.n	a2, 1
10001326:	94f9                                    	s32i.n	a15, a4, 36
10001328:	f01d                                    	retw.n

1000132a <com_free+0xe6>:
1000132a:	00000000                                 ......

10001330 <com_trax_init>:
10001330:	004136                                    	entry	a1, 32
10001333:	130c                                    	movi.n	a3, 1
10001335:	fe4921                                    	l32r	a2, 10000c5c (103020 <_memmap_mem_srom_end+0xe3020>)
10001338:	113340                                    	slli	a3, a3, 12
1000133b:	407230                                    	wer	a3, a2
1000133e:	002010                                    	rsync
10001341:	fe4741                                    	l32r	a4, 10000c60 (103024 <_memmap_mem_srom_end+0xe3024>)
10001344:	406450                                    	rer	a5, a4
10001347:	0aa062                                    	movi	a6, 10
1000134a:	08e5c7                                    	bbsi	a5, 12, 10001356 <com_trax_init+0x26>
1000134d:	058676                                    	loop	a6, 10001356 <com_trax_init+0x26>
10001350:	406450                                    	rer	a5, a4
10001353:	ffe5c7                                    	bbsi	a5, 12, 10001356 <com_trax_init+0x26>

10001356 <com_trax_init+0x26>:
10001356:	fe4341                                    	l32r	a4, 10000c64 (10001000 <_stext+0x3d0>)
10001359:	407240                                    	wer	a4, a2
1000135c:	002010                                    	rsync
1000135f:	a40c                                    	movi.n	a4, 10
10001361:	018476                                    	loop	a4, 10001366 <com_trax_init+0x36>
10001364:	f03d                                    	nop.n

10001366 <com_trax_init+0x36>:
10001366:	407230                                    	wer	a3, a2
10001369:	002010                                    	rsync
1000136c:	a20c                                    	movi.n	a2, 10
1000136e:	018276                                    	loop	a2, 10001373 <com_trax_init+0x43>
10001371:	f03d                                    	nop.n
10001373:	fe3521                                    	l32r	a2, 10000c48 (10020000 <com_static_data_init>)
10001376:	fe3c41                                    	l32r	a4, 10000c68 (100014 <_memmap_mem_srom_end+0xe0014>)
10001379:	2238                                    	l32i.n	a3, a2, 8
1000137b:	1268                                    	l32i.n	a6, a2, 4
1000137d:	415530                                    	srli	a5, a3, 5
10001380:	443030                                    	extui	a3, a3, 0, 5
10001383:	015510                                    	slli	a5, a5, 31
10001386:	353a                                    	add.n	a3, a5, a3
10001388:	407460                                    	wer	a6, a4
1000138b:	fe3841                                    	l32r	a4, 10000c6c (100018 <_memmap_mem_srom_end+0xe0018>)
1000138e:	407430                                    	wer	a3, a4
10001391:	2228                                    	l32i.n	a2, a2, 8
10001393:	81a032                                    	movi	a3, 129
10001396:	113390                                    	slli	a3, a3, 7
10001399:	042620                                    	extui	a2, a2, 6, 1
1000139c:	fe3541                                    	l32r	a4, 10000c70 (100004 <_memmap_mem_srom_end+0xe0004>)
1000139f:	a02230                                    	addx4	a2, a2, a3
100013a2:	407420                                    	wer	a2, a4
100013a5:	fe3321                                    	l32r	a2, 10000c74 (10024f00 <trax_initialized>)
100013a8:	130c                                    	movi.n	a3, 1
100013aa:	004232                                    	s8i	a3, a2, 0
100013ad:	f01d                                    	retw.n

100013af <com_trax_init+0x7f>:
	...

100013b0 <com_trax_stop>:
100013b0:	004136                                    	entry	a1, 32
100013b3:	fe30f1                                    	l32r	a15, 10000c74 (10024f00 <trax_initialized>)
100013b6:	020c                                    	movi.n	a2, 0
100013b8:	000f32                                    	l8ui	a3, a15, 0
100013bb:	fe2f41                                    	l32r	a4, 10000c78 (100008 <_memmap_mem_srom_end+0xe0008>)
100013be:	439c                                    	beqz.n	a3, 100013d6 <com_trax_stop+0x26>
100013c0:	406430                                    	rer	a3, a4
100013c3:	fe2b51                                    	l32r	a5, 10000c70 (100004 <_memmap_mem_srom_end+0xe0004>)
100013c6:	0c6307                                    	bbci	a3, 0, 100013d6 <com_trax_stop+0x26>
100013c9:	406530                                    	rer	a3, a5
100013cc:	240c                                    	movi.n	a4, 2
100013ce:	203340                                    	or	a3, a3, a4
100013d1:	407530                                    	wer	a3, a5
100013d4:	120c                                    	movi.n	a2, 1

100013d6 <com_trax_stop+0x26>:
100013d6:	f01d                                    	retw.n

100013d8 <com_trax_start>:
100013d8:	004136                                    	entry	a1, 32
100013db:	fe2621                                    	l32r	a2, 10000c74 (10024f00 <trax_initialized>)
100013de:	fe2631                                    	l32r	a3, 10000c78 (100008 <_memmap_mem_srom_end+0xe0008>)
100013e1:	000222                                    	l8ui	a2, a2, 0
100013e4:	a29c                                    	beqz.n	a2, 10001402 <com_trax_start+0x2a>
100013e6:	406320                                    	rer	a2, a3
100013e9:	fe2151                                    	l32r	a5, 10000c70 (100004 <_memmap_mem_srom_end+0xe0004>)
100013ec:	12e207                                    	bbsi	a2, 0, 10001402 <com_trax_start+0x2a>
100013ef:	406530                                    	rer	a3, a5
100013f2:	e47c                                    	movi.n	a4, -2
100013f4:	104340                                    	and	a4, a3, a4
100013f7:	407540                                    	wer	a4, a5
100013fa:	140c                                    	movi.n	a4, 1
100013fc:	203340                                    	or	a3, a3, a4
100013ff:	407530                                    	wer	a3, a5

10001402 <com_trax_start+0x2a>:
10001402:	f01d                                    	retw.n

10001404 <com_trax_store_trace>:
10001404:	004136                                    	entry	a1, 32
10001407:	fe1b21                                    	l32r	a2, 10000c74 (10024f00 <trax_initialized>)
1000140a:	fe1c31                                    	l32r	a3, 10000c7c (100248e8 <p_system_data>)
1000140d:	000222                                    	l8ui	a2, a2, 0
10001410:	5fa452                                    	movi	a5, 0x45f
10001413:	06c216                                    	beqz	a2, 10001483 <com_trax_store_trace+0x7f>
10001416:	0328                                    	l32i.n	a2, a3, 0
10001418:	1155d0                                    	slli	a5, a5, 3
1000141b:	fe1941                                    	l32r	a4, 10000c80 (ddda0000 <xthals_hw_configid0+0x1dd96d7a>)
1000141e:	22d262                                    	addmi	a6, a2, 0x2200
10001421:	0e2c                                    	movi.n	a14, 32
10001423:	1f0c                                    	movi.n	a15, 1
10001425:	3d6642                                    	s32i	a4, a6, 244
10001428:	00a032                                    	movi	a3, 0
1000142b:	014fc0                                    	slli	a4, a15, 20
1000142e:	805250                                    	add	a5, a2, a5
10001431:	0b8e76                                    	loop	a14, 10001440 <com_trax_store_trace+0x3c>
10001434:	206340                                    	or	a6, a3, a4
10001437:	406660                                    	rer	a6, a6
1000143a:	0569                                    	s32i.n	a6, a5, 0
1000143c:	334b                                    	addi.n	a3, a3, 4
1000143e:	554b                                    	addi.n	a5, a5, 4

10001440 <com_trax_store_trace+0x3c>:
10001440:	fe1131                                    	l32r	a3, 10000c84 (100010 <_memmap_mem_srom_end+0xe0010>)
10001443:	406350                                    	rer	a5, a3
10001446:	160c                                    	movi.n	a6, 1
10001448:	0166b0                                    	slli	a6, a6, 21
1000144b:	744050                                    	extui	a4, a5, 0, 8
1000144e:	0eb567                                    	bgeu	a5, a6, 10001460 <com_trax_store_trace+0x5c>
10001451:	640b                                    	addi.n	a6, a4, -1
10001453:	7fa052                                    	movi	a5, 127
10001456:	935640                                    	movnez	a5, a6, a4
10001459:	040c                                    	movi.n	a4, 0
1000145b:	45cc                                    	bnez.n	a5, 10001463 <com_trax_store_trace+0x5f>
1000145d:	000886                                    	j	10001483 <com_trax_store_trace+0x7f>

10001460 <com_trax_store_trace+0x5c>:
10001460:	7fc452                                    	addi	a5, a4, 127
10001463:	74a062                                    	movi	a6, 116
10001466:	23d662                                    	addmi	a6, a6, 0x2300
10001469:	c07540                                    	sub	a7, a5, a4
1000146c:	fe0751                                    	l32r	a5, 10000c88 (10000c <_memmap_mem_srom_end+0xe000c>)
1000146f:	226a                                    	add.n	a2, a2, a6
10001471:	0e8776                                    	loop	a7, 10001483 <com_trax_store_trace+0x7f>
10001474:	646040                                    	extui	a6, a4, 0, 7
10001477:	407360                                    	wer	a6, a3
1000147a:	406560                                    	rer	a6, a5
1000147d:	0269                                    	s32i.n	a6, a2, 0
1000147f:	224b                                    	addi.n	a2, a2, 4
10001481:	441b                                    	addi.n	a4, a4, 1

10001483 <com_trax_store_trace+0x7f>:
10001483:	f01d                                    	retw.n

10001485 <com_trax_store_trace+0x81>:
10001485:	000000                                        ...

10001488 <com_edge_irq_handler>:
10001488:	004136                                    	entry	a1, 32
1000148b:	413226                                    	beqi	a2, 3, 100014d0 <com_edge_irq_handler+0x48>
1000148e:	762226                                    	beqi	a2, 2, 10001508 <com_edge_irq_handler+0x80>
10001491:	021226                                    	beqi	a2, 1, 10001497 <com_edge_irq_handler+0xf>
10001494:	002946                                    	j	1000153d <com_edge_irq_handler+0xb5>
10001497:	fdfd21                                    	l32r	a2, 10000c8c (26c1b0 <_memmap_mem_sram_end+0x2c1b0>)
1000149a:	fdfd41                                    	l32r	a4, 10000c90 (10025230 <edge_irq_reg0_handler_map>)
1000149d:	0278                                    	l32i.n	a7, a2, 0
1000149f:	030c                                    	movi.n	a3, 0
100014a1:	098716                                    	beqz	a7, 1000153d <com_edge_irq_handler+0xb5>
100014a4:	150c                                    	movi.n	a5, 1
100014a6:	000306                                    	j	100014b6 <com_edge_irq_handler+0x2e>

100014a9 <com_edge_irq_handler+0x21>:
100014a9:	417160                                    	srli	a7, a6, 1
100014ac:	331b                                    	addi.n	a3, a3, 1
100014ae:	448b                                    	addi.n	a4, a4, 8
100014b0:	0226f6                                    	bgeui	a6, 2, 100014b6 <com_edge_irq_handler+0x2e>
100014b3:	002186                                    	j	1000153d <com_edge_irq_handler+0xb5>
100014b6:	076d                                    	mov.n	a6, a7
100014b8:	ed6707                                    	bbci	a7, 0, 100014a9 <com_edge_irq_handler+0x21>
100014bb:	002472                                    	l32i	a7, a4, 0
100014be:	0124a2                                    	l32i	a10, a4, 4
100014c1:	0007e0                                    	callx8	a7
100014c4:	401300                                    	ssl	a3
100014c7:	a17500                                    	sll	a7, a5
100014ca:	0279                                    	s32i.n	a7, a2, 0
100014cc:	fff646                                    	j	100014a9 <com_edge_irq_handler+0x21>

100014cf <com_edge_irq_handler+0x47>:
	...

100014d0 <com_edge_irq_handler+0x48>:
100014d0:	fdf221                                    	l32r	a2, 10000c98 (26c200 <_memmap_mem_sram_end+0x2c200>)
100014d3:	fdef41                                    	l32r	a4, 10000c90 (10025230 <edge_irq_reg0_handler_map>)
100014d6:	0278                                    	l32i.n	a7, a2, 0
100014d8:	030c                                    	movi.n	a3, 0
100014da:	05f716                                    	beqz	a7, 1000153d <com_edge_irq_handler+0xb5>
100014dd:	150c                                    	movi.n	a5, 1
100014df:	0002c6                                    	j	100014ee <com_edge_irq_handler+0x66>

100014e2 <com_edge_irq_handler+0x5a>:
	...

100014e4 <com_edge_irq_handler+0x5c>:
100014e4:	417160                                    	srli	a7, a6, 1
100014e7:	331b                                    	addi.n	a3, a3, 1
100014e9:	448b                                    	addi.n	a4, a4, 8
100014eb:	4e26b6                                    	bltui	a6, 2, 1000153d <com_edge_irq_handler+0xb5>
100014ee:	076d                                    	mov.n	a6, a7
100014f0:	f06707                                    	bbci	a7, 0, 100014e4 <com_edge_irq_handler+0x5c>
100014f3:	802472                                    	l32i	a7, a4, 0x200
100014f6:	8124a2                                    	l32i	a10, a4, 0x204
100014f9:	0007e0                                    	callx8	a7
100014fc:	401300                                    	ssl	a3
100014ff:	a17500                                    	sll	a7, a5
10001502:	0279                                    	s32i.n	a7, a2, 0
10001504:	fff706                                    	j	100014e4 <com_edge_irq_handler+0x5c>

10001507 <com_edge_irq_handler+0x7f>:
	...

10001508 <com_edge_irq_handler+0x80>:
10001508:	fde321                                    	l32r	a2, 10000c94 (26c1d8 <_memmap_mem_sram_end+0x2c1d8>)
1000150b:	fde141                                    	l32r	a4, 10000c90 (10025230 <edge_irq_reg0_handler_map>)
1000150e:	0278                                    	l32i.n	a7, a2, 0
10001510:	030c                                    	movi.n	a3, 0
10001512:	77ac                                    	beqz.n	a7, 1000153d <com_edge_irq_handler+0xb5>
10001514:	150c                                    	movi.n	a5, 1
10001516:	000286                                    	j	10001524 <com_edge_irq_handler+0x9c>

10001519 <com_edge_irq_handler+0x91>:
10001519:	417160                                    	srli	a7, a6, 1
1000151c:	01c332                                    	addi	a3, a3, 1
1000151f:	448b                                    	addi.n	a4, a4, 8
10001521:	1826b6                                    	bltui	a6, 2, 1000153d <com_edge_irq_handler+0xb5>
10001524:	076d                                    	mov.n	a6, a7
10001526:	ef6707                                    	bbci	a7, 0, 10001519 <com_edge_irq_handler+0x91>
10001529:	402472                                    	l32i	a7, a4, 0x100
1000152c:	4124a2                                    	l32i	a10, a4, 0x104
1000152f:	0007e0                                    	callx8	a7
10001532:	401300                                    	ssl	a3
10001535:	a17500                                    	sll	a7, a5
10001538:	0279                                    	s32i.n	a7, a2, 0
1000153a:	fff6c6                                    	j	10001519 <com_edge_irq_handler+0x91>

1000153d <com_edge_irq_handler+0xb5>:
1000153d:	f01d                                    	retw.n

1000153f <com_edge_irq_handler+0xb7>:
	...

10001540 <com_isr_event>:
10001540:	004136                                    	entry	a1, 32
10001543:	cbad52                                    	movi	a5, 0xfffffdcb
10001546:	525a                                    	add.n	a5, a2, a5
10001548:	d60c                                    	movi.n	a6, 13
1000154a:	163657                                    	bltu	a6, a5, 10001564 <com_isr_event+0x24>
1000154d:	fdd321                                    	l32r	a2, 10000c9c (100245f0 <direct_irq_config>)
10001550:	a02520                                    	addx4	a2, a5, a2
10001553:	0022a2                                    	l32i	a10, a2, 0

10001556 <com_isr_event+0x16>:
10001556:	0d0c                                    	movi.n	a13, 0
10001558:	03bd                                    	mov.n	a11, a3
1000155a:	20c440                                    	or	a12, a4, a4
1000155d:	043065                                    	call8	10005864 <xtos_set_interrupt_handler>
10001560:	000206                                    	j	1000156c <com_isr_event+0x2c>

10001563 <com_isr_event+0x23>:
	...

10001564 <com_isr_event+0x24>:
10001564:	445520                                    	extui	a5, a2, 5, 5
10001567:	161c                                    	movi.n	a6, 17
10001569:	01b657                                    	bgeu	a6, a5, 1000156e <com_isr_event+0x2e>
1000156c:	f01d                                    	retw.n

1000156e <com_isr_event+0x2e>:
1000156e:	d60c                                    	movi.n	a6, 13
10001570:	553657                                    	bltu	a6, a5, 100015c9 <com_isr_event+0x89>
10001573:	87a462                                    	movi	a6, 0x487
10001576:	1166d0                                    	slli	a6, a6, 3
10001579:	4c5657                                    	bbc	a6, a5, 100015c9 <com_isr_event+0x89>
1000157c:	416a20                                    	srli	a6, a2, 10
1000157f:	442020                                    	extui	a2, a2, 0, 5
10001582:	e68c                                    	beqz.n	a6, 10001594 <com_isr_event+0x54>
10001584:	fdc351                                    	l32r	a5, 10000c90 (10025230 <edge_irq_reg0_handler_map>)
10001587:	323626                                    	beqi	a6, 3, 100015bd <com_isr_event+0x7d>
1000158a:	322666                                    	bnei	a6, 2, 100015c0 <com_isr_event+0x80>
1000158d:	01d552                                    	addmi	a5, a5, 0x100
10001590:	000b06                                    	j	100015c0 <com_isr_event+0x80>

10001593 <com_isr_event+0x53>:
	...

10001594 <com_isr_event+0x54>:
10001594:	fdc371                                    	l32r	a7, 10000ca0 (10024f10 <reg4_irq_config>)
10001597:	fdc161                                    	l32r	a6, 10000c9c (100245f0 <direct_irq_config>)
1000159a:	40a282                                    	movi	a8, 0x240
1000159d:	a8a1a2                                    	movi	a10, 0x1a8
100015a0:	fcc592                                    	addi	a9, a5, -4
100015a3:	878a                                    	add.n	a8, a7, a8
100015a5:	c6aa                                    	add.n	a12, a6, a10
100015a7:	4f99f6                                    	bgeui	a9, 10, 100015fa <com_isr_event+0xba>
100015aa:	fdbfa1                                    	l32r	a10, 10000ca8 (10024160 <__switchjump_table_xp_temp_1_0>)
100015ad:	a099a0                                    	addx4	a9, a9, a10
100015b0:	0998                                    	l32i.n	a9, a9, 0
100015b2:	0009a0                                    	jx	a9

100015b5 <com_isr_event+0x75>:
100015b5:	b4a192                                    	movi	a9, 0x1b4
100015b8:	078d                                    	mov.n	a8, a7
100015ba:	000e86                                    	j	100015f8 <com_isr_event+0xb8>

100015bd <com_isr_event+0x7d>:
100015bd:	02d552                                    	addmi	a5, a5, 0x200
100015c0:	b02250                                    	addx8	a2, a2, a5
100015c3:	0239                                    	s32i.n	a3, a2, 0
100015c5:	1249                                    	s32i.n	a4, a2, 4
100015c7:	f01d                                    	retw.n

100015c9 <com_isr_event+0x89>:
100015c9:	fdb421                                    	l32r	a2, 10000c9c (100245f0 <direct_irq_config>)
100015cc:	a05550                                    	addx4	a5, a5, a5
100015cf:	a02520                                    	addx4	a2, a5, a2
100015d2:	1022a2                                    	l32i	a10, a2, 64
100015d5:	116232                                    	s32i	a3, a2, 68
100015d8:	126242                                    	s32i	a4, a2, 72
100015db:	ffddc6                                    	j	10001556 <com_isr_event+0x16>

100015de <com_isr_event+0x9e>:
100015de:	70a182                                    	movi	a8, 0x170
100015e1:	c0a192                                    	movi	a9, 0x1c0
100015e4:	000386                                    	j	100015f6 <com_isr_event+0xb6>

100015e7 <com_isr_event+0xa7>:
100015e7:	cca192                                    	movi	a9, 0x1cc
100015ea:	50c782                                    	addi	a8, a7, 80
100015ed:	0001c6                                    	j	100015f8 <com_isr_event+0xb8>

100015f0 <com_isr_event+0xb0>:
100015f0:	d0a082                                    	movi	a8, 208
100015f3:	d8a192                                    	movi	a9, 0x1d8

100015f6 <com_isr_event+0xb6>:
100015f6:	878a                                    	add.n	a8, a7, a8
100015f8:	c69a                                    	add.n	a12, a6, a9
100015fa:	a05550                                    	addx4	a5, a5, a5
100015fd:	a0f560                                    	addx4	a15, a5, a6
10001600:	b02280                                    	addx8	a2, a2, a8
10001603:	102fa2                                    	l32i	a10, a15, 64
10001606:	fda7b1                                    	l32r	a11, 10000ca4 (1000182c <com_distinct_handler>)
10001609:	0d0c                                    	movi.n	a13, 0
1000160b:	0239                                    	s32i.n	a3, a2, 0
1000160d:	1249                                    	s32i.n	a4, a2, 4
1000160f:	ffd286                                    	j	1000155d <com_isr_event+0x1d>

10001612 <com_isr_event+0xd2>:
	...

10001614 <com_isr_interrupt_enable>:
10001614:	004136                                    	entry	a1, 32
10001617:	cbad32                                    	movi	a3, 0xfffffdcb
1000161a:	323a                                    	add.n	a3, a2, a3
1000161c:	d40c                                    	movi.n	a4, 13
1000161e:	0a3437                                    	bltu	a4, a3, 1000162c <com_isr_interrupt_enable+0x18>
10001621:	fd9e21                                    	l32r	a2, 10000c9c (100245f0 <direct_irq_config>)
10001624:	a03320                                    	addx4	a3, a3, a2
10001627:	001c46                                    	j	1000169c <com_isr_interrupt_enable+0x88>

1000162a <com_isr_interrupt_enable+0x16>:
	...

1000162c <com_isr_interrupt_enable+0x18>:
1000162c:	443520                                    	extui	a3, a2, 5, 5
1000162f:	141c                                    	movi.n	a4, 17
10001631:	6c3437                                    	bltu	a4, a3, 100016a1 <com_isr_interrupt_enable+0x8d>
10001634:	fd9af1                                    	l32r	a15, 10000c9c (100245f0 <direct_irq_config>)
10001637:	140c                                    	movi.n	a4, 1
10001639:	401200                                    	ssl	a2
1000163c:	a06330                                    	addx4	a6, a3, a3
1000163f:	415a20                                    	srli	a5, a2, 10
10001642:	a13400                                    	sll	a3, a4
10001645:	a026f0                                    	addx4	a2, a6, a15
10001648:	143526                                    	beqi	a5, 3, 10001660 <com_isr_interrupt_enable+0x4c>
1000164b:	1e2526                                    	beqi	a5, 2, 1000166d <com_isr_interrupt_enable+0x59>
1000164e:	034d                                    	mov.n	a4, a3
10001650:	291566                                    	bnei	a5, 1, 1000167d <com_isr_interrupt_enable+0x69>
10001653:	fd9651                                    	l32r	a5, 10000cac (26c1b4 <_memmap_mem_sram_end+0x2c1b4>)
10001656:	440c                                    	movi.n	a4, 4
10001658:	0568                                    	l32i.n	a6, a5, 0
1000165a:	1f8367                                    	bany	a3, a6, 1000167d <com_isr_interrupt_enable+0x69>
1000165d:	0005c6                                    	j	10001678 <com_isr_interrupt_enable+0x64>

10001660 <com_isr_interrupt_enable+0x4c>:
10001660:	fd9551                                    	l32r	a5, 10000cb4 (26c204 <_memmap_mem_sram_end+0x2c204>)
10001663:	041c                                    	movi.n	a4, 16
10001665:	0568                                    	l32i.n	a6, a5, 0
10001667:	128367                                    	bany	a3, a6, 1000167d <com_isr_interrupt_enable+0x69>
1000166a:	000286                                    	j	10001678 <com_isr_interrupt_enable+0x64>

1000166d <com_isr_interrupt_enable+0x59>:
1000166d:	fd9051                                    	l32r	a5, 10000cb0 (26c1dc <_memmap_mem_sram_end+0x2c1dc>)
10001670:	840c                                    	movi.n	a4, 8
10001672:	002562                                    	l32i	a6, a5, 0
10001675:	048367                                    	bany	a3, a6, 1000167d <com_isr_interrupt_enable+0x69>
10001678:	203630                                    	or	a3, a6, a3
1000167b:	0539                                    	s32i.n	a3, a5, 0
1000167d:	142252                                    	l32i	a5, a2, 80
10001680:	40c232                                    	addi	a3, a2, 64
10001683:	158457                                    	bany	a4, a5, 1000169c <com_isr_interrupt_enable+0x88>
10001686:	1322e2                                    	l32i	a14, a2, 76
10001689:	fd8b61                                    	l32r	a6, 10000cb8 (26c234 <_memmap_mem_sram_end+0x2c234>)
1000168c:	204540                                    	or	a4, a5, a4
1000168f:	115ec0                                    	slli	a5, a14, 4
10001692:	50c2f2                                    	addi	a15, a2, 80
10001695:	556a                                    	add.n	a5, a5, a6
10001697:	0f49                                    	s32i.n	a4, a15, 0
10001699:	006542                                    	s32i	a4, a5, 0
1000169c:	03a8                                    	l32i.n	a10, a3, 0
1000169e:	0415e5                                    	call8	100057fc <xtos_interrupt_enable>
100016a1:	f01d                                    	retw.n

100016a3 <com_isr_interrupt_enable+0x8f>:
	...

100016a4 <com_isr_interrupt_disable>:
100016a4:	004136                                    	entry	a1, 32
100016a7:	cbad32                                    	movi	a3, 0xfffffdcb
100016aa:	323a                                    	add.n	a3, a2, a3
100016ac:	0da042                                    	movi	a4, 13
100016af:	0d3437                                    	bltu	a4, a3, 100016c0 <com_isr_interrupt_disable+0x1c>
100016b2:	fd7a21                                    	l32r	a2, 10000c9c (100245f0 <direct_irq_config>)
100016b5:	a02320                                    	addx4	a2, a3, a2

100016b8 <com_isr_interrupt_disable+0x14>:
100016b8:	02a8                                    	l32i.n	a10, a2, 0
100016ba:	041765                                    	call8	10005830 <xtos_interrupt_disable>
100016bd:	002cc6                                    	j	10001774 <com_isr_interrupt_disable+0xd0>

100016c0 <com_isr_interrupt_disable+0x1c>:
100016c0:	443520                                    	extui	a3, a2, 5, 5
100016c3:	141c                                    	movi.n	a4, 17
100016c5:	02b437                                    	bgeu	a4, a3, 100016cb <com_isr_interrupt_disable+0x27>
100016c8:	002a06                                    	j	10001774 <com_isr_interrupt_disable+0xd0>
100016cb:	fd7461                                    	l32r	a6, 10000c9c (100245f0 <direct_irq_config>)
100016ce:	a0f330                                    	addx4	a15, a3, a3
100016d1:	140c                                    	movi.n	a4, 1
100016d3:	401200                                    	ssl	a2
100016d6:	415a20                                    	srli	a5, a2, 10
100016d9:	fd7731                                    	l32r	a3, 10000cb8 (26c234 <_memmap_mem_sram_end+0x2c234>)
100016dc:	a02f60                                    	addx4	a2, a15, a6
100016df:	a14400                                    	sll	a4, a4
100016e2:	7f45f6                                    	bgeui	a5, 4, 10001765 <com_isr_interrupt_disable+0xc1>
100016e5:	fd7661                                    	l32r	a6, 10000cc0 (10024188 <__switchjump_table_xp_temp_3_0>)
100016e8:	fd7371                                    	l32r	a7, 10000cb4 (26c204 <_memmap_mem_sram_end+0x2c204>)
100016eb:	a05560                                    	addx4	a5, a5, a6
100016ee:	0558                                    	l32i.n	a5, a5, 0
100016f0:	076d                                    	mov.n	a6, a7
100016f2:	0005a0                                    	jx	a5

100016f5 <com_isr_interrupt_disable+0x51>:
	...

100016f6 <com_isr_interrupt_disable+0x52>:
100016f6:	142252                                    	l32i	a5, a2, 80
100016f9:	50c2f2                                    	addi	a15, a2, 80
100016fc:	650457                                    	bnone	a4, a5, 10001765 <com_isr_interrupt_disable+0xc1>
100016ff:	132262                                    	l32i	a6, a2, 76
10001702:	104540                                    	and	a4, a5, a4
10001705:	11e6c0                                    	slli	a14, a6, 4
10001708:	304540                                    	xor	a4, a5, a4
1000170b:	5e3a                                    	add.n	a5, a14, a3
1000170d:	0f49                                    	s32i.n	a4, a15, 0
1000170f:	0549                                    	s32i.n	a4, a5, 0
10001711:	001406                                    	j	10001765 <com_isr_interrupt_disable+0xc1>

10001714 <com_isr_interrupt_disable+0x70>:
10001714:	fd6661                                    	l32r	a6, 10000cac (26c1b4 <_memmap_mem_sram_end+0x2c1b4>)
10001717:	0658                                    	l32i.n	a5, a6, 0
10001719:	070457                                    	bnone	a4, a5, 10001724 <com_isr_interrupt_disable+0x80>
1000171c:	104540                                    	and	a4, a5, a4
1000171f:	305540                                    	xor	a5, a5, a4
10001722:	0659                                    	s32i.n	a5, a6, 0

10001724 <com_isr_interrupt_disable+0x80>:
10001724:	d5fc                                    	bnez.n	a5, 10001765 <com_isr_interrupt_disable+0xc1>
10001726:	fd6541                                    	l32r	a4, 10000cbc (26c2d4 <_memmap_mem_sram_end+0x2c2d4>)
10001729:	b67c                                    	movi.n	a6, -5
1000172b:	000bc6                                    	j	1000175e <com_isr_interrupt_disable+0xba>

1000172e <com_isr_interrupt_disable+0x8a>:
1000172e:	fd6061                                    	l32r	a6, 10000cb0 (26c1dc <_memmap_mem_sram_end+0x2c1dc>)
10001731:	0658                                    	l32i.n	a5, a6, 0
10001733:	070457                                    	bnone	a4, a5, 1000173e <com_isr_interrupt_disable+0x9a>
10001736:	104540                                    	and	a4, a5, a4
10001739:	305540                                    	xor	a5, a5, a4
1000173c:	0659                                    	s32i.n	a5, a6, 0

1000173e <com_isr_interrupt_disable+0x9a>:
1000173e:	35ec                                    	bnez.n	a5, 10001765 <com_isr_interrupt_disable+0xc1>
10001740:	fd5f41                                    	l32r	a4, 10000cbc (26c2d4 <_memmap_mem_sram_end+0x2c2d4>)
10001743:	767c                                    	movi.n	a6, -9
10001745:	000546                                    	j	1000175e <com_isr_interrupt_disable+0xba>

10001748 <com_isr_interrupt_disable+0xa4>:
	...

10001749 <com_isr_interrupt_disable+0xa5>:
10001749:	0758                                    	l32i.n	a5, a7, 0
1000174b:	070457                                    	bnone	a4, a5, 10001756 <com_isr_interrupt_disable+0xb2>
1000174e:	104540                                    	and	a4, a5, a4
10001751:	305540                                    	xor	a5, a5, a4
10001754:	0659                                    	s32i.n	a5, a6, 0

10001756 <com_isr_interrupt_disable+0xb2>:
10001756:	b5cc                                    	bnez.n	a5, 10001765 <com_isr_interrupt_disable+0xc1>
10001758:	fd5941                                    	l32r	a4, 10000cbc (26c2d4 <_memmap_mem_sram_end+0x2c2d4>)
1000175b:	efaf62                                    	movi	a6, -17
1000175e:	0458                                    	l32i.n	a5, a4, 0
10001760:	105560                                    	and	a5, a5, a6
10001763:	0459                                    	s32i.n	a5, a4, 0
10001765:	132242                                    	l32i	a4, a2, 76
10001768:	40c222                                    	addi	a2, a2, 64
1000176b:	1144c0                                    	slli	a4, a4, 4
1000176e:	343a                                    	add.n	a3, a4, a3
10001770:	0338                                    	l32i.n	a3, a3, 0
10001772:	238c                                    	beqz.n	a3, 10001778 <com_isr_interrupt_disable+0xd4>
10001774:	f01d                                    	retw.n

10001776 <com_isr_interrupt_disable+0xd2>:
	...

10001778 <com_isr_interrupt_disable+0xd4>:
10001778:	ffcf06                                    	j	100016b8 <com_isr_interrupt_disable+0x14>

1000177b <com_isr_interrupt_disable+0xd7>:
	...

1000177c <com_isr_ext_int>:
1000177c:	004136                                    	entry	a1, 32
1000177f:	fd5131                                    	l32r	a3, 10000cc4 (26c6b4 <_memmap_mem_sram_end+0x2c6b4>)
10001782:	1122c0                                    	slli	a2, a2, 4
10001785:	223a                                    	add.n	a2, a2, a3
10001787:	1f0c                                    	movi.n	a15, 1
10001789:	02f9                                    	s32i.n	a15, a2, 0
1000178b:	f01d                                    	retw.n

1000178d <com_isr_ext_int+0x11>:
1000178d:	000000                                        ...

10001790 <com_mb_isr_trigger>:
10001790:	004136                                    	entry	a1, 32
10001793:	0d82f6                                    	bgeui	a2, 8, 100017a4 <com_mb_isr_trigger+0x14>
10001796:	fd4c41                                    	l32r	a4, 10000cc8 (26c04c <_memmap_mem_sram_end+0x2c04c>)
10001799:	1122c0                                    	slli	a2, a2, 4
1000179c:	224a                                    	add.n	a2, a2, a4
1000179e:	0239                                    	s32i.n	a3, a2, 0
100017a0:	f01d                                    	retw.n

100017a2 <com_mb_isr_trigger+0x12>:
	...

100017a4 <com_mb_isr_trigger+0x14>:
100017a4:	fd4a41                                    	l32r	a4, 10000ccc (26c0a0 <_memmap_mem_sram_end+0x2c0a0>)
100017a7:	a02240                                    	addx4	a2, a2, a4
100017aa:	0239                                    	s32i.n	a3, a2, 0
100017ac:	f01d                                    	retw.n

100017ae <com_mb_isr_trigger+0x1e>:
	...

100017b0 <com_mb_isr_clear>:
100017b0:	004136                                    	entry	a1, 32
100017b3:	130c                                    	movi.n	a3, 1
100017b5:	401200                                    	ssl	a2
100017b8:	fd46f1                                    	l32r	a15, 10000cd0 (26c1a8 <_memmap_mem_sram_end+0x2c1a8>)
100017bb:	a13300                                    	sll	a3, a3
100017be:	0f39                                    	s32i.n	a3, a15, 0
100017c0:	f01d                                    	retw.n

100017c2 <com_mb_isr_clear+0x12>:
	...

100017c4 <com_unhandled_interrupt>:
100017c4:	004136                                    	entry	a1, 32
100017c7:	28a0a2                                    	movi	a10, 40
100017ca:	20b220                                    	or	a11, a2, a2
100017cd:	011e65                                    	call8	100029b4 <com_send_rb_e_IRQ_ERR>
100017d0:	02ad                                    	mov.n	a10, a2
100017d2:	0405e5                                    	call8	10005830 <xtos_interrupt_disable>
100017d5:	f01d                                    	retw.n

100017d7 <com_unhandled_interrupt+0x13>:
	...

100017d8 <com_isr_init>:
100017d8:	004136                                    	entry	a1, 32
100017db:	fd3061                                    	l32r	a6, 10000c9c (100245f0 <direct_irq_config>)
100017de:	cca1f2                                    	movi	a15, 0x1cc
100017e1:	fd3031                                    	l32r	a3, 10000ca4 (1000182c <com_distinct_handler>)
100017e4:	26fa                                    	add.n	a2, a6, a15
100017e6:	fd2e41                                    	l32r	a4, 10000ca0 (10024f10 <reg4_irq_config>)
100017e9:	fd3a51                                    	l32r	a5, 10000cd4 (10001488 <com_edge_irq_handler>)
100017ec:	1e0c                                    	movi.n	a14, 1
100017ee:	4226a2                                    	l32i	a10, a6, 0x108
100017f1:	0d0c                                    	movi.n	a13, 0
100017f3:	02cd                                    	mov.n	a12, a2
100017f5:	03bd                                    	mov.n	a11, a3
100017f7:	186452                                    	s32i	a5, a4, 96
100017fa:	1964e2                                    	s32i	a14, a4, 100
100017fd:	040665                                    	call8	10005864 <xtos_set_interrupt_handler>
10001800:	270c                                    	movi.n	a7, 2
10001802:	4226a2                                    	l32i	a10, a6, 0x108
10001805:	0d0c                                    	movi.n	a13, 0
10001807:	03bd                                    	mov.n	a11, a3
10001809:	02cd                                    	mov.n	a12, a2
1000180b:	1a6452                                    	s32i	a5, a4, 104
1000180e:	1b6472                                    	s32i	a7, a4, 108
10001811:	040525                                    	call8	10005864 <xtos_set_interrupt_handler>
10001814:	3f0c                                    	movi.n	a15, 3
10001816:	4226a2                                    	l32i	a10, a6, 0x108
10001819:	0d0c                                    	movi.n	a13, 0
1000181b:	03bd                                    	mov.n	a11, a3
1000181d:	02cd                                    	mov.n	a12, a2
1000181f:	1c6452                                    	s32i	a5, a4, 112
10001822:	1d64f2                                    	s32i	a15, a4, 116
10001825:	0403e5                                    	call8	10005864 <xtos_set_interrupt_handler>
10001828:	f01d                                    	retw.n

1000182a <com_isr_init+0x52>:
	...

1000182c <com_distinct_handler>:
1000182c:	004136                                    	entry	a1, 32
1000182f:	2238                                    	l32i.n	a3, a2, 8
10001831:	140c                                    	movi.n	a4, 1
10001833:	0378                                    	l32i.n	a7, a3, 0
10001835:	030c                                    	movi.n	a3, 0
10001837:	e7ac                                    	beqz.n	a7, 10001869 <com_distinct_handler+0x3d>
10001839:	050c                                    	movi.n	a5, 0
1000183b:	0002c6                                    	j	1000184a <com_distinct_handler+0x1e>

1000183e <com_distinct_handler+0x12>:
	...

10001840 <com_distinct_handler+0x14>:
10001840:	417160                                    	srli	a7, a6, 1
10001843:	551b                                    	addi.n	a5, a5, 1
10001845:	338b                                    	addi.n	a3, a3, 8
10001847:	1e26b6                                    	bltui	a6, 2, 10001869 <com_distinct_handler+0x3d>
1000184a:	076d                                    	mov.n	a6, a7
1000184c:	f06707                                    	bbci	a7, 0, 10001840 <com_distinct_handler+0x14>
1000184f:	1278                                    	l32i.n	a7, a2, 4
10001851:	773a                                    	add.n	a7, a7, a3
10001853:	002792                                    	l32i	a9, a7, 0
10001856:	0127a2                                    	l32i	a10, a7, 4
10001859:	0009e0                                    	callx8	a9
1000185c:	401500                                    	ssl	a5
1000185f:	2278                                    	l32i.n	a7, a2, 8
10001861:	a18400                                    	sll	a8, a4
10001864:	0789                                    	s32i.n	a8, a7, 0
10001866:	fff586                                    	j	10001840 <com_distinct_handler+0x14>

10001869 <com_distinct_handler+0x3d>:
10001869:	f01d                                    	retw.n

1000186b <com_distinct_handler+0x3f>:
	...

1000186c <com_get_chip_mode>:
1000186c:	004136                                    	entry	a1, 32
1000186f:	fd1a21                                    	l32r	a2, 10000cd8 (383c008 <_memmap_mem_sram_end+0x35fc008>)
10001872:	0228                                    	l32i.n	a2, a2, 0
10001874:	042120                                    	extui	a2, a2, 1, 1
10001877:	f01d                                    	retw.n

10001879 <com_get_chip_mode+0xd>:
10001879:	00000000                                 .......

10001880 <com_bfn_chk_adj_remote>:
10001880:	008136                                    	entry	a1, 64
10001883:	7a0c                                    	movi.n	a10, 7
10001885:	005065                                    	call8	10001d8c <com_bfn_remote_set_isync_ctrl>
10001888:	0020c0                                    	memw
1000188b:	fd1431                                    	l32r	a3, 10000cdc (268c3c <_memmap_mem_sram_end+0x28c3c>)
1000188e:	090c                                    	movi.n	a9, 0
10001890:	b7a022                                    	movi	a2, 183
10001893:	4199                                    	s32i.n	a9, a1, 16
10001895:	2199                                    	s32i.n	a9, a1, 8
10001897:	0329                                    	s32i.n	a2, a3, 0
10001899:	0020c0                                    	memw
1000189c:	8328                                    	l32i.n	a2, a3, 32
1000189e:	4129                                    	s32i.n	a2, a1, 16
100018a0:	9328                                    	l32i.n	a2, a3, 36
100018a2:	2129                                    	s32i.n	a2, a1, 8
100018a4:	0399                                    	s32i.n	a9, a3, 0
100018a6:	4148                                    	l32i.n	a4, a1, 16
100018a8:	6149                                    	s32i.n	a4, a1, 24
100018aa:	21f8                                    	l32i.n	a15, a1, 8
100018ac:	fd0d81                                    	l32r	a8, 10000ce0 (10025530 <com_bfn_8inst_cfg>)
100018af:	31f9                                    	s32i.n	a15, a1, 12
100018b1:	fe7c                                    	movi.n	a14, -1
100018b3:	140832                                    	l8ui	a3, a8, 20
100018b6:	4128e0                                    	srli	a2, a14, 8
100018b9:	8868                                    	l32i.n	a6, a8, 32
100018bb:	105420                                    	and	a5, a4, a2
100018be:	757840                                    	extui	a7, a4, 24, 8
100018c1:	0e8316                                    	beqz	a3, 100019ad <com_bfn_chk_adj_remote+0x12d>
100018c4:	fd0831                                    	l32r	a3, 10000ce4 (507f054 <_memmap_mem_sram_end+0x4e3f054>)
100018c7:	0a0c                                    	movi.n	a10, 0
100018c9:	03b8                                    	l32i.n	a11, a3, 0
100018cb:	0c0c                                    	movi.n	a12, 0
100018cd:	c094b0                                    	sub	a9, a4, a11
100018d0:	2414b7                                    	beq	a4, a11, 100018f8 <com_bfn_chk_adj_remote+0x78>
100018d3:	103b20                                    	and	a3, a11, a2
100018d6:	623530                                    	saltu	a3, a5, a3
100018d9:	75f8b0                                    	extui	a15, a11, 24, 8
100018dc:	03dd                                    	mov.n	a13, a3
100018de:	ffa0e2                                    	movi	a14, 255
100018e1:	933630                                    	movnez	a3, a6, a3
100018e4:	c0b7f0                                    	sub	a11, a7, a15
100018e7:	93ded0                                    	movnez	a13, a14, a13
100018ea:	393a                                    	add.n	a3, a9, a3
100018ec:	80bbd0                                    	add	a11, a11, a13
100018ef:	103320                                    	and	a3, a3, a2
100018f2:	01bb80                                    	slli	a11, a11, 24
100018f5:	80c3b0                                    	add	a12, a3, a11

100018f8 <com_bfn_chk_adj_remote+0x78>:
100018f8:	fcfc31                                    	l32r	a3, 10000ce8 (507f04c <_memmap_mem_sram_end+0x4e3f04c>)
100018fb:	fcfcb1                                    	l32r	a11, 10000cec (510f214 <_memmap_mem_sram_end+0x4ecf214>)
100018fe:	03c9                                    	s32i.n	a12, a3, 0
10001900:	0bb8                                    	l32i.n	a11, a11, 0
10001902:	ffa0c2                                    	movi	a12, 255
10001905:	0a94b7                                    	bne	a4, a11, 10001913 <com_bfn_chk_adj_remote+0x93>
10001908:	629a90                                    	saltu	a9, a10, a9
1000190b:	000a46                                    	j	10001938 <com_bfn_chk_adj_remote+0xb8>

1000190e <com_bfn_chk_adj_remote+0x8e>:
1000190e:	00000000                                 .....

10001913 <com_bfn_chk_adj_remote+0x93>:
10001913:	103b20                                    	and	a3, a11, a2
10001916:	623530                                    	saltu	a3, a5, a3
10001919:	03ad                                    	mov.n	a10, a3
1000191b:	75e8b0                                    	extui	a14, a11, 24, 8
1000191e:	93ac30                                    	movnez	a10, a12, a3
10001921:	c0d4b0                                    	sub	a13, a4, a11
10001924:	933630                                    	movnez	a3, a6, a3
10001927:	c0b7e0                                    	sub	a11, a7, a14
1000192a:	3d3a                                    	add.n	a3, a13, a3
1000192c:	fbaa                                    	add.n	a15, a11, a10
1000192e:	103320                                    	and	a3, a3, a2
10001931:	01af80                                    	slli	a10, a15, 24
10001934:	190c                                    	movi.n	a9, 1
10001936:	a3aa                                    	add.n	a10, a3, a10
10001938:	fcee31                                    	l32r	a3, 10000cf0 (510f20c <_memmap_mem_sram_end+0x4ecf20c>)
1000193b:	fceeb1                                    	l32r	a11, 10000cf4 (41f0714 <_memmap_mem_sram_end+0x3fb0714>)
1000193e:	03a9                                    	s32i.n	a10, a3, 0
10001940:	0bb8                                    	l32i.n	a11, a11, 0
10001942:	0a0c                                    	movi.n	a10, 0
10001944:	0c0c                                    	movi.n	a12, 0
10001946:	2714b7                                    	beq	a4, a11, 10001971 <com_bfn_chk_adj_remote+0xf1>
10001949:	103b20                                    	and	a3, a11, a2
1000194c:	623530                                    	saltu	a3, a5, a3
1000194f:	ffa0e2                                    	movi	a14, 255
10001952:	03fd                                    	mov.n	a15, a3
10001954:	93fe30                                    	movnez	a15, a14, a3
10001957:	75e8b0                                    	extui	a14, a11, 24, 8
1000195a:	c0d4b0                                    	sub	a13, a4, a11
1000195d:	933630                                    	movnez	a3, a6, a3
10001960:	c0b7e0                                    	sub	a11, a7, a14
10001963:	3d3a                                    	add.n	a3, a13, a3
10001965:	fbfa                                    	add.n	a15, a11, a15
10001967:	103320                                    	and	a3, a3, a2
1000196a:	01bf80                                    	slli	a11, a15, 24
1000196d:	190c                                    	movi.n	a9, 1
1000196f:	c3ba                                    	add.n	a12, a3, a11
10001971:	fce131                                    	l32r	a3, 10000cf8 (41f070c <_memmap_mem_sram_end+0x3fb070c>)
10001974:	fce2b1                                    	l32r	a11, 10000cfc (4501514 <_memmap_mem_sram_end+0x42c1514>)
10001977:	03c9                                    	s32i.n	a12, a3, 0
10001979:	0bb8                                    	l32i.n	a11, a11, 0
1000197b:	ffa0c2                                    	movi	a12, 255
1000197e:	2614b7                                    	beq	a4, a11, 100019a8 <com_bfn_chk_adj_remote+0x128>
10001981:	103b20                                    	and	a3, a11, a2
10001984:	623530                                    	saltu	a3, a5, a3
10001987:	03ad                                    	mov.n	a10, a3
10001989:	75e8b0                                    	extui	a14, a11, 24, 8
1000198c:	93ac30                                    	movnez	a10, a12, a3
1000198f:	c0d4b0                                    	sub	a13, a4, a11
10001992:	933630                                    	movnez	a3, a6, a3
10001995:	c0b7e0                                    	sub	a11, a7, a14
10001998:	3d3a                                    	add.n	a3, a13, a3
1000199a:	fbaa                                    	add.n	a15, a11, a10
1000199c:	103320                                    	and	a3, a3, a2
1000199f:	01af80                                    	slli	a10, a15, 24
100019a2:	01a092                                    	movi	a9, 1
100019a5:	80a3a0                                    	add	a10, a3, a10
100019a8:	fcd631                                    	l32r	a3, 10000d00 (450150c <_memmap_mem_sram_end+0x42c150c>)
100019ab:	03a9                                    	s32i.n	a10, a3, 0
100019ad:	150832                                    	l8ui	a3, a8, 21
100019b0:	fcd5b1                                    	l32r	a11, 10000d04 (50ff054 <_memmap_mem_sram_end+0x4ebf054>)
100019b3:	0dd316                                    	beqz	a3, 10001a94 <com_bfn_chk_adj_remote+0x214>
100019b6:	0a0c                                    	movi.n	a10, 0
100019b8:	0bb8                                    	l32i.n	a11, a11, 0
100019ba:	0c0c                                    	movi.n	a12, 0
100019bc:	2814b7                                    	beq	a4, a11, 100019e8 <com_bfn_chk_adj_remote+0x168>
100019bf:	103b20                                    	and	a3, a11, a2
100019c2:	623530                                    	saltu	a3, a5, a3
100019c5:	ffa0e2                                    	movi	a14, 255
100019c8:	03fd                                    	mov.n	a15, a3
100019ca:	93fe30                                    	movnez	a15, a14, a3
100019cd:	75e8b0                                    	extui	a14, a11, 24, 8
100019d0:	c0d4b0                                    	sub	a13, a4, a11
100019d3:	933630                                    	movnez	a3, a6, a3
100019d6:	c0b7e0                                    	sub	a11, a7, a14
100019d9:	3d3a                                    	add.n	a3, a13, a3
100019db:	fbfa                                    	add.n	a15, a11, a15
100019dd:	103320                                    	and	a3, a3, a2
100019e0:	01bf80                                    	slli	a11, a15, 24
100019e3:	190c                                    	movi.n	a9, 1
100019e5:	80c3b0                                    	add	a12, a3, a11
100019e8:	fcc831                                    	l32r	a3, 10000d08 (50ff04c <_memmap_mem_sram_end+0x4ebf04c>)
100019eb:	fcc8b1                                    	l32r	a11, 10000d0c (511f214 <_memmap_mem_sram_end+0x4edf214>)
100019ee:	03c9                                    	s32i.n	a12, a3, 0
100019f0:	0bb8                                    	l32i.n	a11, a11, 0
100019f2:	ffa0c2                                    	movi	a12, 255
100019f5:	2414b7                                    	beq	a4, a11, 10001a1d <com_bfn_chk_adj_remote+0x19d>
100019f8:	103b20                                    	and	a3, a11, a2
100019fb:	623530                                    	saltu	a3, a5, a3
100019fe:	03ad                                    	mov.n	a10, a3
10001a00:	75e8b0                                    	extui	a14, a11, 24, 8
10001a03:	93ac30                                    	movnez	a10, a12, a3
10001a06:	c0d4b0                                    	sub	a13, a4, a11
10001a09:	933630                                    	movnez	a3, a6, a3
10001a0c:	c0b7e0                                    	sub	a11, a7, a14
10001a0f:	3d3a                                    	add.n	a3, a13, a3
10001a11:	fbaa                                    	add.n	a15, a11, a10
10001a13:	103320                                    	and	a3, a3, a2
10001a16:	01af80                                    	slli	a10, a15, 24
10001a19:	190c                                    	movi.n	a9, 1
10001a1b:	a3aa                                    	add.n	a10, a3, a10
10001a1d:	fcbc31                                    	l32r	a3, 10000d10 (511f20c <_memmap_mem_sram_end+0x4edf20c>)
10001a20:	fcbdb1                                    	l32r	a11, 10000d14 (43f0714 <_memmap_mem_sram_end+0x41b0714>)
10001a23:	03a9                                    	s32i.n	a10, a3, 0
10001a25:	0bb8                                    	l32i.n	a11, a11, 0
10001a27:	0a0c                                    	movi.n	a10, 0
10001a29:	0c0c                                    	movi.n	a12, 0
10001a2b:	2914b7                                    	beq	a4, a11, 10001a58 <com_bfn_chk_adj_remote+0x1d8>
10001a2e:	103b20                                    	and	a3, a11, a2
10001a31:	623530                                    	saltu	a3, a5, a3
10001a34:	ffa0e2                                    	movi	a14, 255
10001a37:	03fd                                    	mov.n	a15, a3
10001a39:	93fe30                                    	movnez	a15, a14, a3
10001a3c:	75e8b0                                    	extui	a14, a11, 24, 8
10001a3f:	c0d4b0                                    	sub	a13, a4, a11
10001a42:	933630                                    	movnez	a3, a6, a3
10001a45:	c0b7e0                                    	sub	a11, a7, a14
10001a48:	3d3a                                    	add.n	a3, a13, a3
10001a4a:	fbfa                                    	add.n	a15, a11, a15
10001a4c:	103320                                    	and	a3, a3, a2
10001a4f:	01bf80                                    	slli	a11, a15, 24
10001a52:	01a092                                    	movi	a9, 1
10001a55:	80c3b0                                    	add	a12, a3, a11
10001a58:	fcb031                                    	l32r	a3, 10000d18 (43f070c <_memmap_mem_sram_end+0x41b070c>)
10001a5b:	fcb0b1                                    	l32r	a11, 10000d1c (4701514 <_memmap_mem_sram_end+0x44c1514>)
10001a5e:	03c9                                    	s32i.n	a12, a3, 0
10001a60:	0bb8                                    	l32i.n	a11, a11, 0
10001a62:	ffa0c2                                    	movi	a12, 255
10001a65:	2414b7                                    	beq	a4, a11, 10001a8d <com_bfn_chk_adj_remote+0x20d>
10001a68:	103b20                                    	and	a3, a11, a2
10001a6b:	623530                                    	saltu	a3, a5, a3
10001a6e:	03ad                                    	mov.n	a10, a3
10001a70:	75e8b0                                    	extui	a14, a11, 24, 8
10001a73:	93ac30                                    	movnez	a10, a12, a3
10001a76:	c0d4b0                                    	sub	a13, a4, a11
10001a79:	933630                                    	movnez	a3, a6, a3
10001a7c:	c0b7e0                                    	sub	a11, a7, a14
10001a7f:	3d3a                                    	add.n	a3, a13, a3
10001a81:	fbaa                                    	add.n	a15, a11, a10
10001a83:	103320                                    	and	a3, a3, a2
10001a86:	01af80                                    	slli	a10, a15, 24
10001a89:	190c                                    	movi.n	a9, 1
10001a8b:	a3aa                                    	add.n	a10, a3, a10
10001a8d:	fca431                                    	l32r	a3, 10000d20 (470150c <_memmap_mem_sram_end+0x44c150c>)
10001a90:	f03d                                    	nop.n
10001a92:	03a9                                    	s32i.n	a10, a3, 0
10001a94:	180832                                    	l8ui	a3, a8, 24
10001a97:	fca3b1                                    	l32r	a11, 10000d24 (49f3114 <_memmap_mem_sram_end+0x47b3114>)
10001a9a:	040316                                    	beqz	a3, 10001ade <com_bfn_chk_adj_remote+0x25e>
10001a9d:	0a0c                                    	movi.n	a10, 0
10001a9f:	0bc8                                    	l32i.n	a12, a11, 0
10001aa1:	0d0c                                    	movi.n	a13, 0
10001aa3:	c0b4c0                                    	sub	a11, a4, a12
10001aa6:	2214c7                                    	beq	a4, a12, 10001acc <com_bfn_chk_adj_remote+0x24c>
10001aa9:	103c20                                    	and	a3, a12, a2
10001aac:	623530                                    	saltu	a3, a5, a3
10001aaf:	75f8c0                                    	extui	a15, a12, 24, 8
10001ab2:	03ed                                    	mov.n	a14, a3
10001ab4:	ffa0d2                                    	movi	a13, 255
10001ab7:	933630                                    	movnez	a3, a6, a3
10001aba:	c0c7f0                                    	sub	a12, a7, a15
10001abd:	93ede0                                    	movnez	a14, a13, a14
10001ac0:	3b3a                                    	add.n	a3, a11, a3
10001ac2:	ccea                                    	add.n	a12, a12, a14
10001ac4:	103320                                    	and	a3, a3, a2
10001ac7:	01cc80                                    	slli	a12, a12, 24
10001aca:	d3ca                                    	add.n	a13, a3, a12
10001acc:	fc9731                                    	l32r	a3, 10000d28 (49f310c <_memmap_mem_sram_end+0x47b310c>)
10001acf:	62aab0                                    	saltu	a10, a10, a11
10001ad2:	71a9                                    	s32i.n	a10, a1, 28
10001ad4:	03d9                                    	s32i.n	a13, a3, 0
10001ad6:	190832                                    	l8ui	a3, a8, 25
10001ad9:	b3cc                                    	bnez.n	a3, 10001ae8 <com_bfn_chk_adj_remote+0x268>
10001adb:	001106                                    	j	10001b23 <com_bfn_chk_adj_remote+0x2a3>

10001ade <com_bfn_chk_adj_remote+0x25e>:
10001ade:	030c                                    	movi.n	a3, 0
10001ae0:	076132                                    	s32i	a3, a1, 28
10001ae3:	190832                                    	l8ui	a3, a8, 25
10001ae6:	93bc                                    	beqz.n	a3, 10001b23 <com_bfn_chk_adj_remote+0x2a3>
10001ae8:	fc9131                                    	l32r	a3, 10000d2c (4bf3114 <_memmap_mem_sram_end+0x49b3114>)
10001aeb:	0c0c                                    	movi.n	a12, 0
10001aed:	03b8                                    	l32i.n	a11, a3, 0
10001aef:	ffa0a2                                    	movi	a10, 255
10001af2:	2614b7                                    	beq	a4, a11, 10001b1c <com_bfn_chk_adj_remote+0x29c>
10001af5:	103b20                                    	and	a3, a11, a2
10001af8:	623530                                    	saltu	a3, a5, a3
10001afb:	03ed                                    	mov.n	a14, a3
10001afd:	75d8b0                                    	extui	a13, a11, 24, 8
10001b00:	93ea30                                    	movnez	a14, a10, a3
10001b03:	c0f4b0                                    	sub	a15, a4, a11
10001b06:	933630                                    	movnez	a3, a6, a3
10001b09:	c0b7d0                                    	sub	a11, a7, a13
10001b0c:	3f3a                                    	add.n	a3, a15, a3
10001b0e:	ebea                                    	add.n	a14, a11, a14
10001b10:	1f0c                                    	movi.n	a15, 1
10001b12:	103320                                    	and	a3, a3, a2
10001b15:	01be80                                    	slli	a11, a14, 24
10001b18:	c3ba                                    	add.n	a12, a3, a11
10001b1a:	71f9                                    	s32i.n	a15, a1, 28
10001b1c:	fc8531                                    	l32r	a3, 10000d30 (4bf310c <_memmap_mem_sram_end+0x49b310c>)
10001b1f:	f03d                                    	nop.n
10001b21:	03c9                                    	s32i.n	a12, a3, 0
10001b23:	1a0832                                    	l8ui	a3, a8, 26
10001b26:	fc83a1                                    	l32r	a10, 10000d34 (4df3114 <_memmap_mem_sram_end+0x4bb3114>)
10001b29:	63bc                                    	beqz.n	a3, 10001b63 <com_bfn_chk_adj_remote+0x2e3>
10001b2b:	0c0c                                    	movi.n	a12, 0
10001b2d:	0ab8                                    	l32i.n	a11, a10, 0
10001b2f:	ffa0a2                                    	movi	a10, 255
10001b32:	2614b7                                    	beq	a4, a11, 10001b5c <com_bfn_chk_adj_remote+0x2dc>
10001b35:	103b20                                    	and	a3, a11, a2
10001b38:	623530                                    	saltu	a3, a5, a3
10001b3b:	03ed                                    	mov.n	a14, a3
10001b3d:	75d8b0                                    	extui	a13, a11, 24, 8
10001b40:	93ea30                                    	movnez	a14, a10, a3
10001b43:	c0f4b0                                    	sub	a15, a4, a11
10001b46:	933630                                    	movnez	a3, a6, a3
10001b49:	c0b7d0                                    	sub	a11, a7, a13
10001b4c:	3f3a                                    	add.n	a3, a15, a3
10001b4e:	ebea                                    	add.n	a14, a11, a14
10001b50:	1f0c                                    	movi.n	a15, 1
10001b52:	103320                                    	and	a3, a3, a2
10001b55:	01be80                                    	slli	a11, a14, 24
10001b58:	c3ba                                    	add.n	a12, a3, a11
10001b5a:	71f9                                    	s32i.n	a15, a1, 28
10001b5c:	fc7731                                    	l32r	a3, 10000d38 (4df310c <_memmap_mem_sram_end+0x4bb310c>)
10001b5f:	f03d                                    	nop.n
10001b61:	03c9                                    	s32i.n	a12, a3, 0
10001b63:	1b0832                                    	l8ui	a3, a8, 27
10001b66:	fc75a1                                    	l32r	a10, 10000d3c (4ff3114 <_memmap_mem_sram_end+0x4db3114>)
10001b69:	63bc                                    	beqz.n	a3, 10001ba3 <com_bfn_chk_adj_remote+0x323>
10001b6b:	0c0c                                    	movi.n	a12, 0
10001b6d:	0ab8                                    	l32i.n	a11, a10, 0
10001b6f:	ffa0a2                                    	movi	a10, 255
10001b72:	2614b7                                    	beq	a4, a11, 10001b9c <com_bfn_chk_adj_remote+0x31c>
10001b75:	103b20                                    	and	a3, a11, a2
10001b78:	623530                                    	saltu	a3, a5, a3
10001b7b:	03ed                                    	mov.n	a14, a3
10001b7d:	75d8b0                                    	extui	a13, a11, 24, 8
10001b80:	93ea30                                    	movnez	a14, a10, a3
10001b83:	c0f4b0                                    	sub	a15, a4, a11
10001b86:	933630                                    	movnez	a3, a6, a3
10001b89:	c0b7d0                                    	sub	a11, a7, a13
10001b8c:	3f3a                                    	add.n	a3, a15, a3
10001b8e:	ebea                                    	add.n	a14, a11, a14
10001b90:	1f0c                                    	movi.n	a15, 1
10001b92:	103320                                    	and	a3, a3, a2
10001b95:	01be80                                    	slli	a11, a14, 24
10001b98:	c3ba                                    	add.n	a12, a3, a11
10001b9a:	71f9                                    	s32i.n	a15, a1, 28
10001b9c:	fc6931                                    	l32r	a3, 10000d40 (4ff310c <_memmap_mem_sram_end+0x4db310c>)
10001b9f:	f03d                                    	nop.n
10001ba1:	03c9                                    	s32i.n	a12, a3, 0
10001ba3:	830c                                    	movi.n	a3, 8
10001ba5:	fc67c1                                    	l32r	a12, 10000d44 (100241a0 <com_bfn_8inst_tbl>)
10001ba8:	0b0c                                    	movi.n	a11, 0
10001baa:	ffa0d2                                    	movi	a13, 255
10001bad:	a48376                                    	loop	a3, 10001c55 <com_bfn_chk_adj_remote+0x3d5>
10001bb0:	000832                                    	l8ui	a3, a8, 0
10001bb3:	0e0c                                    	movi.n	a14, 0
10001bb5:	097316                                    	beqz	a3, 10001c50 <com_bfn_chk_adj_remote+0x3d0>
10001bb8:	3cf8                                    	l32i.n	a15, a12, 12
10001bba:	030c                                    	movi.n	a3, 0
10001bbc:	0ff8                                    	l32i.n	a15, a15, 0
10001bbe:	2414f7                                    	beq	a4, a15, 10001be6 <com_bfn_chk_adj_remote+0x366>
10001bc1:	103f20                                    	and	a3, a15, a2
10001bc4:	75a8f0                                    	extui	a10, a15, 24, 8
10001bc7:	623530                                    	saltu	a3, a5, a3
10001bca:	c0b4f0                                    	sub	a11, a4, a15
10001bcd:	c0f7a0                                    	sub	a15, a7, a10
10001bd0:	03ad                                    	mov.n	a10, a3
10001bd2:	933630                                    	movnez	a3, a6, a3
10001bd5:	93ada0                                    	movnez	a10, a13, a10
10001bd8:	3b3a                                    	add.n	a3, a11, a3
10001bda:	afaa                                    	add.n	a10, a15, a10
10001bdc:	103320                                    	and	a3, a3, a2
10001bdf:	01aa80                                    	slli	a10, a10, 24
10001be2:	1b0c                                    	movi.n	a11, 1
10001be4:	33aa                                    	add.n	a3, a3, a10
10001be6:	2ca8                                    	l32i.n	a10, a12, 8
10001be8:	0a39                                    	s32i.n	a3, a10, 0
10001bea:	232c32                                    	l32i	a3, a12, 140
10001bed:	03f8                                    	l32i.n	a15, a3, 0
10001bef:	2414f7                                    	beq	a4, a15, 10001c17 <com_bfn_chk_adj_remote+0x397>
10001bf2:	103f20                                    	and	a3, a15, a2
10001bf5:	623530                                    	saltu	a3, a5, a3
10001bf8:	75b8f0                                    	extui	a11, a15, 24, 8
10001bfb:	c0a4f0                                    	sub	a10, a4, a15
10001bfe:	03fd                                    	mov.n	a15, a3
10001c00:	933630                                    	movnez	a3, a6, a3
10001c03:	c0e7b0                                    	sub	a14, a7, a11
10001c06:	93fdf0                                    	movnez	a15, a13, a15
10001c09:	3a3a                                    	add.n	a3, a10, a3
10001c0b:	fefa                                    	add.n	a15, a14, a15
10001c0d:	103320                                    	and	a3, a3, a2
10001c10:	01af80                                    	slli	a10, a15, 24
10001c13:	1b0c                                    	movi.n	a11, 1
10001c15:	e3aa                                    	add.n	a14, a3, a10
10001c17:	222c32                                    	l32i	a3, a12, 136
10001c1a:	03e9                                    	s32i.n	a14, a3, 0
10001c1c:	432cf2                                    	l32i	a15, a12, 0x10c
10001c1f:	030c                                    	movi.n	a3, 0
10001c21:	0fe8                                    	l32i.n	a14, a15, 0
10001c23:	2414e7                                    	beq	a4, a14, 10001c4b <com_bfn_chk_adj_remote+0x3cb>
10001c26:	103e20                                    	and	a3, a14, a2
10001c29:	623530                                    	saltu	a3, a5, a3
10001c2c:	03fd                                    	mov.n	a15, a3
10001c2e:	75b8e0                                    	extui	a11, a14, 24, 8
10001c31:	c0a4e0                                    	sub	a10, a4, a14
10001c34:	933630                                    	movnez	a3, a6, a3
10001c37:	c0e7b0                                    	sub	a14, a7, a11
10001c3a:	93fdf0                                    	movnez	a15, a13, a15
10001c3d:	3a3a                                    	add.n	a3, a10, a3
10001c3f:	fefa                                    	add.n	a15, a14, a15
10001c41:	103320                                    	and	a3, a3, a2
10001c44:	01af80                                    	slli	a10, a15, 24
10001c47:	1b0c                                    	movi.n	a11, 1
10001c49:	33aa                                    	add.n	a3, a3, a10
10001c4b:	422ca2                                    	l32i	a10, a12, 0x108
10001c4e:	0a39                                    	s32i.n	a3, a10, 0
10001c50:	10ccc2                                    	addi	a12, a12, 16
10001c53:	881b                                    	addi.n	a8, a8, 1

10001c55 <com_bfn_chk_adj_remote+0x3d5>:
10001c55:	fc2281                                    	l32r	a8, 10000ce0 (10025530 <com_bfn_8inst_cfg>)
10001c58:	fc3ca1                                    	l32r	a10, 10000d48 (6705054 <_memmap_mem_sram_end+0x64c5054>)
10001c5b:	1c0832                                    	l8ui	a3, a8, 28
10001c5e:	0c0c                                    	movi.n	a12, 0
10001c60:	e3bc                                    	beqz.n	a3, 10001ca2 <com_bfn_chk_adj_remote+0x422>
10001c62:	0ae8                                    	l32i.n	a14, a10, 0
10001c64:	0f0c                                    	movi.n	a15, 0
10001c66:	c0d4e0                                    	sub	a13, a4, a14
10001c69:	2314e7                                    	beq	a4, a14, 10001c90 <com_bfn_chk_adj_remote+0x410>
10001c6c:	103e20                                    	and	a3, a14, a2
10001c6f:	75f8e0                                    	extui	a15, a14, 24, 8
10001c72:	623530                                    	saltu	a3, a5, a3
10001c75:	c0e7f0                                    	sub	a14, a7, a15
10001c78:	03fd                                    	mov.n	a15, a3
10001c7a:	ffa0a2                                    	movi	a10, 255
10001c7d:	933630                                    	movnez	a3, a6, a3
10001c80:	93faf0                                    	movnez	a15, a10, a15
10001c83:	3d3a                                    	add.n	a3, a13, a3
10001c85:	aefa                                    	add.n	a10, a14, a15
10001c87:	103320                                    	and	a3, a3, a2
10001c8a:	01aa80                                    	slli	a10, a10, 24
10001c8d:	80f3a0                                    	add	a15, a3, a10

10001c90 <com_bfn_chk_adj_remote+0x410>:
10001c90:	fc2f31                                    	l32r	a3, 10000d4c (670504c <_memmap_mem_sram_end+0x64c504c>)
10001c93:	62ccd0                                    	saltu	a12, a12, a13
10001c96:	03f9                                    	s32i.n	a15, a3, 0
10001c98:	1d0832                                    	l8ui	a3, a8, 29
10001c9b:	a3cc                                    	bnez.n	a3, 10001ca9 <com_bfn_chk_adj_remote+0x429>
10001c9d:	000fc6                                    	j	10001ce0 <com_bfn_chk_adj_remote+0x460>

10001ca0 <com_bfn_chk_adj_remote+0x420>:
	...

10001ca2 <com_bfn_chk_adj_remote+0x422>:
10001ca2:	0c0c                                    	movi.n	a12, 0
10001ca4:	1d0832                                    	l8ui	a3, a8, 29
10001ca7:	53bc                                    	beqz.n	a3, 10001ce0 <com_bfn_chk_adj_remote+0x460>
10001ca9:	fc29f1                                    	l32r	a15, 10000d50 (6f05054 <_memmap_mem_sram_end+0x6cc5054>)
10001cac:	030c                                    	movi.n	a3, 0
10001cae:	0fd8                                    	l32i.n	a13, a15, 0
10001cb0:	ffa0a2                                    	movi	a10, 255
10001cb3:	2414d7                                    	beq	a4, a13, 10001cdb <com_bfn_chk_adj_remote+0x45b>
10001cb6:	103d20                                    	and	a3, a13, a2
10001cb9:	623530                                    	saltu	a3, a5, a3
10001cbc:	03cd                                    	mov.n	a12, a3
10001cbe:	75e8d0                                    	extui	a14, a13, 24, 8
10001cc1:	93ca30                                    	movnez	a12, a10, a3
10001cc4:	c0f4d0                                    	sub	a15, a4, a13
10001cc7:	933630                                    	movnez	a3, a6, a3
10001cca:	c0d7e0                                    	sub	a13, a7, a14
10001ccd:	3f3a                                    	add.n	a3, a15, a3
10001ccf:	fdca                                    	add.n	a15, a13, a12
10001cd1:	103320                                    	and	a3, a3, a2
10001cd4:	01af80                                    	slli	a10, a15, 24
10001cd7:	1c0c                                    	movi.n	a12, 1
10001cd9:	33aa                                    	add.n	a3, a3, a10
10001cdb:	fc1ea1                                    	l32r	a10, 10000d54 (6f0504c <_memmap_mem_sram_end+0x6cc504c>)
10001cde:	0a39                                    	s32i.n	a3, a10, 0
10001ce0:	1e0832                                    	l8ui	a3, a8, 30
10001ce3:	fc1df1                                    	l32r	a15, 10000d58 (7705054 <_memmap_mem_sram_end+0x74c5054>)
10001ce6:	23bc                                    	beqz.n	a3, 10001d1c <com_bfn_chk_adj_remote+0x49c>
10001ce8:	030c                                    	movi.n	a3, 0
10001cea:	0fd8                                    	l32i.n	a13, a15, 0
10001cec:	ffa0a2                                    	movi	a10, 255
10001cef:	2414d7                                    	beq	a4, a13, 10001d17 <com_bfn_chk_adj_remote+0x497>
10001cf2:	103d20                                    	and	a3, a13, a2
10001cf5:	623530                                    	saltu	a3, a5, a3
10001cf8:	03cd                                    	mov.n	a12, a3
10001cfa:	75e8d0                                    	extui	a14, a13, 24, 8
10001cfd:	93ca30                                    	movnez	a12, a10, a3
10001d00:	c0f4d0                                    	sub	a15, a4, a13
10001d03:	933630                                    	movnez	a3, a6, a3
10001d06:	c0d7e0                                    	sub	a13, a7, a14
10001d09:	3f3a                                    	add.n	a3, a15, a3
10001d0b:	fdca                                    	add.n	a15, a13, a12
10001d0d:	103320                                    	and	a3, a3, a2
10001d10:	01af80                                    	slli	a10, a15, 24
10001d13:	1c0c                                    	movi.n	a12, 1
10001d15:	33aa                                    	add.n	a3, a3, a10
10001d17:	fc11a1                                    	l32r	a10, 10000d5c (770504c <_memmap_mem_sram_end+0x74c504c>)
10001d1a:	0a39                                    	s32i.n	a3, a10, 0
10001d1c:	1f0832                                    	l8ui	a3, a8, 31
10001d1f:	71f8                                    	l32i.n	a15, a1, 28
10001d21:	fc0fa1                                    	l32r	a10, 10000d60 (7f05054 <_memmap_mem_sram_end+0x7cc5054>)
10001d24:	2089f0                                    	or	a8, a9, a15
10001d27:	03bc                                    	beqz.n	a3, 10001d5b <com_bfn_chk_adj_remote+0x4db>
10001d29:	030c                                    	movi.n	a3, 0
10001d2b:	0a98                                    	l32i.n	a9, a10, 0
10001d2d:	ffa0a2                                    	movi	a10, 255
10001d30:	221497                                    	beq	a4, a9, 10001d56 <com_bfn_chk_adj_remote+0x4d6>
10001d33:	103920                                    	and	a3, a9, a2
10001d36:	75f890                                    	extui	a15, a9, 24, 8
10001d39:	623530                                    	saltu	a3, a5, a3
10001d3c:	c04490                                    	sub	a4, a4, a9
10001d3f:	836330                                    	moveqz	a6, a3, a3
10001d42:	c077f0                                    	sub	a7, a7, a15
10001d45:	83a330                                    	moveqz	a10, a3, a3
10001d48:	c46a                                    	add.n	a12, a4, a6
10001d4a:	d7aa                                    	add.n	a13, a7, a10
10001d4c:	10ec20                                    	and	a14, a12, a2
10001d4f:	01fd80                                    	slli	a15, a13, 24
10001d52:	1c0c                                    	movi.n	a12, 1
10001d54:	3efa                                    	add.n	a3, a14, a15
10001d56:	fc0321                                    	l32r	a2, 10000d64 (7f0504c <_memmap_mem_sram_end+0x7cc504c>)
10001d59:	0239                                    	s32i.n	a3, a2, 0
10001d5b:	2028b0                                    	or	a2, a8, a11
10001d5e:	2022c0                                    	or	a2, a2, a12
10001d61:	fbde41                                    	l32r	a4, 10000cdc (268c3c <_memmap_mem_sram_end+0x28c3c>)
10001d64:	1e6207                                    	bbci	a2, 0, 10001d86 <com_bfn_chk_adj_remote+0x506>
10001d67:	2a0c                                    	movi.n	a10, 2
10001d69:	000225                                    	call8	10001d8c <com_bfn_remote_set_isync_ctrl>
10001d6c:	0020c0                                    	memw
10001d6f:	b0a032                                    	movi	a3, 176
10001d72:	3a0c                                    	movi.n	a10, 3
10001d74:	0439                                    	s32i.n	a3, a4, 0
10001d76:	000165                                    	call8	10001d8c <com_bfn_remote_set_isync_ctrl>
10001d79:	0020c0                                    	memw
10001d7c:	0439                                    	s32i.n	a3, a4, 0
10001d7e:	0020c0                                    	memw
10001d81:	0a0c                                    	movi.n	a10, 0
10001d83:	0000a5                                    	call8	10001d8c <com_bfn_remote_set_isync_ctrl>
10001d86:	030c                                    	movi.n	a3, 0
10001d88:	0439                                    	s32i.n	a3, a4, 0
10001d8a:	f01d                                    	retw.n

10001d8c <com_bfn_remote_set_isync_ctrl>:
10001d8c:	004136                                    	entry	a1, 32
10001d8f:	fbd431                                    	l32r	a3, 10000ce0 (10025530 <com_bfn_8inst_cfg>)
10001d92:	fbf571                                    	l32r	a7, 10000d68 (507f040 <_memmap_mem_sram_end+0x4e3f040>)
10001d95:	140342                                    	l8ui	a4, a3, 20
10001d98:	fbf551                                    	l32r	a5, 10000d6c (510f200 <_memmap_mem_sram_end+0x4ecf200>)
10001d9b:	e48c                                    	beqz.n	a4, 10001dad <com_bfn_remote_set_isync_ctrl+0x21>
10001d9d:	fbf461                                    	l32r	a6, 10000d70 (41f0700 <_memmap_mem_sram_end+0x3fb0700>)
10001da0:	fbf5f1                                    	l32r	a15, 10000d74 (4501500 <_memmap_mem_sram_end+0x42c1500>)
10001da3:	0729                                    	s32i.n	a2, a7, 0
10001da5:	0529                                    	s32i.n	a2, a5, 0
10001da7:	006622                                    	s32i	a2, a6, 0
10001daa:	006f22                                    	s32i	a2, a15, 0

10001dad <com_bfn_remote_set_isync_ctrl+0x21>:
10001dad:	150342                                    	l8ui	a4, a3, 21
10001db0:	fbf271                                    	l32r	a7, 10000d78 (50ff040 <_memmap_mem_sram_end+0x4ebf040>)
10001db3:	149c                                    	beqz.n	a4, 10001dc8 <com_bfn_remote_set_isync_ctrl+0x3c>
10001db5:	fbf151                                    	l32r	a5, 10000d7c (511f200 <_memmap_mem_sram_end+0x4edf200>)
10001db8:	fbf261                                    	l32r	a6, 10000d80 (43f0700 <_memmap_mem_sram_end+0x41b0700>)
10001dbb:	fbf2f1                                    	l32r	a15, 10000d84 (4701500 <_memmap_mem_sram_end+0x44c1500>)
10001dbe:	0729                                    	s32i.n	a2, a7, 0
10001dc0:	0529                                    	s32i.n	a2, a5, 0
10001dc2:	006622                                    	s32i	a2, a6, 0
10001dc5:	006f22                                    	s32i	a2, a15, 0
10001dc8:	180342                                    	l8ui	a4, a3, 24
10001dcb:	fbef51                                    	l32r	a5, 10000d88 (49f3100 <_memmap_mem_sram_end+0x47b3100>)
10001dce:	048c                                    	beqz.n	a4, 10001dd2 <com_bfn_remote_set_isync_ctrl+0x46>
10001dd0:	0529                                    	s32i.n	a2, a5, 0
10001dd2:	190342                                    	l8ui	a4, a3, 25
10001dd5:	fbed51                                    	l32r	a5, 10000d8c (4bf3100 <_memmap_mem_sram_end+0x49b3100>)
10001dd8:	048c                                    	beqz.n	a4, 10001ddc <com_bfn_remote_set_isync_ctrl+0x50>
10001dda:	0529                                    	s32i.n	a2, a5, 0
10001ddc:	1a0342                                    	l8ui	a4, a3, 26
10001ddf:	fbec51                                    	l32r	a5, 10000d90 (4df3100 <_memmap_mem_sram_end+0x4bb3100>)
10001de2:	048c                                    	beqz.n	a4, 10001de6 <com_bfn_remote_set_isync_ctrl+0x5a>
10001de4:	0529                                    	s32i.n	a2, a5, 0
10001de6:	1b0342                                    	l8ui	a4, a3, 27
10001de9:	fbea51                                    	l32r	a5, 10000d94 (4ff3100 <_memmap_mem_sram_end+0x4db3100>)
10001dec:	048c                                    	beqz.n	a4, 10001df0 <com_bfn_remote_set_isync_ctrl+0x64>
10001dee:	0529                                    	s32i.n	a2, a5, 0
10001df0:	fbd541                                    	l32r	a4, 10000d44 (100241a0 <com_bfn_8inst_tbl>)
10001df3:	850c                                    	movi.n	a5, 8
10001df5:	178576                                    	loop	a5, 10001e10 <com_bfn_remote_set_isync_ctrl+0x84>
10001df8:	000352                                    	l8ui	a5, a3, 0
10001dfb:	c58c                                    	beqz.n	a5, 10001e0b <com_bfn_remote_set_isync_ctrl+0x7f>
10001dfd:	0458                                    	l32i.n	a5, a4, 0
10001dff:	0529                                    	s32i.n	a2, a5, 0
10001e01:	202452                                    	l32i	a5, a4, 128
10001e04:	0529                                    	s32i.n	a2, a5, 0
10001e06:	402452                                    	l32i	a5, a4, 0x100
10001e09:	0529                                    	s32i.n	a2, a5, 0
10001e0b:	10c442                                    	addi	a4, a4, 16
10001e0e:	331b                                    	addi.n	a3, a3, 1

10001e10 <com_bfn_remote_set_isync_ctrl+0x84>:
10001e10:	fbb431                                    	l32r	a3, 10000ce0 (10025530 <com_bfn_8inst_cfg>)
10001e13:	fbe151                                    	l32r	a5, 10000d98 (6705040 <_memmap_mem_sram_end+0x64c5040>)
10001e16:	1c0342                                    	l8ui	a4, a3, 28
10001e19:	048c                                    	beqz.n	a4, 10001e1d <com_bfn_remote_set_isync_ctrl+0x91>
10001e1b:	0529                                    	s32i.n	a2, a5, 0

10001e1d <com_bfn_remote_set_isync_ctrl+0x91>:
10001e1d:	1d0342                                    	l8ui	a4, a3, 29
10001e20:	fbdf51                                    	l32r	a5, 10000d9c (6f05040 <_memmap_mem_sram_end+0x6cc5040>)
10001e23:	048c                                    	beqz.n	a4, 10001e27 <com_bfn_remote_set_isync_ctrl+0x9b>
10001e25:	0529                                    	s32i.n	a2, a5, 0
10001e27:	1e0342                                    	l8ui	a4, a3, 30
10001e2a:	fbdd51                                    	l32r	a5, 10000da0 (7705040 <_memmap_mem_sram_end+0x74c5040>)
10001e2d:	048c                                    	beqz.n	a4, 10001e31 <com_bfn_remote_set_isync_ctrl+0xa5>
10001e2f:	0529                                    	s32i.n	a2, a5, 0
10001e31:	1f0332                                    	l8ui	a3, a3, 31
10001e34:	fbdc41                                    	l32r	a4, 10000da4 (7f05040 <_memmap_mem_sram_end+0x7cc5040>)
10001e37:	038c                                    	beqz.n	a3, 10001e3b <com_bfn_remote_set_isync_ctrl+0xaf>
10001e39:	0429                                    	s32i.n	a2, a4, 0
10001e3b:	f01d                                    	retw.n

10001e3d <com_bfn_remote_set_isync_ctrl+0xb1>:
10001e3d:	000000                                        ...

10001e40 <com_bfn_sync>:
10001e40:	004136                                    	entry	a1, 32
10001e43:	fbd941                                    	l32r	a4, 10000da8 (268c1c <_memmap_mem_sram_end+0x28c1c>)
10001e46:	03ad                                    	mov.n	a10, a3
10001e48:	0439                                    	s32i.n	a3, a4, 0
10001e4a:	016422                                    	s32i	a2, a4, 4
10001e4d:	000325                                    	call8	10001e80 <com_bfn_remote_set_pre_time>
10001e50:	020c                                    	movi.n	a2, 0
10001e52:	2a0c                                    	movi.n	a10, 2
10001e54:	8429                                    	s32i.n	a2, a4, 32
10001e56:	fff365                                    	call8	10001d8c <com_bfn_remote_set_isync_ctrl>
10001e59:	0020c0                                    	memw
10001e5c:	b2a022                                    	movi	a2, 178
10001e5f:	0a1c                                    	movi.n	a10, 16
10001e61:	8429                                    	s32i.n	a2, a4, 32
10001e63:	fff2a5                                    	call8	10001d8c <com_bfn_remote_set_isync_ctrl>
10001e66:	0020c0                                    	memw
10001e69:	00a122                                    	movi	a2, 0x100
10001e6c:	8429                                    	s32i.n	a2, a4, 32
10001e6e:	0020c0                                    	memw
10001e71:	fb9b21                                    	l32r	a2, 10000ce0 (10025530 <com_bfn_8inst_cfg>)
10001e74:	133c                                    	movi.n	a3, 49
10001e76:	9228                                    	l32i.n	a2, a2, 36
10001e78:	202230                                    	or	a2, a2, a3
10001e7b:	9429                                    	s32i.n	a2, a4, 36
10001e7d:	f01d                                    	retw.n

10001e7f <com_bfn_sync+0x3f>:
	...

10001e80 <com_bfn_remote_set_pre_time>:
10001e80:	004136                                    	entry	a1, 32
10001e83:	fb9731                                    	l32r	a3, 10000ce0 (10025530 <com_bfn_8inst_cfg>)
10001e86:	fb9871                                    	l32r	a7, 10000ce8 (507f04c <_memmap_mem_sram_end+0x4e3f04c>)
10001e89:	140342                                    	l8ui	a4, a3, 20
10001e8c:	fb9951                                    	l32r	a5, 10000cf0 (510f20c <_memmap_mem_sram_end+0x4ecf20c>)
10001e8f:	f48c                                    	beqz.n	a4, 10001ea2 <com_bfn_remote_set_pre_time+0x22>
10001e91:	fb9961                                    	l32r	a6, 10000cf8 (41f070c <_memmap_mem_sram_end+0x3fb070c>)
10001e94:	fb9bf1                                    	l32r	a15, 10000d00 (450150c <_memmap_mem_sram_end+0x42c150c>)
10001e97:	006722                                    	s32i	a2, a7, 0
10001e9a:	006522                                    	s32i	a2, a5, 0
10001e9d:	006622                                    	s32i	a2, a6, 0
10001ea0:	0f29                                    	s32i.n	a2, a15, 0

10001ea2 <com_bfn_remote_set_pre_time+0x22>:
10001ea2:	150342                                    	l8ui	a4, a3, 21
10001ea5:	fb9871                                    	l32r	a7, 10000d08 (50ff04c <_memmap_mem_sram_end+0x4ebf04c>)
10001ea8:	149c                                    	beqz.n	a4, 10001ebd <com_bfn_remote_set_pre_time+0x3d>
10001eaa:	fb9951                                    	l32r	a5, 10000d10 (511f20c <_memmap_mem_sram_end+0x4edf20c>)
10001ead:	fb9a61                                    	l32r	a6, 10000d18 (43f070c <_memmap_mem_sram_end+0x41b070c>)
10001eb0:	fb9cf1                                    	l32r	a15, 10000d20 (470150c <_memmap_mem_sram_end+0x44c150c>)
10001eb3:	0729                                    	s32i.n	a2, a7, 0
10001eb5:	0529                                    	s32i.n	a2, a5, 0
10001eb7:	006622                                    	s32i	a2, a6, 0
10001eba:	006f22                                    	s32i	a2, a15, 0
10001ebd:	180342                                    	l8ui	a4, a3, 24
10001ec0:	fb9a51                                    	l32r	a5, 10000d28 (49f310c <_memmap_mem_sram_end+0x47b310c>)
10001ec3:	048c                                    	beqz.n	a4, 10001ec7 <com_bfn_remote_set_pre_time+0x47>
10001ec5:	0529                                    	s32i.n	a2, a5, 0
10001ec7:	190342                                    	l8ui	a4, a3, 25
10001eca:	fb9951                                    	l32r	a5, 10000d30 (4bf310c <_memmap_mem_sram_end+0x49b310c>)
10001ecd:	048c                                    	beqz.n	a4, 10001ed1 <com_bfn_remote_set_pre_time+0x51>
10001ecf:	0529                                    	s32i.n	a2, a5, 0
10001ed1:	1a0342                                    	l8ui	a4, a3, 26
10001ed4:	fb9951                                    	l32r	a5, 10000d38 (4df310c <_memmap_mem_sram_end+0x4bb310c>)
10001ed7:	048c                                    	beqz.n	a4, 10001edb <com_bfn_remote_set_pre_time+0x5b>
10001ed9:	0529                                    	s32i.n	a2, a5, 0
10001edb:	1b0342                                    	l8ui	a4, a3, 27
10001ede:	fb9851                                    	l32r	a5, 10000d40 (4ff310c <_memmap_mem_sram_end+0x4db310c>)
10001ee1:	048c                                    	beqz.n	a4, 10001ee5 <com_bfn_remote_set_pre_time+0x65>
10001ee3:	0529                                    	s32i.n	a2, a5, 0
10001ee5:	fb9741                                    	l32r	a4, 10000d44 (100241a0 <com_bfn_8inst_tbl>)
10001ee8:	850c                                    	movi.n	a5, 8
10001eea:	178576                                    	loop	a5, 10001f05 <com_bfn_remote_set_pre_time+0x85>
10001eed:	000352                                    	l8ui	a5, a3, 0
10001ef0:	c58c                                    	beqz.n	a5, 10001f00 <com_bfn_remote_set_pre_time+0x80>
10001ef2:	2458                                    	l32i.n	a5, a4, 8
10001ef4:	0529                                    	s32i.n	a2, a5, 0
10001ef6:	222452                                    	l32i	a5, a4, 136
10001ef9:	0529                                    	s32i.n	a2, a5, 0
10001efb:	422452                                    	l32i	a5, a4, 0x108
10001efe:	0529                                    	s32i.n	a2, a5, 0
10001f00:	10c442                                    	addi	a4, a4, 16
10001f03:	331b                                    	addi.n	a3, a3, 1

10001f05 <com_bfn_remote_set_pre_time+0x85>:
10001f05:	fb7631                                    	l32r	a3, 10000ce0 (10025530 <com_bfn_8inst_cfg>)
10001f08:	fb9151                                    	l32r	a5, 10000d4c (670504c <_memmap_mem_sram_end+0x64c504c>)
10001f0b:	1c0342                                    	l8ui	a4, a3, 28
10001f0e:	048c                                    	beqz.n	a4, 10001f12 <com_bfn_remote_set_pre_time+0x92>
10001f10:	0529                                    	s32i.n	a2, a5, 0

10001f12 <com_bfn_remote_set_pre_time+0x92>:
10001f12:	1d0342                                    	l8ui	a4, a3, 29
10001f15:	fb8f51                                    	l32r	a5, 10000d54 (6f0504c <_memmap_mem_sram_end+0x6cc504c>)
10001f18:	048c                                    	beqz.n	a4, 10001f1c <com_bfn_remote_set_pre_time+0x9c>
10001f1a:	0529                                    	s32i.n	a2, a5, 0
10001f1c:	1e0342                                    	l8ui	a4, a3, 30
10001f1f:	fb8f51                                    	l32r	a5, 10000d5c (770504c <_memmap_mem_sram_end+0x74c504c>)
10001f22:	048c                                    	beqz.n	a4, 10001f26 <com_bfn_remote_set_pre_time+0xa6>
10001f24:	0529                                    	s32i.n	a2, a5, 0
10001f26:	1f0332                                    	l8ui	a3, a3, 31
10001f29:	fb8e41                                    	l32r	a4, 10000d64 (7f0504c <_memmap_mem_sram_end+0x7cc504c>)
10001f2c:	038c                                    	beqz.n	a3, 10001f30 <com_bfn_remote_set_pre_time+0xb0>
10001f2e:	0429                                    	s32i.n	a2, a4, 0
10001f30:	f01d                                    	retw.n

10001f32 <com_bfn_remote_set_pre_time+0xb2>:
	...

10001f34 <com_bfn_get_sysref_time>:
10001f34:	006136                                    	entry	a1, 48
10001f37:	020c                                    	movi.n	a2, 0
10001f39:	fb9ce1                                    	l32r	a14, 10000dac (268c54 <_memmap_mem_sram_end+0x28c54>)
10001f3c:	3129                                    	s32i.n	a2, a1, 12
10001f3e:	2129                                    	s32i.n	a2, a1, 8
10001f40:	0e28                                    	l32i.n	a2, a14, 0
10001f42:	2129                                    	s32i.n	a2, a1, 8
10001f44:	1ef8                                    	l32i.n	a15, a14, 4
10001f46:	31f9                                    	s32i.n	a15, a1, 12
10001f48:	3138                                    	l32i.n	a3, a1, 12
10001f4a:	2128                                    	l32i.n	a2, a1, 8
10001f4c:	f01d                                    	retw.n

10001f4e <com_bfn_get_sysref_time+0x1a>:
	...

10001f50 <com_bfn_time_adjust>:
10001f50:	004136                                    	entry	a1, 32
10001f53:	fb6221                                    	l32r	a2, 10000cdc (268c3c <_memmap_mem_sram_end+0x28c3c>)
10001f56:	030c                                    	movi.n	a3, 0
10001f58:	0239                                    	s32i.n	a3, a2, 0
10001f5a:	f01d                                    	retw.n

10001f5c <com_bfn_set_ant_mask>:
10001f5c:	004136                                    	entry	a1, 32
10001f5f:	ffa052                                    	movi	a5, 255
10001f62:	115580                                    	slli	a5, a5, 8
10001f65:	040c                                    	movi.n	a4, 0
10001f67:	105250                                    	and	a5, a2, a5
10001f6a:	fb5d61                                    	l32r	a6, 10000ce0 (10025530 <com_bfn_8inst_cfg>)
10001f6d:	625450                                    	saltu	a5, a4, a5
10001f70:	34a020                                    	extui	a10, a2, 0, 4
10001f73:	f0a072                                    	movi	a7, 240
10001f76:	748020                                    	extui	a8, a2, 0, 8
10001f79:	ff0c                                    	movi.n	a15, 15
10001f7b:	154652                                    	s8i	a5, a6, 21
10001f7e:	6254a0                                    	saltu	a5, a4, a10
10001f81:	fb0c                                    	movi.n	a11, 15
10001f83:	119f80                                    	slli	a9, a15, 8
10001f86:	107270                                    	and	a7, a2, a7
10001f89:	628480                                    	saltu	a8, a4, a8
10001f8c:	184652                                    	s8i	a5, a6, 24
10001f8f:	115b40                                    	slli	a5, a11, 12
10001f92:	144682                                    	s8i	a8, a6, 20
10001f95:	627470                                    	saltu	a7, a4, a7
10001f98:	105250                                    	and	a5, a2, a5
10001f9b:	10c290                                    	and	a12, a2, a9
10001f9e:	f42020                                    	extui	a2, a2, 0, 16
10001fa1:	348030                                    	extui	a8, a3, 0, 4
10001fa4:	194672                                    	s8i	a7, a6, 25
10001fa7:	6274c0                                    	saltu	a7, a4, a12
10001faa:	203820                                    	or	a3, a8, a2
10001fad:	8f0c                                    	movi.n	a15, 8
10001faf:	62d450                                    	saltu	a13, a4, a5
10001fb2:	62e430                                    	saltu	a14, a4, a3
10001fb5:	1a4672                                    	s8i	a7, a6, 26
10001fb8:	4171f0                                    	srli	a7, a15, 1
10001fbb:	043d                                    	mov.n	a3, a4
10001fbd:	1b46d2                                    	s8i	a13, a6, 27
10001fc0:	0846e2                                    	s8i	a14, a6, 8
10001fc3:	00a052                                    	movi	a5, 0
10001fc6:	204660                                    	or	a4, a6, a6
10001fc9:	239776                                    	loopnez	a7, 10001ff0 <com_bfn_set_ant_mask+0x94>
10001fcc:	400500                                    	ssr	a5
10001fcf:	916020                                    	srl	a6, a2
10001fd2:	752b                                    	addi.n	a7, a5, 2
10001fd4:	572b                                    	addi.n	a5, a7, 2
10001fd6:	146060                                    	extui	a6, a6, 0, 2
10001fd9:	626360                                    	saltu	a6, a3, a6
10001fdc:	400700                                    	ssr	a7
10001fdf:	917020                                    	srl	a7, a2
10001fe2:	147070                                    	extui	a7, a7, 0, 2
10001fe5:	627370                                    	saltu	a7, a3, a7
10001fe8:	004462                                    	s8i	a6, a4, 0
10001feb:	014472                                    	s8i	a7, a4, 1
10001fee:	442b                                    	addi.n	a4, a4, 2

10001ff0 <com_bfn_set_ant_mask+0x94>:
10001ff0:	fb3c21                                    	l32r	a2, 10000ce0 (10025530 <com_bfn_8inst_cfg>)
10001ff3:	043080                                    	extui	a3, a8, 0, 1
10001ff6:	044180                                    	extui	a4, a8, 1, 1
10001ff9:	04e280                                    	extui	a14, a8, 2, 1
10001ffc:	41f380                                    	srli	a15, a8, 3
10001fff:	1c4232                                    	s8i	a3, a2, 28
10002002:	1d4242                                    	s8i	a4, a2, 29
10002005:	1e42e2                                    	s8i	a14, a2, 30
10002008:	1f42f2                                    	s8i	a15, a2, 31
1000200b:	f01d                                    	retw.n

1000200d <com_bfn_set_ant_mask+0xb1>:
1000200d:	000000                                        ...

10002010 <com_bfn_is_ant_mask_set>:
10002010:	004136                                    	entry	a1, 32
10002013:	fb3321                                    	l32r	a2, 10000ce0 (10025530 <com_bfn_8inst_cfg>)
10002016:	080222                                    	l8ui	a2, a2, 8
10002019:	f01d                                    	retw.n

1000201b <com_bfn_is_ant_mask_set+0xb>:
	...

1000201c <com_bfn_init>:
1000201c:	004136                                    	entry	a1, 32
1000201f:	fb0b21                                    	l32r	a2, 10000c4c (10020314 <ax_static_data_init>)
10002022:	fb2f31                                    	l32r	a3, 10000ce0 (10025530 <com_bfn_8inst_cfg>)
10002025:	08d222                                    	addmi	a2, a2, 0x800
10002028:	700252                                    	l8ui	a5, a2, 112
1000202b:	e1a062                                    	movi	a6, 225
1000202e:	fb6041                                    	l32r	a4, 10000db0 (100247d4 <g_bfn_rmt_check>)
10002031:	8378                                    	l32i.n	a7, a3, 32
10002033:	04f050                                    	extui	a15, a5, 0, 1
10002036:	116600                                    	slli	a6, a6, 16
10002039:	142150                                    	extui	a2, a5, 1, 2
1000203c:	415350                                    	srli	a5, a5, 3
1000203f:	0044f2                                    	s8i	a15, a4, 0
10002042:	169767                                    	bne	a7, a6, 1000205c <com_bfn_init+0x40>
10002045:	080372                                    	l8ui	a7, a3, 8
10002048:	fb5b61                                    	l32r	a6, 10000db4 (e0ffff <_memmap_mem_sram_end+0xbcffff>)
1000204b:	005716                                    	beqz	a7, 10002054 <com_bfn_init+0x38>
1000204e:	fb59a1                                    	l32r	a10, 10000db4 (e0ffff <_memmap_mem_sram_end+0xbcffff>)
10002051:	003de5                                    	call8	10002430 <com_bfn_remote_ten_ms_cnt>

10002054 <com_bfn_init+0x38>:
10002054:	fb5971                                    	l32r	a7, 10000db8 (268c18 <_memmap_mem_sram_end+0x28c18>)
10002057:	0769                                    	s32i.n	a6, a7, 0
10002059:	0020c0                                    	memw
1000205c:	0155d0                                    	slli	a5, a5, 19
1000205f:	416120                                    	srli	a6, a2, 1
10002062:	11d200                                    	slli	a13, a2, 16
10002065:	936560                                    	movnez	a6, a5, a6
10002068:	93e8                                    	l32i.n	a14, a3, 36
1000206a:	26da                                    	add.n	a2, a6, a13
1000206c:	2022e0                                    	or	a2, a2, a14
1000206f:	71a4f2                                    	movi	a15, 0x471
10002072:	9329                                    	s32i.n	a2, a3, 36
10002074:	902ff0                                    	addx2	a2, a15, a15
10002077:	fb51b1                                    	l32r	a11, 10000dbc (100024e4 <com_bfn_sync_handler>)
1000207a:	0c0c                                    	movi.n	a12, 0
1000207c:	02ad                                    	mov.n	a10, a2
1000207e:	ff4c25                                    	call8	10001540 <com_isr_event>
10002081:	02ad                                    	mov.n	a10, a2
10002083:	ff6225                                    	call8	100016a4 <com_isr_interrupt_disable>
10002086:	9328                                    	l32i.n	a2, a3, 36
10002088:	fb4e51                                    	l32r	a5, 10000dc0 (fffcffce <xthals_hw_configid0+0x3ffc6d48>)
1000208b:	fb4ef1                                    	l32r	a15, 10000dc4 (268c40 <_memmap_mem_sram_end+0x28c40>)
1000208e:	102250                                    	and	a2, a2, a5
10002091:	31c222                                    	addi	a2, a2, 49
10002094:	0f29                                    	s32i.n	a2, a15, 0
10002096:	080322                                    	l8ui	a2, a3, 8
10002099:	2a0c                                    	movi.n	a10, 2
1000209b:	428c                                    	beqz.n	a2, 100020a3 <com_bfn_init+0x87>
1000209d:	ffcee5                                    	call8	10001d8c <com_bfn_remote_set_isync_ctrl>
100020a0:	0020c0                                    	memw
100020a3:	fb0e21                                    	l32r	a2, 10000cdc (268c3c <_memmap_mem_sram_end+0x28c3c>)
100020a6:	b2a052                                    	movi	a5, 178
100020a9:	0259                                    	s32i.n	a5, a2, 0
100020ab:	0020c0                                    	memw
100020ae:	000442                                    	l8ui	a4, a4, 0
100020b1:	080362                                    	l8ui	a6, a3, 8
100020b4:	041416                                    	beqz	a4, 100020f9 <com_bfn_init+0xdd>
100020b7:	03e616                                    	beqz	a6, 100020f9 <com_bfn_init+0xdd>
100020ba:	ff7c65                                    	call8	10001880 <com_bfn_chk_adj_remote>
100020bd:	fb3a41                                    	l32r	a4, 10000da8 (268c1c <_memmap_mem_sram_end+0x28c1c>)
100020c0:	050c                                    	movi.n	a5, 0
100020c2:	0459                                    	s32i.n	a5, a4, 0
100020c4:	1459                                    	s32i.n	a5, a4, 4
100020c6:	080342                                    	l8ui	a4, a3, 8
100020c9:	0a0c                                    	movi.n	a10, 0
100020cb:	648c                                    	beqz.n	a4, 100020d5 <com_bfn_init+0xb9>
100020cd:	ffdb25                                    	call8	10001e80 <com_bfn_remote_set_pre_time>
100020d0:	2a0c                                    	movi.n	a10, 2
100020d2:	ffcba5                                    	call8	10001d8c <com_bfn_remote_set_isync_ctrl>
100020d5:	0020c0                                    	memw
100020d8:	b2a042                                    	movi	a4, 178
100020db:	0249                                    	s32i.n	a4, a2, 0
100020dd:	080342                                    	l8ui	a4, a3, 8
100020e0:	3a0c                                    	movi.n	a10, 3
100020e2:	148c                                    	beqz.n	a4, 100020e7 <com_bfn_init+0xcb>
100020e4:	ffca65                                    	call8	10001d8c <com_bfn_remote_set_isync_ctrl>
100020e7:	0020c0                                    	memw
100020ea:	b0a042                                    	movi	a4, 176
100020ed:	0249                                    	s32i.n	a4, a2, 0
100020ef:	080342                                    	l8ui	a4, a3, 8
100020f2:	0a0c                                    	movi.n	a10, 0
100020f4:	148c                                    	beqz.n	a4, 100020f9 <com_bfn_init+0xdd>
100020f6:	ffc965                                    	call8	10001d8c <com_bfn_remote_set_isync_ctrl>
100020f9:	040c                                    	movi.n	a4, 0
100020fb:	0249                                    	s32i.n	a4, a2, 0
100020fd:	080322                                    	l8ui	a2, a3, 8
10002100:	150c                                    	movi.n	a5, 1
10002102:	128c                                    	beqz.n	a2, 10002107 <com_bfn_init+0xeb>
10002104:	0c4352                                    	s8i	a5, a3, 12
10002107:	f01d                                    	retw.n

10002109 <com_bfn_init+0xed>:
10002109:	000000                                        ...

1000210c <com_bfn_main_reset_time>:
1000210c:	004136                                    	entry	a1, 32
1000210f:	fb2641                                    	l32r	a4, 10000da8 (268c1c <_memmap_mem_sram_end+0x28c1c>)
10002112:	0e0c                                    	movi.n	a14, 0
10002114:	0439                                    	s32i.n	a3, a4, 0
10002116:	1429                                    	s32i.n	a2, a4, 4
10002118:	84e9                                    	s32i.n	a14, a4, 32
1000211a:	1f0c                                    	movi.n	a15, 1
1000211c:	9438                                    	l32i.n	a3, a4, 36
1000211e:	012fe0                                    	slli	a2, a15, 18
10002121:	202320                                    	or	a2, a3, a2
10002124:	9429                                    	s32i.n	a2, a4, 36
10002126:	f01d                                    	retw.n

10002128 <com_bfn_sysref_sync>:
10002128:	004136                                    	entry	a1, 32
1000212b:	fb2751                                    	l32r	a5, 10000dc8 (26c20e <_memmap_mem_sram_end+0x2c20e>)
1000212e:	faec41                                    	l32r	a4, 10000ce0 (10025530 <com_bfn_8inst_cfg>)
10002131:	000552                                    	l8ui	a5, a5, 0
10002134:	160c                                    	movi.n	a6, 1
10002136:	104462                                    	s8i	a6, a4, 16
10002139:	0a6537                                    	bbci	a5, 3, 10002147 <com_bfn_sysref_sync+0x1f>
1000213c:	160c                                    	movi.n	a6, 1
1000213e:	fb2351                                    	l32r	a5, 10000dcc (26c20c <_memmap_mem_sram_end+0x2c20c>)
10002141:	0166d0                                    	slli	a6, a6, 19
10002144:	006562                                    	s32i	a6, a5, 0

10002147 <com_bfn_sysref_sync+0x1f>:
10002147:	71a4a2                                    	movi	a10, 0x471
1000214a:	90aaa0                                    	addx2	a10, a10, a10
1000214d:	ff4c65                                    	call8	10001614 <com_isr_interrupt_enable>
10002150:	080462                                    	l8ui	a6, a4, 8
10002153:	fae251                                    	l32r	a5, 10000cdc (268c3c <_memmap_mem_sram_end+0x28c3c>)
10002156:	16ac                                    	beqz.n	a6, 1000217b <com_bfn_sysref_sync+0x53>
10002158:	0c0462                                    	l8ui	a6, a4, 12
1000215b:	070c                                    	movi.n	a7, 0
1000215d:	a6dc                                    	bnez.n	a6, 1000217b <com_bfn_sysref_sync+0x53>
1000215f:	0579                                    	s32i.n	a7, a5, 0
10002161:	8468                                    	l32i.n	a6, a4, 32
10002163:	a60b                                    	addi.n	a10, a6, -1
10002165:	002ca5                                    	call8	10002430 <com_bfn_remote_ten_ms_cnt>
10002168:	2a0c                                    	movi.n	a10, 2
1000216a:	ffc225                                    	call8	10001d8c <com_bfn_remote_set_isync_ctrl>
1000216d:	0020c0                                    	memw
10002170:	b2a062                                    	movi	a6, 178
10002173:	170c                                    	movi.n	a7, 1
10002175:	006562                                    	s32i	a6, a5, 0
10002178:	0c4472                                    	s8i	a7, a4, 12
1000217b:	fb0b61                                    	l32r	a6, 10000da8 (268c1c <_memmap_mem_sram_end+0x28c1c>)
1000217e:	03ad                                    	mov.n	a10, a3
10002180:	0639                                    	s32i.n	a3, a6, 0
10002182:	1629                                    	s32i.n	a2, a6, 4
10002184:	ffcfa5                                    	call8	10001e80 <com_bfn_remote_set_pre_time>
10002187:	020c                                    	movi.n	a2, 0
10002189:	2a0c                                    	movi.n	a10, 2
1000218b:	0529                                    	s32i.n	a2, a5, 0
1000218d:	ffbfe5                                    	call8	10001d8c <com_bfn_remote_set_isync_ctrl>
10002190:	0020c0                                    	memw
10002193:	b2a022                                    	movi	a2, 178
10002196:	0a1c                                    	movi.n	a10, 16
10002198:	0529                                    	s32i.n	a2, a5, 0
1000219a:	ffbf25                                    	call8	10001d8c <com_bfn_remote_set_isync_ctrl>
1000219d:	0020c0                                    	memw
100021a0:	00a122                                    	movi	a2, 0x100
100021a3:	0529                                    	s32i.n	a2, a5, 0
100021a5:	0020c0                                    	memw
100021a8:	9428                                    	l32i.n	a2, a4, 36
100021aa:	133c                                    	movi.n	a3, 49
100021ac:	202230                                    	or	a2, a2, a3
100021af:	9629                                    	s32i.n	a2, a6, 36
100021b1:	f01d                                    	retw.n

100021b3 <com_bfn_sysref_sync+0x8b>:
	...

100021b4 <com_bfn_soft_sync>:
100021b4:	004136                                    	entry	a1, 32
100021b7:	faca51                                    	l32r	a5, 10000ce0 (10025530 <com_bfn_8inst_cfg>)
100021ba:	fb01d1                                    	l32r	a13, 10000dc0 (fffcffce <xthals_hw_configid0+0x3ffc6d48>)
100021bd:	9578                                    	l32i.n	a7, a5, 36
100021bf:	fb0181                                    	l32r	a8, 10000dc4 (268c40 <_memmap_mem_sram_end+0x28c40>)
100021c2:	1077d0                                    	and	a7, a7, a13
100021c5:	31c7e2                                    	addi	a14, a7, 49
100021c8:	fac541                                    	l32r	a4, 10000cdc (268c3c <_memmap_mem_sram_end+0x28c3c>)
100021cb:	faf7f1                                    	l32r	a15, 10000da8 (268c1c <_memmap_mem_sram_end+0x28c1c>)
100021ce:	fb0071                                    	l32r	a7, 10000dd0 (268c20 <_memmap_mem_sram_end+0x28c20>)
100021d1:	060c                                    	movi.n	a6, 0
100021d3:	104562                                    	s8i	a6, a5, 16
100021d6:	08e9                                    	s32i.n	a14, a8, 0
100021d8:	0469                                    	s32i.n	a6, a4, 0
100021da:	0f39                                    	s32i.n	a3, a15, 0
100021dc:	006722                                    	s32i	a2, a7, 0
100021df:	080522                                    	l8ui	a2, a5, 8
100021e2:	20a330                                    	or	a10, a3, a3
100021e5:	084216                                    	beqz	a2, 1000226d <com_bfn_soft_sync+0xb9>
100021e8:	ffc965                                    	call8	10001e80 <com_bfn_remote_set_pre_time>
100021eb:	0469                                    	s32i.n	a6, a4, 0
100021ed:	8528                                    	l32i.n	a2, a5, 32
100021ef:	a20b                                    	addi.n	a10, a2, -1
100021f1:	0023e5                                    	call8	10002430 <com_bfn_remote_ten_ms_cnt>
100021f4:	2a0c                                    	movi.n	a10, 2
100021f6:	ffb965                                    	call8	10001d8c <com_bfn_remote_set_isync_ctrl>
100021f9:	0020c0                                    	memw
100021fc:	b2a022                                    	movi	a2, 178
100021ff:	130c                                    	movi.n	a3, 1
10002201:	0429                                    	s32i.n	a2, a4, 0
10002203:	0c4532                                    	s8i	a3, a5, 12
10002206:	080522                                    	l8ui	a2, a5, 8
10002209:	328c                                    	beqz.n	a2, 10002210 <com_bfn_soft_sync+0x5c>

1000220b <com_bfn_soft_sync+0x57>:
1000220b:	1a0c                                    	movi.n	a10, 1
1000220d:	ffb7e5                                    	call8	10001d8c <com_bfn_remote_set_isync_ctrl>
10002210:	0020c0                                    	memw
10002213:	b1a022                                    	movi	a2, 177
10002216:	0429                                    	s32i.n	a2, a4, 0
10002218:	0020c0                                    	memw
1000221b:	fae521                                    	l32r	a2, 10000db0 (100247d4 <g_bfn_rmt_check>)
1000221e:	080532                                    	l8ui	a3, a5, 8
10002221:	000222                                    	l8ui	a2, a2, 0
10002224:	328c                                    	beqz.n	a2, 1000222b <com_bfn_soft_sync+0x77>
10002226:	138c                                    	beqz.n	a3, 1000222b <com_bfn_soft_sync+0x77>
10002228:	ff6565                                    	call8	10001880 <com_bfn_chk_adj_remote>
1000222b:	fadf31                                    	l32r	a3, 10000da8 (268c1c <_memmap_mem_sram_end+0x28c1c>)
1000222e:	020c                                    	movi.n	a2, 0
10002230:	0329                                    	s32i.n	a2, a3, 0
10002232:	0729                                    	s32i.n	a2, a7, 0
10002234:	080522                                    	l8ui	a2, a5, 8
10002237:	0a0c                                    	movi.n	a10, 0
10002239:	628c                                    	beqz.n	a2, 10002243 <com_bfn_soft_sync+0x8f>
1000223b:	ffc465                                    	call8	10001e80 <com_bfn_remote_set_pre_time>
1000223e:	2a0c                                    	movi.n	a10, 2
10002240:	ffb4a5                                    	call8	10001d8c <com_bfn_remote_set_isync_ctrl>
10002243:	0020c0                                    	memw
10002246:	b2a022                                    	movi	a2, 178
10002249:	0429                                    	s32i.n	a2, a4, 0
1000224b:	080522                                    	l8ui	a2, a5, 8
1000224e:	3a0c                                    	movi.n	a10, 3
10002250:	128c                                    	beqz.n	a2, 10002255 <com_bfn_soft_sync+0xa1>
10002252:	ffb3a5                                    	call8	10001d8c <com_bfn_remote_set_isync_ctrl>
10002255:	0020c0                                    	memw
10002258:	b0a022                                    	movi	a2, 176
1000225b:	0429                                    	s32i.n	a2, a4, 0
1000225d:	080522                                    	l8ui	a2, a5, 8
10002260:	0a0c                                    	movi.n	a10, 0
10002262:	128c                                    	beqz.n	a2, 10002267 <com_bfn_soft_sync+0xb3>
10002264:	ffb265                                    	call8	10001d8c <com_bfn_remote_set_isync_ctrl>
10002267:	020c                                    	movi.n	a2, 0
10002269:	0429                                    	s32i.n	a2, a4, 0
1000226b:	f01d                                    	retw.n

1000226d <com_bfn_soft_sync+0xb9>:
1000226d:	b2a022                                    	movi	a2, 178
10002270:	0429                                    	s32i.n	a2, a4, 0
10002272:	080522                                    	l8ui	a2, a5, 8
10002275:	f92256                                    	bnez	a2, 1000220b <com_bfn_soft_sync+0x57>
10002278:	ffe506                                    	j	10002210 <com_bfn_soft_sync+0x5c>

1000227b <com_bfn_soft_sync+0xc7>:
	...

1000227c <com_bfn_shutdown>:
1000227c:	004136                                    	entry	a1, 32
1000227f:	150c                                    	movi.n	a5, 1
10002281:	fa9721                                    	l32r	a2, 10000ce0 (10025530 <com_bfn_8inst_cfg>)
10002284:	fa9641                                    	l32r	a4, 10000cdc (268c3c <_memmap_mem_sram_end+0x28c3c>)
10002287:	030c                                    	movi.n	a3, 0
10002289:	115510                                    	slli	a5, a5, 15
1000228c:	8239                                    	s32i.n	a3, a2, 32
1000228e:	084232                                    	s8i	a3, a2, 8
10002291:	9239                                    	s32i.n	a3, a2, 36
10002293:	0c4232                                    	s8i	a3, a2, 12
10002296:	0a5232                                    	s16i	a3, a2, 20
10002299:	6239                                    	s32i.n	a3, a2, 24
1000229b:	1239                                    	s32i.n	a3, a2, 4
1000229d:	0239                                    	s32i.n	a3, a2, 0
1000229f:	7239                                    	s32i.n	a3, a2, 28
100022a1:	0459                                    	s32i.n	a5, a4, 0
100022a3:	f01d                                    	retw.n

100022a5 <com_bfn_shutdown+0x29>:
100022a5:	000000                                        ...

100022a8 <com_bfn_self_sync>:
100022a8:	004136                                    	entry	a1, 32
100022ab:	fa8d21                                    	l32r	a2, 10000ce0 (10025530 <com_bfn_8inst_cfg>)
100022ae:	1da252                                    	movi	a5, 0x21d
100022b1:	080232                                    	l8ui	a3, a2, 8
100022b4:	0fa162                                    	movi	a6, 0x10f
100022b7:	072316                                    	beqz	a3, 1000232d <com_bfn_self_sync+0x85>
100022ba:	e1a072                                    	movi	a7, 225
100022bd:	8238                                    	l32i.n	a3, a2, 32
100022bf:	fa6341                                    	l32r	a4, 10000c4c (10020314 <ax_static_data_init>)
100022c2:	1155e0                                    	slli	a5, a5, 2
100022c5:	117700                                    	slli	a7, a7, 16
100022c8:	1166d0                                    	slli	a6, a6, 3
100022cb:	545a                                    	add.n	a5, a4, a5
100022cd:	446a                                    	add.n	a4, a4, a6
100022cf:	c03370                                    	sub	a3, a3, a7
100022d2:	934530                                    	movnez	a4, a5, a3
100022d5:	0438                                    	l32i.n	a3, a4, 0
100022d7:	006f40                                    	rsil	a4, 15
100022da:	fabe51                                    	l32r	a5, 10000dd4 (268c4c <_memmap_mem_sram_end+0x28c4c>)
100022dd:	f67c                                    	movi.n	a6, -1
100022df:	05a8                                    	l32i.n	a10, a5, 0
100022e1:	416860                                    	srli	a6, a6, 8
100022e4:	f77c                                    	movi.n	a7, -1
100022e6:	017780                                    	slli	a7, a7, 24
100022e9:	8228                                    	l32i.n	a2, a2, 32
100022eb:	10b360                                    	and	a11, a3, a6
100022ee:	10ca60                                    	and	a12, a10, a6
100022f1:	180c                                    	movi.n	a8, 1
100022f3:	10d370                                    	and	a13, a3, a7
100022f6:	ecba                                    	add.n	a14, a12, a11
100022f8:	3ada                                    	add.n	a3, a10, a13
100022fa:	018880                                    	slli	a8, a8, 24
100022fd:	090c                                    	movi.n	a9, 0
100022ff:	62ce20                                    	saltu	a12, a14, a2
10002302:	1558                                    	l32i.n	a5, a5, 4
10002304:	8392c0                                    	moveqz	a9, a2, a12
10002307:	62a3a0                                    	saltu	a10, a3, a10
1000230a:	838a                                    	add.n	a8, a3, a8
1000230c:	c02e90                                    	sub	a2, a14, a9
1000230f:	62f830                                    	saltu	a15, a8, a3
10002312:	55aa                                    	add.n	a5, a5, a10
10002314:	9383c0                                    	movnez	a8, a3, a12
10002317:	a5fa                                    	add.n	a10, a5, a15
10002319:	103870                                    	and	a3, a8, a7
1000231c:	102260                                    	and	a2, a2, a6
1000231f:	93a5c0                                    	movnez	a10, a5, a12
10002322:	b32a                                    	add.n	a11, a3, a2
10002324:	ffe8e5                                    	call8	100021b4 <com_bfn_soft_sync>
10002327:	13e640                                    	wsr.ps	a4
1000232a:	002020                                    	esync

1000232d <com_bfn_self_sync+0x85>:
1000232d:	f01d                                    	retw.n

1000232f <com_bfn_self_sync+0x87>:
	...

10002330 <com_bfn_add_time_full>:
10002330:	004136                                    	entry	a1, 32
10002333:	f57c                                    	movi.n	a5, -1
10002335:	fa6a71                                    	l32r	a7, 10000ce0 (10025530 <com_bfn_8inst_cfg>)
10002338:	415850                                    	srli	a5, a5, 8
1000233b:	f67c                                    	movi.n	a6, -1
1000233d:	016680                                    	slli	a6, a6, 24
10002340:	10a250                                    	and	a10, a2, a5
10002343:	10b450                                    	and	a11, a4, a5
10002346:	8778                                    	l32i.n	a7, a7, 32
10002348:	180c                                    	movi.n	a8, 1
1000234a:	aaba                                    	add.n	a10, a10, a11
1000234c:	10c460                                    	and	a12, a4, a6
1000234f:	dc2a                                    	add.n	a13, a12, a2
10002351:	018880                                    	slli	a8, a8, 24
10002354:	090c                                    	movi.n	a9, 0
10002356:	62ba70                                    	saltu	a11, a10, a7
10002359:	624dc0                                    	saltu	a4, a13, a12
1000235c:	8d8a                                    	add.n	a8, a13, a8
1000235e:	8397b0                                    	moveqz	a9, a7, a11
10002361:	62e8d0                                    	saltu	a14, a8, a13
10002364:	434a                                    	add.n	a4, a3, a4
10002366:	938db0                                    	movnez	a8, a13, a11
10002369:	c0fa90                                    	sub	a15, a10, a9
1000236c:	34ea                                    	add.n	a3, a4, a14
1000236e:	106860                                    	and	a6, a8, a6
10002371:	102f50                                    	and	a2, a15, a5
10002374:	9334b0                                    	movnez	a3, a4, a11
10002377:	262a                                    	add.n	a2, a6, a2
10002379:	f01d                                    	retw.n

1000237b <com_bfn_add_time_full+0x4b>:
	...

1000237c <com_bfn_set_clk_sel>:
1000237c:	004136                                    	entry	a1, 32
1000237f:	b34c                                    	movi.n	a3, 75
10002381:	e1a042                                    	movi	a4, 225
10002384:	0133f0                                    	slli	a3, a3, 17
10002387:	114400                                    	slli	a4, a4, 16
1000238a:	620b                                    	addi.n	a6, a2, -1
1000238c:	fa5551                                    	l32r	a5, 10000ce0 (10025530 <com_bfn_8inst_cfg>)
1000238f:	01f280                                    	slli	a15, a2, 24
10002392:	934360                                    	movnez	a4, a3, a6
10002395:	95f9                                    	s32i.n	a15, a5, 36
10002397:	8549                                    	s32i.n	a4, a5, 32
10002399:	f01d                                    	retw.n

1000239b <com_bfn_set_clk_sel+0x1f>:
	...

1000239c <com_bfn_get_live_time>:
1000239c:	004136                                    	entry	a1, 32
1000239f:	fa8d21                                    	l32r	a2, 10000dd4 (268c4c <_memmap_mem_sram_end+0x28c4c>)
100023a2:	0228                                    	l32i.n	a2, a2, 0
100023a4:	f01d                                    	retw.n

100023a6 <com_bfn_get_live_time+0xa>:
	...

100023a8 <com_bfn_get_live_time_full>:
100023a8:	004136                                    	entry	a1, 32
100023ab:	fa8a31                                    	l32r	a3, 10000dd4 (268c4c <_memmap_mem_sram_end+0x28c4c>)
100023ae:	0328                                    	l32i.n	a2, a3, 0
100023b0:	1338                                    	l32i.n	a3, a3, 4
100023b2:	f01d                                    	retw.n

100023b4 <com_bfn_add_time>:
100023b4:	004136                                    	entry	a1, 32
100023b7:	f47c                                    	movi.n	a4, -1
100023b9:	fa4961                                    	l32r	a6, 10000ce0 (10025530 <com_bfn_8inst_cfg>)
100023bc:	414840                                    	srli	a4, a4, 8
100023bf:	f57c                                    	movi.n	a5, -1
100023c1:	015580                                    	slli	a5, a5, 24
100023c4:	108240                                    	and	a8, a2, a4
100023c7:	109340                                    	and	a9, a3, a4
100023ca:	8668                                    	l32i.n	a6, a6, 32
100023cc:	170c                                    	movi.n	a7, 1
100023ce:	10b350                                    	and	a11, a3, a5
100023d1:	898a                                    	add.n	a8, a9, a8
100023d3:	017780                                    	slli	a7, a7, 24
100023d6:	db2a                                    	add.n	a13, a11, a2
100023d8:	0c0c                                    	movi.n	a12, 0
100023da:	62e860                                    	saltu	a14, a8, a6
100023dd:	7d7a                                    	add.n	a7, a13, a7
100023df:	83c6e0                                    	moveqz	a12, a6, a14
100023e2:	937de0                                    	movnez	a7, a13, a14
100023e5:	c0f8c0                                    	sub	a15, a8, a12
100023e8:	103750                                    	and	a3, a7, a5
100023eb:	102f40                                    	and	a2, a15, a4
100023ee:	232a                                    	add.n	a2, a3, a2
100023f0:	f01d                                    	retw.n

100023f2 <com_bfn_add_time+0x3e>:
	...

100023f4 <com_bfn_sub_time>:
100023f4:	004136                                    	entry	a1, 32
100023f7:	f47c                                    	movi.n	a4, -1
100023f9:	fa3971                                    	l32r	a7, 10000ce0 (10025530 <com_bfn_8inst_cfg>)
100023fc:	414840                                    	srli	a4, a4, 8
100023ff:	105240                                    	and	a5, a2, a4
10002402:	106340                                    	and	a6, a3, a4
10002405:	8778                                    	l32i.n	a7, a7, 32
10002407:	625560                                    	saltu	a5, a5, a6
1000240a:	ffa0d2                                    	movi	a13, 255
1000240d:	75b820                                    	extui	a11, a2, 24, 8
10002410:	75c830                                    	extui	a12, a3, 24, 8
10002413:	c0a230                                    	sub	a10, a2, a3
10002416:	837550                                    	moveqz	a7, a5, a5
10002419:	c02bc0                                    	sub	a2, a11, a12
1000241c:	83d550                                    	moveqz	a13, a5, a5
1000241f:	22da                                    	add.n	a2, a2, a13
10002421:	ea7a                                    	add.n	a14, a10, a7
10002423:	10fe40                                    	and	a15, a14, a4
10002426:	012280                                    	slli	a2, a2, 24
10002429:	2f2a                                    	add.n	a2, a15, a2
1000242b:	f01d                                    	retw.n

1000242d <com_bfn_sub_time+0x39>:
1000242d:	000000                                        ...

10002430 <com_bfn_remote_ten_ms_cnt>:
10002430:	004136                                    	entry	a1, 32
10002433:	fa2b31                                    	l32r	a3, 10000ce0 (10025530 <com_bfn_8inst_cfg>)
10002436:	fa6871                                    	l32r	a7, 10000dd8 (507f048 <_memmap_mem_sram_end+0x4e3f048>)
10002439:	140342                                    	l8ui	a4, a3, 20
1000243c:	fa6851                                    	l32r	a5, 10000ddc (510f208 <_memmap_mem_sram_end+0x4ecf208>)
1000243f:	e48c                                    	beqz.n	a4, 10002451 <com_bfn_remote_ten_ms_cnt+0x21>
10002441:	fa6761                                    	l32r	a6, 10000de0 (41f0708 <_memmap_mem_sram_end+0x3fb0708>)
10002444:	fa68f1                                    	l32r	a15, 10000de4 (4501508 <_memmap_mem_sram_end+0x42c1508>)
10002447:	006722                                    	s32i	a2, a7, 0
1000244a:	006522                                    	s32i	a2, a5, 0
1000244d:	0629                                    	s32i.n	a2, a6, 0
1000244f:	0f29                                    	s32i.n	a2, a15, 0

10002451 <com_bfn_remote_ten_ms_cnt+0x21>:
10002451:	150342                                    	l8ui	a4, a3, 21
10002454:	fa6571                                    	l32r	a7, 10000de8 (50ff048 <_memmap_mem_sram_end+0x4ebf048>)
10002457:	249c                                    	beqz.n	a4, 1000246d <com_bfn_remote_ten_ms_cnt+0x3d>
10002459:	fa6451                                    	l32r	a5, 10000dec (511f208 <_memmap_mem_sram_end+0x4edf208>)
1000245c:	fa6561                                    	l32r	a6, 10000df0 (43f0708 <_memmap_mem_sram_end+0x41b0708>)
1000245f:	fa65f1                                    	l32r	a15, 10000df4 (4701508 <_memmap_mem_sram_end+0x44c1508>)
10002462:	0729                                    	s32i.n	a2, a7, 0
10002464:	006522                                    	s32i	a2, a5, 0
10002467:	006622                                    	s32i	a2, a6, 0
1000246a:	006f22                                    	s32i	a2, a15, 0
1000246d:	180342                                    	l8ui	a4, a3, 24
10002470:	fa6251                                    	l32r	a5, 10000df8 (49f3108 <_memmap_mem_sram_end+0x47b3108>)
10002473:	048c                                    	beqz.n	a4, 10002477 <com_bfn_remote_ten_ms_cnt+0x47>
10002475:	0529                                    	s32i.n	a2, a5, 0
10002477:	190342                                    	l8ui	a4, a3, 25
1000247a:	fa6051                                    	l32r	a5, 10000dfc (4bf3108 <_memmap_mem_sram_end+0x49b3108>)
1000247d:	048c                                    	beqz.n	a4, 10002481 <com_bfn_remote_ten_ms_cnt+0x51>
1000247f:	0529                                    	s32i.n	a2, a5, 0
10002481:	1a0342                                    	l8ui	a4, a3, 26
10002484:	fa5f51                                    	l32r	a5, 10000e00 (4df3108 <_memmap_mem_sram_end+0x4bb3108>)
10002487:	048c                                    	beqz.n	a4, 1000248b <com_bfn_remote_ten_ms_cnt+0x5b>
10002489:	0529                                    	s32i.n	a2, a5, 0
1000248b:	1b0342                                    	l8ui	a4, a3, 27
1000248e:	fa5d51                                    	l32r	a5, 10000e04 (4ff3108 <_memmap_mem_sram_end+0x4db3108>)
10002491:	048c                                    	beqz.n	a4, 10002495 <com_bfn_remote_ten_ms_cnt+0x65>
10002493:	0529                                    	s32i.n	a2, a5, 0
10002495:	fa2b41                                    	l32r	a4, 10000d44 (100241a0 <com_bfn_8inst_tbl>)
10002498:	850c                                    	movi.n	a5, 8
1000249a:	178576                                    	loop	a5, 100024b5 <com_bfn_remote_ten_ms_cnt+0x85>
1000249d:	000352                                    	l8ui	a5, a3, 0
100024a0:	c58c                                    	beqz.n	a5, 100024b0 <com_bfn_remote_ten_ms_cnt+0x80>
100024a2:	1458                                    	l32i.n	a5, a4, 4
100024a4:	0529                                    	s32i.n	a2, a5, 0
100024a6:	212452                                    	l32i	a5, a4, 132
100024a9:	0529                                    	s32i.n	a2, a5, 0
100024ab:	412452                                    	l32i	a5, a4, 0x104
100024ae:	0529                                    	s32i.n	a2, a5, 0
100024b0:	10c442                                    	addi	a4, a4, 16
100024b3:	331b                                    	addi.n	a3, a3, 1

100024b5 <com_bfn_remote_ten_ms_cnt+0x85>:
100024b5:	fa0a31                                    	l32r	a3, 10000ce0 (10025530 <com_bfn_8inst_cfg>)
100024b8:	fa5451                                    	l32r	a5, 10000e08 (6705048 <_memmap_mem_sram_end+0x64c5048>)
100024bb:	1c0342                                    	l8ui	a4, a3, 28
100024be:	048c                                    	beqz.n	a4, 100024c2 <com_bfn_remote_ten_ms_cnt+0x92>
100024c0:	0529                                    	s32i.n	a2, a5, 0

100024c2 <com_bfn_remote_ten_ms_cnt+0x92>:
100024c2:	1d0342                                    	l8ui	a4, a3, 29
100024c5:	fa5151                                    	l32r	a5, 10000e0c (6f05048 <_memmap_mem_sram_end+0x6cc5048>)
100024c8:	048c                                    	beqz.n	a4, 100024cc <com_bfn_remote_ten_ms_cnt+0x9c>
100024ca:	0529                                    	s32i.n	a2, a5, 0
100024cc:	1e0342                                    	l8ui	a4, a3, 30
100024cf:	fa5051                                    	l32r	a5, 10000e10 (7705048 <_memmap_mem_sram_end+0x74c5048>)
100024d2:	048c                                    	beqz.n	a4, 100024d6 <com_bfn_remote_ten_ms_cnt+0xa6>
100024d4:	0529                                    	s32i.n	a2, a5, 0
100024d6:	1f0332                                    	l8ui	a3, a3, 31
100024d9:	fa4e41                                    	l32r	a4, 10000e14 (7f05048 <_memmap_mem_sram_end+0x7cc5048>)
100024dc:	038c                                    	beqz.n	a3, 100024e0 <com_bfn_remote_ten_ms_cnt+0xb0>
100024de:	0429                                    	s32i.n	a2, a4, 0
100024e0:	f01d                                    	retw.n

100024e2 <com_bfn_remote_ten_ms_cnt+0xb2>:
	...

100024e4 <com_bfn_sync_handler>:
100024e4:	004136                                    	entry	a1, 32
100024e7:	f9fe21                                    	l32r	a2, 10000ce0 (10025530 <com_bfn_8inst_cfg>)
100024ea:	fa35e1                                    	l32r	a14, 10000dc0 (fffcffce <xthals_hw_configid0+0x3ffc6d48>)
100024ed:	100232                                    	l8ui	a3, a2, 16
100024f0:	9248                                    	l32i.n	a4, a2, 36
100024f2:	07e316                                    	beqz	a3, 10002574 <com_bfn_sync_handler+0x90>
100024f5:	71a4a2                                    	movi	a10, 0x471
100024f8:	10f4e0                                    	and	a15, a4, a14
100024fb:	fa3231                                    	l32r	a3, 10000dc4 (268c40 <_memmap_mem_sram_end+0x28c40>)
100024fe:	f9f741                                    	l32r	a4, 10000cdc (268c3c <_memmap_mem_sram_end+0x28c3c>)
10002501:	31cf62                                    	addi	a6, a15, 49
10002504:	90aaa0                                    	addx2	a10, a10, a10
10002507:	050c                                    	movi.n	a5, 0
10002509:	0369                                    	s32i.n	a6, a3, 0
1000250b:	104252                                    	s8i	a5, a2, 16
1000250e:	0459                                    	s32i.n	a5, a4, 0
10002510:	ff1925                                    	call8	100016a4 <com_isr_interrupt_disable>
10002513:	fa2761                                    	l32r	a6, 10000db0 (100247d4 <g_bfn_rmt_check>)
10002516:	080272                                    	l8ui	a7, a2, 8
10002519:	000662                                    	l8ui	a6, a6, 0
1000251c:	368c                                    	beqz.n	a6, 10002523 <com_bfn_sync_handler+0x3f>
1000251e:	178c                                    	beqz.n	a7, 10002523 <com_bfn_sync_handler+0x3f>
10002520:	ff35e5                                    	call8	10001880 <com_bfn_chk_adj_remote>

10002523 <com_bfn_sync_handler+0x3f>:
10002523:	fa2161                                    	l32r	a6, 10000da8 (268c1c <_memmap_mem_sram_end+0x28c1c>)
10002526:	0a0c                                    	movi.n	a10, 0
10002528:	0659                                    	s32i.n	a5, a6, 0
1000252a:	1659                                    	s32i.n	a5, a6, 4
1000252c:	080252                                    	l8ui	a5, a2, 8
1000252f:	658c                                    	beqz.n	a5, 10002539 <com_bfn_sync_handler+0x55>
10002531:	ff94e5                                    	call8	10001e80 <com_bfn_remote_set_pre_time>
10002534:	2a0c                                    	movi.n	a10, 2
10002536:	ff8565                                    	call8	10001d8c <com_bfn_remote_set_isync_ctrl>
10002539:	0020c0                                    	memw
1000253c:	b2a052                                    	movi	a5, 178
1000253f:	0459                                    	s32i.n	a5, a4, 0
10002541:	080252                                    	l8ui	a5, a2, 8
10002544:	3a0c                                    	movi.n	a10, 3
10002546:	158c                                    	beqz.n	a5, 1000254b <com_bfn_sync_handler+0x67>
10002548:	ff8425                                    	call8	10001d8c <com_bfn_remote_set_isync_ctrl>
1000254b:	0020c0                                    	memw
1000254e:	b0a052                                    	movi	a5, 176
10002551:	0459                                    	s32i.n	a5, a4, 0
10002553:	080252                                    	l8ui	a5, a2, 8
10002556:	0a0c                                    	movi.n	a10, 0
10002558:	158c                                    	beqz.n	a5, 1000255d <com_bfn_sync_handler+0x79>
1000255a:	ff8325                                    	call8	10001d8c <com_bfn_remote_set_isync_ctrl>
1000255d:	170c                                    	movi.n	a7, 1
1000255f:	fa1b61                                    	l32r	a6, 10000dcc (26c20c <_memmap_mem_sram_end+0x2c20c>)
10002562:	050c                                    	movi.n	a5, 0
10002564:	0177d0                                    	slli	a7, a7, 19
10002567:	0459                                    	s32i.n	a5, a4, 0
10002569:	0679                                    	s32i.n	a7, a6, 0
1000256b:	9228                                    	l32i.n	a2, a2, 36
1000256d:	1f3c                                    	movi.n	a15, 49
1000256f:	2022f0                                    	or	a2, a2, a15
10002572:	0329                                    	s32i.n	a2, a3, 0
10002574:	f01d                                    	retw.n

10002576 <com_bfn_sync_handler+0x92>:
	...

10002578 <get_com_trace_bfn_cpu_offset>:
10002578:	004136                                    	entry	a1, 32
1000257b:	03ea20                                    	rsr.ccount	a2
1000257e:	005325                                    	call8	10002ab0 <com_timing_get_current_bfn_time>
10002581:	7538a0                                    	extui	a3, a10, 24, 8
10002584:	0052a5                                    	call8	10002ab0 <com_timing_get_current_bfn_time>
10002587:	f47c                                    	movi.n	a4, -1
10002589:	b5af52                                    	movi	a5, -75
1000258c:	414840                                    	srli	a4, a4, 8
1000258f:	0155f0                                    	slli	a5, a5, 17
10002592:	104a40                                    	and	a4, a10, a4
10002595:	823350                                    	mull	a3, a3, a5
10002598:	c02240                                    	sub	a2, a2, a4
1000259b:	223a                                    	add.n	a2, a2, a3
1000259d:	f01d                                    	retw.n

1000259f <get_com_trace_bfn_cpu_offset+0x27>:
	...

100025a0 <com_func_ts_trace_buffer>:
100025a0:	004136                                    	entry	a1, 32
100025a3:	03ea40                                    	rsr.ccount	a4
100025a6:	f9a851                                    	l32r	a5, 10000c48 (10020000 <com_static_data_init>)
100025a9:	246020                                    	extui	a6, a2, 0, 3
100025ac:	0558                                    	l32i.n	a5, a5, 0
100025ae:	f9b371                                    	l32r	a7, 10000c7c (100248e8 <p_system_data>)
100025b1:	415550                                    	srli	a5, a5, 5
100025b4:	015567                                    	bbc	a5, a6, 100025b9 <com_func_ts_trace_buffer+0x19>
100025b7:	f01d                                    	retw.n

100025b9 <com_func_ts_trace_buffer+0x19>:
100025b9:	a43030                                    	extui	a3, a3, 0, 11
100025bc:	11e440                                    	slli	a14, a4, 12
100025bf:	012230                                    	slli	a2, a2, 29
100025c2:	0133e0                                    	slli	a3, a3, 18
100025c5:	6ca6f2                                    	movi	a15, 0x66c
100025c8:	0748                                    	l32i.n	a4, a7, 0
100025ca:	232a                                    	add.n	a2, a3, a2
100025cc:	f03ff0                                    	subx8	a3, a15, a15
100025cf:	416ee0                                    	srli	a6, a14, 14
100025d2:	262a                                    	add.n	a2, a6, a2
100025d4:	343a                                    	add.n	a3, a4, a3
100025d6:	03ea60                                    	rsr.ccount	a6
100025d9:	004d65                                    	call8	10002ab0 <com_timing_get_current_bfn_time>
100025dc:	7578a0                                    	extui	a7, a10, 24, 8
100025df:	004d25                                    	call8	10002ab0 <com_timing_get_current_bfn_time>
100025e2:	b5af82                                    	movi	a8, -75
100025e5:	f57c                                    	movi.n	a5, -1
100025e7:	41e850                                    	srli	a14, a5, 8
100025ea:	fa0b51                                    	l32r	a5, 10000e18 (10025558 <com_trace_bfn_cpu_offset>)
100025ed:	0188f0                                    	slli	a8, a8, 17
100025f0:	109ae0                                    	and	a9, a10, a14
100025f3:	827780                                    	mull	a7, a7, a8
100025f6:	c06690                                    	sub	a6, a6, a9
100025f9:	15f8                                    	l32i.n	a15, a5, 4
100025fb:	667a                                    	add.n	a6, a6, a7
100025fd:	0569                                    	s32i.n	a6, a5, 0
100025ff:	dfcc                                    	bnez.n	a15, 10002610 <com_func_ts_trace_buffer+0x70>
10002601:	02a072                                    	movi	a7, 2
10002604:	fa0661                                    	l32r	a6, 10000e1c (bbba0000 <_memmap_cacheattr_bp_allvalid+0x7775bbbc>)
10002607:	2cd482                                    	addmi	a8, a4, 0x2c00
1000260a:	016572                                    	s32i	a7, a5, 4
1000260d:	3d6862                                    	s32i	a6, a8, 244
10002610:	006f60                                    	rsil	a6, 15
10002613:	1578                                    	l32i.n	a7, a5, 4
10002615:	280c                                    	movi.n	a8, 2
10002617:	ffd792                                    	addmi	a9, a7, 0xffffff00
1000261a:	938790                                    	movnez	a8, a7, a9
1000261d:	2cd442                                    	addmi	a4, a4, 0x2c00
10002620:	f81b                                    	addi.n	a15, a8, 1
10002622:	a03830                                    	addx4	a3, a8, a3
10002625:	3e6482                                    	s32i	a8, a4, 248
10002628:	15f9                                    	s32i.n	a15, a5, 4
1000262a:	0329                                    	s32i.n	a2, a3, 0
1000262c:	13e660                                    	wsr.ps	a6
1000262f:	002020                                    	esync
10002632:	f01d                                    	retw.n

10002634 <com_msg_trace_buffer>:
10002634:	004136                                    	entry	a1, 32
10002637:	f98451                                    	l32r	a5, 10000c48 (10020000 <com_static_data_init>)
1000263a:	246020                                    	extui	a6, a2, 0, 3
1000263d:	0558                                    	l32i.n	a5, a5, 0
1000263f:	f77c                                    	movi.n	a7, -1
10002641:	415550                                    	srli	a5, a5, 5
10002644:	015567                                    	bbc	a5, a6, 10002649 <com_msg_trace_buffer+0x15>
10002647:	f01d                                    	retw.n

10002649 <com_msg_trace_buffer+0x15>:
10002649:	f98cf1                                    	l32r	a15, 10000c7c (100248e8 <p_system_data>)
1000264c:	a43030                                    	extui	a3, a3, 0, 11
1000264f:	415e70                                    	srli	a5, a7, 14
10002652:	6ca662                                    	movi	a6, 0x66c
10002655:	105450                                    	and	a5, a4, a5
10002658:	012230                                    	slli	a2, a2, 29
1000265b:	0133e0                                    	slli	a3, a3, 18
1000265e:	0f48                                    	l32i.n	a4, a15, 0
10002660:	232a                                    	add.n	a2, a3, a2
10002662:	f06660                                    	subx8	a6, a6, a6
10002665:	802250                                    	add	a2, a2, a5
10002668:	346a                                    	add.n	a3, a4, a6
1000266a:	03ea60                                    	rsr.ccount	a6
1000266d:	004425                                    	call8	10002ab0 <com_timing_get_current_bfn_time>
10002670:	7578a0                                    	extui	a7, a10, 24, 8
10002673:	0043e5                                    	call8	10002ab0 <com_timing_get_current_bfn_time>
10002676:	b5af82                                    	movi	a8, -75
10002679:	f57c                                    	movi.n	a5, -1
1000267b:	41e850                                    	srli	a14, a5, 8
1000267e:	f9e651                                    	l32r	a5, 10000e18 (10025558 <com_trace_bfn_cpu_offset>)
10002681:	0188f0                                    	slli	a8, a8, 17
10002684:	109ae0                                    	and	a9, a10, a14
10002687:	827780                                    	mull	a7, a7, a8
1000268a:	c06690                                    	sub	a6, a6, a9
1000268d:	15f8                                    	l32i.n	a15, a5, 4
1000268f:	667a                                    	add.n	a6, a6, a7
10002691:	0569                                    	s32i.n	a6, a5, 0
10002693:	dfcc                                    	bnez.n	a15, 100026a4 <com_msg_trace_buffer+0x70>
10002695:	02a072                                    	movi	a7, 2
10002698:	f9e161                                    	l32r	a6, 10000e1c (bbba0000 <_memmap_cacheattr_bp_allvalid+0x7775bbbc>)
1000269b:	2cd482                                    	addmi	a8, a4, 0x2c00
1000269e:	016572                                    	s32i	a7, a5, 4
100026a1:	3d6862                                    	s32i	a6, a8, 244
100026a4:	006f60                                    	rsil	a6, 15
100026a7:	1578                                    	l32i.n	a7, a5, 4
100026a9:	280c                                    	movi.n	a8, 2
100026ab:	ffd792                                    	addmi	a9, a7, 0xffffff00
100026ae:	938790                                    	movnez	a8, a7, a9
100026b1:	2cd442                                    	addmi	a4, a4, 0x2c00
100026b4:	f81b                                    	addi.n	a15, a8, 1
100026b6:	a03830                                    	addx4	a3, a8, a3
100026b9:	3e6482                                    	s32i	a8, a4, 248
100026bc:	15f9                                    	s32i.n	a15, a5, 4
100026be:	0329                                    	s32i.n	a2, a3, 0
100026c0:	13e660                                    	wsr.ps	a6
100026c3:	002020                                    	esync
100026c6:	f01d                                    	retw.n

100026c8 <com_err_code_trace_buffer>:
100026c8:	004136                                    	entry	a1, 32
100026cb:	f95f61                                    	l32r	a6, 10000c48 (10020000 <com_static_data_init>)
100026ce:	247020                                    	extui	a7, a2, 0, 3
100026d1:	0668                                    	l32i.n	a6, a6, 0
100026d3:	f96af1                                    	l32r	a15, 10000c7c (100248e8 <p_system_data>)
100026d6:	416560                                    	srli	a6, a6, 5
100026d9:	045677                                    	bbc	a6, a7, 100026e1 <com_err_code_trace_buffer+0x19>
100026dc:	f01d                                    	retw.n

100026de <com_err_code_trace_buffer+0x16>:
100026de:	000000                                        ...

100026e1 <com_err_code_trace_buffer+0x19>:
100026e1:	d43030                                    	extui	a3, a3, 0, 14
100026e4:	345050                                    	extui	a5, a5, 0, 4
100026e7:	144040                                    	extui	a4, a4, 0, 2
100026ea:	6ca662                                    	movi	a6, 0x66c
100026ed:	11e430                                    	slli	a14, a4, 13
100026f0:	115570                                    	slli	a5, a5, 9
100026f3:	012230                                    	slli	a2, a2, 29
100026f6:	113310                                    	slli	a3, a3, 15
100026f9:	0f48                                    	l32i.n	a4, a15, 0
100026fb:	232a                                    	add.n	a2, a3, a2
100026fd:	5e5a                                    	add.n	a5, a14, a5
100026ff:	f06660                                    	subx8	a6, a6, a6
10002702:	225a                                    	add.n	a2, a2, a5
10002704:	346a                                    	add.n	a3, a4, a6
10002706:	03ea60                                    	rsr.ccount	a6
10002709:	003a65                                    	call8	10002ab0 <com_timing_get_current_bfn_time>
1000270c:	7578a0                                    	extui	a7, a10, 24, 8
1000270f:	003a25                                    	call8	10002ab0 <com_timing_get_current_bfn_time>
10002712:	b5af82                                    	movi	a8, -75
10002715:	f57c                                    	movi.n	a5, -1
10002717:	41e850                                    	srli	a14, a5, 8
1000271a:	f9bf51                                    	l32r	a5, 10000e18 (10025558 <com_trace_bfn_cpu_offset>)
1000271d:	0188f0                                    	slli	a8, a8, 17
10002720:	109ae0                                    	and	a9, a10, a14
10002723:	827780                                    	mull	a7, a7, a8
10002726:	c06690                                    	sub	a6, a6, a9
10002729:	15f8                                    	l32i.n	a15, a5, 4
1000272b:	667a                                    	add.n	a6, a6, a7
1000272d:	0569                                    	s32i.n	a6, a5, 0
1000272f:	dfcc                                    	bnez.n	a15, 10002740 <com_err_code_trace_buffer+0x78>
10002731:	02a072                                    	movi	a7, 2
10002734:	f9ba61                                    	l32r	a6, 10000e1c (bbba0000 <_memmap_cacheattr_bp_allvalid+0x7775bbbc>)
10002737:	2cd482                                    	addmi	a8, a4, 0x2c00
1000273a:	016572                                    	s32i	a7, a5, 4
1000273d:	3d6862                                    	s32i	a6, a8, 244
10002740:	006f60                                    	rsil	a6, 15
10002743:	1578                                    	l32i.n	a7, a5, 4
10002745:	280c                                    	movi.n	a8, 2
10002747:	ffd792                                    	addmi	a9, a7, 0xffffff00
1000274a:	938790                                    	movnez	a8, a7, a9
1000274d:	2cd442                                    	addmi	a4, a4, 0x2c00
10002750:	f81b                                    	addi.n	a15, a8, 1
10002752:	a03830                                    	addx4	a3, a8, a3
10002755:	3e6482                                    	s32i	a8, a4, 248
10002758:	15f9                                    	s32i.n	a15, a5, 4
1000275a:	0329                                    	s32i.n	a2, a3, 0
1000275c:	13e660                                    	wsr.ps	a6
1000275f:	002020                                    	esync
10002762:	f01d                                    	retw.n

10002764 <com_debug_trace_buffer>:
10002764:	006136                                    	entry	a1, 48
10002767:	0a3266                                    	bnei	a2, 3, 10002775 <com_debug_trace_buffer+0x11>
1000276a:	330c                                    	movi.n	a3, 3
1000276c:	013340                                    	slli	a3, a3, 28
1000276f:	207530                                    	or	a7, a5, a3
10002772:	0005c6                                    	j	1000278d <com_debug_trace_buffer+0x29>

10002775 <com_debug_trace_buffer+0x11>:
10002775:	843030                                    	extui	a3, a3, 0, 9
10002778:	f45050                                    	extui	a5, a5, 0, 16
1000277b:	017230                                    	slli	a7, a2, 29
1000277e:	557a                                    	add.n	a5, a5, a7
10002780:	0133c0                                    	slli	a3, a3, 20
10002783:	34f040                                    	extui	a15, a4, 0, 4
10002786:	117f00                                    	slli	a7, a15, 16
10002789:	353a                                    	add.n	a3, a5, a3
1000278b:	737a                                    	add.n	a7, a3, a7
1000278d:	f92e31                                    	l32r	a3, 10000c48 (10020000 <com_static_data_init>)
10002790:	150c                                    	movi.n	a5, 1
10002792:	03d8                                    	l32i.n	a13, a3, 0
10002794:	401200                                    	ssl	a2
10002797:	a1e500                                    	sll	a14, a5
1000279a:	4125d0                                    	srli	a2, a13, 5
1000279d:	ffa0f2                                    	movi	a15, 255
100027a0:	102e20                                    	and	a2, a14, a2
100027a3:	010f27                                    	bnone	a15, a2, 100027a8 <com_debug_trace_buffer+0x44>
100027a6:	f01d                                    	retw.n

100027a8 <com_debug_trace_buffer+0x44>:
100027a8:	1179                                    	s32i.n	a7, a1, 4
100027aa:	006f20                                    	rsil	a2, 15
100027ad:	f933f1                                    	l32r	a15, 10000c7c (100248e8 <p_system_data>)
100027b0:	6ca632                                    	movi	a3, 0x66c
100027b3:	0f78                                    	l32i.n	a7, a15, 0
100027b5:	f03330                                    	subx8	a3, a3, a3
100027b8:	3129                                    	s32i.n	a2, a1, 12
100027ba:	273a                                    	add.n	a2, a7, a3
100027bc:	2129                                    	s32i.n	a2, a1, 8
100027be:	03ea20                                    	rsr.ccount	a2
100027c1:	002ee5                                    	call8	10002ab0 <com_timing_get_current_bfn_time>
100027c4:	7538a0                                    	extui	a3, a10, 24, 8
100027c7:	002ea5                                    	call8	10002ab0 <com_timing_get_current_bfn_time>
100027ca:	f57c                                    	movi.n	a5, -1
100027cc:	415850                                    	srli	a5, a5, 8
100027cf:	b5af82                                    	movi	a8, -75
100027d2:	0188f0                                    	slli	a8, a8, 17
100027d5:	105a50                                    	and	a5, a10, a5
100027d8:	f990a1                                    	l32r	a10, 10000e18 (10025558 <com_trace_bfn_cpu_offset>)
100027db:	828380                                    	mull	a8, a3, a8
100027de:	c02250                                    	sub	a2, a2, a5
100027e1:	1af8                                    	l32i.n	a15, a10, 4
100027e3:	228a                                    	add.n	a2, a2, a8
100027e5:	0a29                                    	s32i.n	a2, a10, 0
100027e7:	dfcc                                    	bnez.n	a15, 100027f8 <com_debug_trace_buffer+0x94>
100027e9:	02a052                                    	movi	a5, 2
100027ec:	2cd722                                    	addmi	a2, a7, 0x2c00
100027ef:	f98b31                                    	l32r	a3, 10000e1c (bbba0000 <_memmap_cacheattr_bp_allvalid+0x7775bbbc>)
100027f2:	3d6232                                    	s32i	a3, a2, 244
100027f5:	016a52                                    	s32i	a5, a10, 4
100027f8:	006f20                                    	rsil	a2, 15
100027fb:	1a88                                    	l32i.n	a8, a10, 4
100027fd:	230c                                    	movi.n	a3, 2
100027ff:	ffd892                                    	addmi	a9, a8, 0xffffff00
10002802:	21e8                                    	l32i.n	a14, a1, 8
10002804:	838390                                    	moveqz	a8, a3, a9
10002807:	2cd772                                    	addmi	a7, a7, 0x2c00
1000280a:	d81b                                    	addi.n	a13, a8, 1
1000280c:	3e6782                                    	s32i	a8, a7, 248
1000280f:	a088e0                                    	addx4	a8, a8, a14
10002812:	11f8                                    	l32i.n	a15, a1, 4
10002814:	1ad9                                    	s32i.n	a13, a10, 4
10002816:	08f9                                    	s32i.n	a15, a8, 0
10002818:	13e620                                    	wsr.ps	a2
1000281b:	002020                                    	esync
1000281e:	e4fc                                    	bnez.n	a4, 10002860 <com_debug_trace_buffer+0xfc>
10002820:	3128                                    	l32i.n	a2, a1, 12
10002822:	13e620                                    	wsr.ps	a2
10002825:	002020                                    	esync
10002828:	f01d                                    	retw.n

1000282a <com_debug_trace_buffer+0xc6>:
1000282a:	000000                                        ...

1000282d <com_debug_trace_buffer+0xc9>:
1000282d:	6ca632                                    	movi	a3, 0x66c
10002830:	f03330                                    	subx8	a3, a3, a3
10002833:	323a                                    	add.n	a3, a2, a3
10002835:	006f50                                    	rsil	a5, 15
10002838:	1a88                                    	l32i.n	a8, a10, 4
1000283a:	270c                                    	movi.n	a7, 2
1000283c:	ffd892                                    	addmi	a9, a8, 0xffffff00
1000283f:	838790                                    	moveqz	a8, a7, a9
10002842:	2cd222                                    	addmi	a2, a2, 0x2c00
10002845:	e81b                                    	addi.n	a14, a8, 1
10002847:	a03830                                    	addx4	a3, a8, a3
1000284a:	11f8                                    	l32i.n	a15, a1, 4
1000284c:	3e6282                                    	s32i	a8, a2, 248
1000284f:	1ae9                                    	s32i.n	a14, a10, 4
10002851:	03f9                                    	s32i.n	a15, a3, 0
10002853:	13e650                                    	wsr.ps	a5
10002856:	002020                                    	esync
10002859:	440b                                    	addi.n	a4, a4, -1
1000285b:	664b                                    	addi.n	a6, a6, 4
1000285d:	fbf416                                    	beqz	a4, 10002820 <com_debug_trace_buffer+0xbc>
10002860:	f907f1                                    	l32r	a15, 10000c7c (100248e8 <p_system_data>)
10002863:	0628                                    	l32i.n	a2, a6, 0
10002865:	1129                                    	s32i.n	a2, a1, 4
10002867:	0f28                                    	l32i.n	a2, a15, 0
10002869:	03ea50                                    	rsr.ccount	a5
1000286c:	0a7d                                    	mov.n	a7, a10
1000286e:	002425                                    	call8	10002ab0 <com_timing_get_current_bfn_time>
10002871:	7538a0                                    	extui	a3, a10, 24, 8
10002874:	0023a5                                    	call8	10002ab0 <com_timing_get_current_bfn_time>
10002877:	f87c                                    	movi.n	a8, -1
10002879:	b5af92                                    	movi	a9, -75
1000287c:	418880                                    	srli	a8, a8, 8
1000287f:	0199f0                                    	slli	a9, a9, 17
10002882:	108a80                                    	and	a8, a10, a8
10002885:	823390                                    	mull	a3, a3, a9
10002888:	c05580                                    	sub	a5, a5, a8
1000288b:	17f8                                    	l32i.n	a15, a7, 4
1000288d:	353a                                    	add.n	a3, a5, a3
1000288f:	07ad                                    	mov.n	a10, a7
10002891:	0739                                    	s32i.n	a3, a7, 0
10002893:	f96f56                                    	bnez	a15, 1000282d <com_debug_trace_buffer+0xc9>
10002896:	250c                                    	movi.n	a5, 2
10002898:	2cd232                                    	addmi	a3, a2, 0x2c00
1000289b:	f960f1                                    	l32r	a15, 10000e1c (bbba0000 <_memmap_cacheattr_bp_allvalid+0x7775bbbc>)
1000289e:	1a59                                    	s32i.n	a5, a10, 4
100028a0:	3d63f2                                    	s32i	a15, a3, 244
100028a3:	ffe186                                    	j	1000282d <com_debug_trace_buffer+0xc9>

100028a6 <com_debug_trace_buffer+0x142>:
	...

100028a8 <com_send_rb_e_INVALID_OPCODE_ERR>:
100028a8:	00e136                                    	entry	a1, 112
100028ab:	24c1a2                                    	addi	a10, a1, 36
100028ae:	0b0c                                    	movi.n	a11, 0
100028b0:	cc2c                                    	movi.n	a12, 44
100028b2:	037e25                                    	call8	10006094 <memset>
100028b5:	e47c                                    	movi.n	a4, -2
100028b7:	f44040                                    	extui	a4, a4, 0, 16
100028ba:	f95951                                    	l32r	a5, 10000e20 (ffff0002 <xthals_hw_configid0+0x3ffe6d7c>)
100028bd:	4149                                    	s32i.n	a4, a1, 16
100028bf:	6159                                    	s32i.n	a5, a1, 24
100028c1:	001ee5                                    	call8	10002ab0 <com_timing_get_current_bfn_time>
100028c4:	51a9                                    	s32i.n	a10, a1, 20
100028c6:	10c1a2                                    	addi	a10, a1, 16
100028c9:	0b1c                                    	movi.n	a11, 16
100028cb:	7129                                    	s32i.n	a2, a1, 28
100028cd:	8139                                    	s32i.n	a3, a1, 32
100028cf:	019a65                                    	call8	10004274 <com_msg_send_readback>
100028d2:	f01d                                    	retw.n

100028d4 <com_send_rb_e_MSG_TIMING_ERR>:
100028d4:	00e136                                    	entry	a1, 112
100028d7:	080c                                    	movi.n	a8, 0
100028d9:	112200                                    	slli	a2, a2, 16
100028dc:	ef7c                                    	movi.n	a15, -2
100028de:	116182                                    	s32i	a8, a1, 68
100028e1:	106182                                    	s32i	a8, a1, 64
100028e4:	f189                                    	s32i.n	a8, a1, 60
100028e6:	e189                                    	s32i.n	a8, a1, 56
100028e8:	d189                                    	s32i.n	a8, a1, 52
100028ea:	c189                                    	s32i.n	a8, a1, 48
100028ec:	b189                                    	s32i.n	a8, a1, 44
100028ee:	f480f0                                    	extui	a8, a15, 0, 16
100028f1:	226b                                    	addi.n	a2, a2, 6
100028f3:	136172                                    	s32i	a7, a1, 76
100028f6:	1c2172                                    	l32i	a7, a1, 112
100028f9:	2189                                    	s32i.n	a8, a1, 8
100028fb:	4129                                    	s32i.n	a2, a1, 16
100028fd:	001b25                                    	call8	10002ab0 <com_timing_get_current_bfn_time>
10002900:	132122                                    	l32i	a2, a1, 76
10002903:	31a9                                    	s32i.n	a10, a1, 12
10002905:	a18b                                    	addi.n	a10, a1, 8
10002907:	0b1c                                    	movi.n	a11, 16
10002909:	5139                                    	s32i.n	a3, a1, 20
1000290b:	6149                                    	s32i.n	a4, a1, 24
1000290d:	7159                                    	s32i.n	a5, a1, 28
1000290f:	8169                                    	s32i.n	a6, a1, 32
10002911:	9129                                    	s32i.n	a2, a1, 36
10002913:	a179                                    	s32i.n	a7, a1, 40
10002915:	0195e5                                    	call8	10004274 <com_msg_send_readback>
10002918:	f01d                                    	retw.n

1000291a <com_send_rb_e_MSG_TIMING_ERR+0x46>:
	...

1000291c <com_send_rb_e_EXCEPTION_ERR>:
1000291c:	010136                                    	entry	a1, 128
1000291f:	ea7c                                    	movi.n	a10, -2
10002921:	112200                                    	slli	a2, a2, 16
10002924:	080c                                    	movi.n	a8, 0
10002926:	f4a0a0                                    	extui	a10, a10, 0, 16
10002929:	22ab                                    	addi.n	a2, a2, 10
1000292b:	176172                                    	s32i	a7, a1, 92
1000292e:	166162                                    	s32i	a6, a1, 88
10002931:	156152                                    	s32i	a5, a1, 84
10002934:	146142                                    	s32i	a4, a1, 80
10002937:	136182                                    	s32i	a8, a1, 76
1000293a:	126182                                    	s32i	a8, a1, 72
1000293d:	116182                                    	s32i	a8, a1, 68
10002940:	232142                                    	l32i	a4, a1, 140
10002943:	222172                                    	l32i	a7, a1, 136
10002946:	212162                                    	l32i	a6, a1, 132
10002949:	202152                                    	l32i	a5, a1, 128
1000294c:	41a9                                    	s32i.n	a10, a1, 16
1000294e:	066122                                    	s32i	a2, a1, 24
10002951:	0015e5                                    	call8	10002ab0 <com_timing_get_current_bfn_time>
10002954:	142122                                    	l32i	a2, a1, 80
10002957:	1521c2                                    	l32i	a12, a1, 84
1000295a:	1621d2                                    	l32i	a13, a1, 88
1000295d:	1721e2                                    	l32i	a14, a1, 92
10002960:	af0c                                    	movi.n	a15, 10
10002962:	51a9                                    	s32i.n	a10, a1, 20
10002964:	10c1a2                                    	addi	a10, a1, 16
10002967:	0b1c                                    	movi.n	a11, 16
10002969:	7139                                    	s32i.n	a3, a1, 28
1000296b:	8129                                    	s32i.n	a2, a1, 32
1000296d:	91c9                                    	s32i.n	a12, a1, 36
1000296f:	a1d9                                    	s32i.n	a13, a1, 40
10002971:	b1e9                                    	s32i.n	a14, a1, 44
10002973:	c159                                    	s32i.n	a5, a1, 48
10002975:	d169                                    	s32i.n	a6, a1, 52
10002977:	e179                                    	s32i.n	a7, a1, 56
10002979:	f149                                    	s32i.n	a4, a1, 60
1000297b:	1061f2                                    	s32i	a15, a1, 64
1000297e:	018f65                                    	call8	10004274 <com_msg_send_readback>
10002981:	f01d                                    	retw.n

10002983 <com_send_rb_e_EXCEPTION_ERR+0x67>:
	...

10002984 <com_send_rb_e_EVENT_HANDLER_ERR>:
10002984:	00e136                                    	entry	a1, 112
10002987:	28c1a2                                    	addi	a10, a1, 40
1000298a:	0b0c                                    	movi.n	a11, 0
1000298c:	8c2c                                    	movi.n	a12, 40
1000298e:	037065                                    	call8	10006094 <memset>
10002991:	e67c                                    	movi.n	a6, -2
10002993:	112200                                    	slli	a2, a2, 16
10002996:	f46060                                    	extui	a6, a6, 0, 16
10002999:	22eb                                    	addi.n	a2, a2, 14
1000299b:	4169                                    	s32i.n	a6, a1, 16
1000299d:	6129                                    	s32i.n	a2, a1, 24
1000299f:	001125                                    	call8	10002ab0 <com_timing_get_current_bfn_time>
100029a2:	51a9                                    	s32i.n	a10, a1, 20
100029a4:	10c1a2                                    	addi	a10, a1, 16
100029a7:	0b1c                                    	movi.n	a11, 16
100029a9:	7139                                    	s32i.n	a3, a1, 28
100029ab:	8149                                    	s32i.n	a4, a1, 32
100029ad:	9159                                    	s32i.n	a5, a1, 36
100029af:	018c65                                    	call8	10004274 <com_msg_send_readback>
100029b2:	f01d                                    	retw.n

100029b4 <com_send_rb_e_IRQ_ERR>:
100029b4:	00e136                                    	entry	a1, 112
100029b7:	20c1a2                                    	addi	a10, a1, 32
100029ba:	0b0c                                    	movi.n	a11, 0
100029bc:	30a0c2                                    	movi	a12, 48
100029bf:	036d65                                    	call8	10006094 <memset>
100029c2:	e47c                                    	movi.n	a4, -2
100029c4:	112200                                    	slli	a2, a2, 16
100029c7:	f44040                                    	extui	a4, a4, 0, 16
100029ca:	12c222                                    	addi	a2, a2, 18
100029cd:	4149                                    	s32i.n	a4, a1, 16
100029cf:	6129                                    	s32i.n	a2, a1, 24
100029d1:	000de5                                    	call8	10002ab0 <com_timing_get_current_bfn_time>
100029d4:	51a9                                    	s32i.n	a10, a1, 20
100029d6:	10c1a2                                    	addi	a10, a1, 16
100029d9:	0b1c                                    	movi.n	a11, 16
100029db:	7139                                    	s32i.n	a3, a1, 28
100029dd:	018965                                    	call8	10004274 <com_msg_send_readback>
100029e0:	f01d                                    	retw.n

100029e2 <com_send_rb_e_IRQ_ERR+0x2e>:
	...

100029e4 <com_send_rb_e_FSM_TRANSITION_ERR>:
100029e4:	00e136                                    	entry	a1, 112
100029e7:	28c1a2                                    	addi	a10, a1, 40
100029ea:	0b0c                                    	movi.n	a11, 0
100029ec:	28a0c2                                    	movi	a12, 40
100029ef:	036a65                                    	call8	10006094 <memset>
100029f2:	e67c                                    	movi.n	a6, -2
100029f4:	112200                                    	slli	a2, a2, 16
100029f7:	f46060                                    	extui	a6, a6, 0, 16
100029fa:	16c222                                    	addi	a2, a2, 22
100029fd:	4169                                    	s32i.n	a6, a1, 16
100029ff:	6129                                    	s32i.n	a2, a1, 24
10002a01:	000ae5                                    	call8	10002ab0 <com_timing_get_current_bfn_time>
10002a04:	51a9                                    	s32i.n	a10, a1, 20
10002a06:	10c1a2                                    	addi	a10, a1, 16
10002a09:	0b1c                                    	movi.n	a11, 16
10002a0b:	7139                                    	s32i.n	a3, a1, 28
10002a0d:	8149                                    	s32i.n	a4, a1, 32
10002a0f:	9159                                    	s32i.n	a5, a1, 36
10002a11:	018625                                    	call8	10004274 <com_msg_send_readback>
10002a14:	f01d                                    	retw.n

10002a16 <com_send_rb_e_FSM_TRANSITION_ERR+0x32>:
	...

10002a18 <com_send_rb_e_QUAD_FSM_TRANSITION_ERR>:
10002a18:	00e136                                    	entry	a1, 112
10002a1b:	2cc1a2                                    	addi	a10, a1, 44
10002a1e:	0b0c                                    	movi.n	a11, 0
10002a20:	24a0c2                                    	movi	a12, 36
10002a23:	036725                                    	call8	10006094 <memset>
10002a26:	e77c                                    	movi.n	a7, -2
10002a28:	112200                                    	slli	a2, a2, 16
10002a2b:	f47070                                    	extui	a7, a7, 0, 16
10002a2e:	1ac222                                    	addi	a2, a2, 26
10002a31:	4179                                    	s32i.n	a7, a1, 16
10002a33:	6129                                    	s32i.n	a2, a1, 24
10002a35:	0007a5                                    	call8	10002ab0 <com_timing_get_current_bfn_time>
10002a38:	51a9                                    	s32i.n	a10, a1, 20
10002a3a:	10c1a2                                    	addi	a10, a1, 16
10002a3d:	0b1c                                    	movi.n	a11, 16
10002a3f:	7139                                    	s32i.n	a3, a1, 28
10002a41:	8149                                    	s32i.n	a4, a1, 32
10002a43:	9159                                    	s32i.n	a5, a1, 36
10002a45:	a169                                    	s32i.n	a6, a1, 40
10002a47:	0182e5                                    	call8	10004274 <com_msg_send_readback>
10002a4a:	f01d                                    	retw.n

10002a4c <com_send_rb_e_BOOT_ERR>:
10002a4c:	00e136                                    	entry	a1, 112
10002a4f:	24c1a2                                    	addi	a10, a1, 36
10002a52:	0b0c                                    	movi.n	a11, 0
10002a54:	2ca0c2                                    	movi	a12, 44
10002a57:	0363e5                                    	call8	10006094 <memset>
10002a5a:	e57c                                    	movi.n	a5, -2
10002a5c:	112200                                    	slli	a2, a2, 16
10002a5f:	f45050                                    	extui	a5, a5, 0, 16
10002a62:	1ec222                                    	addi	a2, a2, 30
10002a65:	4159                                    	s32i.n	a5, a1, 16
10002a67:	6129                                    	s32i.n	a2, a1, 24
10002a69:	000465                                    	call8	10002ab0 <com_timing_get_current_bfn_time>
10002a6c:	51a9                                    	s32i.n	a10, a1, 20
10002a6e:	10c1a2                                    	addi	a10, a1, 16
10002a71:	0b1c                                    	movi.n	a11, 16
10002a73:	7139                                    	s32i.n	a3, a1, 28
10002a75:	8149                                    	s32i.n	a4, a1, 32
10002a77:	017fe5                                    	call8	10004274 <com_msg_send_readback>
10002a7a:	f01d                                    	retw.n

10002a7c <com_send_rb_e_CONFIG_MSG_ERR>:
10002a7c:	00e136                                    	entry	a1, 112
10002a7f:	24c1a2                                    	addi	a10, a1, 36
10002a82:	0b0c                                    	movi.n	a11, 0
10002a84:	2ca0c2                                    	movi	a12, 44
10002a87:	0360e5                                    	call8	10006094 <memset>
10002a8a:	e57c                                    	movi.n	a5, -2
10002a8c:	112200                                    	slli	a2, a2, 16
10002a8f:	f45050                                    	extui	a5, a5, 0, 16
10002a92:	22c222                                    	addi	a2, a2, 34
10002a95:	4159                                    	s32i.n	a5, a1, 16
10002a97:	6129                                    	s32i.n	a2, a1, 24
10002a99:	000165                                    	call8	10002ab0 <com_timing_get_current_bfn_time>
10002a9c:	51a9                                    	s32i.n	a10, a1, 20
10002a9e:	10c1a2                                    	addi	a10, a1, 16
10002aa1:	0b1c                                    	movi.n	a11, 16
10002aa3:	7139                                    	s32i.n	a3, a1, 28
10002aa5:	8149                                    	s32i.n	a4, a1, 32
10002aa7:	017ce5                                    	call8	10004274 <com_msg_send_readback>
10002aaa:	f01d                                    	retw.n

10002aac <com_send_rb_e_CONFIG_MSG_ERR+0x30>:
10002aac:	00000000                                ....

10002ab0 <com_timing_get_current_bfn_time>:
10002ab0:	004136                                    	entry	a1, 32
10002ab3:	ff8ea5                                    	call8	1000239c <com_bfn_get_live_time>
10002ab6:	0a2d                                    	mov.n	a2, a10
10002ab8:	f01d                                    	retw.n

10002aba <com_timing_get_current_bfn_time+0xa>:
	...

10002abc <com_timing_is_bfn1_earlier_bfn2>:
10002abc:	004136                                    	entry	a1, 32
10002abf:	f47c                                    	movi.n	a4, -1
10002ac1:	014480                                    	slli	a4, a4, 24
10002ac4:	10e240                                    	and	a14, a2, a4
10002ac7:	10f340                                    	and	a15, a3, a4
10002aca:	c05230                                    	sub	a5, a2, a3
10002acd:	c02ef0                                    	sub	a2, a14, a15
10002ad0:	653820                                    	extui	a3, a2, 24, 7
10002ad3:	935230                                    	movnez	a5, a2, a3
10002ad6:	052f50                                    	extui	a2, a5, 31, 1
10002ad9:	f01d                                    	retw.n

10002adb <com_timing_is_bfn1_earlier_bfn2+0x1f>:
	...

10002adc <com_timing_is_bfn1_earlier_or_equal_bfn2>:
10002adc:	004136                                    	entry	a1, 32
10002adf:	f47c                                    	movi.n	a4, -1
10002ae1:	014480                                    	slli	a4, a4, 24
10002ae4:	10d240                                    	and	a13, a2, a4
10002ae7:	10e340                                    	and	a14, a3, a4
10002aea:	c05230                                    	sub	a5, a2, a3
10002aed:	c02de0                                    	sub	a2, a13, a14
10002af0:	653820                                    	extui	a3, a2, 24, 7
10002af3:	1f0c                                    	movi.n	a15, 1
10002af5:	935230                                    	movnez	a5, a2, a3
10002af8:	7225f0                                    	salt	a2, a5, a15
10002afb:	f01d                                    	retw.n

10002afd <com_timing_is_bfn1_earlier_or_equal_bfn2+0x21>:
10002afd:	000000                                        ...

10002b00 <com_timing_convert_ticks_to_bfn_epoch>:
10002b00:	004136                                    	entry	a1, 32
10002b03:	b44c                                    	movi.n	a4, 75
10002b05:	553c                                    	movi.n	a5, 53
10002b07:	0144f0                                    	slli	a4, a4, 17
10002b0a:	c26340                                    	quou	a6, a3, a4
10002b0d:	0155f0                                    	slli	a5, a5, 17
10002b10:	825650                                    	mull	a5, a6, a5
10002b13:	f87c                                    	movi.n	a8, -1
10002b15:	418880                                    	srli	a8, a8, 8
10002b18:	d53a                                    	add.n	a13, a5, a3
10002b1a:	01e680                                    	slli	a14, a6, 24
10002b1d:	103d80                                    	and	a3, a13, a8
10002b20:	53ea                                    	add.n	a5, a3, a14
10002b22:	107280                                    	and	a7, a2, a8
10002b25:	10f580                                    	and	a15, a5, a8
10002b28:	6f7a                                    	add.n	a6, a15, a7
10002b2a:	752820                                    	extui	a2, a2, 24, 8
10002b2d:	755850                                    	extui	a5, a5, 24, 8
10002b30:	1a3647                                    	bltu	a6, a4, 10002b4e <com_timing_convert_ticks_to_bfn_epoch+0x4e>
10002b33:	b5af62                                    	movi	a6, -75
10002b36:	0166f0                                    	slli	a6, a6, 17
10002b39:	337a                                    	add.n	a3, a3, a7
10002b3b:	336a                                    	add.n	a3, a3, a6
10002b3d:	c24340                                    	quou	a4, a3, a4
10002b40:	826460                                    	mull	a6, a4, a6
10002b43:	224a                                    	add.n	a2, a2, a4
10002b45:	225a                                    	add.n	a2, a2, a5
10002b47:	663a                                    	add.n	a6, a6, a3
10002b49:	221b                                    	addi.n	a2, a2, 1
10002b4b:	000046                                    	j	10002b50 <com_timing_convert_ticks_to_bfn_epoch+0x50>

10002b4e <com_timing_convert_ticks_to_bfn_epoch+0x4e>:
10002b4e:	252a                                    	add.n	a2, a5, a2
10002b50:	012280                                    	slli	a2, a2, 24
10002b53:	202260                                    	or	a2, a2, a6
10002b56:	f01d                                    	retw.n

10002b58 <com_timing_convert_bfn_to_ticks_epoch>:
10002b58:	004136                                    	entry	a1, 32
10002b5b:	f47c                                    	movi.n	a4, -1
10002b5d:	b74c                                    	movi.n	a7, 75
10002b5f:	755830                                    	extui	a5, a3, 24, 8
10002b62:	756820                                    	extui	a6, a2, 24, 8
10002b65:	414840                                    	srli	a4, a4, 8
10002b68:	0177f0                                    	slli	a7, a7, 17
10002b6b:	c08560                                    	sub	a8, a5, a6
10002b6e:	10c340                                    	and	a12, a3, a4
10002b71:	10d240                                    	and	a13, a2, a4
10002b74:	82e870                                    	mull	a14, a8, a7
10002b77:	c04cd0                                    	sub	a4, a12, a13
10002b7a:	cbaff2                                    	movi	a15, -53
10002b7d:	012f70                                    	slli	a2, a15, 25
10002b80:	803e40                                    	add	a3, a14, a4
10002b83:	005896                                    	bltz	a8, 10002b8c <com_timing_convert_bfn_to_ticks_epoch+0x34>
10002b86:	049567                                    	bne	a5, a6, 10002b8e <com_timing_convert_bfn_to_ticks_epoch+0x36>
10002b89:	0014d6                                    	bgez	a4, 10002b8e <com_timing_convert_bfn_to_ticks_epoch+0x36>

10002b8c <com_timing_convert_bfn_to_ticks_epoch+0x34>:
10002b8c:	332a                                    	add.n	a3, a3, a2
10002b8e:	432a                                    	add.n	a4, a3, a2
10002b90:	03ea20                                    	rsr.ccount	a2
10002b93:	060c                                    	movi.n	a6, 0
10002b95:	c05320                                    	sub	a5, a3, a2
10002b98:	c0f420                                    	sub	a15, a4, a2
10002b9b:	727f50                                    	salt	a7, a15, a5
10002b9e:	032d                                    	mov.n	a2, a3
10002ba0:	7266f0                                    	salt	a6, a6, a15
10002ba3:	933470                                    	movnez	a3, a4, a7
10002ba6:	932360                                    	movnez	a2, a3, a6
10002ba9:	a32450                                    	movltz	a2, a4, a5
10002bac:	f01d                                    	retw.n

10002bae <com_timing_convert_bfn_to_ticks_epoch+0x56>:
	...

10002bb0 <com_timing_increment_epoch>:
10002bb0:	004136                                    	entry	a1, 32
10002bb3:	f37c                                    	movi.n	a3, -1
10002bb5:	413830                                    	srli	a3, a3, 8
10002bb8:	740c                                    	movi.n	a4, 7
10002bba:	103230                                    	and	a3, a2, a3
10002bbd:	0144f0                                    	slli	a4, a4, 17
10002bc0:	752820                                    	extui	a2, a2, 24, 8
10002bc3:	233347                                    	bltu	a3, a4, 10002bea <com_timing_increment_epoch+0x3a>
10002bc6:	947c                                    	movi.n	a4, -7
10002bc8:	b54c                                    	movi.n	a5, 75
10002bca:	0144f0                                    	slli	a4, a4, 17
10002bcd:	0155f0                                    	slli	a5, a5, 17
10002bd0:	334a                                    	add.n	a3, a3, a4
10002bd2:	b5afd2                                    	movi	a13, -75
10002bd5:	c25350                                    	quou	a5, a3, a5
10002bd8:	014df0                                    	slli	a4, a13, 17
10002bdb:	826540                                    	mull	a6, a5, a4
10002bde:	e25a                                    	add.n	a14, a2, a5
10002be0:	b5a1f2                                    	movi	a15, 0x1b5
10002be3:	4efa                                    	add.n	a4, a14, a15
10002be5:	263a                                    	add.n	a2, a6, a3
10002be7:	000346                                    	j	10002bf8 <com_timing_increment_epoch+0x48>

10002bea <com_timing_increment_epoch+0x3a>:
10002bea:	151c                                    	movi.n	a5, 17
10002bec:	b4a142                                    	movi	a4, 0x1b4
10002bef:	0155d0                                    	slli	a5, a5, 19
10002bf2:	804240                                    	add	a4, a2, a4
10002bf5:	802350                                    	add	a2, a3, a5
10002bf8:	013480                                    	slli	a3, a4, 24
10002bfb:	202320                                    	or	a2, a3, a2
10002bfe:	f01d                                    	retw.n

10002c00 <com_timing_get_current_epoch>:
10002c00:	004136                                    	entry	a1, 32
10002c03:	f88821                                    	l32r	a2, 10000e24 (10025560 <g_com_timing_epoch>)
10002c06:	0228                                    	l32i.n	a2, a2, 0
10002c08:	f01d                                    	retw.n

10002c0a <com_timing_get_current_epoch+0xa>:
	...

10002c0c <com_timing_set_current_epoch>:
10002c0c:	004136                                    	entry	a1, 32
10002c0f:	f88531                                    	l32r	a3, 10000e24 (10025560 <g_com_timing_epoch>)
10002c12:	0329                                    	s32i.n	a2, a3, 0
10002c14:	f01d                                    	retw.n

10002c16 <com_timing_set_current_epoch+0xa>:
	...

10002c18 <com_timing_wait_ns>:
10002c18:	004136                                    	entry	a1, 32
10002c1b:	03ea30                                    	rsr.ccount	a3
10002c1e:	71a242                                    	movi	a4, 0x271
10002c21:	902220                                    	addx2	a2, a2, a2
10002c24:	a04440                                    	addx4	a4, a4, a4
10002c27:	115260                                    	slli	a5, a2, 10
10002c2a:	c22540                                    	quou	a2, a5, a4
10002c2d:	02b547                                    	bgeu	a5, a4, 10002c33 <com_timing_wait_ns+0x1b>

10002c30 <com_timing_wait_ns+0x18>:
10002c30:	f01d                                    	retw.n

10002c32 <com_timing_wait_ns+0x1a>:
	...

10002c33 <com_timing_wait_ns+0x1b>:
10002c33:	232a                                    	add.n	a2, a3, a2
10002c35:	088176                                    	loop	a1, 10002c41 <com_timing_wait_ns+0x29>
10002c38:	03ea30                                    	rsr.ccount	a3
10002c3b:	c03320                                    	sub	a3, a3, a2
10002c3e:	fee3d6                                    	bgez	a3, 10002c30 <com_timing_wait_ns+0x18>

10002c41 <com_timing_wait_ns+0x29>:
10002c41:	fffcc6                                    	j	10002c38 <com_timing_wait_ns+0x20>

10002c44 <com_fsm_init>:
10002c44:	004136                                    	entry	a1, 32
10002c47:	20a220                                    	or	a10, a2, a2
10002c4a:	017665                                    	call8	100043b0 <com_shared_mem_get_fsm_status_block>
10002c4d:	130c                                    	movi.n	a3, 1
10002c4f:	0a39                                    	s32i.n	a3, a10, 0
10002c51:	02ad                                    	mov.n	a10, a2
10002c53:	0174a5                                    	call8	1000439c <com_shared_mem_get_fsm_quad_status_block>
10002c56:	0a39                                    	s32i.n	a3, a10, 0
10002c58:	20a220                                    	or	a10, a2, a2
10002c5b:	017425                                    	call8	1000439c <com_shared_mem_get_fsm_quad_status_block>
10002c5e:	1a39                                    	s32i.n	a3, a10, 4
10002c60:	02ad                                    	mov.n	a10, a2
10002c62:	0173a5                                    	call8	1000439c <com_shared_mem_get_fsm_quad_status_block>
10002c65:	2a39                                    	s32i.n	a3, a10, 8
10002c67:	02ad                                    	mov.n	a10, a2
10002c69:	017325                                    	call8	1000439c <com_shared_mem_get_fsm_quad_status_block>
10002c6c:	3a39                                    	s32i.n	a3, a10, 12
10002c6e:	f01d                                    	retw.n

10002c70 <com_fsm_quad_init>:
10002c70:	004136                                    	entry	a1, 32
10002c73:	20a220                                    	or	a10, a2, a2
10002c76:	017265                                    	call8	1000439c <com_shared_mem_get_fsm_quad_status_block>
10002c79:	130c                                    	movi.n	a3, 1
10002c7b:	0a39                                    	s32i.n	a3, a10, 0
10002c7d:	02ad                                    	mov.n	a10, a2
10002c7f:	0171e5                                    	call8	1000439c <com_shared_mem_get_fsm_quad_status_block>
10002c82:	1a39                                    	s32i.n	a3, a10, 4
10002c84:	02ad                                    	mov.n	a10, a2
10002c86:	017165                                    	call8	1000439c <com_shared_mem_get_fsm_quad_status_block>
10002c89:	2a39                                    	s32i.n	a3, a10, 8
10002c8b:	02ad                                    	mov.n	a10, a2
10002c8d:	0170e5                                    	call8	1000439c <com_shared_mem_get_fsm_quad_status_block>
10002c90:	3a39                                    	s32i.n	a3, a10, 12
10002c92:	f01d                                    	retw.n

10002c94 <com_fsm_quad_get_status>:
10002c94:	004136                                    	entry	a1, 32
10002c97:	02ad                                    	mov.n	a10, a2
10002c99:	017025                                    	call8	1000439c <com_shared_mem_get_fsm_quad_status_block>
10002c9c:	a023a0                                    	addx4	a2, a3, a10
10002c9f:	0228                                    	l32i.n	a2, a2, 0
10002ca1:	f01d                                    	retw.n

10002ca3 <com_fsm_quad_get_status+0xf>:
	...

10002ca4 <com_fsm_quad_update_status>:
10002ca4:	004136                                    	entry	a1, 32
10002ca7:	02ad                                    	mov.n	a10, a2
10002ca9:	016f25                                    	call8	1000439c <com_shared_mem_get_fsm_quad_status_block>
10002cac:	a023a0                                    	addx4	a2, a3, a10
10002caf:	002232                                    	l32i	a3, a2, 0
10002cb2:	021347                                    	beq	a3, a4, 10002cb8 <com_fsm_quad_update_status+0x14>
10002cb5:	006242                                    	s32i	a4, a2, 0

10002cb8 <com_fsm_quad_update_status+0x14>:
10002cb8:	0020c0                                    	memw
10002cbb:	f01d                                    	retw.n

10002cbd <com_fsm_quad_update_status+0x19>:
10002cbd:	000000                                        ...

10002cc0 <com_fsm_get_status>:
10002cc0:	004136                                    	entry	a1, 32
10002cc3:	02ad                                    	mov.n	a10, a2
10002cc5:	016ea5                                    	call8	100043b0 <com_shared_mem_get_fsm_status_block>
10002cc8:	0a28                                    	l32i.n	a2, a10, 0
10002cca:	f01d                                    	retw.n

10002ccc <com_fsm_update_status>:
10002ccc:	004136                                    	entry	a1, 32
10002ccf:	20a220                                    	or	a10, a2, a2
10002cd2:	016de5                                    	call8	100043b0 <com_shared_mem_get_fsm_status_block>
10002cd5:	0a28                                    	l32i.n	a2, a10, 0
10002cd7:	011237                                    	beq	a2, a3, 10002cdc <com_fsm_update_status+0x10>
10002cda:	0a39                                    	s32i.n	a3, a10, 0

10002cdc <com_fsm_update_status+0x10>:
10002cdc:	f01d                                    	retw.n

10002cde <com_fsm_update_status+0x12>:
	...

10002ce0 <com_fsm_transition_check_quadmask_transition>:
10002ce0:	006136                                    	entry	a1, 48
10002ce3:	1f0c                                    	movi.n	a15, 1
10002ce5:	3169                                    	s32i.n	a6, a1, 12
10002ce7:	026d                                    	mov.n	a6, a2
10002ce9:	1179                                    	s32i.n	a7, a1, 4
10002ceb:	21f9                                    	s32i.n	a15, a1, 8
10002ced:	b3ac                                    	beqz.n	a3, 10002d1c <com_fsm_transition_check_quadmask_transition+0x3c>
10002cef:	032d                                    	mov.n	a2, a3
10002cf1:	030c                                    	movi.n	a3, 0
10002cf3:	070c                                    	movi.n	a7, 0
10002cf5:	0001c6                                    	j	10002d00 <com_fsm_transition_check_quadmask_transition+0x20>

10002cf8 <com_fsm_transition_check_quadmask_transition+0x18>:
	...

10002cf9 <com_fsm_transition_check_quadmask_transition+0x19>:
10002cf9:	771b                                    	addi.n	a7, a7, 1
10002cfb:	334b                                    	addi.n	a3, a3, 4
10002cfd:	1b4726                                    	beqi	a7, 4, 10002d1c <com_fsm_transition_check_quadmask_transition+0x3c>
10002d00:	f55277                                    	bbc	a2, a7, 10002cf9 <com_fsm_transition_check_quadmask_transition+0x19>
10002d03:	06ad                                    	mov.n	a10, a6
10002d05:	016965                                    	call8	1000439c <com_shared_mem_get_fsm_quad_status_block>
10002d08:	8a3a                                    	add.n	a8, a10, a3
10002d0a:	08b8                                    	l32i.n	a11, a8, 0
10002d0c:	06ad                                    	mov.n	a10, a6
10002d0e:	11c8                                    	l32i.n	a12, a1, 4
10002d10:	07dd                                    	mov.n	a13, a7
10002d12:	000da5                                    	call8	10002dec <com_fsm_quad_transition>
10002d15:	fe0a56                                    	bnez	a10, 10002cf9 <com_fsm_transition_check_quadmask_transition+0x19>
10002d18:	020c                                    	movi.n	a2, 0
10002d1a:	2129                                    	s32i.n	a2, a1, 8
10002d1c:	2128                                    	l32i.n	a2, a1, 8
10002d1e:	e4ac                                    	beqz.n	a4, 10002d50 <com_fsm_transition_check_quadmask_transition+0x70>
10002d20:	030c                                    	movi.n	a3, 0
10002d22:	020c                                    	movi.n	a2, 0
10002d24:	000206                                    	j	10002d30 <com_fsm_transition_check_quadmask_transition+0x50>

10002d27 <com_fsm_transition_check_quadmask_transition+0x47>:
	...

10002d29 <com_fsm_transition_check_quadmask_transition+0x49>:
10002d29:	221b                                    	addi.n	a2, a2, 1
10002d2b:	334b                                    	addi.n	a3, a3, 4
10002d2d:	1d4226                                    	beqi	a2, 4, 10002d4e <com_fsm_transition_check_quadmask_transition+0x6e>
10002d30:	f55427                                    	bbc	a4, a2, 10002d29 <com_fsm_transition_check_quadmask_transition+0x49>
10002d33:	06ad                                    	mov.n	a10, a6
10002d35:	016665                                    	call8	1000439c <com_shared_mem_get_fsm_quad_status_block>
10002d38:	7a3a                                    	add.n	a7, a10, a3
10002d3a:	07b8                                    	l32i.n	a11, a7, 0
10002d3c:	06ad                                    	mov.n	a10, a6
10002d3e:	11c8                                    	l32i.n	a12, a1, 4
10002d40:	02dd                                    	mov.n	a13, a2
10002d42:	000aa5                                    	call8	10002dec <com_fsm_quad_transition>
10002d45:	fe0a56                                    	bnez	a10, 10002d29 <com_fsm_transition_check_quadmask_transition+0x49>
10002d48:	020c                                    	movi.n	a2, 0
10002d4a:	000086                                    	j	10002d50 <com_fsm_transition_check_quadmask_transition+0x70>

10002d4d <com_fsm_transition_check_quadmask_transition+0x6d>:
	...

10002d4e <com_fsm_transition_check_quadmask_transition+0x6e>:
10002d4e:	120c                                    	movi.n	a2, 1
10002d50:	65ac                                    	beqz.n	a5, 10002d7a <com_fsm_transition_check_quadmask_transition+0x9a>
10002d52:	030c                                    	movi.n	a3, 0
10002d54:	020c                                    	movi.n	a2, 0
10002d56:	000186                                    	j	10002d60 <com_fsm_transition_check_quadmask_transition+0x80>

10002d59 <com_fsm_transition_check_quadmask_transition+0x79>:
10002d59:	221b                                    	addi.n	a2, a2, 1
10002d5b:	334b                                    	addi.n	a3, a3, 4
10002d5d:	204226                                    	beqi	a2, 4, 10002d81 <com_fsm_transition_check_quadmask_transition+0xa1>
10002d60:	f55527                                    	bbc	a5, a2, 10002d59 <com_fsm_transition_check_quadmask_transition+0x79>
10002d63:	06ad                                    	mov.n	a10, a6
10002d65:	016365                                    	call8	1000439c <com_shared_mem_get_fsm_quad_status_block>
10002d68:	4a3a                                    	add.n	a4, a10, a3
10002d6a:	04b8                                    	l32i.n	a11, a4, 0
10002d6c:	06ad                                    	mov.n	a10, a6
10002d6e:	11c8                                    	l32i.n	a12, a1, 4
10002d70:	02dd                                    	mov.n	a13, a2
10002d72:	0007a5                                    	call8	10002dec <com_fsm_quad_transition>
10002d75:	fe0a56                                    	bnez	a10, 10002d59 <com_fsm_transition_check_quadmask_transition+0x79>
10002d78:	020c                                    	movi.n	a2, 0
10002d7a:	3158                                    	l32i.n	a5, a1, 12
10002d7c:	85cc                                    	bnez.n	a5, 10002d88 <com_fsm_transition_check_quadmask_transition+0xa8>
10002d7e:	f01d                                    	retw.n

10002d80 <com_fsm_transition_check_quadmask_transition+0xa0>:
	...

10002d81 <com_fsm_transition_check_quadmask_transition+0xa1>:
10002d81:	120c                                    	movi.n	a2, 1
10002d83:	3158                                    	l32i.n	a5, a1, 12
10002d85:	ff5516                                    	beqz	a5, 10002d7e <com_fsm_transition_check_quadmask_transition+0x9e>
10002d88:	030c                                    	movi.n	a3, 0
10002d8a:	020c                                    	movi.n	a2, 0
10002d8c:	000206                                    	j	10002d98 <com_fsm_transition_check_quadmask_transition+0xb8>

10002d8f <com_fsm_transition_check_quadmask_transition+0xaf>:
	...

10002d91 <com_fsm_transition_check_quadmask_transition+0xb1>:
10002d91:	221b                                    	addi.n	a2, a2, 1
10002d93:	334b                                    	addi.n	a3, a3, 4
10002d95:	1b4226                                    	beqi	a2, 4, 10002db4 <com_fsm_transition_check_quadmask_transition+0xd4>
10002d98:	f55527                                    	bbc	a5, a2, 10002d91 <com_fsm_transition_check_quadmask_transition+0xb1>
10002d9b:	06ad                                    	mov.n	a10, a6
10002d9d:	015fe5                                    	call8	1000439c <com_shared_mem_get_fsm_quad_status_block>
10002da0:	4a3a                                    	add.n	a4, a10, a3
10002da2:	04b8                                    	l32i.n	a11, a4, 0
10002da4:	06ad                                    	mov.n	a10, a6
10002da6:	11c8                                    	l32i.n	a12, a1, 4
10002da8:	02dd                                    	mov.n	a13, a2
10002daa:	000425                                    	call8	10002dec <com_fsm_quad_transition>
10002dad:	fe0a56                                    	bnez	a10, 10002d91 <com_fsm_transition_check_quadmask_transition+0xb1>
10002db0:	020c                                    	movi.n	a2, 0
10002db2:	f01d                                    	retw.n

10002db4 <com_fsm_transition_check_quadmask_transition+0xd4>:
10002db4:	120c                                    	movi.n	a2, 1
10002db6:	f01d                                    	retw.n

10002db8 <com_fsm_transition_quadmask>:
10002db8:	004136                                    	entry	a1, 32
10002dbb:	060c                                    	movi.n	a6, 0
10002dbd:	050c                                    	movi.n	a5, 0
10002dbf:	000186                                    	j	10002dc9 <com_fsm_transition_quadmask+0x11>

10002dc2 <com_fsm_transition_quadmask+0xa>:
10002dc2:	551b                                    	addi.n	a5, a5, 1
10002dc4:	664b                                    	addi.n	a6, a6, 4
10002dc6:	1e4526                                    	beqi	a5, 4, 10002de8 <com_fsm_transition_quadmask+0x30>
10002dc9:	f55357                                    	bbc	a3, a5, 10002dc2 <com_fsm_transition_quadmask+0xa>
10002dcc:	02ad                                    	mov.n	a10, a2
10002dce:	015ce5                                    	call8	1000439c <com_shared_mem_get_fsm_quad_status_block>
10002dd1:	7a6a                                    	add.n	a7, a10, a6
10002dd3:	07b8                                    	l32i.n	a11, a7, 0
10002dd5:	02ad                                    	mov.n	a10, a2
10002dd7:	20c440                                    	or	a12, a4, a4
10002dda:	20d550                                    	or	a13, a5, a5
10002ddd:	0000e5                                    	call8	10002dec <com_fsm_quad_transition>
10002de0:	fdea56                                    	bnez	a10, 10002dc2 <com_fsm_transition_quadmask+0xa>
10002de3:	020c                                    	movi.n	a2, 0
10002de5:	f01d                                    	retw.n

10002de7 <com_fsm_transition_quadmask+0x2f>:
	...

10002de8 <com_fsm_transition_quadmask+0x30>:
10002de8:	120c                                    	movi.n	a2, 1
10002dea:	f01d                                    	retw.n

10002dec <com_fsm_quad_transition>:
10002dec:	004136                                    	entry	a1, 32
10002def:	640b                                    	addi.n	a6, a4, -1
10002df1:	c70c                                    	movi.n	a7, 12
10002df3:	713767                                    	bltu	a7, a6, 10002e68 <com_fsm_quad_transition+0x7c>
10002df6:	f80c71                                    	l32r	a7, 10000e28 (10024320 <__switchjump_table_xp_temp_8_0>)
10002df9:	fdc382                                    	addi	a8, a3, -3
10002dfc:	a06670                                    	addx4	a6, a6, a7
10002dff:	0668                                    	l32i.n	a6, a6, 0
10002e01:	d0a072                                    	movi	a7, 208
10002e04:	0006a0                                    	jx	a6

10002e07 <com_fsm_quad_transition+0x1b>:
10002e07:	260c                                    	movi.n	a6, 2
10002e09:	2f2326                                    	beqi	a3, 2, 10002e3c <com_fsm_quad_transition+0x50>
10002e0c:	001606                                    	j	10002e68 <com_fsm_quad_transition+0x7c>

10002e0f <com_fsm_quad_transition+0x23>:
10002e0f:	260c                                    	movi.n	a6, 2
10002e11:	2758b6                                    	bltui	a8, 5, 10002e3c <com_fsm_quad_transition+0x50>
10002e14:	001406                                    	j	10002e68 <com_fsm_quad_transition+0x7c>

10002e17 <com_fsm_quad_transition+0x2b>:
10002e17:	260c                                    	movi.n	a6, 2
10002e19:	1f1326                                    	beqi	a3, 1, 10002e3c <com_fsm_quad_transition+0x50>
10002e1c:	001206                                    	j	10002e68 <com_fsm_quad_transition+0x7c>

10002e1f <com_fsm_quad_transition+0x33>:
10002e1f:	360c                                    	movi.n	a6, 3
10002e21:	172326                                    	beqi	a3, 2, 10002e3c <com_fsm_quad_transition+0x50>
10002e24:	001006                                    	j	10002e68 <com_fsm_quad_transition+0x7c>

10002e27 <com_fsm_quad_transition+0x3b>:
10002e27:	fdc362                                    	addi	a6, a3, -3
10002e2a:	d77c                                    	movi.n	a7, -3
10002e2c:	388767                                    	bany	a7, a6, 10002e68 <com_fsm_quad_transition+0x7c>
10002e2f:	460c                                    	movi.n	a6, 4
10002e31:	0001c6                                    	j	10002e3c <com_fsm_quad_transition+0x50>

10002e34 <com_fsm_quad_transition+0x48>:
10002e34:	3083f6                                    	bgeui	a3, 8, 10002e68 <com_fsm_quad_transition+0x7c>
10002e37:	036d                                    	mov.n	a6, a3
10002e39:	2b5737                                    	bbc	a7, a3, 10002e68 <com_fsm_quad_transition+0x7c>

10002e3c <com_fsm_quad_transition+0x50>:
10002e3c:	02ad                                    	mov.n	a10, a2
10002e3e:	0155e5                                    	call8	1000439c <com_shared_mem_get_fsm_quad_status_block>
10002e41:	a025a0                                    	addx4	a2, a5, a10
10002e44:	0238                                    	l32i.n	a3, a2, 0
10002e46:	021367                                    	beq	a3, a6, 10002e4c <com_fsm_quad_transition+0x60>
10002e49:	006262                                    	s32i	a6, a2, 0
10002e4c:	0020c0                                    	memw
10002e4f:	120c                                    	movi.n	a2, 1
10002e51:	f01d                                    	retw.n

10002e53 <com_fsm_quad_transition+0x67>:
10002e53:	460c                                    	movi.n	a6, 4
10002e55:	e37326                                    	beqi	a3, 7, 10002e3c <com_fsm_quad_transition+0x50>
10002e58:	000306                                    	j	10002e68 <com_fsm_quad_transition+0x7c>

10002e5b <com_fsm_quad_transition+0x6f>:
10002e5b:	560c                                    	movi.n	a6, 5
10002e5d:	db4326                                    	beqi	a3, 4, 10002e3c <com_fsm_quad_transition+0x50>
10002e60:	000106                                    	j	10002e68 <com_fsm_quad_transition+0x7c>

10002e63 <com_fsm_quad_transition+0x77>:
10002e63:	760c                                    	movi.n	a6, 7
10002e65:	d34326                                    	beqi	a3, 4, 10002e3c <com_fsm_quad_transition+0x50>

10002e68 <com_fsm_quad_transition+0x7c>:
10002e68:	da3c                                    	movi.n	a10, 61
10002e6a:	02bd                                    	mov.n	a11, a2
10002e6c:	03cd                                    	mov.n	a12, a3
10002e6e:	04dd                                    	mov.n	a13, a4
10002e70:	05ed                                    	mov.n	a14, a5
10002e72:	ffba65                                    	call8	10002a18 <com_send_rb_e_QUAD_FSM_TRANSITION_ERR>
10002e75:	020c                                    	movi.n	a2, 0
10002e77:	f01d                                    	retw.n

10002e79 <com_fsm_quad_transition+0x8d>:
10002e79:	760c                                    	movi.n	a6, 7
10002e7b:	bd6326                                    	beqi	a3, 6, 10002e3c <com_fsm_quad_transition+0x50>
10002e7e:	fff986                                    	j	10002e68 <com_fsm_quad_transition+0x7c>

10002e81 <com_fsm_quad_transition+0x95>:
10002e81:	660c                                    	movi.n	a6, 6
10002e83:	b54326                                    	beqi	a3, 4, 10002e3c <com_fsm_quad_transition+0x50>
10002e86:	fff786                                    	j	10002e68 <com_fsm_quad_transition+0x7c>

10002e89 <com_fsm_quad_transition+0x9d>:
10002e89:	000000                                        ...

10002e8c <com_fsm_transition_run>:
10002e8c:	004136                                    	entry	a1, 32
10002e8f:	02ad                                    	mov.n	a10, a2
10002e91:	023d                                    	mov.n	a3, a2
10002e93:	0151e5                                    	call8	100043b0 <com_shared_mem_get_fsm_status_block>
10002e96:	0a48                                    	l32i.n	a4, a10, 0
10002e98:	120c                                    	movi.n	a2, 1
10002e9a:	1a3426                                    	beqi	a4, 3, 10002eb8 <com_fsm_transition_run+0x2c>
10002e9d:	03ad                                    	mov.n	a10, a3
10002e9f:	015125                                    	call8	100043b0 <com_shared_mem_get_fsm_status_block>
10002ea2:	0ac8                                    	l32i.n	a12, a10, 0
10002ea4:	3a3c                                    	movi.n	a10, 51
10002ea6:	102c66                                    	bnei	a12, 2, 10002eba <com_fsm_transition_run+0x2e>
10002ea9:	03ad                                    	mov.n	a10, a3
10002eab:	015065                                    	call8	100043b0 <com_shared_mem_get_fsm_status_block>
10002eae:	0a38                                    	l32i.n	a3, a10, 0
10002eb0:	340c                                    	movi.n	a4, 3
10002eb2:	023326                                    	beqi	a3, 3, 10002eb8 <com_fsm_transition_run+0x2c>
10002eb5:	006a42                                    	s32i	a4, a10, 0

10002eb8 <com_fsm_transition_run+0x2c>:
10002eb8:	f01d                                    	retw.n

10002eba <com_fsm_transition_run+0x2e>:
10002eba:	5d0c                                    	movi.n	a13, 5
10002ebc:	03bd                                    	mov.n	a11, a3
10002ebe:	ffb265                                    	call8	100029e4 <com_send_rb_e_FSM_TRANSITION_ERR>
10002ec1:	020c                                    	movi.n	a2, 0
10002ec3:	f01d                                    	retw.n

10002ec5 <com_fsm_transition_run+0x39>:
10002ec5:	000000                                        ...

10002ec8 <com_fsm_transition>:
10002ec8:	004136                                    	entry	a1, 32
10002ecb:	540b                                    	addi.n	a5, a4, -1
10002ecd:	4495f6                                    	bgeui	a5, 10, 10002f15 <com_fsm_transition+0x4d>
10002ed0:	f7d761                                    	l32r	a6, 10000e2c (10024354 <__switchjump_table_xp_temp_10_0>)
10002ed3:	ef7c                                    	movi.n	a15, -2
10002ed5:	a05560                                    	addx4	a5, a5, a6
10002ed8:	0558                                    	l32i.n	a5, a5, 0
10002eda:	1063f0                                    	and	a6, a3, a15
10002edd:	0005a0                                    	jx	a5

10002ee0 <com_fsm_transition+0x18>:
10002ee0:	250c                                    	movi.n	a5, 2
10002ee2:	2f2366                                    	bnei	a3, 2, 10002f15 <com_fsm_transition+0x4d>

10002ee5 <com_fsm_transition+0x1d>:
10002ee5:	02ad                                    	mov.n	a10, a2
10002ee7:	014ca5                                    	call8	100043b0 <com_shared_mem_get_fsm_status_block>
10002eea:	0a38                                    	l32i.n	a3, a10, 0
10002eec:	120c                                    	movi.n	a2, 1
10002eee:	021357                                    	beq	a3, a5, 10002ef4 <com_fsm_transition+0x2c>
10002ef1:	006a52                                    	s32i	a5, a10, 0
10002ef4:	f01d                                    	retw.n

10002ef6 <com_fsm_transition+0x2e>:
	...

10002ef8 <com_fsm_transition+0x30>:
10002ef8:	250c                                    	movi.n	a5, 2
10002efa:	e71326                                    	beqi	a3, 1, 10002ee5 <com_fsm_transition+0x1d>
10002efd:	000506                                    	j	10002f15 <com_fsm_transition+0x4d>

10002f00 <com_fsm_transition+0x38>:
10002f00:	035d                                    	mov.n	a5, a3
10002f02:	df2626                                    	beqi	a6, 2, 10002ee5 <com_fsm_transition+0x1d>
10002f05:	000306                                    	j	10002f15 <com_fsm_transition+0x4d>

10002f08 <com_fsm_transition+0x40>:
10002f08:	350c                                    	movi.n	a5, 3
10002f0a:	d72326                                    	beqi	a3, 2, 10002ee5 <com_fsm_transition+0x1d>
10002f0d:	000106                                    	j	10002f15 <com_fsm_transition+0x4d>

10002f10 <com_fsm_transition+0x48>:
10002f10:	250c                                    	movi.n	a5, 2
10002f12:	cf3326                                    	beqi	a3, 3, 10002ee5 <com_fsm_transition+0x1d>

10002f15 <com_fsm_transition+0x4d>:
10002f15:	3a3c                                    	movi.n	a10, 51
10002f17:	02bd                                    	mov.n	a11, a2
10002f19:	03cd                                    	mov.n	a12, a3
10002f1b:	04dd                                    	mov.n	a13, a4
10002f1d:	ffac65                                    	call8	100029e4 <com_send_rb_e_FSM_TRANSITION_ERR>
10002f20:	020c                                    	movi.n	a2, 0
10002f22:	f01d                                    	retw.n

10002f24 <com_fsm_transition+0x5c>:
10002f24:	450c                                    	movi.n	a5, 4
10002f26:	bb2326                                    	beqi	a3, 2, 10002ee5 <com_fsm_transition+0x1d>
10002f29:	fffa06                                    	j	10002f15 <com_fsm_transition+0x4d>

10002f2c <com_fsm_transition+0x64>:
10002f2c:	250c                                    	movi.n	a5, 2
10002f2e:	b34326                                    	beqi	a3, 4, 10002ee5 <com_fsm_transition+0x1d>
10002f31:	fff806                                    	j	10002f15 <com_fsm_transition+0x4d>

10002f34 <com_fsm_transition_off_stop>:
10002f34:	004136                                    	entry	a1, 32
10002f37:	02ad                                    	mov.n	a10, a2
10002f39:	023d                                    	mov.n	a3, a2
10002f3b:	014625                                    	call8	1000439c <com_shared_mem_get_fsm_quad_status_block>
10002f3e:	0a28                                    	l32i.n	a2, a10, 0
10002f40:	20a330                                    	or	a10, a3, a3
10002f43:	0145a5                                    	call8	1000439c <com_shared_mem_get_fsm_quad_status_block>
10002f46:	1a48                                    	l32i.n	a4, a10, 4
10002f48:	03ad                                    	mov.n	a10, a3
10002f4a:	014525                                    	call8	1000439c <com_shared_mem_get_fsm_quad_status_block>
10002f4d:	2a58                                    	l32i.n	a5, a10, 8
10002f4f:	03ad                                    	mov.n	a10, a3
10002f51:	0144a5                                    	call8	1000439c <com_shared_mem_get_fsm_quad_status_block>
10002f54:	620b                                    	addi.n	a6, a2, -1
10002f56:	120c                                    	movi.n	a2, 1
10002f58:	2a26f6                                    	bgeui	a6, 2, 10002f86 <com_fsm_transition_off_stop+0x52>
10002f5b:	440b                                    	addi.n	a4, a4, -1
10002f5d:	2524f6                                    	bgeui	a4, 2, 10002f86 <com_fsm_transition_off_stop+0x52>
10002f60:	450b                                    	addi.n	a4, a5, -1
10002f62:	2024f6                                    	bgeui	a4, 2, 10002f86 <com_fsm_transition_off_stop+0x52>
10002f65:	3a48                                    	l32i.n	a4, a10, 12
10002f67:	03ad                                    	mov.n	a10, a3
10002f69:	440b                                    	addi.n	a4, a4, -1
10002f6b:	1724f6                                    	bgeui	a4, 2, 10002f86 <com_fsm_transition_off_stop+0x52>
10002f6e:	014425                                    	call8	100043b0 <com_shared_mem_get_fsm_status_block>
10002f71:	0ac8                                    	l32i.n	a12, a10, 0
10002f73:	3a3c                                    	movi.n	a10, 51
10002f75:	103c66                                    	bnei	a12, 3, 10002f89 <com_fsm_transition_off_stop+0x55>
10002f78:	03ad                                    	mov.n	a10, a3
10002f7a:	014365                                    	call8	100043b0 <com_shared_mem_get_fsm_status_block>
10002f7d:	0a38                                    	l32i.n	a3, a10, 0
10002f7f:	240c                                    	movi.n	a4, 2
10002f81:	012326                                    	beqi	a3, 2, 10002f86 <com_fsm_transition_off_stop+0x52>
10002f84:	0a49                                    	s32i.n	a4, a10, 0

10002f86 <com_fsm_transition_off_stop+0x52>:
10002f86:	f01d                                    	retw.n

10002f88 <com_fsm_transition_off_stop+0x54>:
	...

10002f89 <com_fsm_transition_off_stop+0x55>:
10002f89:	6d0c                                    	movi.n	a13, 6
10002f8b:	03bd                                    	mov.n	a11, a3
10002f8d:	ffa565                                    	call8	100029e4 <com_send_rb_e_FSM_TRANSITION_ERR>
10002f90:	020c                                    	movi.n	a2, 0
10002f92:	f01d                                    	retw.n

10002f94 <com_fsm_off_mode_check>:
10002f94:	004136                                    	entry	a1, 32
10002f97:	023d                                    	mov.n	a3, a2
10002f99:	1e0c                                    	movi.n	a14, 1
10002f9b:	6222e0                                    	saltu	a2, a2, a14
10002f9e:	045130                                    	extui	a5, a3, 1, 1
10002fa1:	11f2d0                                    	slli	a15, a2, 3
10002fa4:	a40c                                    	movi.n	a4, 10
10002fa6:	834f50                                    	moveqz	a4, a15, a5
10002fa9:	820c                                    	movi.n	a2, 8
10002fab:	043030                                    	extui	a3, a3, 0, 1
10002fae:	832430                                    	moveqz	a2, a4, a3
10002fb1:	f01d                                    	retw.n

10002fb3 <com_fsm_off_mode_check+0x1f>:
	...

10002fc0 <core_fw_mismatch_check>:
10002fc0:	004136                                    	entry	a1, 32
10002fc3:	03eb20                                    	rsr.prid	a2
10002fc6:	03a032                                    	movi	a3, 3
10002fc9:	170327                                    	bnone	a3, a2, 10002fe4 <core_fw_mismatch_check+0x24>
10002fcc:	142020                                    	extui	a2, a2, 0, 2
10002fcf:	013825                                    	call8	10004350 <com_shared_mem_wait_for_ready>
10002fd2:	1b0c                                    	movi.n	a11, 1
10002fd4:	02ad                                    	mov.n	a10, a2
10002fd6:	0134a5                                    	call8	10004320 <com_shared_mem_set_sys_status>
10002fd9:	048176                                    	loop	a1, 10002fe1 <core_fw_mismatch_check+0x21>

10002fdc <core_fw_mismatch_check+0x1c>:
10002fdc:	007000                                    	waiti	0
10002fdf:	f03d                                    	nop.n

10002fe1 <core_fw_mismatch_check+0x21>:
10002fe1:	fffdc6                                    	j	10002fdc <core_fw_mismatch_check+0x1c>

10002fe4 <core_fw_mismatch_check+0x24>:
10002fe4:	f01d                                    	retw.n

10002fe6 <core_fw_mismatch_check+0x26>:
	...

10002fe8 <com_get_fw_version>:
10002fe8:	004136                                    	entry	a1, 32
10002feb:	f79121                                    	l32r	a2, 10000e30 (100247d8 <ver_commit_id>)
10002fee:	3a0c                                    	movi.n	a10, 3
10002ff0:	02d8                                    	l32i.n	a13, a2, 0
10002ff2:	0b0c                                    	movi.n	a11, 0
10002ff4:	0c0c                                    	movi.n	a12, 0
10002ff6:	0e0c                                    	movi.n	a14, 0
10002ff8:	ff76a5                                    	call8	10002764 <com_debug_trace_buffer>
10002ffb:	f01d                                    	retw.n

10002ffd <com_get_fw_version+0x15>:
10002ffd:	000000                                        ...

10003000 <core_sync_up>:
10003000:	00e136                                    	entry	a1, 112
10003003:	0a0c                                    	movi.n	a10, 0
10003005:	3b1c                                    	movi.n	a11, 19
10003007:	361c                                    	movi.n	a6, 19
10003009:	013165                                    	call8	10004320 <com_shared_mem_set_sys_status>
1000300c:	721b                                    	addi.n	a7, a2, 1
1000300e:	f78921                                    	l32r	a2, 10000e34 (1000314c <com_boot_wait_handler>)

10003011 <core_sync_up+0x11>:
10003011:	770b                                    	addi.n	a7, a7, -1
10003013:	09f716                                    	beqz	a7, 100030b6 <core_sync_up+0xb6>
10003016:	36a2a2                                    	movi	a10, 0x236
10003019:	0c0c                                    	movi.n	a12, 0
1000301b:	02bd                                    	mov.n	a11, a2
1000301d:	fe5225                                    	call8	10001540 <com_isr_event>
10003020:	006f40                                    	rsil	a4, 15
10003023:	03ea50                                    	rsr.ccount	a5
10003026:	1a0c                                    	movi.n	a10, 1
10003028:	b53a                                    	add.n	a11, a5, a3
1000302a:	030d65                                    	call8	10006100 <xthal_set_ccompare>
1000302d:	36a2a2                                    	movi	a10, 0x236
10003030:	fe5e25                                    	call8	10001614 <com_isr_interrupt_enable>
10003033:	007000                                    	waiti	0
10003036:	13e640                                    	wsr.ps	a4
10003039:	002020                                    	esync
1000303c:	01a0a2                                    	movi	a10, 1
1000303f:	012f25                                    	call8	10004330 <com_shared_mem_get_sys_status>
10003042:	0a4d                                    	mov.n	a4, a10
10003044:	2a0c                                    	movi.n	a10, 2
10003046:	012ea5                                    	call8	10004330 <com_shared_mem_get_sys_status>
10003049:	0a5d                                    	mov.n	a5, a10
1000304b:	3a0c                                    	movi.n	a10, 3
1000304d:	012e25                                    	call8	10004330 <com_shared_mem_get_sys_status>
10003050:	bd9a67                                    	bne	a10, a6, 10003011 <core_sync_up+0x11>
10003053:	ba9567                                    	bne	a5, a6, 10003011 <core_sync_up+0x11>
10003056:	b79467                                    	bne	a4, a6, 10003011 <core_sync_up+0x11>
10003059:	f37c                                    	movi.n	a3, -1
1000305b:	020c                                    	movi.n	a2, 0
1000305d:	f43030                                    	extui	a3, a3, 0, 16
10003060:	140c                                    	movi.n	a4, 1
10003062:	f77351                                    	l32r	a5, 10000e30 (100247d8 <ver_commit_id>)
10003065:	f77461                                    	l32r	a6, 10000e38 (100245e0 <ver_fw>)
10003068:	5129                                    	s32i.n	a2, a1, 20
1000306a:	6149                                    	s32i.n	a4, a1, 24
1000306c:	4139                                    	s32i.n	a3, a1, 16
1000306e:	0538                                    	l32i.n	a3, a5, 0
10003070:	06c8                                    	l32i.n	a12, a6, 0
10003072:	0d1c                                    	movi.n	a13, 16
10003074:	5566c0                                    	extui	a6, a12, 22, 6
10003077:	35ecc0                                    	extui	a14, a12, 28, 4
1000307a:	105cd0                                    	and	a5, a12, a13
1000307d:	e0a3b2                                    	movi	a11, 0x3e0
10003080:	7139                                    	s32i.n	a3, a1, 28
10003082:	013e80                                    	slli	a3, a14, 24
10003085:	116600                                    	slli	a6, a6, 16
10003088:	34fac0                                    	extui	a15, a12, 10, 4
1000308b:	102cb0                                    	and	a2, a12, a11
1000308e:	336a                                    	add.n	a3, a3, a6
10003090:	747ec0                                    	extui	a7, a12, 14, 8
10003093:	116f80                                    	slli	a6, a15, 8
10003096:	3440c0                                    	extui	a4, a12, 0, 4
10003099:	1155c0                                    	slli	a5, a5, 4
1000309c:	454a                                    	add.n	a4, a5, a4
1000309e:	112250                                    	slli	a2, a2, 11
100030a1:	676a                                    	add.n	a6, a7, a6
100030a3:	262a                                    	add.n	a2, a6, a2
100030a5:	334a                                    	add.n	a3, a3, a4
100030a7:	10c1a2                                    	addi	a10, a1, 16
100030aa:	6b0c                                    	movi.n	a11, 6
100030ac:	9129                                    	s32i.n	a2, a1, 36
100030ae:	8139                                    	s32i.n	a3, a1, 32
100030b0:	011c25                                    	call8	10004274 <com_msg_send_readback>
100030b3:	f01d                                    	retw.n

100030b5 <core_sync_up+0xb5>:
	...

100030b6 <core_sync_up+0xb6>:
100030b6:	1a0c                                    	movi.n	a10, 1
100030b8:	120c                                    	movi.n	a2, 1
100030ba:	012765                                    	call8	10004330 <com_shared_mem_get_sys_status>
100030bd:	331c                                    	movi.n	a3, 19
100030bf:	0acd                                    	mov.n	a12, a10
100030c1:	199a37                                    	bne	a10, a3, 100030de <core_sync_up+0xde>
100030c4:	2a0c                                    	movi.n	a10, 2
100030c6:	220c                                    	movi.n	a2, 2
100030c8:	012665                                    	call8	10004330 <com_shared_mem_get_sys_status>
100030cb:	0acd                                    	mov.n	a12, a10
100030cd:	0d9a37                                    	bne	a10, a3, 100030de <core_sync_up+0xde>
100030d0:	3a0c                                    	movi.n	a10, 3
100030d2:	320c                                    	movi.n	a2, 3
100030d4:	0125a5                                    	call8	10004330 <com_shared_mem_get_sys_status>
100030d7:	331c                                    	movi.n	a3, 19
100030d9:	0acd                                    	mov.n	a12, a10
100030db:	061a37                                    	beq	a10, a3, 100030e5 <core_sync_up+0xe5>
100030de:	6a4c                                    	movi.n	a10, 70
100030e0:	02bd                                    	mov.n	a11, a2
100030e2:	ff96a5                                    	call8	10002a4c <com_send_rb_e_BOOT_ERR>
100030e5:	048176                                    	loop	a1, 100030ed <core_sync_up+0xed>
100030e8:	007000                                    	waiti	0
100030eb:	f03d                                    	nop.n

100030ed <core_sync_up+0xed>:
100030ed:	fffdc6                                    	j	100030e8 <core_sync_up+0xe8>

100030f0 <dbg_n_trace>:
100030f0:	004136                                    	entry	a1, 32
100030f3:	f6d521                                    	l32r	a2, 10000c48 (10020000 <com_static_data_init>)
100030f6:	0228                                    	l32i.n	a2, a2, 0
100030f8:	f03d                                    	nop.n
100030fa:	24a220                                    	extui	a10, a2, 2, 3
100030fd:	fe02e5                                    	call8	1000112c <com_set_print_level>
10003100:	fe22e5                                    	call8	10001330 <com_trax_init>
10003103:	0a0c                                    	movi.n	a10, 0
10003105:	2b0c                                    	movi.n	a11, 2
10003107:	0121a5                                    	call8	10004320 <com_shared_mem_set_sys_status>
1000310a:	fe2ce5                                    	call8	100013d8 <com_trax_start>
1000310d:	0a0c                                    	movi.n	a10, 0
1000310f:	3b0c                                    	movi.n	a11, 3
10003111:	0120e5                                    	call8	10004320 <com_shared_mem_set_sys_status>
10003114:	f01d                                    	retw.n

10003116 <dbg_n_trace+0x26>:
	...

10003118 <com_boot_init>:
10003118:	004136                                    	entry	a1, 32
1000311b:	0006a5                                    	call8	10003184 <com_lock_boundary_check_init>
1000311e:	000825                                    	call8	100031a0 <com_idma_init>
10003121:	0a0c                                    	movi.n	a10, 0
10003123:	0ca0b2                                    	movi	a11, 12
10003126:	011fa5                                    	call8	10004320 <com_shared_mem_set_sys_status>
10003129:	004725                                    	call8	1000359c <com_gpdma_init>
1000312c:	0a0c                                    	movi.n	a10, 0
1000312e:	db0c                                    	movi.n	a11, 13
10003130:	011ee5                                    	call8	10004320 <com_shared_mem_set_sys_status>
10003133:	00c325                                    	call8	10003d64 <com_event_init_events>
10003136:	0a0c                                    	movi.n	a10, 0
10003138:	eb0c                                    	movi.n	a11, 14
1000313a:	011e65                                    	call8	10004320 <com_shared_mem_set_sys_status>
1000313d:	00fa65                                    	call8	100040e4 <com_msg_timestamp_init>
10003140:	0a0c                                    	movi.n	a10, 0
10003142:	0b1c                                    	movi.n	a11, 16
10003144:	011da5                                    	call8	10004320 <com_shared_mem_set_sys_status>
10003147:	f01d                                    	retw.n

10003149 <com_boot_init+0x31>:
10003149:	000000                                        ...

1000314c <com_boot_wait_handler>:
1000314c:	004136                                    	entry	a1, 32
1000314f:	36a2a2                                    	movi	a10, 0x236
10003152:	fe5525                                    	call8	100016a4 <com_isr_interrupt_disable>
10003155:	1a0c                                    	movi.n	a10, 1
10003157:	0b0c                                    	movi.n	a11, 0
10003159:	02fa65                                    	call8	10006100 <xthal_set_ccompare>
1000315c:	f01d                                    	retw.n

1000315e <com_boot_wait_handler+0x12>:
	...

10003160 <com_lock_init>:
10003160:	004136                                    	entry	a1, 32
10003163:	f6c631                                    	l32r	a3, 10000c7c (100248e8 <p_system_data>)
10003166:	b40c                                    	movi.n	a4, 11
10003168:	0338                                    	l32i.n	a3, a3, 0
1000316a:	020c                                    	movi.n	a2, 0
1000316c:	414140                                    	srli	a4, a4, 1
1000316f:	0329                                    	s32i.n	a2, a3, 0
10003171:	334b                                    	addi.n	a3, a3, 4
10003173:	059476                                    	loopnez	a4, 1000317c <com_lock_init+0x1c>
10003176:	0329                                    	s32i.n	a2, a3, 0
10003178:	1329                                    	s32i.n	a2, a3, 4
1000317a:	338b                                    	addi.n	a3, a3, 8

1000317c <com_lock_init+0x1c>:
1000317c:	003120                                    	clrex
1000317f:	f01d                                    	retw.n

10003181 <com_lock_init+0x21>:
10003181:	000000                                        ...

10003184 <com_lock_boundary_check_init>:
10003184:	004136                                    	entry	a1, 32
10003187:	f6bd21                                    	l32r	a2, 10000c7c (100248e8 <p_system_data>)
1000318a:	f72c31                                    	l32r	a3, 10000e3c (10025568 <com_shm_lock_first_addr>)
1000318d:	0228                                    	l32i.n	a2, a2, 0
1000318f:	0329                                    	s32i.n	a2, a3, 0
10003191:	28c242                                    	addi	a4, a2, 40
10003194:	1349                                    	s32i.n	a4, a3, 4
10003196:	f01d                                    	retw.n

10003198 <com_lock_boundary_check_init+0x14>:
	...

100031a0 <com_idma_init>:
100031a0:	004136                                    	entry	a1, 32
100031a3:	f72721                                    	l32r	a2, 10000e40 (10025570 <g_idma_que_task>)
100031a6:	030c                                    	movi.n	a3, 0
100031a8:	f72741                                    	l32r	a4, 10000e44 (110014 <_memmap_mem_srom_end+0xf0014>)
100031ab:	0239                                    	s32i.n	a3, a2, 0
100031ad:	407430                                    	wer	a3, a4
100031b0:	f726b1                                    	l32r	a11, 10000e48 (100031d8 <com_idma_done_irq_handler>)
100031b3:	39a2a2                                    	movi	a10, 0x239
100031b6:	0c0c                                    	movi.n	a12, 0
100031b8:	12b9                                    	s32i.n	a11, a2, 4
100031ba:	fe3865                                    	call8	10001540 <com_isr_event>
100031bd:	39a2a2                                    	movi	a10, 0x239
100031c0:	fe4525                                    	call8	10001614 <com_isr_interrupt_enable>
100031c3:	f722b1                                    	l32r	a11, 10000e4c (100031fc <com_idma_err_irq_handler>)
100031c6:	38a2a2                                    	movi	a10, 0x238
100031c9:	0c0c                                    	movi.n	a12, 0
100031cb:	22b9                                    	s32i.n	a11, a2, 8
100031cd:	fe3725                                    	call8	10001540 <com_isr_event>
100031d0:	38a2a2                                    	movi	a10, 0x238
100031d3:	fe4425                                    	call8	10001614 <com_isr_interrupt_enable>
100031d6:	f01d                                    	retw.n

100031d8 <com_idma_done_irq_handler>:
100031d8:	004136                                    	entry	a1, 32
100031db:	f71a21                                    	l32r	a2, 10000e44 (110014 <_memmap_mem_srom_end+0xf0014>)
100031de:	030c                                    	movi.n	a3, 0
100031e0:	407230                                    	wer	a3, a2
100031e3:	f71721                                    	l32r	a2, 10000e40 (10025570 <g_idma_que_task>)
100031e6:	f71a41                                    	l32r	a4, 10000e50 (100247dc <g_idma_last_err>)
100031e9:	0228                                    	l32i.n	a2, a2, 0
100031eb:	0439                                    	s32i.n	a3, a4, 0
100031ed:	728c                                    	beqz.n	a2, 100031f8 <com_idma_done_irq_handler+0x20>
100031ef:	0238                                    	l32i.n	a3, a2, 0
100031f1:	12a8                                    	l32i.n	a10, a2, 4
100031f3:	138c                                    	beqz.n	a3, 100031f8 <com_idma_done_irq_handler+0x20>
100031f5:	0003e0                                    	callx8	a3

100031f8 <com_idma_done_irq_handler+0x20>:
100031f8:	f01d                                    	retw.n

100031fa <com_idma_done_irq_handler+0x22>:
	...

100031fc <com_idma_err_irq_handler>:
100031fc:	004136                                    	entry	a1, 32
100031ff:	f71521                                    	l32r	a2, 10000e54 (110040 <_memmap_mem_srom_end+0xf0040>)
10003202:	406220                                    	rer	a2, a2
10003205:	f71231                                    	l32r	a3, 10000e50 (100247dc <g_idma_last_err>)
10003208:	d52220                                    	extui	a2, a2, 18, 14
1000320b:	39a2a2                                    	movi	a10, 0x239
1000320e:	006322                                    	s32i	a2, a3, 0
10003211:	fe4925                                    	call8	100016a4 <com_isr_interrupt_disable>
10003214:	38a2a2                                    	movi	a10, 0x238
10003217:	fe48e5                                    	call8	100016a4 <com_isr_interrupt_disable>
1000321a:	f70921                                    	l32r	a2, 10000e40 (10025570 <g_idma_que_task>)
1000321d:	030c                                    	movi.n	a3, 0
1000321f:	f70941                                    	l32r	a4, 10000e44 (110014 <_memmap_mem_srom_end+0xf0014>)
10003222:	250c                                    	movi.n	a5, 2
10003224:	0239                                    	s32i.n	a3, a2, 0
10003226:	407450                                    	wer	a5, a4
10003229:	407430                                    	wer	a3, a4
1000322c:	1238                                    	l32i.n	a3, a2, 4
1000322e:	39a2a2                                    	movi	a10, 0x239
10003231:	138c                                    	beqz.n	a3, 10003236 <com_idma_err_irq_handler+0x3a>
10003233:	fe3e25                                    	call8	10001614 <com_isr_interrupt_enable>

10003236 <com_idma_err_irq_handler+0x3a>:
10003236:	2228                                    	l32i.n	a2, a2, 8
10003238:	38a2a2                                    	movi	a10, 0x238
1000323b:	128c                                    	beqz.n	a2, 10003240 <com_idma_err_irq_handler+0x44>
1000323d:	fe3d65                                    	call8	10001614 <com_isr_interrupt_enable>
10003240:	f01d                                    	retw.n

10003242 <com_idma_err_irq_handler+0x46>:
	...

10003244 <com_idma_fill_ctrl>:
10003244:	004136                                    	entry	a1, 32
10003247:	33ac                                    	beqz.n	a3, 1000326e <com_idma_fill_ctrl+0x2a>
10003249:	037d                                    	mov.n	a7, a3
1000324b:	243040                                    	extui	a3, a4, 0, 3
1000324e:	f9c4f2                                    	addi	a15, a4, -7
10003251:	081c                                    	movi.n	a8, 16
10003253:	042c                                    	movi.n	a4, 32
10003255:	670b                                    	addi.n	a6, a7, -1
10003257:	9348f0                                    	movnez	a4, a8, a15
1000325a:	01a052                                    	movi	a5, 1
1000325d:	0d8776                                    	loop	a7, 1000326e <com_idma_fill_ctrl+0x2a>
10003260:	627650                                    	saltu	a7, a6, a5
10003263:	660b                                    	addi.n	a6, a6, -1
10003265:	017710                                    	slli	a7, a7, 31
10003268:	773a                                    	add.n	a7, a7, a3
1000326a:	0279                                    	s32i.n	a7, a2, 0
1000326c:	224a                                    	add.n	a2, a2, a4

1000326e <com_idma_fill_ctrl+0x2a>:
1000326e:	f01d                                    	retw.n

10003270 <com_idma_get_status>:
10003270:	004136                                    	entry	a1, 32
10003273:	f6f821                                    	l32r	a2, 10000e54 (110040 <_memmap_mem_srom_end+0xf0040>)
10003276:	406220                                    	rer	a2, a2
10003279:	242020                                    	extui	a2, a2, 0, 3
1000327c:	f01d                                    	retw.n

1000327e <com_idma_get_status+0xe>:
	...

10003280 <com_idma_get_last_errcode>:
10003280:	004136                                    	entry	a1, 32
10003283:	f6f331                                    	l32r	a3, 10000e50 (100247dc <g_idma_last_err>)
10003286:	040c                                    	movi.n	a4, 0
10003288:	0328                                    	l32i.n	a2, a3, 0
1000328a:	0349                                    	s32i.n	a4, a3, 0
1000328c:	f01d                                    	retw.n

1000328e <com_idma_get_last_errcode+0xe>:
	...

10003290 <com_idma_wait_done>:
10003290:	006136                                    	entry	a1, 48
10003293:	0f0c                                    	movi.n	a15, 0
10003295:	f6eb21                                    	l32r	a2, 10000e44 (110014 <_memmap_mem_srom_end+0xf0014>)
10003298:	31f9                                    	s32i.n	a15, a1, 12
1000329a:	098176                                    	loop	a1, 100032a7 <com_idma_wait_done+0x17>

1000329d <com_idma_wait_done+0xd>:
1000329d:	406230                                    	rer	a3, a2
100032a0:	3139                                    	s32i.n	a3, a1, 12
100032a2:	3138                                    	l32i.n	a3, a1, 12
100032a4:	026307                                    	bbci	a3, 0, 100032aa <com_idma_wait_done+0x1a>

100032a7 <com_idma_wait_done+0x17>:
100032a7:	fffc86                                    	j	1000329d <com_idma_wait_done+0xd>

100032aa <com_idma_wait_done+0x1a>:
100032aa:	f6e921                                    	l32r	a2, 10000e50 (100247dc <g_idma_last_err>)
100032ad:	0228                                    	l32i.n	a2, a2, 0
100032af:	f01d                                    	retw.n

100032b1 <com_idma_wait_done+0x21>:
100032b1:	000000                                        ...

100032b4 <com_idma_trans_1d>:
100032b4:	006136                                    	entry	a1, 48
100032b7:	f6e861                                    	l32r	a6, 10000e58 (10024030 <g_idma_desc2d>)
100032ba:	080c                                    	movi.n	a8, 0
100032bc:	f6e271                                    	l32r	a7, 10000e44 (110014 <_memmap_mem_srom_end+0xf0014>)
100032bf:	f6e7f1                                    	l32r	a15, 10000e5c (80000003 <_memmap_cacheattr_bp_allvalid+0x3bbbbbbf>)
100032c2:	6689                                    	s32i.n	a8, a6, 24
100032c4:	06f9                                    	s32i.n	a15, a6, 0
100032c6:	4689                                    	s32i.n	a8, a6, 16
100032c8:	5689                                    	s32i.n	a8, a6, 20
100032ca:	7689                                    	s32i.n	a8, a6, 28
100032cc:	1639                                    	s32i.n	a3, a6, 4
100032ce:	2629                                    	s32i.n	a2, a6, 8
100032d0:	3649                                    	s32i.n	a4, a6, 12
100032d2:	036182                                    	s32i	a8, a1, 12
100032d5:	098176                                    	loop	a1, 100032e2 <com_idma_trans_1d+0x2e>

100032d8 <com_idma_trans_1d+0x24>:
100032d8:	406720                                    	rer	a2, a7
100032db:	3129                                    	s32i.n	a2, a1, 12
100032dd:	3128                                    	l32i.n	a2, a1, 12
100032df:	026207                                    	bbci	a2, 0, 100032e5 <com_idma_trans_1d+0x31>

100032e2 <com_idma_trans_1d+0x2e>:
100032e2:	fffc86                                    	j	100032d8 <com_idma_trans_1d+0x24>

100032e5 <com_idma_trans_1d+0x31>:
100032e5:	f6d641                                    	l32r	a4, 10000e40 (10025570 <g_idma_que_task>)
100032e8:	f6da21                                    	l32r	a2, 10000e50 (100247dc <g_idma_last_err>)
100032eb:	f6dd31                                    	l32r	a3, 10000e60 (11111111 <__stack+0x10d1111>)
100032ee:	f6dd81                                    	l32r	a8, 10000e64 (110008 <_memmap_mem_srom_end+0xf0008>)
100032f1:	0239                                    	s32i.n	a3, a2, 0
100032f3:	0459                                    	s32i.n	a5, a4, 0
100032f5:	407860                                    	wer	a6, a8
100032f8:	121c                                    	movi.n	a2, 17
100032fa:	112200                                    	slli	a2, a2, 16
100032fd:	8ca032                                    	movi	a3, 140
10003300:	407230                                    	wer	a3, a2
10003303:	120c                                    	movi.n	a2, 1
10003305:	407720                                    	wer	a2, a7
10003308:	f6d831                                    	l32r	a3, 10000e68 (110010 <_memmap_mem_srom_end+0xf0010>)
1000330b:	407320                                    	wer	a2, a3
1000330e:	f01d                                    	retw.n

10003310 <com_idma_trans_desc>:
10003310:	006136                                    	entry	a1, 48
10003313:	0f0c                                    	movi.n	a15, 0
10003315:	f6cb51                                    	l32r	a5, 10000e44 (110014 <_memmap_mem_srom_end+0xf0014>)
10003318:	31f9                                    	s32i.n	a15, a1, 12
1000331a:	098176                                    	loop	a1, 10003327 <com_idma_trans_desc+0x17>

1000331d <com_idma_trans_desc+0xd>:
1000331d:	406560                                    	rer	a6, a5
10003320:	3169                                    	s32i.n	a6, a1, 12
10003322:	3168                                    	l32i.n	a6, a1, 12
10003324:	026607                                    	bbci	a6, 0, 1000332a <com_idma_trans_desc+0x1a>

10003327 <com_idma_trans_desc+0x17>:
10003327:	fffc86                                    	j	1000331d <com_idma_trans_desc+0xd>

1000332a <com_idma_trans_desc+0x1a>:
1000332a:	f6c581                                    	l32r	a8, 10000e40 (10025570 <g_idma_que_task>)
1000332d:	f6c861                                    	l32r	a6, 10000e50 (100247dc <g_idma_last_err>)
10003330:	f6cc71                                    	l32r	a7, 10000e60 (11111111 <__stack+0x10d1111>)
10003333:	f6cc91                                    	l32r	a9, 10000e64 (110008 <_memmap_mem_srom_end+0xf0008>)
10003336:	0679                                    	s32i.n	a7, a6, 0
10003338:	0849                                    	s32i.n	a4, a8, 0
1000333a:	407920                                    	wer	a2, a9
1000333d:	121c                                    	movi.n	a2, 17
1000333f:	112200                                    	slli	a2, a2, 16
10003342:	8ca042                                    	movi	a4, 140
10003345:	407240                                    	wer	a4, a2
10003348:	120c                                    	movi.n	a2, 1
1000334a:	407520                                    	wer	a2, a5
1000334d:	f6c621                                    	l32r	a2, 10000e68 (110010 <_memmap_mem_srom_end+0xf0010>)
10003350:	407230                                    	wer	a3, a2
10003353:	f01d                                    	retw.n

10003355 <com_idma_trans_desc+0x45>:
10003355:	000000                                        ...

10003358 <com_idma_trans_2d>:
10003358:	006136                                    	entry	a1, 48
1000335b:	f6bf81                                    	l32r	a8, 10000e58 (10024030 <g_idma_desc2d>)
1000335e:	f6c3f1                                    	l32r	a15, 10000e6c (80000007 <_memmap_cacheattr_bp_allvalid+0x3bbbbbc3>)
10003361:	0b0c                                    	movi.n	a11, 0
10003363:	f6b8a1                                    	l32r	a10, 10000e44 (110014 <_memmap_mem_srom_end+0xf0014>)
10003366:	c198                                    	l32i.n	a9, a1, 48
10003368:	78b9                                    	s32i.n	a11, a8, 28
1000336a:	08f9                                    	s32i.n	a15, a8, 0
1000336c:	1839                                    	s32i.n	a3, a8, 4
1000336e:	2829                                    	s32i.n	a2, a8, 8
10003370:	3849                                    	s32i.n	a4, a8, 12
10003372:	6859                                    	s32i.n	a5, a8, 24
10003374:	4869                                    	s32i.n	a6, a8, 16
10003376:	5879                                    	s32i.n	a7, a8, 20
10003378:	31b9                                    	s32i.n	a11, a1, 12
1000337a:	098176                                    	loop	a1, 10003387 <com_idma_trans_2d+0x2f>

1000337d <com_idma_trans_2d+0x25>:
1000337d:	406a20                                    	rer	a2, a10
10003380:	3129                                    	s32i.n	a2, a1, 12
10003382:	3128                                    	l32i.n	a2, a1, 12
10003384:	026207                                    	bbci	a2, 0, 1000338a <com_idma_trans_2d+0x32>

10003387 <com_idma_trans_2d+0x2f>:
10003387:	fffc86                                    	j	1000337d <com_idma_trans_2d+0x25>

1000338a <com_idma_trans_2d+0x32>:
1000338a:	f6ad41                                    	l32r	a4, 10000e40 (10025570 <g_idma_que_task>)
1000338d:	f6b021                                    	l32r	a2, 10000e50 (100247dc <g_idma_last_err>)
10003390:	f6b431                                    	l32r	a3, 10000e60 (11111111 <__stack+0x10d1111>)
10003393:	f6b451                                    	l32r	a5, 10000e64 (110008 <_memmap_mem_srom_end+0xf0008>)
10003396:	0239                                    	s32i.n	a3, a2, 0
10003398:	0499                                    	s32i.n	a9, a4, 0
1000339a:	407580                                    	wer	a8, a5
1000339d:	121c                                    	movi.n	a2, 17
1000339f:	112200                                    	slli	a2, a2, 16
100033a2:	8ca032                                    	movi	a3, 140
100033a5:	407230                                    	wer	a3, a2
100033a8:	120c                                    	movi.n	a2, 1
100033aa:	407a20                                    	wer	a2, a10
100033ad:	f6ae31                                    	l32r	a3, 10000e68 (110010 <_memmap_mem_srom_end+0xf0010>)
100033b0:	407320                                    	wer	a2, a3
100033b3:	f01d                                    	retw.n

100033b5 <com_idma_trans_2d+0x5d>:
100033b5:	000000                                        ...

100033b8 <com_idma_broadcast>:
100033b8:	006136                                    	entry	a1, 48
100033bb:	f6a781                                    	l32r	a8, 10000e58 (10024030 <g_idma_desc2d>)
100033be:	0a0c                                    	movi.n	a10, 0
100033c0:	f6abf1                                    	l32r	a15, 10000e6c (80000007 <_memmap_cacheattr_bp_allvalid+0x3bbbbbc3>)
100033c3:	f6a091                                    	l32r	a9, 10000e44 (110014 <_memmap_mem_srom_end+0xf0014>)
100033c6:	78a9                                    	s32i.n	a10, a8, 28
100033c8:	08f9                                    	s32i.n	a15, a8, 0
100033ca:	1839                                    	s32i.n	a3, a8, 4
100033cc:	2829                                    	s32i.n	a2, a8, 8
100033ce:	3849                                    	s32i.n	a4, a8, 12
100033d0:	6859                                    	s32i.n	a5, a8, 24
100033d2:	48a9                                    	s32i.n	a10, a8, 16
100033d4:	5869                                    	s32i.n	a6, a8, 20
100033d6:	0361a2                                    	s32i	a10, a1, 12
100033d9:	098176                                    	loop	a1, 100033e6 <com_idma_broadcast+0x2e>

100033dc <com_idma_broadcast+0x24>:
100033dc:	406920                                    	rer	a2, a9
100033df:	3129                                    	s32i.n	a2, a1, 12
100033e1:	3128                                    	l32i.n	a2, a1, 12
100033e3:	026207                                    	bbci	a2, 0, 100033e9 <com_idma_broadcast+0x31>

100033e6 <com_idma_broadcast+0x2e>:
100033e6:	fffc86                                    	j	100033dc <com_idma_broadcast+0x24>

100033e9 <com_idma_broadcast+0x31>:
100033e9:	f69541                                    	l32r	a4, 10000e40 (10025570 <g_idma_que_task>)
100033ec:	f69921                                    	l32r	a2, 10000e50 (100247dc <g_idma_last_err>)
100033ef:	f69c31                                    	l32r	a3, 10000e60 (11111111 <__stack+0x10d1111>)
100033f2:	f69c51                                    	l32r	a5, 10000e64 (110008 <_memmap_mem_srom_end+0xf0008>)
100033f5:	0239                                    	s32i.n	a3, a2, 0
100033f7:	0479                                    	s32i.n	a7, a4, 0
100033f9:	407580                                    	wer	a8, a5
100033fc:	121c                                    	movi.n	a2, 17
100033fe:	112200                                    	slli	a2, a2, 16
10003401:	8ca032                                    	movi	a3, 140
10003404:	407230                                    	wer	a3, a2
10003407:	120c                                    	movi.n	a2, 1
10003409:	407920                                    	wer	a2, a9
1000340c:	f69731                                    	l32r	a3, 10000e68 (110010 <_memmap_mem_srom_end+0xf0010>)
1000340f:	407320                                    	wer	a2, a3
10003412:	f01d                                    	retw.n

10003414 <com_idma_memcpy>:
10003414:	006136                                    	entry	a1, 48
10003417:	f69651                                    	l32r	a5, 10000e70 (10024050 <g_idma_desc_memcpy>)
1000341a:	360c                                    	movi.n	a6, 3
1000341c:	1539                                    	s32i.n	a3, a5, 4
1000341e:	0f0c                                    	movi.n	a15, 0
10003420:	f69531                                    	l32r	a3, 10000e74 (11000c <_memmap_mem_srom_end+0xf000c>)
10003423:	2529                                    	s32i.n	a2, a5, 8
10003425:	ffa022                                    	movi	a2, 255
10003428:	0569                                    	s32i.n	a6, a5, 0
1000342a:	3549                                    	s32i.n	a4, a5, 12
1000342c:	21f9                                    	s32i.n	a15, a1, 8
1000342e:	098176                                    	loop	a1, 1000343b <com_idma_memcpy+0x27>

10003431 <com_idma_memcpy+0x1d>:
10003431:	406340                                    	rer	a4, a3
10003434:	2149                                    	s32i.n	a4, a1, 8
10003436:	2148                                    	l32i.n	a4, a1, 8
10003438:	040247                                    	bnone	a2, a4, 10003440 <com_idma_memcpy+0x2c>

1000343b <com_idma_memcpy+0x27>:
1000343b:	fffc86                                    	j	10003431 <com_idma_memcpy+0x1d>

1000343e <com_idma_memcpy+0x2a>:
	...

10003440 <com_idma_memcpy+0x2c>:
10003440:	f68921                                    	l32r	a2, 10000e64 (110008 <_memmap_mem_srom_end+0xf0008>)
10003443:	407250                                    	wer	a5, a2
10003446:	121c                                    	movi.n	a2, 17
10003448:	112200                                    	slli	a2, a2, 16
1000344b:	8ca042                                    	movi	a4, 140
1000344e:	407240                                    	wer	a4, a2
10003451:	f67c21                                    	l32r	a2, 10000e44 (110014 <_memmap_mem_srom_end+0xf0014>)
10003454:	140c                                    	movi.n	a4, 1
10003456:	407240                                    	wer	a4, a2
10003459:	f68351                                    	l32r	a5, 10000e68 (110010 <_memmap_mem_srom_end+0xf0010>)
1000345c:	407540                                    	wer	a4, a5
1000345f:	0f0c                                    	movi.n	a15, 0
10003461:	ffa042                                    	movi	a4, 255
10003464:	31f9                                    	s32i.n	a15, a1, 12
10003466:	098176                                    	loop	a1, 10003473 <com_idma_memcpy+0x5f>
10003469:	406350                                    	rer	a5, a3
1000346c:	3159                                    	s32i.n	a5, a1, 12
1000346e:	3158                                    	l32i.n	a5, a1, 12
10003470:	020457                                    	bnone	a4, a5, 10003476 <com_idma_memcpy+0x62>

10003473 <com_idma_memcpy+0x5f>:
10003473:	fffc86                                    	j	10003469 <com_idma_memcpy+0x55>

10003476 <com_idma_memcpy+0x62>:
10003476:	f67731                                    	l32r	a3, 10000e54 (110040 <_memmap_mem_srom_end+0xf0040>)
10003479:	406340                                    	rer	a4, a3
1000347c:	160c                                    	movi.n	a6, 1
1000347e:	f67431                                    	l32r	a3, 10000e50 (100247dc <g_idma_last_err>)
10003481:	d55240                                    	extui	a5, a4, 18, 14
10003484:	0166e0                                    	slli	a6, a6, 18
10003487:	0359                                    	s32i.n	a5, a3, 0
10003489:	2e3467                                    	bltu	a4, a6, 100034bb <com_idma_memcpy+0xa7>
1000348c:	39a2a2                                    	movi	a10, 0x239
1000348f:	fe2165                                    	call8	100016a4 <com_isr_interrupt_disable>
10003492:	38a2a2                                    	movi	a10, 0x238
10003495:	fe20e5                                    	call8	100016a4 <com_isr_interrupt_disable>
10003498:	f66a41                                    	l32r	a4, 10000e40 (10025570 <g_idma_que_task>)
1000349b:	050c                                    	movi.n	a5, 0
1000349d:	260c                                    	movi.n	a6, 2
1000349f:	0459                                    	s32i.n	a5, a4, 0
100034a1:	407260                                    	wer	a6, a2
100034a4:	407250                                    	wer	a5, a2
100034a7:	1458                                    	l32i.n	a5, a4, 4
100034a9:	39a2a2                                    	movi	a10, 0x239
100034ac:	158c                                    	beqz.n	a5, 100034b1 <com_idma_memcpy+0x9d>
100034ae:	fe1665                                    	call8	10001614 <com_isr_interrupt_enable>
100034b1:	2448                                    	l32i.n	a4, a4, 8
100034b3:	38a2a2                                    	movi	a10, 0x238
100034b6:	148c                                    	beqz.n	a4, 100034bb <com_idma_memcpy+0xa7>
100034b8:	fe15a5                                    	call8	10001614 <com_isr_interrupt_enable>
100034bb:	040c                                    	movi.n	a4, 0
100034bd:	407240                                    	wer	a4, a2
100034c0:	0328                                    	l32i.n	a2, a3, 0
100034c2:	f01d                                    	retw.n

100034c4 <com_idma_memcpy+0xb0>:
	...

100034d0 <com_gpdma_rcs_fill_desc>:
100034d0:	004136                                    	entry	a1, 32
100034d3:	f669c1                                    	l32r	a12, 10000e78 (10024380 <com_gpdma_trw_info>)
100034d6:	680c                                    	movi.n	a8, 6
100034d8:	4a0c                                    	movi.n	a10, 4
100034da:	41e120                                    	srli	a14, a2, 1
100034dd:	10ccb2                                    	addi	a11, a12, 16
100034e0:	3d0c                                    	movi.n	a13, 3
100034e2:	8198                                    	l32i.n	a9, a1, 32
100034e4:	20f650                                    	or	a15, a6, a5
100034e7:	93a8e0                                    	movnez	a10, a8, a14
100034ea:	93bce0                                    	movnez	a11, a12, a14
100034ed:	118df7                                    	bany	a13, a15, 10003502 <com_gpdma_rcs_fill_desc+0x32>
100034f0:	208bb0                                    	or	a8, a11, a11
100034f3:	0b8a76                                    	loop	a10, 10003502 <com_gpdma_rcs_fill_desc+0x32>
100034f6:	08c8                                    	l32i.n	a12, a8, 0
100034f8:	0434c7                                    	bltu	a4, a12, 10003500 <com_gpdma_rcs_fill_desc+0x30>
100034fb:	e2d4c0                                    	remu	a13, a4, a12
100034fe:	5d8c                                    	beqz.n	a13, 10003507 <com_gpdma_rcs_fill_desc+0x37>

10003500 <com_gpdma_rcs_fill_desc+0x30>:
10003500:	888b                                    	addi.n	a8, a8, 8

10003502 <com_gpdma_rcs_fill_desc+0x32>:
10003502:	b08ab0                                    	addx8	a8, a10, a11
10003505:	08c8                                    	l32i.n	a12, a8, 0

10003507 <com_gpdma_rcs_fill_desc+0x37>:
10003507:	dd7c                                    	movi.n	a13, -3
10003509:	10e9d0                                    	and	a14, a9, a13
1000350c:	0369                                    	s32i.n	a6, a3, 0
1000350e:	960c                                    	movi.n	a6, 9
10003510:	9f4c                                    	movi.n	a15, 73
10003512:	2359                                    	s32i.n	a5, a3, 8
10003514:	115670                                    	slli	a5, a6, 9
10003517:	116fa0                                    	slli	a6, a15, 6
1000351a:	de0b                                    	addi.n	a13, a14, -1
1000351c:	c2c4c0                                    	quou	a12, a4, a12
1000351f:	040c                                    	movi.n	a4, 0
10003521:	9365d0                                    	movnez	a6, a5, a13
10003524:	fd7c                                    	movi.n	a13, -1
10003526:	415ad0                                    	srli	a5, a13, 10
10003529:	e20b                                    	addi.n	a14, a2, -1
1000352b:	1b0c                                    	movi.n	a11, 1
1000352d:	2d0c                                    	movi.n	a13, 2
1000352f:	c349                                    	s32i.n	a4, a3, 48
10003531:	ea7c                                    	movi.n	a10, -2
10003533:	93dbe0                                    	movnez	a13, a11, a14
10003536:	ff7c                                    	movi.n	a15, -1
10003538:	43e8                                    	l32i.n	a14, a3, 16
1000353a:	1099a0                                    	and	a9, a9, a10
1000353d:	01afa0                                    	slli	a10, a15, 22
10003540:	cc0b                                    	addi.n	a12, a12, -1
10003542:	105c50                                    	and	a5, a12, a5
10003545:	10aea0                                    	and	a10, a14, a10
10003548:	5a5a                                    	add.n	a5, a10, a5
1000354a:	fec992                                    	addi	a9, a9, -2
1000354d:	1349                                    	s32i.n	a4, a3, 4
1000354f:	3349                                    	s32i.n	a4, a3, 12
10003551:	a349                                    	s32i.n	a4, a3, 40
10003553:	b349                                    	s32i.n	a4, a3, 44
10003555:	d349                                    	s32i.n	a4, a3, 52
10003557:	4359                                    	s32i.n	a5, a3, 16
10003559:	6299b0                                    	saltu	a9, a9, a11
1000355c:	11fd20                                    	slli	a15, a13, 14
1000355f:	18c8                                    	l32i.n	a12, a8, 4
10003561:	b6fa                                    	add.n	a11, a6, a15
10003563:	1199c0                                    	slli	a9, a9, 4
10003566:	2460c0                                    	extui	a6, a12, 0, 3
10003569:	f64421                                    	l32r	a2, 10000e7c (cc050 <_memmap_mem_srom_end+0xac050>)
1000356c:	01dde0                                    	slli	a13, a13, 18
1000356f:	59ba                                    	add.n	a5, a9, a11
10003571:	55da                                    	add.n	a5, a5, a13
10003573:	11e680                                    	slli	a14, a6, 8
10003576:	116650                                    	slli	a6, a6, 11
10003579:	102520                                    	and	a2, a5, a2
1000357c:	fe6a                                    	add.n	a15, a14, a6
1000357e:	22fa                                    	add.n	a2, a2, a15
10003580:	a78c                                    	beqz.n	a7, 1000358e <com_gpdma_rcs_fill_desc+0xbe>
10003582:	f57c                                    	movi.n	a5, -1
10003584:	015520                                    	slli	a5, a5, 30
10003587:	7349                                    	s32i.n	a4, a3, 28
10003589:	6349                                    	s32i.n	a4, a3, 24
1000358b:	000106                                    	j	10003593 <com_gpdma_rcs_fill_desc+0xc3>

1000358e <com_gpdma_rcs_fill_desc+0xbe>:
1000358e:	f57c                                    	movi.n	a5, -1
10003590:	015510                                    	slli	a5, a5, 31
10003593:	8329                                    	s32i.n	a2, a3, 32
10003595:	9359                                    	s32i.n	a5, a3, 36
10003597:	f01d                                    	retw.n

10003599 <com_gpdma_rcs_fill_desc+0xc9>:
10003599:	000000                                        ...

1000359c <com_gpdma_init>:
1000359c:	004136                                    	entry	a1, 32
1000359f:	f638b1                                    	l32r	a11, 10000e80 (100035c4 <com_gpdma_irq_handler>)
100035a2:	f638c1                                    	l32r	a12, 10000e84 (100247e0 <gpdma_irq_info>)
100035a5:	45a1a2                                    	movi	a10, 0x145
100035a8:	fdf965                                    	call8	10001540 <com_isr_event>
100035ab:	45a1a2                                    	movi	a10, 0x145
100035ae:	fe0f65                                    	call8	100016a4 <com_isr_interrupt_disable>
100035b1:	f63521                                    	l32r	a2, 10000e88 (270014 <_memmap_mem_sram_end+0x30014>)
100035b4:	f63641                                    	l32r	a4, 10000e8c (270010 <_memmap_mem_sram_end+0x30010>)
100035b7:	030c                                    	movi.n	a3, 0
100035b9:	350c                                    	movi.n	a5, 3
100035bb:	0239                                    	s32i.n	a3, a2, 0
100035bd:	0459                                    	s32i.n	a5, a4, 0
100035bf:	f01d                                    	retw.n

100035c1 <com_gpdma_init+0x25>:
100035c1:	000000                                        ...

100035c4 <com_gpdma_irq_handler>:
100035c4:	008136                                    	entry	a1, 64
100035c7:	0248                                    	l32i.n	a4, a2, 0
100035c9:	f63151                                    	l32r	a5, 10000e90 (100243c0 <gpdma_cfg>)
100035cc:	1144e0                                    	slli	a4, a4, 2
100035cf:	414340                                    	srli	a4, a4, 3
100035d2:	b04450                                    	addx8	a4, a4, a5
100035d5:	f62fb1                                    	l32r	a11, 10000e94 (fa3f7fe0 <xthals_hw_configid0+0x3a3eed5a>)
100035d8:	0458                                    	l32i.n	a5, a4, 0
100035da:	230c                                    	movi.n	a3, 2
100035dc:	0a0c                                    	movi.n	a10, 0
100035de:	4c0c                                    	movi.n	a12, 4
100035e0:	026d                                    	mov.n	a6, a2
100035e2:	6149                                    	s32i.n	a4, a1, 24
100035e4:	5129                                    	s32i.n	a2, a1, 20
100035e6:	000306                                    	j	100035f6 <com_gpdma_irq_handler+0x32>

100035e9 <com_gpdma_irq_handler+0x25>:
100035e9:	46a9                                    	s32i.n	a10, a6, 16
100035eb:	330b                                    	addi.n	a3, a3, -1
100035ed:	18c662                                    	addi	a6, a6, 24
100035f0:	01d552                                    	addmi	a5, a5, 0x100
100035f3:	095316                                    	beqz	a3, 1000368c <com_gpdma_irq_handler+0xc8>
100035f6:	46d8                                    	l32i.n	a13, a6, 16
100035f8:	0678                                    	l32i.n	a7, a6, 0
100035fa:	622542                                    	l32i	a4, a5, 0x188
100035fd:	632582                                    	l32i	a8, a5, 0x18c
10003600:	3189                                    	s32i.n	a8, a1, 12
10003602:	2149                                    	s32i.n	a4, a1, 8
10003604:	1648                                    	l32i.n	a4, a6, 4
10003606:	fe1456                                    	bnez	a4, 100035eb <com_gpdma_irq_handler+0x27>
10003609:	3148                                    	l32i.n	a4, a1, 12
1000360b:	2188                                    	l32i.n	a8, a1, 8
1000360d:	204840                                    	or	a4, a8, a4
10003610:	fd7416                                    	beqz	a4, 100035eb <com_gpdma_irq_handler+0x27>
10003613:	2198                                    	l32i.n	a9, a1, 8
10003615:	3188                                    	l32i.n	a8, a1, 12
10003617:	676582                                    	s32i	a8, a5, 0x19c
1000361a:	666592                                    	s32i	a9, a5, 0x198
1000361d:	6165a2                                    	s32i	a10, a5, 0x184
10003620:	6065a2                                    	s32i	a10, a5, 0x180
10003623:	31e8                                    	l32i.n	a14, a1, 12
10003625:	21f8                                    	l32i.n	a15, a1, 8
10003627:	16c9                                    	s32i.n	a12, a6, 4
10003629:	1298                                    	l32i.n	a9, a2, 4
1000362b:	34e0e0                                    	extui	a14, a14, 0, 4
1000362e:	104fb0                                    	and	a4, a15, a11
10003631:	36e9                                    	s32i.n	a14, a6, 12
10003633:	2649                                    	s32i.n	a4, a6, 8
10003635:	1c4966                                    	bnei	a9, 4, 10003655 <com_gpdma_irq_handler+0x91>
10003638:	7288                                    	l32i.n	a8, a2, 28
1000363a:	61f8                                    	l32i.n	a15, a1, 24
1000363c:	154866                                    	bnei	a8, 4, 10003655 <com_gpdma_irq_handler+0x91>
1000363f:	71d9                                    	s32i.n	a13, a1, 28
10003641:	1fa8                                    	l32i.n	a10, a15, 4
10003643:	0e2d                                    	mov.n	a2, a14
10003645:	fe05e5                                    	call8	100016a4 <com_isr_interrupt_disable>
10003648:	02ed                                    	mov.n	a14, a2
1000364a:	71d8                                    	l32i.n	a13, a1, 28
1000364c:	f612b1                                    	l32r	a11, 10000e94 (fa3f7fe0 <xthals_hw_configid0+0x3a3eed5a>)
1000364f:	5128                                    	l32i.n	a2, a1, 20
10003651:	4c0c                                    	movi.n	a12, 4
10003653:	0a0c                                    	movi.n	a10, 0
10003655:	1427f6                                    	bgeui	a7, 2, 1000366d <com_gpdma_irq_handler+0xa9>
10003658:	f61081                                    	l32r	a8, 10000e98 (100245a0 <com_gpdma_e_lock>)
1000365b:	a07780                                    	addx4	a7, a7, a8
1000365e:	0778                                    	l32i.n	a7, a7, 0
10003660:	0020c0                                    	memw
10003663:	f58681                                    	l32r	a8, 10000c7c (100248e8 <p_system_data>)
10003666:	0888                                    	l32i.n	a8, a8, 0
10003668:	a07780                                    	addx4	a7, a7, a8
1000366b:	07a9                                    	s32i.n	a10, a7, 0
1000366d:	2044e0                                    	or	a4, a4, a14
10003670:	f75456                                    	bnez	a4, 100035e9 <com_gpdma_irq_handler+0x25>
10003673:	f72d16                                    	beqz	a13, 100035e9 <com_gpdma_irq_handler+0x25>
10003676:	0d48                                    	l32i.n	a4, a13, 0
10003678:	f6d416                                    	beqz	a4, 100035e9 <com_gpdma_irq_handler+0x25>
1000367b:	1da8                                    	l32i.n	a10, a13, 4
1000367d:	0004e0                                    	callx8	a4
10003680:	f605b1                                    	l32r	a11, 10000e94 (fa3f7fe0 <xthals_hw_configid0+0x3a3eed5a>)
10003683:	5128                                    	l32i.n	a2, a1, 20
10003685:	4c0c                                    	movi.n	a12, 4
10003687:	0a0c                                    	movi.n	a10, 0
10003689:	ffd706                                    	j	100035e9 <com_gpdma_irq_handler+0x25>

1000368c <com_gpdma_irq_handler+0xc8>:
1000368c:	f01d                                    	retw.n

1000368e <com_gpdma_irq_handler+0xca>:
	...

10003690 <com_gpdma_rcs_wait>:
10003690:	006136                                    	entry	a1, 48
10003693:	1172e0                                    	slli	a7, a2, 2
10003696:	f5fe51                                    	l32r	a5, 10000e90 (100243c0 <gpdma_cfg>)
10003699:	040c                                    	movi.n	a4, 0
1000369b:	41e370                                    	srli	a14, a7, 3
1000369e:	3149                                    	s32i.n	a4, a1, 12
100036a0:	2149                                    	s32i.n	a4, a1, 8
100036a2:	b04e50                                    	addx8	a4, a14, a5
100036a5:	260c                                    	movi.n	a6, 2
100036a7:	130c                                    	movi.n	a3, 1
100036a9:	04f020                                    	extui	a15, a2, 0, 1
100036ac:	0448                                    	l32i.n	a4, a4, 0
100036ae:	9336f0                                    	movnez	a3, a6, a15
100036b1:	0e8176                                    	loop	a1, 100036c3 <com_gpdma_rcs_wait+0x33>

100036b4 <com_gpdma_rcs_wait+0x24>:
100036b4:	6458                                    	l32i.n	a5, a4, 24
100036b6:	7468                                    	l32i.n	a6, a4, 28
100036b8:	3169                                    	s32i.n	a6, a1, 12
100036ba:	2159                                    	s32i.n	a5, a1, 8
100036bc:	3158                                    	l32i.n	a5, a1, 12
100036be:	2158                                    	l32i.n	a5, a1, 8
100036c0:	020357                                    	bnone	a3, a5, 100036c6 <com_gpdma_rcs_wait+0x36>

100036c3 <com_gpdma_rcs_wait+0x33>:
100036c3:	fffb46                                    	j	100036b4 <com_gpdma_rcs_wait+0x24>

100036c6 <com_gpdma_rcs_wait+0x36>:
100036c6:	f5ef31                                    	l32r	a3, 10000e84 (100247e0 <gpdma_irq_info>)
100036c9:	902220                                    	addx2	a2, a2, a2
100036cc:	b03230                                    	addx8	a3, a2, a3
100036cf:	2328                                    	l32i.n	a2, a3, 8
100036d1:	3338                                    	l32i.n	a3, a3, 12
100036d3:	f01d                                    	retw.n

100036d5 <com_gpdma_rcs_wait+0x45>:
100036d5:	000000                                        ...

100036d8 <com_gpdma_rcs_get_last_errcode>:
100036d8:	004136                                    	entry	a1, 32
100036db:	f5ea31                                    	l32r	a3, 10000e84 (100247e0 <gpdma_irq_info>)
100036de:	902220                                    	addx2	a2, a2, a2
100036e1:	b04230                                    	addx8	a4, a2, a3
100036e4:	050c                                    	movi.n	a5, 0
100036e6:	2428                                    	l32i.n	a2, a4, 8
100036e8:	3438                                    	l32i.n	a3, a4, 12
100036ea:	2459                                    	s32i.n	a5, a4, 8
100036ec:	3459                                    	s32i.n	a5, a4, 12
100036ee:	f01d                                    	retw.n

100036f0 <com_gpdma_rcs>:
100036f0:	008136                                    	entry	a1, 64
100036f3:	f5e1b1                                    	l32r	a11, 10000e78 (10024380 <com_gpdma_trw_info>)
100036f6:	680c                                    	movi.n	a8, 6
100036f8:	490c                                    	movi.n	a9, 4
100036fa:	417120                                    	srli	a7, a2, 1
100036fd:	10cba2                                    	addi	a10, a11, 16
10003700:	03a0c2                                    	movi	a12, 3
10003703:	20f430                                    	or	a15, a4, a3
10003706:	939870                                    	movnez	a9, a8, a7
10003709:	93ab70                                    	movnez	a10, a11, a7
1000370c:	108cf7                                    	bany	a12, a15, 10003720 <com_gpdma_rcs+0x30>
1000370f:	0a8d                                    	mov.n	a8, a10
10003711:	0b8976                                    	loop	a9, 10003720 <com_gpdma_rcs+0x30>
10003714:	08b8                                    	l32i.n	a11, a8, 0
10003716:	0435b7                                    	bltu	a5, a11, 1000371e <com_gpdma_rcs+0x2e>
10003719:	e2c5b0                                    	remu	a12, a5, a11
1000371c:	5c8c                                    	beqz.n	a12, 10003725 <com_gpdma_rcs+0x35>

1000371e <com_gpdma_rcs+0x2e>:
1000371e:	888b                                    	addi.n	a8, a8, 8

10003720 <com_gpdma_rcs+0x30>:
10003720:	b089a0                                    	addx8	a8, a9, a10
10003723:	08b8                                    	l32i.n	a11, a8, 0

10003725 <com_gpdma_rcs+0x35>:
10003725:	03ace2                                    	movi	a14, 0xfffffc03
10003728:	c295b0                                    	quou	a9, a5, a11
1000372b:	00a4a2                                    	movi	a10, 0x400
1000372e:	01bee0                                    	slli	a11, a14, 18
10003731:	62fa90                                    	saltu	a15, a10, a9
10003734:	a4ba                                    	add.n	a10, a4, a11
10003736:	ffa352                                    	movi	a5, 0x3ff
10003739:	d90b                                    	addi.n	a13, a9, -1
1000373b:	b3ba                                    	add.n	a11, a3, a11
1000373d:	835df0                                    	moveqz	a5, a13, a15
10003740:	62da40                                    	saltu	a13, a10, a4
10003743:	35cc40                                    	extui	a12, a4, 28, 4
10003746:	62fb30                                    	saltu	a15, a11, a3
10003749:	35ec30                                    	extui	a14, a3, 28, 4
1000374c:	9d0b                                    	addi.n	a9, a13, -1
1000374e:	934ac0                                    	movnez	a4, a10, a12
10003751:	18a8                                    	l32i.n	a10, a8, 4
10003753:	8f0b                                    	addi.n	a8, a15, -1
10003755:	f5cef1                                    	l32r	a15, 10000e90 (100243c0 <gpdma_cfg>)
10003758:	933be0                                    	movnez	a3, a11, a14
1000375b:	839cc0                                    	moveqz	a9, a12, a12
1000375e:	838ee0                                    	moveqz	a8, a14, a14
10003761:	7159                                    	s32i.n	a5, a1, 28
10003763:	61a9                                    	s32i.n	a10, a1, 24
10003765:	6b22f6                                    	bgeui	a2, 2, 100037d4 <com_gpdma_rcs+0xe4>
10003768:	f5ccf1                                    	l32r	a15, 10000e98 (100245a0 <com_gpdma_e_lock>)
1000376b:	f544c1                                    	l32r	a12, 10000c7c (100248e8 <p_system_data>)
1000376e:	a0d2f0                                    	addx4	a13, a2, a15
10003771:	0dd8                                    	l32i.n	a13, a13, 0
10003773:	5a8176                                    	loop	a1, 100037d1 <com_gpdma_rcs+0xe1>
10003776:	0ce8                                    	l32i.n	a14, a12, 0
10003778:	a0fde0                                    	addx4	a15, a13, a14
1000377b:	006fe0                                    	rsil	a14, 15
1000377e:	f14fb0                                    	l32ex	a11, a15
10003781:	150c                                    	movi.n	a5, 1
10003783:	9b8c                                    	beqz.n	a11, 10003790 <com_gpdma_rcs+0xa0>
10003785:	13e6e0                                    	wsr.ps	a14
10003788:	002020                                    	esync
1000378b:	000486                                    	j	100037a1 <com_gpdma_rcs+0xb1>

1000378e <com_gpdma_rcs+0x9e>:
	...

10003790 <com_gpdma_rcs+0xa0>:
10003790:	f15f50                                    	s32ex	a5, a15
10003793:	0b0c                                    	movi.n	a11, 0
10003795:	40a0b0                                    	getex	a11
10003798:	13e6e0                                    	wsr.ps	a14
1000379b:	002020                                    	esync
1000379e:	05eb56                                    	bnez	a11, 10003800 <com_gpdma_rcs+0x110>
100037a1:	0020f0                                    	nop
100037a4:	0020f0                                    	nop
100037a7:	0020f0                                    	nop
100037aa:	0020f0                                    	nop
100037ad:	0020f0                                    	nop
100037b0:	0020f0                                    	nop
100037b3:	0020f0                                    	nop
100037b6:	0020f0                                    	nop
100037b9:	0020f0                                    	nop
100037bc:	0020f0                                    	nop
100037bf:	0020f0                                    	nop
100037c2:	0020f0                                    	nop
100037c5:	0020f0                                    	nop
100037c8:	0020f0                                    	nop
100037cb:	0020f0                                    	nop
100037ce:	0020f0                                    	nop

100037d1 <com_gpdma_rcs+0xe1>:
100037d1:	ffe846                                    	j	10003776 <com_gpdma_rcs+0x86>

100037d4 <com_gpdma_rcs+0xe4>:
100037d4:	0b0c                                    	movi.n	a11, 0
100037d6:	31b9                                    	s32i.n	a11, a1, 12
100037d8:	21b9                                    	s32i.n	a11, a1, 8
100037da:	b0a7f0                                    	addx8	a10, a7, a15
100037dd:	04e020                                    	extui	a14, a2, 0, 1
100037e0:	250c                                    	movi.n	a5, 2
100037e2:	1c0c                                    	movi.n	a12, 1
100037e4:	0ad8                                    	l32i.n	a13, a10, 0
100037e6:	93c5e0                                    	movnez	a12, a5, a14
100037e9:	0f5d                                    	mov.n	a5, a15
100037eb:	0e8176                                    	loop	a1, 100037fd <com_gpdma_rcs+0x10d>
100037ee:	6db8                                    	l32i.n	a11, a13, 24
100037f0:	7df8                                    	l32i.n	a15, a13, 28
100037f2:	31f9                                    	s32i.n	a15, a1, 12
100037f4:	21b9                                    	s32i.n	a11, a1, 8
100037f6:	31b8                                    	l32i.n	a11, a1, 12
100037f8:	21b8                                    	l32i.n	a11, a1, 8
100037fa:	140cb7                                    	bnone	a12, a11, 10003812 <com_gpdma_rcs+0x122>

100037fd <com_gpdma_rcs+0x10d>:
100037fd:	fffb46                                    	j	100037ee <com_gpdma_rcs+0xfe>

10003800 <com_gpdma_rcs+0x110>:
10003800:	fd0c                                    	movi.n	a13, 15
10003802:	f5a6f1                                    	l32r	a15, 10000e9c (fa3f7fe2 <xthals_hw_configid0+0x3a3eed5c>)
10003805:	f5a251                                    	l32r	a5, 10000e90 (100243c0 <gpdma_cfg>)
10003808:	04e020                                    	extui	a14, a2, 0, 1
1000380b:	41d9                                    	s32i.n	a13, a1, 16
1000380d:	51f9                                    	s32i.n	a15, a1, 20
1000380f:	0001c6                                    	j	1000381a <com_gpdma_rcs+0x12a>

10003812 <com_gpdma_rcs+0x122>:
10003812:	0a0c                                    	movi.n	a10, 0
10003814:	0f0c                                    	movi.n	a15, 0
10003816:	51a9                                    	s32i.n	a10, a1, 20
10003818:	41f9                                    	s32i.n	a15, a1, 16
1000381a:	f59ab1                                    	l32r	a11, 10000e84 (100247e0 <gpdma_irq_info>)
1000381d:	90f220                                    	addx2	a15, a2, a2
10003820:	b0bfb0                                    	addx8	a11, a15, a11
10003823:	f58fd1                                    	l32r	a13, 10000e60 (11111111 <__stack+0x10d1111>)
10003826:	0a0c                                    	movi.n	a10, 0
10003828:	4b69                                    	s32i.n	a6, a11, 16
1000382a:	1ba9                                    	s32i.n	a10, a11, 4
1000382c:	3bd9                                    	s32i.n	a13, a11, 12
1000382e:	2bd9                                    	s32i.n	a13, a11, 8
10003830:	0020c0                                    	memw
10003833:	f59b61                                    	l32r	a6, 10000ea0 (7f801018 <_memmap_cacheattr_bp_allvalid+0x3b3bcbd4>)
10003836:	fc1c                                    	movi.n	a12, 31
10003838:	01fef0                                    	slli	a15, a14, 17
1000383b:	1d1c                                    	movi.n	a13, 17
1000383d:	b07750                                    	addx8	a7, a7, a5
10003840:	6f6a                                    	add.n	a6, a15, a6
10003842:	11fd20                                    	slli	a15, a13, 14
10003845:	01a152                                    	movi	a5, 0x101
10003848:	401e00                                    	ssl	a14
1000384b:	30cec0                                    	xor	a12, a14, a12
1000384e:	1d1c                                    	movi.n	a13, 17
10003850:	a15500                                    	sll	a5, a5
10003853:	400c00                                    	ssr	a12
10003856:	11cd10                                    	slli	a12, a13, 15
10003859:	61d8                                    	l32i.n	a13, a1, 24
1000385b:	0778                                    	l32i.n	a7, a7, 0
1000385d:	11be80                                    	slli	a11, a14, 8
10003860:	80a0a2                                    	movi	a10, 128
10003863:	e20b                                    	addi.n	a14, a2, -1
10003865:	24d0d0                                    	extui	a13, a13, 0, 3
10003868:	93cfe0                                    	movnez	a12, a15, a14
1000386b:	b7ba                                    	add.n	a11, a7, a11
1000386d:	91a0a0                                    	srl	a10, a10
10003870:	0020c0                                    	memw
10003873:	ae0c                                    	movi.n	a14, 10
10003875:	496b62                                    	s32i	a6, a11, 0x124
10003878:	486be2                                    	s32i	a14, a11, 0x120
1000387b:	0020d0                                    	extw
1000387e:	416b92                                    	s32i	a9, a11, 0x104
10003881:	090c                                    	movi.n	a9, 0
10003883:	406b42                                    	s32i	a4, a11, 0x100
10003886:	436b82                                    	s32i	a8, a11, 0x10c
10003889:	426b32                                    	s32i	a3, a11, 0x108
1000388c:	456b92                                    	s32i	a9, a11, 0x114
1000388f:	71f8                                    	l32i.n	a15, a1, 28
10003891:	446bf2                                    	s32i	a15, a11, 0x110
10003894:	4148                                    	l32i.n	a4, a1, 16
10003896:	b0edd0                                    	addx8	a14, a13, a13
10003899:	113e80                                    	slli	a3, a14, 8
1000389c:	616b42                                    	s32i	a4, a11, 0x184
1000389f:	5148                                    	l32i.n	a4, a1, 20
100038a1:	33ca                                    	add.n	a3, a3, a12
100038a3:	606b42                                    	s32i	a4, a11, 0x180
100038a6:	466b32                                    	s32i	a3, a11, 0x118
100038a9:	0020c0                                    	memw
100038ac:	f37c                                    	movi.n	a3, -1
100038ae:	013320                                    	slli	a3, a3, 30
100038b1:	476b32                                    	s32i	a3, a11, 0x11c
100038b4:	0020d0                                    	extw
100038b7:	77a9                                    	s32i.n	a10, a7, 28
100038b9:	6759                                    	s32i.n	a5, a7, 24
100038bb:	0522f6                                    	bgeui	a2, 2, 100038c4 <com_gpdma_rcs+0x1d4>
100038be:	45a1a2                                    	movi	a10, 0x145
100038c1:	fdd525                                    	call8	10001614 <com_isr_interrupt_enable>
100038c4:	f01d                                    	retw.n

100038c6 <com_gpdma_rcs+0x1d6>:
	...

100038c8 <com_gpdma_rcs_desc>:
100038c8:	004136                                    	entry	a1, 32
100038cb:	02ad                                    	mov.n	a10, a2
100038cd:	03bd                                    	mov.n	a11, a3
100038cf:	04cd                                    	mov.n	a12, a4
100038d1:	05dd                                    	mov.n	a13, a5
100038d3:	000065                                    	call8	100038d8 <com_gpdma_trans_desc>
100038d6:	f01d                                    	retw.n

100038d8 <com_gpdma_trans_desc>:
100038d8:	008136                                    	entry	a1, 64
100038db:	4159                                    	s32i.n	a5, a1, 16
100038dd:	7149                                    	s32i.n	a4, a1, 28
100038df:	6129                                    	s32i.n	a2, a1, 24
100038e1:	1a0c                                    	movi.n	a10, 1
100038e3:	039d                                    	mov.n	a9, a3
100038e5:	5139                                    	s32i.n	a3, a1, 20
100038e7:	828176                                    	loop	a1, 1000396d <com_gpdma_trans_desc+0x95>

100038ea <com_gpdma_trans_desc+0x12>:
100038ea:	09cd                                    	mov.n	a12, a9
100038ec:	03ac22                                    	movi	a2, 0xfffffc03
100038ef:	29e8                                    	l32i.n	a14, a9, 8
100038f1:	0182e0                                    	slli	a8, a2, 18
100038f4:	5e8a                                    	add.n	a5, a14, a8
100038f6:	f87c                                    	movi.n	a8, -1
100038f8:	39b8                                    	l32i.n	a11, a9, 12
100038fa:	070c                                    	movi.n	a7, 0
100038fc:	418480                                    	srli	a8, a8, 4
100038ff:	19f8                                    	l32i.n	a15, a9, 4
10003901:	0968                                    	l32i.n	a6, a9, 0
10003903:	6227b0                                    	saltu	a2, a7, a11
10003906:	6238e0                                    	saltu	a3, a8, a14
10003909:	6245e0                                    	saltu	a4, a5, a14
1000390c:	9332b0                                    	movnez	a3, a2, a11
1000390f:	4b4a                                    	add.n	a4, a11, a4
10003911:	93e530                                    	movnez	a14, a5, a3
10003914:	79d8                                    	l32i.n	a13, a9, 28
10003916:	6998                                    	l32i.n	a9, a9, 24
10003918:	6227f0                                    	saltu	a2, a7, a15
1000391b:	625860                                    	saltu	a5, a8, a6
1000391e:	440b                                    	addi.n	a4, a4, -1
10003920:	9352f0                                    	movnez	a5, a2, a15
10003923:	03ac22                                    	movi	a2, 0xfffffc03
10003926:	834b30                                    	moveqz	a4, a11, a3
10003929:	6237d0                                    	saltu	a3, a7, a13
1000392c:	627890                                    	saltu	a7, a8, a9
1000392f:	0182e0                                    	slli	a8, a2, 18
10003932:	b68a                                    	add.n	a11, a6, a8
10003934:	898a                                    	add.n	a8, a9, a8
10003936:	9373d0                                    	movnez	a7, a3, a13
10003939:	623b60                                    	saltu	a3, a11, a6
1000393c:	936b50                                    	movnez	a6, a11, a5
1000393f:	62b890                                    	saltu	a11, a8, a9
10003942:	3f3a                                    	add.n	a3, a15, a3
10003944:	0c69                                    	s32i.n	a6, a12, 0
10003946:	6dba                                    	add.n	a6, a13, a11
10003948:	330b                                    	addi.n	a3, a3, -1
1000394a:	660b                                    	addi.n	a6, a6, -1
1000394c:	2ce9                                    	s32i.n	a14, a12, 8
1000394e:	9ce8                                    	l32i.n	a14, a12, 36
10003950:	838970                                    	moveqz	a8, a9, a7
10003953:	833f50                                    	moveqz	a3, a15, a5
10003956:	836d70                                    	moveqz	a6, a13, a7
10003959:	6c89                                    	s32i.n	a8, a12, 24
1000395b:	3c49                                    	s32i.n	a4, a12, 12
1000395d:	1c39                                    	s32i.n	a3, a12, 4
1000395f:	7c69                                    	s32i.n	a6, a12, 28
10003961:	0bfee7                                    	bbsi	a14, 30, 10003970 <com_gpdma_trans_desc+0x98>
10003964:	7128                                    	l32i.n	a2, a1, 28
10003966:	0abd                                    	mov.n	a11, a10
10003968:	aa1b                                    	addi.n	a10, a10, 1
1000396a:	02bb27                                    	bgeu	a11, a2, 10003970 <com_gpdma_trans_desc+0x98>

1000396d <com_gpdma_trans_desc+0x95>:
1000396d:	ffde46                                    	j	100038ea <com_gpdma_trans_desc+0x12>

10003970 <com_gpdma_trans_desc+0x98>:
10003970:	03ac22                                    	movi	a2, 0xfffffc03
10003973:	51c8                                    	l32i.n	a12, a1, 20
10003975:	0122e0                                    	slli	a2, a2, 18
10003978:	2c2a                                    	add.n	a2, a12, a2
1000397a:	6242c0                                    	saltu	a4, a2, a12
1000397d:	61b8                                    	l32i.n	a11, a1, 24
1000397f:	353cc0                                    	extui	a3, a12, 28, 4
10003982:	440b                                    	addi.n	a4, a4, -1
10003984:	f54361                                    	l32r	a6, 10000e90 (100243c0 <gpdma_cfg>)
10003987:	93c230                                    	movnez	a12, a2, a3
1000398a:	834330                                    	moveqz	a4, a3, a3
1000398d:	6c2bf6                                    	bgeui	a11, 2, 100039fd <com_gpdma_trans_desc+0x125>
10003990:	f54221                                    	l32r	a2, 10000e98 (100245a0 <com_gpdma_e_lock>)
10003993:	f4ba71                                    	l32r	a7, 10000c7c (100248e8 <p_system_data>)
10003996:	a02b20                                    	addx4	a2, a11, a2
10003999:	0288                                    	l32i.n	a8, a2, 0
1000399b:	41d8                                    	l32i.n	a13, a1, 16
1000399d:	588176                                    	loop	a1, 100039f9 <com_gpdma_trans_desc+0x121>
100039a0:	0728                                    	l32i.n	a2, a7, 0
100039a2:	a0a820                                    	addx4	a10, a8, a2
100039a5:	006f90                                    	rsil	a9, 15
100039a8:	f14a20                                    	l32ex	a2, a10
100039ab:	130c                                    	movi.n	a3, 1
100039ad:	728c                                    	beqz.n	a2, 100039b8 <com_gpdma_trans_desc+0xe0>
100039af:	13e690                                    	wsr.ps	a9
100039b2:	002020                                    	esync
100039b5:	000406                                    	j	100039c9 <com_gpdma_trans_desc+0xf1>

100039b8 <com_gpdma_trans_desc+0xe0>:
100039b8:	f15a30                                    	s32ex	a3, a10
100039bb:	020c                                    	movi.n	a2, 0
100039bd:	40a020                                    	getex	a2
100039c0:	13e690                                    	wsr.ps	a9
100039c3:	002020                                    	esync
100039c6:	060256                                    	bnez	a2, 10003a2a <com_gpdma_trans_desc+0x152>
100039c9:	0020f0                                    	nop
100039cc:	0020f0                                    	nop
100039cf:	0020f0                                    	nop
100039d2:	0020f0                                    	nop
100039d5:	0020f0                                    	nop
100039d8:	0020f0                                    	nop
100039db:	0020f0                                    	nop
100039de:	0020f0                                    	nop
100039e1:	0020f0                                    	nop
100039e4:	0020f0                                    	nop
100039e7:	0020f0                                    	nop
100039ea:	0020f0                                    	nop
100039ed:	0020f0                                    	nop
100039f0:	0020f0                                    	nop
100039f3:	0020f0                                    	nop
100039f6:	0020f0                                    	nop

100039f9 <com_gpdma_trans_desc+0x121>:
100039f9:	ffe8c6                                    	j	100039a0 <com_gpdma_trans_desc+0xc8>

100039fc <com_gpdma_trans_desc+0x124>:
	...

100039fd <com_gpdma_trans_desc+0x125>:
100039fd:	020c                                    	movi.n	a2, 0
100039ff:	4181b0                                    	srli	a8, a11, 1
10003a02:	3129                                    	s32i.n	a2, a1, 12
10003a04:	2129                                    	s32i.n	a2, a1, 8
10003a06:	b0f860                                    	addx8	a15, a8, a6
10003a09:	0470b0                                    	extui	a7, a11, 0, 1
10003a0c:	230c                                    	movi.n	a3, 2
10003a0e:	190c                                    	movi.n	a9, 1
10003a10:	0fa8                                    	l32i.n	a10, a15, 0
10003a12:	939370                                    	movnez	a9, a3, a7
10003a15:	0e8176                                    	loop	a1, 10003a27 <com_gpdma_trans_desc+0x14f>
10003a18:	6a28                                    	l32i.n	a2, a10, 24
10003a1a:	7a38                                    	l32i.n	a3, a10, 28
10003a1c:	3139                                    	s32i.n	a3, a1, 12
10003a1e:	2129                                    	s32i.n	a2, a1, 8
10003a20:	3128                                    	l32i.n	a2, a1, 12
10003a22:	2128                                    	l32i.n	a2, a1, 8
10003a24:	120927                                    	bnone	a9, a2, 10003a3a <com_gpdma_trans_desc+0x162>

10003a27 <com_gpdma_trans_desc+0x14f>:
10003a27:	fffb46                                    	j	10003a18 <com_gpdma_trans_desc+0x140>

10003a2a <com_gpdma_trans_desc+0x152>:
10003a2a:	f51c91                                    	l32r	a9, 10000e9c (fa3f7fe2 <xthals_hw_configid0+0x3a3eed5c>)
10003a2d:	4181b0                                    	srli	a8, a11, 1
10003a30:	0470b0                                    	extui	a7, a11, 0, 1
10003a33:	fa0c                                    	movi.n	a10, 15
10003a35:	0001c6                                    	j	10003a40 <com_gpdma_trans_desc+0x168>

10003a38 <com_gpdma_trans_desc+0x160>:
	...

10003a3a <com_gpdma_trans_desc+0x162>:
10003a3a:	41d8                                    	l32i.n	a13, a1, 16
10003a3c:	090c                                    	movi.n	a9, 0
10003a3e:	0a0c                                    	movi.n	a10, 0
10003a40:	f51121                                    	l32r	a2, 10000e84 (100247e0 <gpdma_irq_info>)
10003a43:	903bb0                                    	addx2	a3, a11, a11
10003a46:	b02320                                    	addx8	a2, a3, a2
10003a49:	f505f1                                    	l32r	a15, 10000e60 (11111111 <__stack+0x10d1111>)
10003a4c:	050c                                    	movi.n	a5, 0
10003a4e:	42d9                                    	s32i.n	a13, a2, 16
10003a50:	1259                                    	s32i.n	a5, a2, 4
10003a52:	32f9                                    	s32i.n	a15, a2, 12
10003a54:	22f9                                    	s32i.n	a15, a2, 8
10003a56:	0020c0                                    	memw
10003a59:	b02860                                    	addx8	a2, a8, a6
10003a5c:	fe1c                                    	movi.n	a14, 31
10003a5e:	f51061                                    	l32r	a6, 10000ea0 (7f801018 <_memmap_cacheattr_bp_allvalid+0x3b3bcbd4>)
10003a61:	0228                                    	l32i.n	a2, a2, 0
10003a63:	113780                                    	slli	a3, a7, 8
10003a66:	0157f0                                    	slli	a5, a7, 17
10003a69:	30f7e0                                    	xor	a15, a7, a14
10003a6c:	401700                                    	ssl	a7
10003a6f:	01a1d2                                    	movi	a13, 0x101
10003a72:	a18d00                                    	sll	a8, a13
10003a75:	400f00                                    	ssr	a15
10003a78:	556a                                    	add.n	a5, a5, a6
10003a7a:	80a0e2                                    	movi	a14, 128
10003a7d:	323a                                    	add.n	a3, a2, a3
10003a7f:	ff0c                                    	movi.n	a15, 15
10003a81:	496352                                    	s32i	a5, a3, 0x124
10003a84:	9160e0                                    	srl	a6, a14
10003a87:	4863f2                                    	s32i	a15, a3, 0x120
10003a8a:	0020d0                                    	extw
10003a8d:	4b6342                                    	s32i	a4, a3, 0x12c
10003a90:	4a63c2                                    	s32i	a12, a3, 0x128
10003a93:	6163a2                                    	s32i	a10, a3, 0x184
10003a96:	606392                                    	s32i	a9, a3, 0x180
10003a99:	0020d0                                    	extw
10003a9c:	7269                                    	s32i.n	a6, a2, 28
10003a9e:	6289                                    	s32i.n	a8, a2, 24
10003aa0:	052bf6                                    	bgeui	a11, 2, 10003aa9 <com_gpdma_trans_desc+0x1d1>
10003aa3:	45a1a2                                    	movi	a10, 0x145
10003aa6:	fdb6e5                                    	call8	10001614 <com_isr_interrupt_enable>
10003aa9:	f01d                                    	retw.n

10003aab <com_gpdma_trans_desc+0x1d3>:
	...

10003aac <com_gpdma_memfb_desc>:
10003aac:	004136                                    	entry	a1, 32
10003aaf:	0d0c                                    	movi.n	a13, 0
10003ab1:	02ad                                    	mov.n	a10, a2
10003ab3:	03bd                                    	mov.n	a11, a3
10003ab5:	04cd                                    	mov.n	a12, a4
10003ab7:	ffe225                                    	call8	100038d8 <com_gpdma_trans_desc>
10003aba:	f01d                                    	retw.n

10003abc <com_gpdma_memfb_desc+0x10>:
10003abc:	00000000                                ....

10003ac0 <com_event_print_event_scheduler>:
10003ac0:	004136                                    	entry	a1, 32
10003ac3:	f01d                                    	retw.n

10003ac5 <com_event_print_event_scheduler+0x5>:
10003ac5:	000000                                        ...

10003ac8 <com_event_pop_next_pending_event>:
10003ac8:	004136                                    	entry	a1, 32
10003acb:	023d                                    	mov.n	a3, a2
10003acd:	006f40                                    	rsil	a4, 15
10003ad0:	0228                                    	l32i.n	a2, a2, 0
10003ad2:	455c                                    	movi.n	a5, 84
10003ad4:	100226                                    	beqi	a2, -1, 10003ae8 <com_event_pop_next_pending_event+0x20>
10003ad7:	f4f361                                    	l32r	a6, 10000ea4 (10025580 <event_table>)
10003ada:	825250                                    	mull	a5, a2, a5
10003add:	4f0c                                    	movi.n	a15, 4
10003adf:	565a                                    	add.n	a5, a6, a5
10003ae1:	4578                                    	l32i.n	a7, a5, 16
10003ae3:	25f9                                    	s32i.n	a15, a5, 8
10003ae5:	006372                                    	s32i	a7, a3, 0

10003ae8 <com_event_pop_next_pending_event+0x20>:
10003ae8:	13e640                                    	wsr.ps	a4
10003aeb:	002020                                    	esync
10003aee:	f01d                                    	retw.n

10003af0 <com_event_schedule_keepalive_event>:
10003af0:	004136                                    	entry	a1, 32
10003af3:	006f60                                    	rsil	a6, 15
10003af6:	f4ec71                                    	l32r	a7, 10000ea8 (100248d0 <event_loop_continue>)
10003af9:	455c                                    	movi.n	a5, 84
10003afb:	1748                                    	l32i.n	a4, a7, 4
10003afd:	f4e981                                    	l32r	a8, 10000ea4 (10025580 <event_table>)
10003b00:	240426                                    	beqi	a4, -1, 10003b28 <com_event_schedule_keepalive_event+0x38>
10003b03:	825450                                    	mull	a5, a4, a5
10003b06:	190c                                    	movi.n	a9, 1
10003b08:	585a                                    	add.n	a5, a8, a5
10003b0a:	0e0c                                    	movi.n	a14, 0
10003b0c:	45f8                                    	l32i.n	a15, a5, 16
10003b0e:	fa7c                                    	movi.n	a10, -1
10003b10:	2599                                    	s32i.n	a9, a5, 8
10003b12:	45a9                                    	s32i.n	a10, a5, 16
10003b14:	35e9                                    	s32i.n	a14, a5, 12
10003b16:	17f9                                    	s32i.n	a15, a7, 4
10003b18:	13e660                                    	wsr.ps	a6
10003b1b:	002020                                    	esync
10003b1e:	861c                                    	movi.n	a6, 24
10003b20:	15b467                                    	bgeu	a4, a6, 10003b39 <com_event_schedule_keepalive_event+0x49>
10003b23:	000846                                    	j	10003b48 <com_event_schedule_keepalive_event+0x58>

10003b26 <com_event_schedule_keepalive_event+0x36>:
	...

10003b28 <com_event_schedule_keepalive_event+0x38>:
10003b28:	13e660                                    	wsr.ps	a6
10003b2b:	002020                                    	esync
10003b2e:	fa1c                                    	movi.n	a10, 31
10003b30:	fb7c                                    	movi.n	a11, -1
10003b32:	0c0c                                    	movi.n	a12, 0
10003b34:	0d0c                                    	movi.n	a13, 0
10003b36:	fee4e5                                    	call8	10002984 <com_send_rb_e_EVENT_HANDLER_ERR>
10003b39:	ea1c                                    	movi.n	a10, 30
10003b3b:	0c0c                                    	movi.n	a12, 0
10003b3d:	0d0c                                    	movi.n	a13, 0
10003b3f:	20b440                                    	or	a11, a4, a4
10003b42:	00a052                                    	movi	a5, 0
10003b45:	fee3e5                                    	call8	10002984 <com_send_rb_e_EVENT_HANDLER_ERR>
10003b48:	f4d961                                    	l32r	a6, 10000eac (10003bf0 <keepalive_event_callback>)
10003b4b:	0569                                    	s32i.n	a6, a5, 0
10003b4d:	fef625                                    	call8	10002ab0 <com_timing_get_current_bfn_time>
10003b50:	e8a362                                    	movi	a6, 0x3e8
10003b53:	18ac72                                    	movi	a7, 0xfffffc18
10003b56:	c26260                                    	quou	a6, a2, a6
10003b59:	827670                                    	mull	a7, a6, a7
10003b5c:	f80c                                    	movi.n	a8, 15
10003b5e:	772a                                    	add.n	a7, a7, a2
10003b60:	907770                                    	addx2	a7, a7, a7
10003b63:	118800                                    	slli	a8, a8, 16
10003b66:	991c                                    	movi.n	a9, 25
10003b68:	117730                                    	slli	a7, a7, 13
10003b6b:	826680                                    	mull	a6, a6, a8
10003b6e:	c27790                                    	quou	a7, a7, a9
10003b71:	b76a                                    	add.n	a11, a7, a6
10003b73:	fe8425                                    	call8	100023b4 <com_bfn_add_time>
10003b76:	0abd                                    	mov.n	a11, a10
10003b78:	55a9                                    	s32i.n	a10, a5, 20
10003b7a:	04ad                                    	mov.n	a10, a4
10003b7c:	6529                                    	s32i.n	a2, a5, 24
10003b7e:	076532                                    	s32i	a3, a5, 28
10003b81:	000d25                                    	call8	10003c54 <com_event_schedule_event>
10003b84:	f01d                                    	retw.n

10003b86 <com_event_schedule_keepalive_event+0x96>:
	...

10003b88 <com_event_new_event>:
10003b88:	004136                                    	entry	a1, 32
10003b8b:	006f30                                    	rsil	a3, 15
10003b8e:	f4c641                                    	l32r	a4, 10000ea8 (100248d0 <event_loop_continue>)
10003b91:	455c                                    	movi.n	a5, 84
10003b93:	1428                                    	l32i.n	a2, a4, 4
10003b95:	f4c361                                    	l32r	a6, 10000ea4 (10025580 <event_table>)
10003b98:	1c0226                                    	beqi	a2, -1, 10003bb8 <com_event_new_event+0x30>
10003b9b:	825250                                    	mull	a5, a2, a5
10003b9e:	170c                                    	movi.n	a7, 1
10003ba0:	565a                                    	add.n	a5, a6, a5
10003ba2:	0e0c                                    	movi.n	a14, 0
10003ba4:	45f8                                    	l32i.n	a15, a5, 16
10003ba6:	f87c                                    	movi.n	a8, -1
10003ba8:	2579                                    	s32i.n	a7, a5, 8
10003baa:	4589                                    	s32i.n	a8, a5, 16
10003bac:	35e9                                    	s32i.n	a14, a5, 12
10003bae:	14f9                                    	s32i.n	a15, a4, 4
10003bb0:	13e630                                    	wsr.ps	a3
10003bb3:	002020                                    	esync
10003bb6:	f01d                                    	retw.n

10003bb8 <com_event_new_event+0x30>:
10003bb8:	13e630                                    	wsr.ps	a3
10003bbb:	002020                                    	esync
10003bbe:	fa1c                                    	movi.n	a10, 31
10003bc0:	fb7c                                    	movi.n	a11, -1
10003bc2:	0c0c                                    	movi.n	a12, 0
10003bc4:	0d0c                                    	movi.n	a13, 0
10003bc6:	fedbe5                                    	call8	10002984 <com_send_rb_e_EVENT_HANDLER_ERR>
10003bc9:	f01d                                    	retw.n

10003bcb <com_event_new_event+0x43>:
	...

10003bcc <com_event_get_event_p>:
10003bcc:	004136                                    	entry	a1, 32
10003bcf:	831c                                    	movi.n	a3, 24
10003bd1:	0f3237                                    	bltu	a2, a3, 10003be4 <com_event_get_event_p+0x18>
10003bd4:	02bd                                    	mov.n	a11, a2
10003bd6:	ea1c                                    	movi.n	a10, 30
10003bd8:	0c0c                                    	movi.n	a12, 0
10003bda:	0d0c                                    	movi.n	a13, 0
10003bdc:	020c                                    	movi.n	a2, 0
10003bde:	feda65                                    	call8	10002984 <com_send_rb_e_EVENT_HANDLER_ERR>
10003be1:	f01d                                    	retw.n

10003be3 <com_event_get_event_p+0x17>:
	...

10003be4 <com_event_get_event_p+0x18>:
10003be4:	435c                                    	movi.n	a3, 84
10003be6:	822230                                    	mull	a2, a2, a3
10003be9:	f4aef1                                    	l32r	a15, 10000ea4 (10025580 <event_table>)
10003bec:	2f2a                                    	add.n	a2, a15, a2
10003bee:	f01d                                    	retw.n

10003bf0 <keepalive_event_callback>:
10003bf0:	004136                                    	entry	a1, 32
10003bf3:	03ea30                                    	rsr.ccount	a3
10003bf6:	feeba5                                    	call8	10002ab0 <com_timing_get_current_bfn_time>
10003bf9:	0248                                    	l32i.n	a4, a2, 0
10003bfb:	f57c                                    	movi.n	a5, -1
10003bfd:	415850                                    	srli	a5, a5, 8
10003c00:	f4ac31                                    	l32r	a3, 10000eb0 (10025d60 <keepalive_event_callback.loops>)
10003c03:	3064a0                                    	xor	a6, a4, a10
10003c06:	263567                                    	bltu	a5, a6, 10003c30 <keepalive_event_callback+0x40>
10003c09:	106a50                                    	and	a6, a10, a5
10003c0c:	104450                                    	and	a4, a4, a5
10003c0f:	33f8                                    	l32i.n	a15, a3, 12
10003c11:	c04640                                    	sub	a4, a6, a4
10003c14:	01bf47                                    	bgeu	a15, a4, 10003c19 <keepalive_event_callback+0x29>
10003c17:	3349                                    	s32i.n	a4, a3, 12

10003c19 <keepalive_event_callback+0x29>:
10003c19:	f4a351                                    	l32r	a5, 10000ea8 (100248d0 <event_loop_continue>)
10003c1c:	5568                                    	l32i.n	a6, a5, 20
10003c1e:	02b467                                    	bgeu	a4, a6, 10003c24 <keepalive_event_callback+0x34>
10003c21:	056542                                    	s32i	a4, a5, 20
10003c24:	2358                                    	l32i.n	a5, a3, 8
10003c26:	1368                                    	l32i.n	a6, a3, 4
10003c28:	454a                                    	add.n	a4, a5, a4
10003c2a:	f61b                                    	addi.n	a15, a6, 1
10003c2c:	2349                                    	s32i.n	a4, a3, 8
10003c2e:	13f9                                    	s32i.n	a15, a3, 4
10003c30:	22b8                                    	l32i.n	a11, a2, 8
10003c32:	0348                                    	l32i.n	a4, a3, 0
10003c34:	db8c                                    	beqz.n	a11, 10003c45 <keepalive_event_callback+0x55>
10003c36:	0b34b7                                    	bltu	a4, a11, 10003c45 <keepalive_event_callback+0x55>
10003c39:	f49b21                                    	l32r	a2, 10000ea8 (100248d0 <event_loop_continue>)
10003c3c:	050c                                    	movi.n	a5, 0
10003c3e:	004252                                    	s8i	a5, a2, 0
10003c41:	0001c6                                    	j	10003c4c <keepalive_event_callback+0x5c>

10003c44 <keepalive_event_callback+0x54>:
	...

10003c45 <keepalive_event_callback+0x55>:
10003c45:	12a8                                    	l32i.n	a10, a2, 4
10003c47:	ffeaa5                                    	call8	10003af0 <com_event_schedule_keepalive_event>
10003c4a:	0348                                    	l32i.n	a4, a3, 0
10003c4c:	241b                                    	addi.n	a2, a4, 1
10003c4e:	0329                                    	s32i.n	a2, a3, 0
10003c50:	f01d                                    	retw.n

10003c52 <keepalive_event_callback+0x62>:
	...

10003c54 <com_event_schedule_event>:
10003c54:	006136                                    	entry	a1, 48
10003c57:	445c                                    	movi.n	a4, 84
10003c59:	f49251                                    	l32r	a5, 10000ea4 (10025580 <event_table>)
10003c5c:	824240                                    	mull	a4, a2, a4
10003c5f:	0a2c                                    	movi.n	a10, 32
10003c61:	754a                                    	add.n	a7, a5, a4
10003c63:	27c8                                    	l32i.n	a12, a7, 8
10003c65:	1d0c                                    	movi.n	a13, 1
10003c67:	731c66                                    	bnei	a12, 1, 10003cde <com_event_schedule_event+0x8a>
10003c6a:	60a1a2                                    	movi	a10, 0x160
10003c6d:	fda365                                    	call8	100016a4 <com_isr_interrupt_disable>
10003c70:	006f40                                    	rsil	a4, 15
10003c73:	f48d61                                    	l32r	a6, 10000ea8 (100248d0 <event_loop_continue>)
10003c76:	455c                                    	movi.n	a5, 84
10003c78:	03ad                                    	mov.n	a10, a3
10003c7a:	f87c                                    	movi.n	a8, -1
10003c7c:	3149                                    	s32i.n	a4, a1, 12
10003c7e:	2648                                    	l32i.n	a4, a6, 8
10003c80:	f489f1                                    	l32r	a15, 10000ea4 (10025580 <event_table>)
10003c83:	630426                                    	beqi	a4, -1, 10003cea <com_event_schedule_event+0x96>
10003c86:	824450                                    	mull	a4, a4, a5
10003c89:	f57c                                    	movi.n	a5, -1
10003c8b:	4f4a                                    	add.n	a4, a15, a4
10003c8d:	14b8                                    	l32i.n	a11, a4, 4
10003c8f:	fee4e5                                    	call8	10002adc <com_timing_is_bfn1_earlier_or_equal_bfn2>
10003c92:	2688                                    	l32i.n	a8, a6, 8
10003c94:	052a56                                    	bnez	a10, 10003cea <com_event_schedule_event+0x96>
10003c97:	f47c                                    	movi.n	a4, -1
10003c99:	1f0826                                    	beqi	a8, -1, 10003cbc <com_event_schedule_event+0x68>
10003c9c:	085d                                    	mov.n	a5, a8

10003c9e <com_event_schedule_event+0x4a>:
10003c9e:	465c                                    	movi.n	a6, 84
10003ca0:	826860                                    	mull	a6, a8, a6
10003ca3:	f480f1                                    	l32r	a15, 10000ea4 (10025580 <event_table>)
10003ca6:	03bd                                    	mov.n	a11, a3
10003ca8:	6f6a                                    	add.n	a6, a15, a6
10003caa:	16a8                                    	l32i.n	a10, a6, 4
10003cac:	084d                                    	mov.n	a4, a8
10003cae:	fee0e5                                    	call8	10002abc <com_timing_is_bfn1_earlier_bfn2>
10003cb1:	7a8c                                    	beqz.n	a10, 10003cbc <com_event_schedule_event+0x68>
10003cb3:	4688                                    	l32i.n	a8, a6, 16
10003cb5:	045d                                    	mov.n	a5, a4
10003cb7:	f47c                                    	movi.n	a4, -1
10003cb9:	e10866                                    	bnei	a8, -1, 10003c9e <com_event_schedule_event+0x4a>
10003cbc:	4d5c                                    	movi.n	a13, 84
10003cbe:	f479e1                                    	l32r	a14, 10000ea4 (10025580 <event_table>)
10003cc1:	8255d0                                    	mull	a5, a5, a13
10003cc4:	8292d0                                    	mull	a9, a2, a13
10003cc7:	280c                                    	movi.n	a8, 2
10003cc9:	fe9a                                    	add.n	a15, a14, a9
10003ccb:	2789                                    	s32i.n	a8, a7, 8
10003ccd:	5e5a                                    	add.n	a5, a14, a5
10003ccf:	f47671                                    	l32r	a7, 10000ea8 (100248d0 <event_loop_continue>)
10003cd2:	4f49                                    	s32i.n	a4, a15, 16
10003cd4:	1f39                                    	s32i.n	a3, a15, 4
10003cd6:	0e6d                                    	mov.n	a6, a14
10003cd8:	10c542                                    	addi	a4, a5, 16
10003cdb:	000886                                    	j	10003d01 <com_event_schedule_event+0xad>

10003cde <com_event_schedule_event+0x8a>:
10003cde:	02bd                                    	mov.n	a11, a2
10003ce0:	feca25                                    	call8	10002984 <com_send_rb_e_EVENT_HANDLER_ERR>
10003ce3:	f27c                                    	movi.n	a2, -1
10003ce5:	f01d                                    	retw.n

10003ce7 <com_event_schedule_event+0x93>:
10003ce7:	000000                                        ...

10003cea <com_event_schedule_event+0x96>:
10003cea:	445c                                    	movi.n	a4, 84
10003cec:	250c                                    	movi.n	a5, 2
10003cee:	82e240                                    	mull	a14, a2, a4
10003cf1:	f46c61                                    	l32r	a6, 10000ea4 (10025580 <event_table>)
10003cf4:	2759                                    	s32i.n	a5, a7, 8
10003cf6:	f46c71                                    	l32r	a7, 10000ea8 (100248d0 <event_loop_continue>)
10003cf9:	f6ea                                    	add.n	a15, a6, a14
10003cfb:	478b                                    	addi.n	a4, a7, 8
10003cfd:	4f89                                    	s32i.n	a8, a15, 16
10003cff:	1f39                                    	s32i.n	a3, a15, 4
10003d01:	0429                                    	s32i.n	a2, a4, 0
10003d03:	002ee5                                    	call8	10003ff0 <com_event_check_scheduled_events>
10003d06:	2738                                    	l32i.n	a3, a7, 8
10003d08:	445c                                    	movi.n	a4, 84
10003d0a:	1a0326                                    	beqi	a3, -1, 10003d28 <com_event_schedule_event+0xd4>
10003d0d:	823340                                    	mull	a3, a3, a4
10003d10:	d44c                                    	movi.n	a4, 77
10003d12:	363a                                    	add.n	a3, a6, a3
10003d14:	1338                                    	l32i.n	a3, a3, 4
10003d16:	fed9a5                                    	call8	10002ab0 <com_timing_get_current_bfn_time>
10003d19:	114410                                    	slli	a4, a4, 15
10003d1c:	60a1a2                                    	movi	a10, 0x160
10003d1f:	550c                                    	movi.n	a5, 5
10003d21:	0439                                    	s32i.n	a3, a4, 0
10003d23:	4459                                    	s32i.n	a5, a4, 16
10003d25:	fd8ee5                                    	call8	10001614 <com_isr_interrupt_enable>
10003d28:	4738                                    	l32i.n	a3, a7, 16
10003d2a:	1b0326                                    	beqi	a3, -1, 10003d49 <com_event_schedule_event+0xf5>
10003d2d:	006f30                                    	rsil	a3, 15
10003d30:	03ea40                                    	rsr.ccount	a4
10003d33:	c8a052                                    	movi	a5, 200
10003d36:	b45a                                    	add.n	a11, a4, a5
10003d38:	0a0c                                    	movi.n	a10, 0
10003d3a:	023c65                                    	call8	10006100 <xthal_set_ccompare>
10003d3d:	35a2a2                                    	movi	a10, 0x235
10003d40:	fd8d25                                    	call8	10001614 <com_isr_interrupt_enable>
10003d43:	13e630                                    	wsr.ps	a3
10003d46:	002020                                    	esync
10003d49:	3138                                    	l32i.n	a3, a1, 12
10003d4b:	13e630                                    	wsr.ps	a3
10003d4e:	002020                                    	esync
10003d51:	f01d                                    	retw.n

10003d53 <com_event_schedule_event+0xff>:
	...

10003d54 <com_event_exit_event_loop>:
10003d54:	004136                                    	entry	a1, 32
10003d57:	f45421                                    	l32r	a2, 10000ea8 (100248d0 <event_loop_continue>)
10003d5a:	030c                                    	movi.n	a3, 0
10003d5c:	004232                                    	s8i	a3, a2, 0
10003d5f:	f01d                                    	retw.n

10003d61 <com_event_exit_event_loop+0xd>:
10003d61:	000000                                        ...

10003d64 <com_event_init_events>:
10003d64:	004136                                    	entry	a1, 32
10003d67:	f44f51                                    	l32r	a5, 10000ea4 (10025580 <event_table>)
10003d6a:	861c                                    	movi.n	a6, 24
10003d6c:	020c                                    	movi.n	a2, 0
10003d6e:	140c                                    	movi.n	a4, 1
10003d70:	358b                                    	addi.n	a3, a5, 8
10003d72:	088676                                    	loop	a6, 10003d7e <com_event_init_events+0x1a>
10003d75:	0329                                    	s32i.n	a2, a3, 0
10003d77:	2349                                    	s32i.n	a4, a3, 8
10003d79:	441b                                    	addi.n	a4, a4, 1
10003d7b:	54c332                                    	addi	a3, a3, 84

10003d7e <com_event_init_events+0x1a>:
10003d7e:	f44a41                                    	l32r	a4, 10000ea8 (100248d0 <event_loop_continue>)
10003d81:	f37c                                    	movi.n	a3, -1
10003d83:	07d522                                    	addmi	a2, a5, 0x700
10003d86:	0f0c                                    	movi.n	a15, 0
10003d88:	f44bb1                                    	l32r	a11, 10000eb4 (10003dbc <com_event_handle_timer_irq>)
10003d8b:	60a1a2                                    	movi	a10, 0x160
10003d8e:	0c0c                                    	movi.n	a12, 0
10003d90:	276232                                    	s32i	a3, a2, 156
10003d93:	14f9                                    	s32i.n	a15, a4, 4
10003d95:	2439                                    	s32i.n	a3, a4, 8
10003d97:	036432                                    	s32i	a3, a4, 12
10003d9a:	046432                                    	s32i	a3, a4, 16
10003d9d:	fd7a25                                    	call8	10001540 <com_isr_event>
10003da0:	f44621                                    	l32r	a2, 10000eb8 (26c2e4 <_memmap_mem_sram_end+0x2c2e4>)
10003da3:	130c                                    	movi.n	a3, 1
10003da5:	f445b1                                    	l32r	a11, 10000ebc (10003e14 <com_event_handle_phi_irq>)
10003da8:	35a2a2                                    	movi	a10, 0x235
10003dab:	0c0c                                    	movi.n	a12, 0
10003dad:	0239                                    	s32i.n	a3, a2, 0
10003daf:	fd7925                                    	call8	10001540 <com_isr_event>
10003db2:	35a2a2                                    	movi	a10, 0x235
10003db5:	fd8ee5                                    	call8	100016a4 <com_isr_interrupt_disable>
10003db8:	f01d                                    	retw.n

10003dba <com_event_init_events+0x56>:
	...

10003dbc <com_event_handle_timer_irq>:
10003dbc:	004136                                    	entry	a1, 32
10003dbf:	f44031                                    	l32r	a3, 10000ec0 (268010 <_memmap_mem_sram_end+0x28010>)
10003dc2:	002322                                    	l32i	a2, a3, 0
10003dc5:	0022a5                                    	call8	10003ff0 <com_event_check_scheduled_events>
10003dc8:	f43821                                    	l32r	a2, 10000ea8 (100248d0 <event_loop_continue>)
10003dcb:	455c                                    	movi.n	a5, 84
10003dcd:	2248                                    	l32i.n	a4, a2, 8
10003dcf:	f435f1                                    	l32r	a15, 10000ea4 (10025580 <event_table>)
10003dd2:	1a0426                                    	beqi	a4, -1, 10003df0 <com_event_handle_timer_irq+0x34>
10003dd5:	824450                                    	mull	a4, a4, a5
10003dd8:	d54c                                    	movi.n	a5, 77
10003dda:	4f4a                                    	add.n	a4, a15, a4
10003ddc:	1448                                    	l32i.n	a4, a4, 4
10003dde:	fecd25                                    	call8	10002ab0 <com_timing_get_current_bfn_time>
10003de1:	115510                                    	slli	a5, a5, 15
10003de4:	60a1a2                                    	movi	a10, 0x160
10003de7:	560c                                    	movi.n	a6, 5
10003de9:	0549                                    	s32i.n	a4, a5, 0
10003deb:	0369                                    	s32i.n	a6, a3, 0
10003ded:	fd8265                                    	call8	10001614 <com_isr_interrupt_enable>

10003df0 <com_event_handle_timer_irq+0x34>:
10003df0:	4228                                    	l32i.n	a2, a2, 16
10003df2:	1b0226                                    	beqi	a2, -1, 10003e11 <com_event_handle_timer_irq+0x55>
10003df5:	006f20                                    	rsil	a2, 15
10003df8:	03ea30                                    	rsr.ccount	a3
10003dfb:	c8a042                                    	movi	a4, 200
10003dfe:	b34a                                    	add.n	a11, a3, a4
10003e00:	0a0c                                    	movi.n	a10, 0
10003e02:	022fe5                                    	call8	10006100 <xthal_set_ccompare>
10003e05:	35a2a2                                    	movi	a10, 0x235
10003e08:	fd80a5                                    	call8	10001614 <com_isr_interrupt_enable>
10003e0b:	13e620                                    	wsr.ps	a2
10003e0e:	002020                                    	esync
10003e11:	f01d                                    	retw.n

10003e13 <com_event_handle_timer_irq+0x57>:
	...

10003e14 <com_event_handle_phi_irq>:
10003e14:	004136                                    	entry	a1, 32
10003e17:	35a2a2                                    	movi	a10, 0x235
10003e1a:	fd88a5                                    	call8	100016a4 <com_isr_interrupt_disable>
10003e1d:	00a0a2                                    	movi	a10, 0
10003e20:	00a0b2                                    	movi	a11, 0
10003e23:	022de5                                    	call8	10006100 <xthal_set_ccompare>
10003e26:	006f20                                    	rsil	a2, 15
10003e29:	f41f31                                    	l32r	a3, 10000ea8 (100248d0 <event_loop_continue>)
10003e2c:	445c                                    	movi.n	a4, 84
10003e2e:	4358                                    	l32i.n	a5, a3, 16
10003e30:	f41d61                                    	l32r	a6, 10000ea4 (10025580 <event_table>)
10003e33:	630526                                    	beqi	a5, -1, 10003e9a <com_event_handle_phi_irq+0x86>
10003e36:	827540                                    	mull	a7, a5, a4
10003e39:	490c                                    	movi.n	a9, 4
10003e3b:	767a                                    	add.n	a7, a6, a7
10003e3d:	4788                                    	l32i.n	a8, a7, 16
10003e3f:	2799                                    	s32i.n	a9, a7, 8
10003e41:	4389                                    	s32i.n	a8, a3, 16
10003e43:	13e620                                    	wsr.ps	a2
10003e46:	002020                                    	esync
10003e49:	721c                                    	movi.n	a2, 23

10003e4b <com_event_handle_phi_irq+0x37>:
10003e4b:	827540                                    	mull	a7, a5, a4
10003e4e:	767a                                    	add.n	a7, a6, a7
10003e50:	0798                                    	l32i.n	a9, a7, 0
10003e52:	14c7a2                                    	addi	a10, a7, 20
10003e55:	198c                                    	beqz.n	a9, 10003e5a <com_event_handle_phi_irq+0x46>
10003e57:	0009e0                                    	callx8	a9
10003e5a:	123257                                    	bltu	a2, a5, 10003e70 <com_event_handle_phi_irq+0x5c>
10003e5d:	006f80                                    	rsil	a8, 15
10003e60:	1398                                    	l32i.n	a9, a3, 4
10003e62:	0f0c                                    	movi.n	a15, 0
10003e64:	1359                                    	s32i.n	a5, a3, 4
10003e66:	27f9                                    	s32i.n	a15, a7, 8
10003e68:	4799                                    	s32i.n	a9, a7, 16
10003e6a:	13e680                                    	wsr.ps	a8
10003e6d:	002020                                    	esync
10003e70:	006f70                                    	rsil	a7, 15
10003e73:	4358                                    	l32i.n	a5, a3, 16
10003e75:	4a0c                                    	movi.n	a10, 4
10003e77:	150526                                    	beqi	a5, -1, 10003e90 <com_event_handle_phi_irq+0x7c>
10003e7a:	828540                                    	mull	a8, a5, a4
10003e7d:	868a                                    	add.n	a8, a6, a8
10003e7f:	4898                                    	l32i.n	a9, a8, 16
10003e81:	28a9                                    	s32i.n	a10, a8, 8
10003e83:	4399                                    	s32i.n	a9, a3, 16
10003e85:	13e670                                    	wsr.ps	a7
10003e88:	002020                                    	esync
10003e8b:	ffef06                                    	j	10003e4b <com_event_handle_phi_irq+0x37>

10003e8e <com_event_handle_phi_irq+0x7a>:
	...

10003e90 <com_event_handle_phi_irq+0x7c>:
10003e90:	13e670                                    	wsr.ps	a7
10003e93:	002020                                    	esync
10003e96:	000186                                    	j	10003ea0 <com_event_handle_phi_irq+0x8c>

10003e99 <com_event_handle_phi_irq+0x85>:
	...

10003e9a <com_event_handle_phi_irq+0x86>:
10003e9a:	13e620                                    	wsr.ps	a2
10003e9d:	002020                                    	esync
10003ea0:	35a2a2                                    	movi	a10, 0x235
10003ea3:	fd7725                                    	call8	10001614 <com_isr_interrupt_enable>
10003ea6:	f01d                                    	retw.n

10003ea8 <com_event_free_event>:
10003ea8:	004136                                    	entry	a1, 32
10003eab:	023d                                    	mov.n	a3, a2
10003ead:	741c                                    	movi.n	a4, 23
10003eaf:	f27c                                    	movi.n	a2, -1
10003eb1:	213437                                    	bltu	a4, a3, 10003ed6 <com_event_free_event+0x2e>
10003eb4:	006f20                                    	rsil	a2, 15
10003eb7:	445c                                    	movi.n	a4, 84
10003eb9:	f3fb61                                    	l32r	a6, 10000ea8 (100248d0 <event_loop_continue>)
10003ebc:	f3fa51                                    	l32r	a5, 10000ea4 (10025580 <event_table>)
10003ebf:	824340                                    	mull	a4, a3, a4
10003ec2:	16f8                                    	l32i.n	a15, a6, 4
10003ec4:	454a                                    	add.n	a4, a5, a4
10003ec6:	070c                                    	movi.n	a7, 0
10003ec8:	1639                                    	s32i.n	a3, a6, 4
10003eca:	44f9                                    	s32i.n	a15, a4, 16
10003ecc:	2479                                    	s32i.n	a7, a4, 8
10003ece:	13e620                                    	wsr.ps	a2
10003ed1:	002020                                    	esync
10003ed4:	032d                                    	mov.n	a2, a3

10003ed6 <com_event_free_event+0x2e>:
10003ed6:	f01d                                    	retw.n

10003ed8 <com_event_execute_immediate_event>:
10003ed8:	004136                                    	entry	a1, 32
10003edb:	445c                                    	movi.n	a4, 84
10003edd:	f3f131                                    	l32r	a3, 10000ea4 (10025580 <event_table>)
10003ee0:	824240                                    	mull	a4, a2, a4
10003ee3:	0a2c                                    	movi.n	a10, 32
10003ee5:	434a                                    	add.n	a4, a3, a4
10003ee7:	24c8                                    	l32i.n	a12, a4, 8
10003ee9:	1d0c                                    	movi.n	a13, 1
10003eeb:	2f1c66                                    	bnei	a12, 1, 10003f1e <com_event_execute_immediate_event+0x46>
10003eee:	250c                                    	movi.n	a5, 2
10003ef0:	2459                                    	s32i.n	a5, a4, 8
10003ef2:	006f50                                    	rsil	a5, 15
10003ef5:	3468                                    	l32i.n	a6, a4, 12
10003ef7:	c90c                                    	movi.n	a9, 12
10003ef9:	0a1c                                    	movi.n	a10, 16
10003efb:	760b                                    	addi.n	a7, a6, -1
10003efd:	f3ea81                                    	l32r	a8, 10000ea8 (100248d0 <event_loop_continue>)
10003f00:	93a970                                    	movnez	a10, a9, a7
10003f03:	f8aa                                    	add.n	a15, a8, a10
10003f05:	0f68                                    	l32i.n	a6, a15, 0
10003f07:	98cb                                    	addi.n	a9, a8, 12
10003f09:	200626                                    	beqi	a6, -1, 10003f2d <com_event_execute_immediate_event+0x55>
10003f0c:	475c                                    	movi.n	a7, 84
10003f0e:	098176                                    	loop	a1, 10003f1b <com_event_execute_immediate_event+0x43>

10003f11 <com_event_execute_immediate_event+0x39>:
10003f11:	826670                                    	mull	a6, a6, a7
10003f14:	836a                                    	add.n	a8, a3, a6
10003f16:	4868                                    	l32i.n	a6, a8, 16
10003f18:	0b0626                                    	beqi	a6, -1, 10003f27 <com_event_execute_immediate_event+0x4f>

10003f1b <com_event_execute_immediate_event+0x43>:
10003f1b:	fffc86                                    	j	10003f11 <com_event_execute_immediate_event+0x39>

10003f1e <com_event_execute_immediate_event+0x46>:
10003f1e:	02bd                                    	mov.n	a11, a2
10003f20:	fea625                                    	call8	10002984 <com_send_rb_e_EVENT_HANDLER_ERR>
10003f23:	f27c                                    	movi.n	a2, -1
10003f25:	f01d                                    	retw.n

10003f27 <com_event_execute_immediate_event+0x4f>:
10003f27:	10c862                                    	addi	a6, a8, 16
10003f2a:	000146                                    	j	10003f33 <com_event_execute_immediate_event+0x5b>

10003f2d <com_event_execute_immediate_event+0x55>:
10003f2d:	10c862                                    	addi	a6, a8, 16
10003f30:	936970                                    	movnez	a6, a9, a7
10003f33:	475c                                    	movi.n	a7, 84
10003f35:	827270                                    	mull	a7, a2, a7
10003f38:	380c                                    	movi.n	a8, 3
10003f3a:	337a                                    	add.n	a3, a3, a7
10003f3c:	ff7c                                    	movi.n	a15, -1
10003f3e:	0629                                    	s32i.n	a2, a6, 0
10003f40:	2489                                    	s32i.n	a8, a4, 8
10003f42:	43f9                                    	s32i.n	a15, a3, 16
10003f44:	13e650                                    	wsr.ps	a5
10003f47:	002020                                    	esync
10003f4a:	f01d                                    	retw.n

10003f4c <com_event_event_loop>:
10003f4c:	008136                                    	entry	a1, 64
10003f4f:	f3d631                                    	l32r	a3, 10000ea8 (100248d0 <event_loop_continue>)
10003f52:	01a022                                    	movi	a2, 1
10003f55:	004322                                    	s8i	a2, a3, 0
10003f58:	feb565                                    	call8	10002ab0 <com_timing_get_current_bfn_time>
10003f5b:	41a9                                    	s32i.n	a10, a1, 16
10003f5d:	03ea20                                    	rsr.ccount	a2
10003f60:	10c1e2                                    	addi	a14, a1, 16
10003f63:	2a0c                                    	movi.n	a10, 2
10003f65:	0b0c                                    	movi.n	a11, 0
10003f67:	2c0c                                    	movi.n	a12, 2
10003f69:	0d0c                                    	movi.n	a13, 0
10003f6b:	5129                                    	s32i.n	a2, a1, 20
10003f6d:	fe7f65                                    	call8	10002764 <com_debug_trace_buffer>
10003f70:	741c                                    	movi.n	a4, 23
10003f72:	020c                                    	movi.n	a2, 0
10003f74:	000386                                    	j	10003f86 <com_event_event_loop+0x3a>

10003f77 <com_event_event_loop+0x2b>:
10003f77:	13e670                                    	wsr.ps	a7
10003f7a:	002020                                    	esync
10003f7d:	000352                                    	l8ui	a5, a3, 0
10003f80:	01c222                                    	addi	a2, a2, 1
10003f83:	064516                                    	beqz	a5, 10003feb <com_event_event_loop+0x9f>
10003f86:	0a0c                                    	movi.n	a10, 0
10003f88:	02bd                                    	mov.n	a11, a2
10003f8a:	003b65                                    	call8	10004340 <com_shared_mem_set_cpu_loop_count>
10003f8d:	006f70                                    	rsil	a7, 15
10003f90:	006f80                                    	rsil	a8, 15
10003f93:	3358                                    	l32i.n	a5, a3, 12
10003f95:	465c                                    	movi.n	a6, 84
10003f97:	3e0526                                    	beqi	a5, -1, 10003fd9 <com_event_event_loop+0x8d>
10003f9a:	826560                                    	mull	a6, a5, a6
10003f9d:	f3c191                                    	l32r	a9, 10000ea4 (10025580 <event_table>)
10003fa0:	4a0c                                    	movi.n	a10, 4
10003fa2:	696a                                    	add.n	a6, a9, a6
10003fa4:	4698                                    	l32i.n	a9, a6, 16
10003fa6:	26a9                                    	s32i.n	a10, a6, 8
10003fa8:	3399                                    	s32i.n	a9, a3, 12
10003faa:	13e680                                    	wsr.ps	a8
10003fad:	002020                                    	esync
10003fb0:	13e670                                    	wsr.ps	a7
10003fb3:	002020                                    	esync
10003fb6:	0678                                    	l32i.n	a7, a6, 0
10003fb8:	14c6a2                                    	addi	a10, a6, 20
10003fbb:	178c                                    	beqz.n	a7, 10003fc0 <com_event_event_loop+0x74>
10003fbd:	0007e0                                    	callx8	a7
10003fc0:	b93457                                    	bltu	a4, a5, 10003f7d <com_event_event_loop+0x31>
10003fc3:	006f70                                    	rsil	a7, 15
10003fc6:	1388                                    	l32i.n	a8, a3, 4
10003fc8:	0f0c                                    	movi.n	a15, 0
10003fca:	1359                                    	s32i.n	a5, a3, 4
10003fcc:	26f9                                    	s32i.n	a15, a6, 8
10003fce:	4689                                    	s32i.n	a8, a6, 16
10003fd0:	13e670                                    	wsr.ps	a7
10003fd3:	002020                                    	esync
10003fd6:	ffe8c6                                    	j	10003f7d <com_event_event_loop+0x31>

10003fd9 <com_event_event_loop+0x8d>:
10003fd9:	13e680                                    	wsr.ps	a8
10003fdc:	002020                                    	esync
10003fdf:	000125                                    	call8	10003ff0 <com_event_check_scheduled_events>
10003fe2:	f91a56                                    	bnez	a10, 10003f77 <com_event_event_loop+0x2b>
10003fe5:	007000                                    	waiti	0
10003fe8:	ffe2c6                                    	j	10003f77 <com_event_event_loop+0x2b>

10003feb <com_event_event_loop+0x9f>:
10003feb:	f01d                                    	retw.n

10003fed <com_event_event_loop+0xa1>:
10003fed:	000000                                        ...

10003ff0 <com_event_check_scheduled_events>:
10003ff0:	006136                                    	entry	a1, 48
10003ff3:	006f20                                    	rsil	a2, 15
10003ff6:	feaba5                                    	call8	10002ab0 <com_timing_get_current_bfn_time>
10003ff9:	58a2b2                                    	movi	a11, 0x258
10003ffc:	fe3b65                                    	call8	100023b4 <com_bfn_add_time>
10003fff:	f3aa41                                    	l32r	a4, 10000ea8 (100248d0 <event_loop_continue>)
10004002:	050c                                    	movi.n	a5, 0
10004004:	2488                                    	l32i.n	a8, a4, 8
10004006:	e4cb                                    	addi.n	a14, a4, 12
10004008:	020866                                    	bnei	a8, -1, 1000400e <com_event_check_scheduled_events+0x1e>
1000400b:	002646                                    	j	100040a8 <com_event_check_scheduled_events+0xb8>
1000400e:	10c4f2                                    	addi	a15, a4, 16
10004011:	f3a471                                    	l32r	a7, 10000ea4 (10025580 <event_table>)
10004014:	0abd                                    	mov.n	a11, a10
10004016:	050c                                    	movi.n	a5, 0
10004018:	465c                                    	movi.n	a6, 84
1000401a:	f37c                                    	movi.n	a3, -1
1000401c:	31e9                                    	s32i.n	a14, a1, 12
1000401e:	21f9                                    	s32i.n	a15, a1, 8
10004020:	000746                                    	j	10004041 <com_event_check_scheduled_events+0x51>

10004023 <com_event_check_scheduled_events+0x33>:
10004023:	fe9625                                    	call8	10002984 <com_send_rb_e_EVENT_HANDLER_ERR>
10004026:	551b                                    	addi.n	a5, a5, 1
10004028:	13e620                                    	wsr.ps	a2
1000402b:	002020                                    	esync
1000402e:	006f20                                    	rsil	a2, 15
10004031:	fea7e5                                    	call8	10002ab0 <com_timing_get_current_bfn_time>
10004034:	58a2b2                                    	movi	a11, 0x258
10004037:	fe37e5                                    	call8	100023b4 <com_bfn_add_time>
1000403a:	2488                                    	l32i.n	a8, a4, 8
1000403c:	0abd                                    	mov.n	a11, a10
1000403e:	640826                                    	beqi	a8, -1, 100040a6 <com_event_check_scheduled_events+0xb6>
10004041:	828860                                    	mull	a8, a8, a6
10004044:	878a                                    	add.n	a8, a7, a8
10004046:	18a8                                    	l32i.n	a10, a8, 4
10004048:	fea925                                    	call8	10002adc <com_timing_is_bfn1_earlier_or_equal_bfn2>
1000404b:	059a16                                    	beqz	a10, 100040a8 <com_event_check_scheduled_events+0xb8>
1000404e:	24b8                                    	l32i.n	a11, a4, 8
10004050:	0a2c                                    	movi.n	a10, 32
10004052:	828b60                                    	mull	a8, a11, a6
10004055:	2d0c                                    	movi.n	a13, 2
10004057:	878a                                    	add.n	a8, a7, a8
10004059:	28c8                                    	l32i.n	a12, a8, 8
1000405b:	4898                                    	l32i.n	a9, a8, 16
1000405d:	2499                                    	s32i.n	a9, a4, 8
1000405f:	c02c66                                    	bnei	a12, 2, 10004023 <com_event_check_scheduled_events+0x33>
10004062:	006f90                                    	rsil	a9, 15
10004065:	38a8                                    	l32i.n	a10, a8, 12
10004067:	0d1c                                    	movi.n	a13, 16
10004069:	ca0b                                    	addi.n	a12, a10, -1
1000406b:	cf0c                                    	movi.n	a15, 12
1000406d:	93dfc0                                    	movnez	a13, a15, a12
10004070:	a4da                                    	add.n	a10, a4, a13
10004072:	0aa8                                    	l32i.n	a10, a10, 0
10004074:	31d8                                    	l32i.n	a13, a1, 12
10004076:	160a26                                    	beqi	a10, -1, 10004090 <com_event_check_scheduled_events+0xa0>
10004079:	098176                                    	loop	a1, 10004086 <com_event_check_scheduled_events+0x96>
1000407c:	82aa60                                    	mull	a10, a10, a6
1000407f:	c7aa                                    	add.n	a12, a7, a10
10004081:	4ca8                                    	l32i.n	a10, a12, 16
10004083:	020a26                                    	beqi	a10, -1, 10004089 <com_event_check_scheduled_events+0x99>

10004086 <com_event_check_scheduled_events+0x96>:
10004086:	fffc86                                    	j	1000407c <com_event_check_scheduled_events+0x8c>

10004089 <com_event_check_scheduled_events+0x99>:
10004089:	10cca2                                    	addi	a10, a12, 16
1000408c:	000146                                    	j	10004095 <com_event_check_scheduled_events+0xa5>

1000408f <com_event_check_scheduled_events+0x9f>:
	...

10004090 <com_event_check_scheduled_events+0xa0>:
10004090:	21a8                                    	l32i.n	a10, a1, 8
10004092:	93adc0                                    	movnez	a10, a13, a12
10004095:	3f0c                                    	movi.n	a15, 3
10004097:	0ab9                                    	s32i.n	a11, a10, 0
10004099:	28f9                                    	s32i.n	a15, a8, 8
1000409b:	4839                                    	s32i.n	a3, a8, 16
1000409d:	13e690                                    	wsr.ps	a9
100040a0:	002020                                    	esync
100040a3:	ffdfc6                                    	j	10004026 <com_event_check_scheduled_events+0x36>

100040a6 <com_event_check_scheduled_events+0xb6>:
100040a6:	150c                                    	movi.n	a5, 1
100040a8:	13e620                                    	wsr.ps	a2
100040ab:	002020                                    	esync
100040ae:	020c                                    	movi.n	a2, 0
100040b0:	622250                                    	saltu	a2, a2, a5
100040b3:	f01d                                    	retw.n

100040b5 <com_event_check_scheduled_events+0xc5>:
	...

100040c0 <com_msg_get_opcode>:
100040c0:	004136                                    	entry	a1, 32
100040c3:	001222                                    	l16ui	a2, a2, 0
100040c6:	f01d                                    	retw.n

100040c8 <com_msg_init_handler>:
100040c8:	004136                                    	entry	a1, 32
100040cb:	098176                                    	loop	a1, 100040d8 <com_msg_init_handler+0x10>

100040ce <com_msg_init_handler+0x6>:
100040ce:	2348                                    	l32i.n	a4, a3, 8
100040d0:	091427                                    	beq	a4, a2, 100040dd <com_msg_init_handler+0x15>
100040d3:	18c332                                    	addi	a3, a3, 24
100040d6:	148c                                    	beqz.n	a4, 100040db <com_msg_init_handler+0x13>

100040d8 <com_msg_init_handler+0x10>:
100040d8:	fffc86                                    	j	100040ce <com_msg_init_handler+0x6>

100040db <com_msg_init_handler+0x13>:
100040db:	030c                                    	movi.n	a3, 0
100040dd:	032d                                    	mov.n	a2, a3
100040df:	f01d                                    	retw.n

100040e1 <com_msg_init_handler+0x19>:
100040e1:	000000                                        ...

100040e4 <com_msg_timestamp_init>:
100040e4:	004136                                    	entry	a1, 32
100040e7:	f377a1                                    	l32r	a10, 10000ec4 (10025d70 <ref_timestamps>)
100040ea:	0b0c                                    	movi.n	a11, 0
100040ec:	0c4c                                    	movi.n	a12, 64
100040ee:	01fa65                                    	call8	10006094 <memset>
100040f1:	f01d                                    	retw.n

100040f3 <com_msg_timestamp_init+0xf>:
	...

100040f4 <com_msg_ref_timestamp_set>:
100040f4:	004136                                    	entry	a1, 32
100040f7:	f37341                                    	l32r	a4, 10000ec4 (10025d70 <ref_timestamps>)
100040fa:	a02240                                    	addx4	a2, a2, a4
100040fd:	0239                                    	s32i.n	a3, a2, 0
100040ff:	f01d                                    	retw.n

10004101 <com_msg_ref_timestamp_set+0xd>:
10004101:	000000                                        ...

10004104 <com_msg_check_lead_time>:
10004104:	006136                                    	entry	a1, 48
10004107:	026d                                    	mov.n	a6, a2
10004109:	fe9a65                                    	call8	10002ab0 <com_timing_get_current_bfn_time>
1000410c:	c022a0                                    	sub	a2, a2, a10
1000410f:	0a5d                                    	mov.n	a5, a10
10004111:	f36db1                                    	l32r	a11, 10000ec8 (493e0000 <_memmap_cacheattr_bp_allvalid+0x4f9bbbc>)
10004114:	02ad                                    	mov.n	a10, a2
10004116:	fe9a65                                    	call8	10002abc <com_timing_is_bfn1_earlier_bfn2>
10004119:	fa9c                                    	beqz.n	a10, 1000413c <com_msg_check_lead_time+0x38>
1000411b:	44b8                                    	l32i.n	a11, a4, 16
1000411d:	02ad                                    	mov.n	a10, a2
1000411f:	fe99e5                                    	call8	10002abc <com_timing_is_bfn1_earlier_bfn2>
10004122:	1abc                                    	beqz.n	a10, 10004157 <com_msg_check_lead_time+0x53>
10004124:	44f8                                    	l32i.n	a15, a4, 16
10004126:	24b8                                    	l32i.n	a11, a4, 8
10004128:	c032f0                                    	sub	a3, a2, a15
1000412b:	ba0c                                    	movi.n	a10, 11
1000412d:	05cd                                    	mov.n	a12, a5
1000412f:	06dd                                    	mov.n	a13, a6
10004131:	02ed                                    	mov.n	a14, a2
10004133:	0139                                    	s32i.n	a3, a1, 0
10004135:	fe79e5                                    	call8	100028d4 <com_send_rb_e_MSG_TIMING_ERR>
10004138:	021c                                    	movi.n	a2, 16
1000413a:	f01d                                    	retw.n

1000413c <com_msg_check_lead_time+0x38>:
1000413c:	f36431                                    	l32r	a3, 10000ecc (b6c20000 <_memmap_cacheattr_bp_allvalid+0x727dbbbc>)
1000413f:	24b8                                    	l32i.n	a11, a4, 8
10004141:	323a                                    	add.n	a3, a2, a3
10004143:	f361f1                                    	l32r	a15, 10000ec8 (493e0000 <_memmap_cacheattr_bp_allvalid+0x4f9bbbc>)
10004146:	aa0c                                    	movi.n	a10, 10
10004148:	05cd                                    	mov.n	a12, a5
1000414a:	06dd                                    	mov.n	a13, a6
1000414c:	02ed                                    	mov.n	a14, a2
1000414e:	0139                                    	s32i.n	a3, a1, 0
10004150:	fe7825                                    	call8	100028d4 <com_send_rb_e_MSG_TIMING_ERR>
10004153:	420c                                    	movi.n	a2, 4
10004155:	f01d                                    	retw.n

10004157 <com_msg_check_lead_time+0x53>:
10004157:	29ac42                                    	movi	a4, 0xfffffc29
1000415a:	b34a                                    	add.n	a11, a3, a4
1000415c:	02ad                                    	mov.n	a10, a2
1000415e:	fe95e5                                    	call8	10002abc <com_timing_is_bfn1_earlier_bfn2>
10004161:	a20c                                    	movi.n	a2, 10
10004163:	7adc                                    	bnez.n	a10, 1000417e <com_msg_check_lead_time+0x7a>
10004165:	c02630                                    	sub	a2, a6, a3
10004168:	fe9465                                    	call8	10002ab0 <com_timing_get_current_bfn_time>
1000416b:	d7a332                                    	movi	a3, 0x3d7
1000416e:	1133e0                                    	slli	a3, a3, 2
10004171:	ba3a                                    	add.n	a11, a10, a3
10004173:	02ad                                    	mov.n	a10, a2
10004175:	fe9465                                    	call8	10002abc <com_timing_is_bfn1_earlier_bfn2>
10004178:	220c                                    	movi.n	a2, 2
1000417a:	0acc                                    	bnez.n	a10, 1000417e <com_msg_check_lead_time+0x7a>
1000417c:	120c                                    	movi.n	a2, 1
1000417e:	f01d                                    	retw.n

10004180 <com_msg_schedule_macro>:
10004180:	006136                                    	entry	a1, 48
10004183:	025d                                    	mov.n	a5, a2
10004185:	0228                                    	l32i.n	a2, a2, 0
10004187:	f4a020                                    	extui	a10, a2, 0, 16
1000418a:	098176                                    	loop	a1, 10004197 <com_msg_schedule_macro+0x17>

1000418d <com_msg_schedule_macro+0xd>:
1000418d:	2368                                    	l32i.n	a6, a3, 8
1000418f:	0716a7                                    	beq	a6, a10, 1000419a <com_msg_schedule_macro+0x1a>
10004192:	18c332                                    	addi	a3, a3, 24
10004195:	06bc                                    	beqz.n	a6, 100041c9 <com_msg_schedule_macro+0x49>

10004197 <com_msg_schedule_macro+0x17>:
10004197:	fffc86                                    	j	1000418d <com_msg_schedule_macro+0xd>

1000419a <com_msg_schedule_macro+0x1a>:
1000419a:	1348                                    	l32i.n	a4, a3, 4
1000419c:	05ad                                    	mov.n	a10, a5
1000419e:	348c                                    	beqz.n	a4, 100041a5 <com_msg_schedule_macro+0x25>
100041a0:	0004e0                                    	callx8	a4
100041a3:	0528                                    	l32i.n	a2, a5, 0
100041a5:	340c                                    	movi.n	a4, 3
100041a7:	114400                                    	slli	a4, a4, 16
100041aa:	160c                                    	movi.n	a6, 1
100041ac:	116600                                    	slli	a6, a6, 16
100041af:	104240                                    	and	a4, a2, a4
100041b2:	1c9467                                    	bne	a4, a6, 100041d2 <com_msg_schedule_macro+0x52>
100041b5:	f34341                                    	l32r	a4, 10000ec4 (10025d70 <ref_timestamps>)
100041b8:	352220                                    	extui	a2, a2, 18, 4
100041bb:	a02240                                    	addx4	a2, a2, a4
100041be:	15f8                                    	l32i.n	a15, a5, 4
100041c0:	0228                                    	l32i.n	a2, a2, 0
100041c2:	42fa                                    	add.n	a4, a2, a15
100041c4:	1549                                    	s32i.n	a4, a5, 4
100041c6:	000286                                    	j	100041d4 <com_msg_schedule_macro+0x54>

100041c9 <com_msg_schedule_macro+0x49>:
100041c9:	04bd                                    	mov.n	a11, a4
100041cb:	fe6de5                                    	call8	100028a8 <com_send_rb_e_INVALID_OPCODE_ERR>
100041ce:	020c                                    	movi.n	a2, 0
100041d0:	f01d                                    	retw.n

100041d2 <com_msg_schedule_macro+0x52>:
100041d2:	1548                                    	l32i.n	a4, a5, 4
100041d4:	4328                                    	l32i.n	a2, a3, 16
100041d6:	3368                                    	l32i.n	a6, a3, 12
100041d8:	006f70                                    	rsil	a7, 15
100041db:	140382                                    	l8ui	a8, a3, 20
100041de:	390c                                    	movi.n	a9, 3
100041e0:	f89c                                    	beqz.n	a8, 10004203 <com_msg_schedule_macro+0x83>
100041e2:	020582                                    	l8ui	a8, a5, 2
100041e5:	662a                                    	add.n	a6, a6, a2
100041e7:	290987                                    	bnone	a9, a8, 10004214 <com_msg_schedule_macro+0x94>
100041ea:	04ad                                    	mov.n	a10, a4
100041ec:	06bd                                    	mov.n	a11, a6
100041ee:	03cd                                    	mov.n	a12, a3
100041f0:	fff125                                    	call8	10004104 <com_msg_check_lead_time>
100041f3:	0a2d                                    	mov.n	a2, a10
100041f5:	48ea07                                    	bbsi	a10, 0, 10004241 <com_msg_schedule_macro+0xc1>
100041f8:	1ae217                                    	bbsi	a2, 1, 10004216 <com_msg_schedule_macro+0x96>
100041fb:	13e670                                    	wsr.ps	a7
100041fe:	002020                                    	esync
10004201:	f01d                                    	retw.n

10004203 <com_msg_schedule_macro+0x83>:
10004203:	0328                                    	l32i.n	a2, a3, 0
10004205:	05ad                                    	mov.n	a10, a5
10004207:	0002e0                                    	callx8	a2
1000420a:	020c                                    	movi.n	a2, 0
1000420c:	13e670                                    	wsr.ps	a7
1000420f:	002020                                    	esync
10004212:	f01d                                    	retw.n

10004214 <com_msg_schedule_macro+0x94>:
10004214:	220c                                    	movi.n	a2, 2
10004216:	0368                                    	l32i.n	a6, a3, 0
10004218:	ff96e5                                    	call8	10003b88 <com_event_new_event>
1000421b:	0a3d                                    	mov.n	a3, a10
1000421d:	ff9ae5                                    	call8	10003bcc <com_event_get_event_p>
10004220:	0a4d                                    	mov.n	a4, a10
10004222:	0a69                                    	s32i.n	a6, a10, 0
10004224:	14caa2                                    	addi	a10, a10, 20
10004227:	0c4c                                    	movi.n	a12, 64
10004229:	05bd                                    	mov.n	a11, a5
1000422b:	01d3e5                                    	call8	10005f68 <memcpy>
1000422e:	050c                                    	movi.n	a5, 0
10004230:	03ad                                    	mov.n	a10, a3
10004232:	3459                                    	s32i.n	a5, a4, 12
10004234:	ffca25                                    	call8	10003ed8 <com_event_execute_immediate_event>
10004237:	13e670                                    	wsr.ps	a7
1000423a:	002020                                    	esync
1000423d:	f01d                                    	retw.n

1000423f <com_msg_schedule_macro+0xbf>:
	...

10004241 <com_msg_schedule_macro+0xc1>:
10004241:	c0f460                                    	sub	a15, a4, a6
10004244:	31f9                                    	s32i.n	a15, a1, 12
10004246:	0348                                    	l32i.n	a4, a3, 0
10004248:	ff93e5                                    	call8	10003b88 <com_event_new_event>
1000424b:	0a3d                                    	mov.n	a3, a10
1000424d:	ff97e5                                    	call8	10003bcc <com_event_get_event_p>
10004250:	0a6d                                    	mov.n	a6, a10
10004252:	0a49                                    	s32i.n	a4, a10, 0
10004254:	14caa2                                    	addi	a10, a10, 20
10004257:	0c4c                                    	movi.n	a12, 64
10004259:	05bd                                    	mov.n	a11, a5
1000425b:	01d0e5                                    	call8	10005f68 <memcpy>
1000425e:	040c                                    	movi.n	a4, 0
10004260:	03ad                                    	mov.n	a10, a3
10004262:	31b8                                    	l32i.n	a11, a1, 12
10004264:	3649                                    	s32i.n	a4, a6, 12
10004266:	ff9ee5                                    	call8	10003c54 <com_event_schedule_event>
10004269:	13e670                                    	wsr.ps	a7
1000426c:	002020                                    	esync
1000426f:	f01d                                    	retw.n

10004271 <com_msg_schedule_macro+0xf1>:
10004271:	000000                                        ...

10004274 <com_msg_send_readback>:
10004274:	004136                                    	entry	a1, 32
10004277:	3a0c                                    	movi.n	a10, 3
10004279:	0010a5                                    	call8	10004384 <com_shared_mem_get_queue_block>
1000427c:	f28041                                    	l32r	a4, 10000c7c (100248e8 <p_system_data>)
1000427f:	548176                                    	loop	a1, 100042d7 <com_msg_send_readback+0x63>

10004282 <com_msg_send_readback+0xe>:
10004282:	0468                                    	l32i.n	a6, a4, 0
10004284:	006f50                                    	rsil	a5, 15
10004287:	f14670                                    	l32ex	a7, a6
1000428a:	778c                                    	beqz.n	a7, 10004295 <com_msg_send_readback+0x21>
1000428c:	13e650                                    	wsr.ps	a5
1000428f:	002020                                    	esync
10004292:	000446                                    	j	100042a7 <com_msg_send_readback+0x33>

10004295 <com_msg_send_readback+0x21>:
10004295:	170c                                    	movi.n	a7, 1
10004297:	f15670                                    	s32ex	a7, a6
1000429a:	060c                                    	movi.n	a6, 0
1000429c:	40a060                                    	getex	a6
1000429f:	13e650                                    	wsr.ps	a5
100042a2:	002020                                    	esync
100042a5:	16fc                                    	bnez.n	a6, 100042da <com_msg_send_readback+0x66>
100042a7:	0020f0                                    	nop
100042aa:	0020f0                                    	nop
100042ad:	0020f0                                    	nop
100042b0:	0020f0                                    	nop
100042b3:	0020f0                                    	nop
100042b6:	0020f0                                    	nop
100042b9:	0020f0                                    	nop
100042bc:	0020f0                                    	nop
100042bf:	0020f0                                    	nop
100042c2:	0020f0                                    	nop
100042c5:	0020f0                                    	nop
100042c8:	0020f0                                    	nop
100042cb:	0020f0                                    	nop
100042ce:	0020f0                                    	nop
100042d1:	0020f0                                    	nop
100042d4:	0020f0                                    	nop

100042d7 <com_msg_send_readback+0x63>:
100042d7:	ffe9c6                                    	j	10004282 <com_msg_send_readback+0xe>

100042da <com_msg_send_readback+0x66>:
100042da:	02bd                                    	mov.n	a11, a2
100042dc:	03cd                                    	mov.n	a12, a3
100042de:	01ade5                                    	call8	10005dbc <com_queue_insert>
100042e1:	0020c0                                    	memw
100042e4:	0428                                    	l32i.n	a2, a4, 0
100042e6:	030c                                    	movi.n	a3, 0
100042e8:	f2fab1                                    	l32r	a11, 10000ed0 (beef <xthals_release_major+0x8457>)
100042eb:	5a0c                                    	movi.n	a10, 5
100042ed:	0239                                    	s32i.n	a3, a2, 0
100042ef:	fd4a25                                    	call8	10001790 <com_mb_isr_trigger>
100042f2:	f01d                                    	retw.n

100042f4 <com_msg_init_mb_irq>:
100042f4:	004136                                    	entry	a1, 32
100042f7:	a39c                                    	beqz.n	a3, 10004315 <com_msg_init_mb_irq+0x21>
100042f9:	a0a152                                    	movi	a5, 0x1a0

100042fc <com_msg_init_mb_irq+0x8>:
100042fc:	0248                                    	l32i.n	a4, a2, 0
100042fe:	12b8                                    	l32i.n	a11, a2, 4
10004300:	445a                                    	add.n	a4, a4, a5
10004302:	0c0c                                    	movi.n	a12, 0
10004304:	04ad                                    	mov.n	a10, a4
10004306:	fd23a5                                    	call8	10001540 <com_isr_event>
10004309:	04ad                                    	mov.n	a10, a4
1000430b:	fd30a5                                    	call8	10001614 <com_isr_interrupt_enable>
1000430e:	330b                                    	addi.n	a3, a3, -1
10004310:	228b                                    	addi.n	a2, a2, 8
10004312:	fe6356                                    	bnez	a3, 100042fc <com_msg_init_mb_irq+0x8>
10004315:	f01d                                    	retw.n

10004317 <com_msg_init_mb_irq+0x23>:
	...

10004320 <com_shared_mem_set_sys_status>:
10004320:	004136                                    	entry	a1, 32
10004323:	f25641                                    	l32r	a4, 10000c7c (100248e8 <p_system_data>)
10004326:	0448                                    	l32i.n	a4, a4, 0
10004328:	b02240                                    	addx8	a2, a2, a4
1000432b:	b239                                    	s32i.n	a3, a2, 44
1000432d:	f01d                                    	retw.n

1000432f <com_shared_mem_set_sys_status+0xf>:
	...

10004330 <com_shared_mem_get_sys_status>:
10004330:	004136                                    	entry	a1, 32
10004333:	f25231                                    	l32r	a3, 10000c7c (100248e8 <p_system_data>)
10004336:	0338                                    	l32i.n	a3, a3, 0
10004338:	b02230                                    	addx8	a2, a2, a3
1000433b:	b228                                    	l32i.n	a2, a2, 44
1000433d:	f01d                                    	retw.n

1000433f <com_shared_mem_get_sys_status+0xf>:
	...

10004340 <com_shared_mem_set_cpu_loop_count>:
10004340:	004136                                    	entry	a1, 32
10004343:	f24e41                                    	l32r	a4, 10000c7c (100248e8 <p_system_data>)
10004346:	0448                                    	l32i.n	a4, a4, 0
10004348:	b02240                                    	addx8	a2, a2, a4
1000434b:	c239                                    	s32i.n	a3, a2, 48
1000434d:	f01d                                    	retw.n

1000434f <com_shared_mem_set_cpu_loop_count+0xf>:
	...

10004350 <com_shared_mem_wait_for_ready>:
10004350:	006136                                    	entry	a1, 48
10004353:	f2e031                                    	l32r	a3, 10000ed4 (26c0f0 <_memmap_mem_sram_end+0x2c0f0>)
10004356:	f4a122                                    	movi	a2, 0x1f4
10004359:	048276                                    	loop	a2, 10004361 <com_shared_mem_wait_for_ready+0x11>
1000435c:	0328                                    	l32i.n	a2, a3, 0
1000435e:	0022d6                                    	bgez	a2, 10004364 <com_shared_mem_wait_for_ready+0x14>

10004361 <com_shared_mem_wait_for_ready+0x11>:
10004361:	000506                                    	j	10004379 <com_shared_mem_wait_for_ready+0x29>

10004364 <com_shared_mem_wait_for_ready+0x14>:
10004364:	f2dd31                                    	l32r	a3, 10000ed8 (26c004 <_memmap_mem_sram_end+0x2c004>)
10004367:	ffad52                                    	movi	a5, 0xfffffdff
1000436a:	0348                                    	l32i.n	a4, a3, 0
1000436c:	3149                                    	s32i.n	a4, a1, 12
1000436e:	3148                                    	l32i.n	a4, a1, 12
10004370:	104450                                    	and	a4, a4, a5
10004373:	3149                                    	s32i.n	a4, a1, 12
10004375:	3148                                    	l32i.n	a4, a1, 12
10004377:	0349                                    	s32i.n	a4, a3, 0
10004379:	f37c                                    	movi.n	a3, -1
1000437b:	302230                                    	xor	a2, a2, a3
1000437e:	052f20                                    	extui	a2, a2, 31, 1
10004381:	f01d                                    	retw.n

10004383 <com_shared_mem_wait_for_ready+0x33>:
	...

10004384 <com_shared_mem_get_queue_block>:
10004384:	004136                                    	entry	a1, 32
10004387:	f23d31                                    	l32r	a3, 10000c7c (100248e8 <p_system_data>)
1000438a:	50a442                                    	movi	a4, 0x450
1000438d:	0338                                    	l32i.n	a3, a3, 0
1000438f:	822240                                    	mull	a2, a2, a4
10004392:	232a                                    	add.n	a2, a3, a2
10004394:	74c222                                    	addi	a2, a2, 116
10004397:	f01d                                    	retw.n

10004399 <com_shared_mem_get_queue_block+0x15>:
10004399:	000000                                        ...

1000439c <com_shared_mem_get_fsm_quad_status_block>:
1000439c:	004136                                    	entry	a1, 32
1000439f:	f23731                                    	l32r	a3, 10000c7c (100248e8 <p_system_data>)
100043a2:	1122c0                                    	slli	a2, a2, 4
100043a5:	0338                                    	l32i.n	a3, a3, 0
100043a7:	232a                                    	add.n	a2, a3, a2
100043a9:	54c222                                    	addi	a2, a2, 84
100043ac:	f01d                                    	retw.n

100043ae <com_shared_mem_get_fsm_quad_status_block+0x12>:
	...

100043b0 <com_shared_mem_get_fsm_status_block>:
100043b0:	004136                                    	entry	a1, 32
100043b3:	f23231                                    	l32r	a3, 10000c7c (100248e8 <p_system_data>)
100043b6:	0338                                    	l32i.n	a3, a3, 0
100043b8:	a02230                                    	addx4	a2, a2, a3
100043bb:	4cc222                                    	addi	a2, a2, 76
100043be:	f01d                                    	retw.n

100043c0 <ax_ul_config_handler>:
100043c0:	008136                                    	entry	a1, 64
100043c3:	00e7e5                                    	call8	10005240 <ax_daco_get_addr>
100043c6:	0a3d                                    	mov.n	a3, a10
100043c8:	0612a2                                    	l16ui	a10, a2, 12
100043cb:	0012b2                                    	l16ui	a11, a2, 0
100043ce:	2cc3c2                                    	addi	a12, a3, 44
100043d1:	00ec25                                    	call8	10005294 <ax_daco_set_quad_antenna_mask>
100043d4:	021a26                                    	beqi	a10, 1, 100043da <ax_ul_config_handler+0x1a>
100043d7:	003a46                                    	j	100044c4 <ax_ul_config_handler+0x104>
100043da:	000342                                    	l8ui	a4, a3, 0
100043dd:	160c                                    	movi.n	a6, 1
100043df:	c4ac                                    	beqz.n	a4, 1000440f <ax_ul_config_handler+0x4f>
100043e1:	0c0242                                    	l8ui	a4, a2, 12
100043e4:	050c                                    	movi.n	a5, 0
100043e6:	624460                                    	saltu	a4, a4, a6
100043e9:	1349                                    	s32i.n	a4, a3, 4
100043eb:	0692f2                                    	l16si	a15, a2, 12
100043ee:	a18b                                    	addi.n	a10, a1, 8
100043f0:	2159                                    	s32i.n	a5, a1, 8
100043f2:	3169                                    	s32i.n	a6, a1, 12
100043f4:	4159                                    	s32i.n	a5, a1, 16
100043f6:	0c5152                                    	s16i	a5, a1, 24
100043f9:	5149                                    	s32i.n	a4, a1, 20
100043fb:	0e5152                                    	s16i	a5, a1, 28
100043fe:	0d51f2                                    	s16i	a15, a1, 26
10004401:	0107e5                                    	call8	10005480 <ax_clk_rst_init>
10004404:	21a8                                    	l32i.n	a10, a1, 8
10004406:	fdf765                                    	call8	1000237c <com_bfn_set_clk_sel>
10004409:	fdc125                                    	call8	1000201c <com_bfn_init>
1000440c:	004352                                    	s8i	a5, a3, 0

1000440f <ax_ul_config_handler+0x4f>:
1000440f:	3238                                    	l32i.n	a3, a2, 12
10004411:	00e2e5                                    	call8	10005240 <ax_daco_get_addr>
10004414:	100242                                    	l8ui	a4, a2, 16
10004417:	f50c                                    	movi.n	a5, 15
10004419:	126a42                                    	s32i	a4, a10, 72
1000441c:	1d0537                                    	bnone	a5, a3, 1000443d <ax_ul_config_handler+0x7d>
1000441f:	4248                                    	l32i.n	a4, a2, 16
10004421:	150c                                    	movi.n	a5, 1
10004423:	144840                                    	extui	a4, a4, 8, 2
10004426:	136a42                                    	s32i	a4, a10, 76
10004429:	4248                                    	l32i.n	a4, a2, 16
1000442b:	112af2                                    	l32i	a15, a10, 68
1000442e:	144840                                    	extui	a4, a4, 8, 2
10004431:	401400                                    	ssl	a4
10004434:	a15500                                    	sll	a5, a5
10004437:	2045f0                                    	or	a4, a5, a15
1000443a:	116a42                                    	s32i	a4, a10, 68
1000443d:	f0a042                                    	movi	a4, 240
10004440:	190437                                    	bnone	a4, a3, 1000445d <ax_ul_config_handler+0x9d>
10004443:	4248                                    	l32i.n	a4, a2, 16
10004445:	01a052                                    	movi	a5, 1
10004448:	144a40                                    	extui	a4, a4, 10, 2
1000444b:	146a42                                    	s32i	a4, a10, 80
1000444e:	042242                                    	l32i	a4, a2, 16
10004451:	144a40                                    	extui	a4, a4, 10, 2
10004454:	401400                                    	ssl	a4
10004457:	a14500                                    	sll	a4, a5
1000445a:	116a42                                    	s32i	a4, a10, 68
1000445d:	f40c                                    	movi.n	a4, 15
1000445f:	114480                                    	slli	a4, a4, 8
10004462:	170437                                    	bnone	a4, a3, 1000447d <ax_ul_config_handler+0xbd>
10004465:	4248                                    	l32i.n	a4, a2, 16
10004467:	150c                                    	movi.n	a5, 1
10004469:	144c40                                    	extui	a4, a4, 12, 2
1000446c:	156a42                                    	s32i	a4, a10, 84
1000446f:	4248                                    	l32i.n	a4, a2, 16
10004471:	144c40                                    	extui	a4, a4, 12, 2
10004474:	401400                                    	ssl	a4
10004477:	a14500                                    	sll	a4, a5
1000447a:	116a42                                    	s32i	a4, a10, 68
1000447d:	f40c                                    	movi.n	a4, 15
1000447f:	114440                                    	slli	a4, a4, 12
10004482:	170437                                    	bnone	a4, a3, 1000449d <ax_ul_config_handler+0xdd>
10004485:	4238                                    	l32i.n	a3, a2, 16
10004487:	140c                                    	movi.n	a4, 1
10004489:	143e30                                    	extui	a3, a3, 14, 2
1000448c:	166a32                                    	s32i	a3, a10, 88
1000448f:	4238                                    	l32i.n	a3, a2, 16
10004491:	143e30                                    	extui	a3, a3, 14, 2
10004494:	401300                                    	ssl	a3
10004497:	a13400                                    	sll	a3, a4
1000449a:	116a32                                    	s32i	a3, a10, 68
1000449d:	003e25                                    	call8	10004880 <ax_config_jesd_tx>
100044a0:	0a0c                                    	movi.n	a10, 0
100044a2:	65a0b2                                    	movi	a11, 101
100044a5:	fe0fa5                                    	call8	100025a0 <com_func_ts_trace_buffer>
100044a8:	5a0c                                    	movi.n	a10, 5
100044aa:	ffeda5                                    	call8	10004384 <com_shared_mem_get_queue_block>
100044ad:	0c1c                                    	movi.n	a12, 16
100044af:	02bd                                    	mov.n	a11, a2
100044b1:	0190a5                                    	call8	10005dbc <com_queue_insert>
100044b4:	f287b1                                    	l32r	a11, 10000ed0 (beef <xthals_release_major+0x8457>)
100044b7:	9a0c                                    	movi.n	a10, 9
100044b9:	fd2d65                                    	call8	10001790 <com_mb_isr_trigger>
100044bc:	1a0c                                    	movi.n	a10, 1
100044be:	65a0b2                                    	movi	a11, 101
100044c1:	fe0de5                                    	call8	100025a0 <com_func_ts_trace_buffer>
100044c4:	f01d                                    	retw.n

100044c6 <ax_ul_config_handler+0x106>:
	...

100044c8 <ul_config_ant_grp_range_check>:
100044c8:	004136                                    	entry	a1, 32
100044cb:	f01d                                    	retw.n

100044cd <ul_config_ant_grp_range_check+0x5>:
100044cd:	000000                                        ...

100044d0 <ax_rx_activate_handler>:
100044d0:	004136                                    	entry	a1, 32
100044d3:	00a0a2                                    	movi	a10, 0
100044d6:	65a0b2                                    	movi	a11, 101
100044d9:	fe0c65                                    	call8	100025a0 <com_func_ts_trace_buffer>
100044dc:	5a0c                                    	movi.n	a10, 5
100044de:	ffea65                                    	call8	10004384 <com_shared_mem_get_queue_block>
100044e1:	0c1c                                    	movi.n	a12, 16
100044e3:	02bd                                    	mov.n	a11, a2
100044e5:	018d65                                    	call8	10005dbc <com_queue_insert>
100044e8:	f27ab1                                    	l32r	a11, 10000ed0 (beef <xthals_release_major+0x8457>)
100044eb:	9a0c                                    	movi.n	a10, 9
100044ed:	fd2a25                                    	call8	10001790 <com_mb_isr_trigger>
100044f0:	1a0c                                    	movi.n	a10, 1
100044f2:	65a0b2                                    	movi	a11, 101
100044f5:	fe0aa5                                    	call8	100025a0 <com_func_ts_trace_buffer>
100044f8:	f01d                                    	retw.n

100044fa <ax_rx_activate_handler+0x2a>:
	...

100044fc <ul_on_range_check>:
100044fc:	004136                                    	entry	a1, 32
100044ff:	f01d                                    	retw.n

10004501 <ul_on_range_check+0x5>:
10004501:	000000                                        ...

10004504 <ul_update_control_range_check>:
10004504:	004136                                    	entry	a1, 32
10004507:	f01d                                    	retw.n

10004509 <ul_update_control_range_check+0x5>:
10004509:	000000                                        ...

1000450c <ul_off_range_check>:
1000450c:	004136                                    	entry	a1, 32
1000450f:	f01d                                    	retw.n

10004511 <ul_off_range_check+0x5>:
10004511:	000000                                        ...

10004514 <ax_rx_queue_msg_handler_irq>:
10004514:	00e136                                    	entry	a1, 112
10004517:	0a0c                                    	movi.n	a10, 0
10004519:	78a0b2                                    	movi	a11, 120
1000451c:	020c                                    	movi.n	a2, 0
1000451e:	fe0825                                    	call8	100025a0 <com_func_ts_trace_buffer>
10004521:	2a0c                                    	movi.n	a10, 2
10004523:	fd28e5                                    	call8	100017b0 <com_mb_isr_clear>
10004526:	2a0c                                    	movi.n	a10, 2
10004528:	3129                                    	s32i.n	a2, a1, 12
1000452a:	ffe5a5                                    	call8	10004384 <com_shared_mem_get_queue_block>
1000452d:	10c1b2                                    	addi	a11, a1, 16
10004530:	0cc1c2                                    	addi	a12, a1, 12
10004533:	202aa0                                    	or	a2, a10, a10
10004536:	0191a5                                    	call8	10005e50 <com_queue_read>
10004539:	1f2a26                                    	beqi	a10, 2, 1000455c <ax_rx_queue_msg_handler_irq+0x48>
1000453c:	f26831                                    	l32r	a3, 10000edc (100248f0 <ax_rx_hdlr_lut>)
1000453f:	10c142                                    	addi	a4, a1, 16
10004542:	51cb                                    	addi.n	a5, a1, 12

10004544 <ax_rx_queue_msg_handler_irq+0x30>:
10004544:	2c0c                                    	movi.n	a12, 2
10004546:	04ad                                    	mov.n	a10, a4
10004548:	03bd                                    	mov.n	a11, a3
1000454a:	ffc365                                    	call8	10004180 <com_msg_schedule_macro>
1000454d:	20a220                                    	or	a10, a2, a2
10004550:	20b440                                    	or	a11, a4, a4
10004553:	20c550                                    	or	a12, a5, a5
10004556:	018fa5                                    	call8	10005e50 <com_queue_read>
10004559:	e72a66                                    	bnei	a10, 2, 10004544 <ax_rx_queue_msg_handler_irq+0x30>
1000455c:	1a0c                                    	movi.n	a10, 1
1000455e:	78a0b2                                    	movi	a11, 120
10004561:	fe03e5                                    	call8	100025a0 <com_func_ts_trace_buffer>
10004564:	f01d                                    	retw.n

10004566 <ax_rx_queue_msg_handler_irq+0x52>:
	...

10004568 <ax_rx_spi_msg_handler_irq>:
10004568:	004136                                    	entry	a1, 32
1000456b:	00a0a2                                    	movi	a10, 0
1000456e:	68a0b2                                    	movi	a11, 104
10004571:	fe02e5                                    	call8	100025a0 <com_func_ts_trace_buffer>
10004574:	3a0c                                    	movi.n	a10, 3
10004576:	fd23a5                                    	call8	100017b0 <com_mb_isr_clear>
10004579:	ff60e5                                    	call8	10003b88 <com_event_new_event>
1000457c:	0a2d                                    	mov.n	a2, a10
1000457e:	ff64e5                                    	call8	10003bcc <com_event_get_event_p>
10004581:	f25731                                    	l32r	a3, 10000ee0 (26c078 <_memmap_mem_sram_end+0x2c078>)
10004584:	f258f1                                    	l32r	a15, 10000ee4 (100045a0 <ax_rx_spi_delayed_handler>)
10004587:	0348                                    	l32i.n	a4, a3, 0
10004589:	5a49                                    	s32i.n	a4, a10, 20
1000458b:	1338                                    	l32i.n	a3, a3, 4
1000458d:	0af9                                    	s32i.n	a15, a10, 0
1000458f:	6a39                                    	s32i.n	a3, a10, 24
10004591:	02ad                                    	mov.n	a10, a2
10004593:	ff9465                                    	call8	10003ed8 <com_event_execute_immediate_event>
10004596:	1a0c                                    	movi.n	a10, 1
10004598:	68a0b2                                    	movi	a11, 104
1000459b:	fe0065                                    	call8	100025a0 <com_func_ts_trace_buffer>
1000459e:	f01d                                    	retw.n

100045a0 <ax_rx_spi_delayed_handler>:
100045a0:	004136                                    	entry	a1, 32
100045a3:	00a0a2                                    	movi	a10, 0
100045a6:	70a0b2                                    	movi	a11, 112
100045a9:	fdff65                                    	call8	100025a0 <com_func_ts_trace_buffer>
100045ac:	f24fb1                                    	l32r	a11, 10000ee8 (100249a0 <ax_rx_spi_hdlr_lut>)
100045af:	ac0c                                    	movi.n	a12, 10
100045b1:	02ad                                    	mov.n	a10, a2
100045b3:	ffbce5                                    	call8	10004180 <com_msg_schedule_macro>
100045b6:	1a0c                                    	movi.n	a10, 1
100045b8:	70a0b2                                    	movi	a11, 112
100045bb:	fdfe65                                    	call8	100025a0 <com_func_ts_trace_buffer>
100045be:	f01d                                    	retw.n

100045c0 <ax_dl_config_handler>:
100045c0:	008136                                    	entry	a1, 64
100045c3:	00c7e5                                    	call8	10005240 <ax_daco_get_addr>
100045c6:	0a3d                                    	mov.n	a3, a10
100045c8:	0612a2                                    	l16ui	a10, a2, 12
100045cb:	0012b2                                    	l16ui	a11, a2, 0
100045ce:	14c3c2                                    	addi	a12, a3, 20
100045d1:	00cc25                                    	call8	10005294 <ax_daco_set_quad_antenna_mask>
100045d4:	021a26                                    	beqi	a10, 1, 100045da <ax_dl_config_handler+0x1a>
100045d7:	004346                                    	j	100046e8 <ax_dl_config_handler+0x128>
100045da:	000342                                    	l8ui	a4, a3, 0
100045dd:	160c                                    	movi.n	a6, 1
100045df:	c4ac                                    	beqz.n	a4, 1000460f <ax_dl_config_handler+0x4f>
100045e1:	0c0242                                    	l8ui	a4, a2, 12
100045e4:	050c                                    	movi.n	a5, 0
100045e6:	624460                                    	saltu	a4, a4, a6
100045e9:	1349                                    	s32i.n	a4, a3, 4
100045eb:	0692f2                                    	l16si	a15, a2, 12
100045ee:	a18b                                    	addi.n	a10, a1, 8
100045f0:	2159                                    	s32i.n	a5, a1, 8
100045f2:	3169                                    	s32i.n	a6, a1, 12
100045f4:	4159                                    	s32i.n	a5, a1, 16
100045f6:	0c5152                                    	s16i	a5, a1, 24
100045f9:	5149                                    	s32i.n	a4, a1, 20
100045fb:	0e5152                                    	s16i	a5, a1, 28
100045fe:	0d51f2                                    	s16i	a15, a1, 26
10004601:	00e7e5                                    	call8	10005480 <ax_clk_rst_init>
10004604:	21a8                                    	l32i.n	a10, a1, 8
10004606:	fdd765                                    	call8	1000237c <com_bfn_set_clk_sel>
10004609:	fda125                                    	call8	1000201c <com_bfn_init>
1000460c:	004352                                    	s8i	a5, a3, 0

1000460f <ax_dl_config_handler+0x4f>:
1000460f:	3238                                    	l32i.n	a3, a2, 12
10004611:	00c2e5                                    	call8	10005240 <ax_daco_get_addr>
10004614:	100242                                    	l8ui	a4, a2, 16
10004617:	f50c                                    	movi.n	a5, 15
10004619:	186a42                                    	s32i	a4, a10, 96
1000461c:	180537                                    	bnone	a5, a3, 10004638 <ax_dl_config_handler+0x78>
1000461f:	4248                                    	l32i.n	a4, a2, 16
10004621:	01a052                                    	movi	a5, 1
10004624:	144840                                    	extui	a4, a4, 8, 2
10004627:	196a42                                    	s32i	a4, a10, 100
1000462a:	4248                                    	l32i.n	a4, a2, 16
1000462c:	144840                                    	extui	a4, a4, 8, 2
1000462f:	401400                                    	ssl	a4
10004632:	a14500                                    	sll	a4, a5
10004635:	176a42                                    	s32i	a4, a10, 92
10004638:	f0a042                                    	movi	a4, 240
1000463b:	170437                                    	bnone	a4, a3, 10004656 <ax_dl_config_handler+0x96>
1000463e:	4248                                    	l32i.n	a4, a2, 16
10004640:	150c                                    	movi.n	a5, 1
10004642:	144a40                                    	extui	a4, a4, 10, 2
10004645:	1a6a42                                    	s32i	a4, a10, 104
10004648:	4248                                    	l32i.n	a4, a2, 16
1000464a:	144a40                                    	extui	a4, a4, 10, 2
1000464d:	401400                                    	ssl	a4
10004650:	a14500                                    	sll	a4, a5
10004653:	176a42                                    	s32i	a4, a10, 92
10004656:	f40c                                    	movi.n	a4, 15
10004658:	114480                                    	slli	a4, a4, 8
1000465b:	170437                                    	bnone	a4, a3, 10004676 <ax_dl_config_handler+0xb6>
1000465e:	4248                                    	l32i.n	a4, a2, 16
10004660:	150c                                    	movi.n	a5, 1
10004662:	144c40                                    	extui	a4, a4, 12, 2
10004665:	1b6a42                                    	s32i	a4, a10, 108
10004668:	4248                                    	l32i.n	a4, a2, 16
1000466a:	144c40                                    	extui	a4, a4, 12, 2
1000466d:	401400                                    	ssl	a4
10004670:	a14500                                    	sll	a4, a5
10004673:	176a42                                    	s32i	a4, a10, 92
10004676:	f40c                                    	movi.n	a4, 15
10004678:	114440                                    	slli	a4, a4, 12
1000467b:	1a0437                                    	bnone	a4, a3, 10004699 <ax_dl_config_handler+0xd9>
1000467e:	042232                                    	l32i	a3, a2, 16
10004681:	01a042                                    	movi	a4, 1
10004684:	143e30                                    	extui	a3, a3, 14, 2
10004687:	1c6a32                                    	s32i	a3, a10, 112
1000468a:	042232                                    	l32i	a3, a2, 16
1000468d:	143e30                                    	extui	a3, a3, 14, 2
10004690:	401300                                    	ssl	a3
10004693:	a13400                                    	sll	a3, a4
10004696:	176a32                                    	s32i	a3, a10, 92
10004699:	0069a5                                    	call8	10004d34 <ax_config_jesd_rx>
1000469c:	00a0a2                                    	movi	a10, 0
1000469f:	85a0b2                                    	movi	a11, 133
100046a2:	fdefe5                                    	call8	100025a0 <com_func_ts_trace_buffer>
100046a5:	4a0c                                    	movi.n	a10, 4
100046a7:	ffcde5                                    	call8	10004384 <com_shared_mem_get_queue_block>
100046aa:	0c1c                                    	movi.n	a12, 16
100046ac:	02bd                                    	mov.n	a11, a2
100046ae:	0170e5                                    	call8	10005dbc <com_queue_insert>
100046b1:	f207b1                                    	l32r	a11, 10000ed0 (beef <xthals_release_major+0x8457>)
100046b4:	8a0c                                    	movi.n	a10, 8
100046b6:	fd0da5                                    	call8	10001790 <com_mb_isr_trigger>
100046b9:	1a0c                                    	movi.n	a10, 1
100046bb:	85a0b2                                    	movi	a11, 133
100046be:	fdee25                                    	call8	100025a0 <com_func_ts_trace_buffer>
100046c1:	5238                                    	l32i.n	a3, a2, 20
100046c3:	f40c                                    	movi.n	a4, 15
100046c5:	1f0437                                    	bnone	a4, a3, 100046e8 <ax_dl_config_handler+0x128>
100046c8:	f209a1                                    	l32r	a10, 10000eec (10024b48 <rm_fbr_cfg.fbr_cfg_msg>)
100046cb:	2228                                    	l32i.n	a2, a2, 8
100046cd:	3a48                                    	l32i.n	a4, a10, 12
100046cf:	057c                                    	movi.n	a5, -16
100046d1:	104450                                    	and	a4, a4, a5
100046d4:	74e430                                    	extui	a14, a3, 4, 8
100046d7:	112280                                    	slli	a2, a2, 8
100046da:	34f030                                    	extui	a15, a3, 0, 4
100046dd:	2e2a                                    	add.n	a2, a14, a2
100046df:	3f4a                                    	add.n	a3, a15, a4
100046e1:	2a29                                    	s32i.n	a2, a10, 8
100046e3:	3a39                                    	s32i.n	a3, a10, 12
100046e5:	ffdea5                                    	call8	100044d0 <ax_rx_activate_handler>
100046e8:	f01d                                    	retw.n

100046ea <ax_dl_config_handler+0x12a>:
	...

100046ec <dl_config_ant_grp_range_check>:
100046ec:	004136                                    	entry	a1, 32
100046ef:	f01d                                    	retw.n

100046f1 <dl_config_ant_grp_range_check+0x5>:
100046f1:	000000                                        ...

100046f4 <ax_tx_activate_handler>:
100046f4:	004136                                    	entry	a1, 32
100046f7:	00a0a2                                    	movi	a10, 0
100046fa:	85a0b2                                    	movi	a11, 133
100046fd:	fdea25                                    	call8	100025a0 <com_func_ts_trace_buffer>
10004700:	4a0c                                    	movi.n	a10, 4
10004702:	ffc825                                    	call8	10004384 <com_shared_mem_get_queue_block>
10004705:	0c1c                                    	movi.n	a12, 16
10004707:	02bd                                    	mov.n	a11, a2
10004709:	016b25                                    	call8	10005dbc <com_queue_insert>
1000470c:	f1f1b1                                    	l32r	a11, 10000ed0 (beef <xthals_release_major+0x8457>)
1000470f:	8a0c                                    	movi.n	a10, 8
10004711:	fd07e5                                    	call8	10001790 <com_mb_isr_trigger>
10004714:	1a0c                                    	movi.n	a10, 1
10004716:	85a0b2                                    	movi	a11, 133
10004719:	fde865                                    	call8	100025a0 <com_func_ts_trace_buffer>
1000471c:	f01d                                    	retw.n

1000471e <ax_tx_activate_handler+0x2a>:
	...

10004720 <dl_on_range_check>:
10004720:	004136                                    	entry	a1, 32
10004723:	f01d                                    	retw.n

10004725 <dl_on_range_check+0x5>:
10004725:	000000                                        ...

10004728 <dl_update_control_range_check>:
10004728:	004136                                    	entry	a1, 32
1000472b:	f01d                                    	retw.n

1000472d <dl_update_control_range_check+0x5>:
1000472d:	000000                                        ...

10004730 <dl_off_range_check>:
10004730:	004136                                    	entry	a1, 32
10004733:	f01d                                    	retw.n

10004735 <dl_off_range_check+0x5>:
10004735:	000000                                        ...

10004738 <ax_tx_queue_msg_handler_irq>:
10004738:	00e136                                    	entry	a1, 112
1000473b:	0a0c                                    	movi.n	a10, 0
1000473d:	98a0b2                                    	movi	a11, 152
10004740:	020c                                    	movi.n	a2, 0
10004742:	fde5e5                                    	call8	100025a0 <com_func_ts_trace_buffer>
10004745:	0a0c                                    	movi.n	a10, 0
10004747:	fd06a5                                    	call8	100017b0 <com_mb_isr_clear>
1000474a:	1a0c                                    	movi.n	a10, 1
1000474c:	3129                                    	s32i.n	a2, a1, 12
1000474e:	ffc365                                    	call8	10004384 <com_shared_mem_get_queue_block>
10004751:	10c1b2                                    	addi	a11, a1, 16
10004754:	0cc1c2                                    	addi	a12, a1, 12
10004757:	202aa0                                    	or	a2, a10, a10
1000475a:	016f65                                    	call8	10005e50 <com_queue_read>
1000475d:	1f2a26                                    	beqi	a10, 2, 10004780 <ax_tx_queue_msg_handler_irq+0x48>
10004760:	f1e431                                    	l32r	a3, 10000ef0 (10024a20 <ax_tx_hdlr_lut>)
10004763:	10c142                                    	addi	a4, a1, 16
10004766:	51cb                                    	addi.n	a5, a1, 12

10004768 <ax_tx_queue_msg_handler_irq+0x30>:
10004768:	1c0c                                    	movi.n	a12, 1
1000476a:	04ad                                    	mov.n	a10, a4
1000476c:	03bd                                    	mov.n	a11, a3
1000476e:	ffa125                                    	call8	10004180 <com_msg_schedule_macro>
10004771:	20a220                                    	or	a10, a2, a2
10004774:	20b440                                    	or	a11, a4, a4
10004777:	20c550                                    	or	a12, a5, a5
1000477a:	016d65                                    	call8	10005e50 <com_queue_read>
1000477d:	e72a66                                    	bnei	a10, 2, 10004768 <ax_tx_queue_msg_handler_irq+0x30>
10004780:	1a0c                                    	movi.n	a10, 1
10004782:	98a0b2                                    	movi	a11, 152
10004785:	fde1a5                                    	call8	100025a0 <com_func_ts_trace_buffer>
10004788:	f01d                                    	retw.n

1000478a <ax_tx_queue_msg_handler_irq+0x52>:
	...

1000478c <ax_tx_spi_msg_handler_irq>:
1000478c:	004136                                    	entry	a1, 32
1000478f:	00a0a2                                    	movi	a10, 0
10004792:	88a0b2                                    	movi	a11, 136
10004795:	fde0a5                                    	call8	100025a0 <com_func_ts_trace_buffer>
10004798:	1a0c                                    	movi.n	a10, 1
1000479a:	fd0165                                    	call8	100017b0 <com_mb_isr_clear>
1000479d:	ff3ea5                                    	call8	10003b88 <com_event_new_event>
100047a0:	0a2d                                    	mov.n	a2, a10
100047a2:	ff42a5                                    	call8	10003bcc <com_event_get_event_p>
100047a5:	f1d331                                    	l32r	a3, 10000ef4 (26c058 <_memmap_mem_sram_end+0x2c058>)
100047a8:	f1d4f1                                    	l32r	a15, 10000ef8 (100047c4 <ax_tx_spi_delayed_handler>)
100047ab:	0348                                    	l32i.n	a4, a3, 0
100047ad:	5a49                                    	s32i.n	a4, a10, 20
100047af:	1338                                    	l32i.n	a3, a3, 4
100047b1:	0af9                                    	s32i.n	a15, a10, 0
100047b3:	6a39                                    	s32i.n	a3, a10, 24
100047b5:	02ad                                    	mov.n	a10, a2
100047b7:	ff7225                                    	call8	10003ed8 <com_event_execute_immediate_event>
100047ba:	1a0c                                    	movi.n	a10, 1
100047bc:	88a0b2                                    	movi	a11, 136
100047bf:	fdde25                                    	call8	100025a0 <com_func_ts_trace_buffer>
100047c2:	f01d                                    	retw.n

100047c4 <ax_tx_spi_delayed_handler>:
100047c4:	004136                                    	entry	a1, 32
100047c7:	00a0a2                                    	movi	a10, 0
100047ca:	90a0b2                                    	movi	a11, 144
100047cd:	fddd25                                    	call8	100025a0 <com_func_ts_trace_buffer>
100047d0:	f1cbb1                                    	l32r	a11, 10000efc (10024ad0 <ax_tx_spi_hdlr_lut>)
100047d3:	9c0c                                    	movi.n	a12, 9
100047d5:	02ad                                    	mov.n	a10, a2
100047d7:	ff9aa5                                    	call8	10004180 <com_msg_schedule_macro>
100047da:	1a0c                                    	movi.n	a10, 1
100047dc:	90a0b2                                    	movi	a11, 144
100047df:	fddc25                                    	call8	100025a0 <com_func_ts_trace_buffer>
100047e2:	f01d                                    	retw.n

100047e4 <ax_tx_spi_delayed_handler+0x20>:
	...

100047f0 <ax_jesd_tx_enable>:
100047f0:	004136                                    	entry	a1, 32
100047f3:	f1c341                                    	l32r	a4, 10000f00 (10025db0 <tx_link_quad_map>)
100047f6:	f11551                                    	l32r	a5, 10000c4c (10020314 <ax_static_data_init>)
100047f9:	f1c261                                    	l32r	a6, 10000f04 (6701050 <_memmap_mem_sram_end+0x64c1050>)
100047fc:	f1c371                                    	l32r	a7, 10000f08 (6700050 <_memmap_mem_sram_end+0x64c0050>)
100047ff:	4a0c                                    	movi.n	a10, 4
10004801:	030c                                    	movi.n	a3, 0
10004803:	01a082                                    	movi	a8, 1
10004806:	209440                                    	or	a9, a4, a4
10004809:	278a76                                    	loop	a10, 10004834 <ax_jesd_tx_enable+0x44>
1000480c:	205237                                    	bbc	a2, a3, 10004830 <ax_jesd_tx_enable+0x40>
1000480f:	09b8                                    	l32i.n	a11, a9, 0
10004811:	07dd                                    	mov.n	a13, a7
10004813:	b0ab40                                    	addx8	a10, a11, a4
10004816:	410ac2                                    	l8ui	a12, a10, 65
10004819:	112ae2                                    	l32i	a14, a10, 68
1000481c:	0cdc                                    	bnez.n	a12, 10004830 <ax_jesd_tx_enable+0x40>
1000481e:	a0ce50                                    	addx4	a12, a14, a5
10004821:	4cc8                                    	l32i.n	a12, a12, 16
10004823:	01bb90                                    	slli	a11, a11, 23
10004826:	a3d6c0                                    	movltz	a13, a6, a12
10004829:	bbda                                    	add.n	a11, a11, a13
1000482b:	0b89                                    	s32i.n	a8, a11, 0
1000482d:	414a82                                    	s8i	a8, a10, 65

10004830 <ax_jesd_tx_enable+0x40>:
10004830:	331b                                    	addi.n	a3, a3, 1
10004832:	994b                                    	addi.n	a9, a9, 4

10004834 <ax_jesd_tx_enable+0x44>:
10004834:	f01d                                    	retw.n

10004836 <ax_jesd_tx_enable+0x46>:
	...

10004838 <ax_jesd_rx_enable>:
10004838:	004136                                    	entry	a1, 32
1000483b:	f1b131                                    	l32r	a3, 10000f00 (10025db0 <tx_link_quad_map>)
1000483e:	f10351                                    	l32r	a5, 10000c4c (10020314 <ax_static_data_init>)
10004841:	f1b261                                    	l32r	a6, 10000f0c (6703050 <_memmap_mem_sram_end+0x64c3050>)
10004844:	f1b371                                    	l32r	a7, 10000f10 (6702050 <_memmap_mem_sram_end+0x64c2050>)
10004847:	4a0c                                    	movi.n	a10, 4
10004849:	040c                                    	movi.n	a4, 0
1000484b:	01a082                                    	movi	a8, 1
1000484e:	10c392                                    	addi	a9, a3, 16
10004851:	268a76                                    	loop	a10, 1000487b <ax_jesd_rx_enable+0x43>
10004854:	1f5247                                    	bbc	a2, a4, 10004877 <ax_jesd_rx_enable+0x3f>
10004857:	09b8                                    	l32i.n	a11, a9, 0
10004859:	07dd                                    	mov.n	a13, a7
1000485b:	b0ab30                                    	addx8	a10, a11, a3
1000485e:	210ac2                                    	l8ui	a12, a10, 33
10004861:	9ae8                                    	l32i.n	a14, a10, 36
10004863:	0cdc                                    	bnez.n	a12, 10004877 <ax_jesd_rx_enable+0x3f>
10004865:	a0ce50                                    	addx4	a12, a14, a5
10004868:	4cc8                                    	l32i.n	a12, a12, 16
1000486a:	01bb90                                    	slli	a11, a11, 23
1000486d:	a3d6c0                                    	movltz	a13, a6, a12
10004870:	bbda                                    	add.n	a11, a11, a13
10004872:	0b89                                    	s32i.n	a8, a11, 0
10004874:	214a82                                    	s8i	a8, a10, 33

10004877 <ax_jesd_rx_enable+0x3f>:
10004877:	441b                                    	addi.n	a4, a4, 1
10004879:	994b                                    	addi.n	a9, a9, 4

1000487b <ax_jesd_rx_enable+0x43>:
1000487b:	f01d                                    	retw.n

1000487d <ax_jesd_rx_enable+0x45>:
1000487d:	000000                                        ...

10004880 <ax_config_jesd_tx>:
10004880:	008136                                    	entry	a1, 64
10004883:	009be5                                    	call8	10005240 <ax_daco_get_addr>
10004886:	122a32                                    	l32i	a3, a10, 72
10004889:	f0f021                                    	l32r	a2, 10000c4c (10020314 <ax_static_data_init>)
1000488c:	f19d51                                    	l32r	a5, 10000f00 (10025db0 <tx_link_quad_map>)
1000488f:	a06320                                    	addx4	a6, a3, a2
10004892:	afaa72                                    	movi	a7, 0xfffffaaf
10004895:	05d222                                    	addmi	a2, a2, 0x500
10004898:	01d6e2                                    	addmi	a14, a6, 0x100
1000489b:	4ccad2                                    	addi	a13, a10, 76
1000489e:	f47070                                    	extui	a7, a7, 0, 16
100048a1:	0f0c                                    	movi.n	a15, 0
100048a3:	490c                                    	movi.n	a9, 4
100048a5:	05ad                                    	mov.n	a10, a5
100048a7:	03cd                                    	mov.n	a12, a3
100048a9:	4129                                    	s32i.n	a2, a1, 16
100048ab:	51e9                                    	s32i.n	a14, a1, 20
100048ad:	2169                                    	s32i.n	a6, a1, 8
100048af:	0021c6                                    	j	1000493a <ax_config_jesd_tx+0xba>

100048b2 <ax_config_jesd_tx+0x32>:
	...

100048b3 <ax_config_jesd_tx+0x33>:
100048b3:	22ba                                    	add.n	a2, a2, a11
100048b5:	33ba                                    	add.n	a3, a3, a11
100048b7:	4158                                    	l32i.n	a5, a1, 16
100048b9:	02f9                                    	s32i.n	a15, a2, 0
100048bb:	03f9                                    	s32i.n	a15, a3, 0
100048bd:	332522                                    	l32i	a2, a5, 204
100048c0:	8ca082                                    	movi	a8, 140
100048c3:	342220                                    	extui	a2, a2, 2, 4
100048c6:	d12280                                    	mul16s	a2, a2, a8
100048c9:	f0e0e1                                    	l32r	a14, 10000c4c (10020314 <ax_static_data_init>)
100048cc:	f1c241                                    	l32r	a4, 10000fd4 (670d008 <_memmap_mem_sram_end+0x64cd008>)
100048cf:	2e2a                                    	add.n	a2, a14, a2
100048d1:	f57c                                    	movi.n	a5, -1
100048d3:	c42232                                    	l32i	a3, a2, 0x310
100048d6:	415c50                                    	srli	a5, a5, 12
100048d9:	4b4a                                    	add.n	a4, a11, a4
100048db:	103350                                    	and	a3, a3, a5
100048de:	0439                                    	s32i.n	a3, a4, 0
100048e0:	f1be41                                    	l32r	a4, 10000fd8 (670d000 <_memmap_mem_sram_end+0x64cd000>)
100048e3:	c52282                                    	l32i	a8, a2, 0x314
100048e6:	5b4a                                    	add.n	a5, a11, a4
100048e8:	0589                                    	s32i.n	a8, a5, 0
100048ea:	c622e2                                    	l32i	a14, a2, 0x318
100048ed:	f1bb81                                    	l32r	a8, 10000fdc (670d100 <_memmap_mem_sram_end+0x64cd100>)
100048f0:	15e9                                    	s32i.n	a14, a5, 4
100048f2:	0e2c                                    	movi.n	a14, 32
100048f4:	71d8                                    	l32i.n	a13, a1, 28
100048f6:	6198                                    	l32i.n	a9, a1, 24
100048f8:	4143e0                                    	srli	a4, a14, 3
100048fb:	3b8a                                    	add.n	a3, a11, a8
100048fd:	2d9476                                    	loopnez	a4, 1000492e <ax_config_jesd_tx+0xae>
10004900:	c72242                                    	l32i	a4, a2, 0x31c
10004903:	0349                                    	s32i.n	a4, a3, 0
10004905:	c82242                                    	l32i	a4, a2, 0x320
10004908:	1349                                    	s32i.n	a4, a3, 4
1000490a:	c92242                                    	l32i	a4, a2, 0x324
1000490d:	2349                                    	s32i.n	a4, a3, 8
1000490f:	ca2242                                    	l32i	a4, a2, 0x328
10004912:	3349                                    	s32i.n	a4, a3, 12
10004914:	cb2242                                    	l32i	a4, a2, 0x32c
10004917:	4349                                    	s32i.n	a4, a3, 16
10004919:	cc2242                                    	l32i	a4, a2, 0x330
1000491c:	5349                                    	s32i.n	a4, a3, 20
1000491e:	cd2242                                    	l32i	a4, a2, 0x334
10004921:	6349                                    	s32i.n	a4, a3, 24
10004923:	ce2242                                    	l32i	a4, a2, 0x338
10004926:	7349                                    	s32i.n	a4, a3, 28
10004928:	20c332                                    	addi	a3, a3, 32
1000492b:	20c222                                    	addi	a2, a2, 32

1000492e <ax_config_jesd_tx+0xae>:
1000492e:	f17451                                    	l32r	a5, 10000f00 (10025db0 <tx_link_quad_map>)

10004931 <ax_config_jesd_tx+0xb1>:
10004931:	990b                                    	addi.n	a9, a9, -1
10004933:	aa4b                                    	addi.n	a10, a10, 4
10004935:	dd4b                                    	addi.n	a13, a13, 4
10004937:	3f5916                                    	beqz	a9, 10004d30 <ax_config_jesd_tx+0x4b0>
1000493a:	0d28                                    	l32i.n	a2, a13, 0
1000493c:	f17681                                    	l32r	a8, 10000f14 (1b0104c <_memmap_mem_sram_end+0x18c104c>)
1000493f:	ee1277                                    	beq	a2, a7, 10004931 <ax_config_jesd_tx+0xb1>
10004942:	352a                                    	add.n	a3, a5, a2
10004944:	600342                                    	l8ui	a4, a3, 96
10004947:	11b2c0                                    	slli	a11, a2, 4
1000494a:	043456                                    	bnez	a4, 10004991 <ax_config_jesd_tx+0x111>
1000494d:	4b8a                                    	add.n	a4, a11, a8
1000494f:	04f9                                    	s32i.n	a15, a4, 0
10004951:	0020c0                                    	memw
10004954:	7fa072                                    	movi	a7, 127
10004957:	1479                                    	s32i.n	a7, a4, 4
10004959:	0020c0                                    	memw
1000495c:	370c                                    	movi.n	a7, 3
1000495e:	2479                                    	s32i.n	a7, a4, 8
10004960:	0020c0                                    	memw
10004963:	371c                                    	movi.n	a7, 19
10004965:	3479                                    	s32i.n	a7, a4, 12
10004967:	0020c0                                    	memw
1000496a:	0a5d                                    	mov.n	a5, a10
1000496c:	ea1c                                    	movi.n	a10, 30
1000496e:	0c4d                                    	mov.n	a4, a12
10004970:	0d7d                                    	mov.n	a7, a13
10004972:	096d                                    	mov.n	a6, a9
10004974:	fe2a25                                    	call8	10002c18 <com_timing_wait_ns>
10004977:	05ad                                    	mov.n	a10, a5
10004979:	069d                                    	mov.n	a9, a6
1000497b:	1b0c                                    	movi.n	a11, 1
1000497d:	f16051                                    	l32r	a5, 10000f00 (10025db0 <tx_link_quad_map>)
10004980:	2168                                    	l32i.n	a6, a1, 8
10004982:	afaae2                                    	movi	a14, 0xfffffaaf
10004985:	07dd                                    	mov.n	a13, a7
10004987:	0f0c                                    	movi.n	a15, 0
10004989:	04cd                                    	mov.n	a12, a4
1000498b:	f470e0                                    	extui	a7, a14, 0, 16
1000498e:	6043b2                                    	s8i	a11, a3, 96
10004991:	b03250                                    	addx8	a3, a2, a5
10004994:	400342                                    	l8ui	a4, a3, 64
10004997:	01b290                                    	slli	a11, a2, 23
1000499a:	f93456                                    	bnez	a4, 10004931 <ax_config_jesd_tx+0xb1>
1000499d:	6199                                    	s32i.n	a9, a1, 24
1000499f:	4648                                    	l32i.n	a4, a6, 16
100049a1:	f15d91                                    	l32r	a9, 10000f18 (6706010 <_memmap_mem_sram_end+0x64c6010>)
100049a4:	31a9                                    	s32i.n	a10, a1, 12
100049a6:	71d9                                    	s32i.n	a13, a1, 28
100049a8:	07dd                                    	mov.n	a13, a7
100049aa:	7b9a                                    	add.n	a7, a11, a9
100049ac:	05af40                                    	extui	a10, a4, 31, 1
100049af:	07a9                                    	s32i.n	a10, a7, 0
100049b1:	642682                                    	l32i	a8, a6, 0x190
100049b4:	46e8                                    	l32i.n	a14, a6, 16
100049b6:	045080                                    	extui	a5, a8, 0, 1
100049b9:	b0a550                                    	addx8	a10, a5, a5
100049bc:	3544e0                                    	extui	a4, a14, 20, 4
100049bf:	3568e0                                    	extui	a6, a14, 24, 4
100049c2:	f156e1                                    	l32r	a14, 10000f1c (100243f0 <jesd_clk_to_char_div_lut>)
100049c5:	119ae0                                    	slli	a9, a10, 2
100049c8:	ae9a                                    	add.n	a10, a14, a9
100049ca:	f155e1                                    	l32r	a14, 10000f20 (10024440 <jesd_sample_to_char_div_lut>)
100049cd:	a0a4a0                                    	addx4	a10, a4, a10
100049d0:	9e9a                                    	add.n	a9, a14, a9
100049d2:	0ae8                                    	l32i.n	a14, a10, 0
100049d4:	a06690                                    	addx4	a6, a6, a9
100049d7:	1490e0                                    	extui	a9, a14, 0, 2
100049da:	0668                                    	l32i.n	a6, a6, 0
100049dc:	1199c0                                    	slli	a9, a9, 4
100049df:	41e8                                    	l32i.n	a14, a1, 16
100049e1:	146060                                    	extui	a6, a6, 0, 2
100049e4:	995a                                    	add.n	a9, a9, a5
100049e6:	a0a690                                    	addx4	a10, a6, a9
100049e9:	332e62                                    	l32i	a6, a14, 204
100049ec:	190c                                    	movi.n	a9, 1
100049ee:	47a9                                    	s32i.n	a10, a7, 16
100049f0:	066807                                    	bbci	a8, 0, 100049fa <ax_config_jesd_tx+0x17a>
100049f3:	f14c71                                    	l32r	a7, 10000f24 (6706030 <_memmap_mem_sram_end+0x64c6030>)
100049f6:	7b7a                                    	add.n	a7, a11, a7
100049f8:	0799                                    	s32i.n	a9, a7, 0
100049fa:	f14b71                                    	l32r	a7, 10000f28 (6706034 <_memmap_mem_sram_end+0x64c6034>)
100049fd:	f14b81                                    	l32r	a8, 10000f2c (670602c <_memmap_mem_sram_end+0x64c602c>)
10004a00:	f14ca1                                    	l32r	a10, 10000f30 (6706028 <_memmap_mem_sram_end+0x64c6028>)
10004a03:	7b7a                                    	add.n	a7, a11, a7
10004a05:	8b8a                                    	add.n	a8, a11, a8
10004a07:	0799                                    	s32i.n	a9, a7, 0
10004a09:	0899                                    	s32i.n	a9, a8, 0
10004a0b:	8baa                                    	add.n	a8, a11, a10
10004a0d:	f149a1                                    	l32r	a10, 10000f34 (10024580 <tsad_map_lut>)
10004a10:	1155c0                                    	slli	a5, a5, 4
10004a13:	f149e1                                    	l32r	a14, 10000f38 (4000b <_memmap_mem_srom_end+0x2000b>)
10004a16:	1799                                    	s32i.n	a9, a7, 4
10004a18:	5a5a                                    	add.n	a5, a10, a5
10004a1a:	146060                                    	extui	a6, a6, 0, 2
10004a1d:	08e9                                    	s32i.n	a14, a8, 0
10004a1f:	f148e1                                    	l32r	a14, 10000f40 (67080f0 <_memmap_mem_sram_end+0x64c80f0>)
10004a22:	f146a1                                    	l32r	a10, 10000f3c (6706024 <_memmap_mem_sram_end+0x64c6024>)
10004a25:	a05650                                    	addx4	a5, a6, a5
10004a28:	8bea                                    	add.n	a8, a11, a14
10004a2a:	1e0c                                    	movi.n	a14, 1
10004a2c:	6baa                                    	add.n	a6, a11, a10
10004a2e:	0558                                    	l32i.n	a5, a5, 0
10004a30:	0659                                    	s32i.n	a5, a6, 0
10004a32:	2799                                    	s32i.n	a9, a7, 8
10004a34:	11ee00                                    	slli	a14, a14, 16
10004a37:	0899                                    	s32i.n	a9, a8, 0
10004a39:	103466                                    	bnei	a4, 3, 10004a4d <ax_config_jesd_tx+0x1cd>
10004a3c:	f14241                                    	l32r	a4, 10000f44 (6706048 <_memmap_mem_sram_end+0x64c6048>)
10004a3f:	f14251                                    	l32r	a5, 10000f48 (6706040 <_memmap_mem_sram_end+0x64c6040>)
10004a42:	4b4a                                    	add.n	a4, a11, a4
10004a44:	f14261                                    	l32r	a6, 10000f4c (30005 <_memmap_mem_srom_end+0x10005>)
10004a47:	5b5a                                    	add.n	a5, a11, a5
10004a49:	0469                                    	s32i.n	a6, a4, 0
10004a4b:	0599                                    	s32i.n	a9, a5, 0
10004a4d:	2188                                    	l32i.n	a8, a1, 8
10004a4f:	f14a61                                    	l32r	a6, 10000f78 (6701024 <_memmap_mem_sram_end+0x64c1024>)
10004a52:	4848                                    	l32i.n	a4, a8, 16
10004a54:	f14a51                                    	l32r	a5, 10000f7c (6701018 <_memmap_mem_sram_end+0x64c1018>)
10004a57:	0e0496                                    	bltz	a4, 10004b3b <ax_config_jesd_tx+0x2bb>
10004a5a:	f13d41                                    	l32r	a4, 10000f50 (6700024 <_memmap_mem_sram_end+0x64c0024>)
10004a5d:	f13e71                                    	l32r	a7, 10000f58 (6700018 <_memmap_mem_sram_end+0x64c0018>)
10004a60:	4b4a                                    	add.n	a4, a11, a4
10004a62:	7b7a                                    	add.n	a7, a11, a7
10004a64:	04f9                                    	s32i.n	a15, a4, 0
10004a66:	07f9                                    	s32i.n	a15, a7, 0
10004a68:	642872                                    	l32i	a7, a8, 0x190
10004a6b:	4a0c                                    	movi.n	a10, 4
10004a6d:	447270                                    	extui	a7, a7, 2, 5
10004a70:	1479                                    	s32i.n	a7, a4, 4
10004a72:	4878                                    	l32i.n	a7, a8, 16
10004a74:	150c                                    	movi.n	a5, 1
10004a76:	347870                                    	extui	a7, a7, 8, 4
10004a79:	770b                                    	addi.n	a7, a7, -1
10004a7b:	3479                                    	s32i.n	a7, a4, 12
10004a7d:	642872                                    	l32i	a7, a8, 0x190
10004a80:	f13561                                    	l32r	a6, 10000f54 (67002c0 <_memmap_mem_sram_end+0x64c02c0>)
10004a83:	1177f0                                    	slli	a7, a7, 1
10004a86:	1077a0                                    	and	a7, a7, a10
10004a89:	f134a1                                    	l32r	a10, 10000f5c (10024550 <jesd_smpl_resn_n_lut>)
10004a8c:	6b6a                                    	add.n	a6, a11, a6
10004a8e:	7a7a                                    	add.n	a7, a10, a7
10004a90:	0778                                    	l32i.n	a7, a7, 0
10004a92:	21a8                                    	l32i.n	a10, a1, 8
10004a94:	4479                                    	s32i.n	a7, a4, 16
10004a96:	091a82                                    	l16ui	a8, a10, 18
10004a99:	fa7c                                    	movi.n	a10, -1
10004a9b:	348080                                    	extui	a8, a8, 0, 4
10004a9e:	401800                                    	ssl	a8
10004aa1:	a18a00                                    	sll	a8, a10
10004aa4:	748080                                    	extui	a8, a8, 0, 8
10004aa7:	ffa3a2                                    	movi	a10, 0x3ff
10004aaa:	3088a0                                    	xor	a8, a8, a10
10004aad:	5489                                    	s32i.n	a8, a4, 20
10004aaf:	2188                                    	l32i.n	a8, a1, 8
10004ab1:	6479                                    	s32i.n	a7, a4, 24
10004ab3:	642872                                    	l32i	a7, a8, 0x190
10004ab6:	21a8                                    	l32i.n	a10, a1, 8
10004ab8:	047770                                    	extui	a7, a7, 7, 1
10004abb:	7479                                    	s32i.n	a7, a4, 28
10004abd:	642a72                                    	l32i	a7, a10, 0x190
10004ac0:	f12881                                    	l32r	a8, 10000f60 (10024560 <sample_to_char_lut>)
10004ac3:	047870                                    	extui	a7, a7, 8, 1
10004ac6:	8479                                    	s32i.n	a7, a4, 32
10004ac8:	2178                                    	l32i.n	a7, a1, 8
10004aca:	9459                                    	s32i.n	a5, a4, 36
10004acc:	642742                                    	l32i	a4, a7, 0x190
10004acf:	f125a1                                    	l32r	a10, 10000f64 (670013c <_memmap_mem_sram_end+0x64c013c>)
10004ad2:	244940                                    	extui	a4, a4, 9, 3
10004ad5:	a04480                                    	addx4	a4, a4, a8
10004ad8:	fcc442                                    	addi	a4, a4, -4
10004adb:	0448                                    	l32i.n	a4, a4, 0
10004add:	7baa                                    	add.n	a7, a11, a10
10004adf:	144040                                    	extui	a4, a4, 0, 2
10004ae2:	5188                                    	l32i.n	a8, a1, 20
10004ae4:	0749                                    	s32i.n	a4, a7, 0
10004ae6:	1a0c                                    	movi.n	a10, 1
10004ae8:	930842                                    	l8ui	a4, a8, 147
10004aeb:	017ae0                                    	slli	a7, a10, 18
10004aee:	447a                                    	add.n	a4, a4, a7
10004af0:	2178                                    	l32i.n	a7, a1, 8
10004af2:	0649                                    	s32i.n	a4, a6, 0
10004af4:	66f9                                    	s32i.n	a15, a6, 24
10004af6:	642742                                    	l32i	a4, a7, 0x190
10004af9:	048740                                    	extui	a8, a4, 7, 1
10004afc:	244c40                                    	extui	a4, a4, 12, 3
10004aff:	1178d0                                    	slli	a7, a8, 3
10004b02:	a40b                                    	addi.n	a10, a4, -1
10004b04:	c24740                                    	quou	a4, a7, a4
10004b07:	c4a0a0                                    	extui	a10, a10, 0, 13
10004b0a:	1144b0                                    	slli	a4, a4, 5
10004b0d:	204a40                                    	or	a4, a10, a4
10004b10:	f116a1                                    	l32r	a10, 10000f68 (6700368 <_memmap_mem_sram_end+0x64c0368>)
10004b13:	2188                                    	l32i.n	a8, a1, 8
10004b15:	7baa                                    	add.n	a7, a11, a10
10004b17:	0749                                    	s32i.n	a4, a7, 0
10004b19:	642842                                    	l32i	a4, a8, 0x190
10004b1c:	25a040                                    	extui	a10, a4, 16, 3
10004b1f:	254340                                    	extui	a4, a4, 19, 3
10004b22:	117a80                                    	slli	a7, a10, 8
10004b25:	f111a1                                    	l32r	a10, 10000f6c (67003e0 <_memmap_mem_sram_end+0x64c03e0>)
10004b28:	44ea                                    	add.n	a4, a4, a14
10004b2a:	474a                                    	add.n	a4, a7, a4
10004b2c:	7baa                                    	add.n	a7, a11, a10
10004b2e:	0749                                    	s32i.n	a4, a7, 0
10004b30:	1659                                    	s32i.n	a5, a6, 4
10004b32:	f10f41                                    	l32r	a4, 10000f70 (67002cc <_memmap_mem_sram_end+0x64c02cc>)
10004b35:	f10f61                                    	l32r	a6, 10000f74 (67002d4 <_memmap_mem_sram_end+0x64c02d4>)
10004b38:	003486                                    	j	10004c0e <ax_config_jesd_tx+0x38e>

10004b3b <ax_config_jesd_tx+0x2bb>:
10004b3b:	4b6a                                    	add.n	a4, a11, a6
10004b3d:	5b5a                                    	add.n	a5, a11, a5
10004b3f:	260c                                    	movi.n	a6, 2
10004b41:	04f9                                    	s32i.n	a15, a4, 0
10004b43:	0569                                    	s32i.n	a6, a5, 0
10004b45:	642852                                    	l32i	a5, a8, 0x190
10004b48:	470c                                    	movi.n	a7, 4
10004b4a:	445250                                    	extui	a5, a5, 2, 5
10004b4d:	1459                                    	s32i.n	a5, a4, 4
10004b4f:	4858                                    	l32i.n	a5, a8, 16
10004b51:	f102a1                                    	l32r	a10, 10000f5c (10024550 <jesd_smpl_resn_n_lut>)
10004b54:	345850                                    	extui	a5, a5, 8, 4
10004b57:	550b                                    	addi.n	a5, a5, -1
10004b59:	445050                                    	extui	a5, a5, 0, 5
10004b5c:	03d552                                    	addmi	a5, a5, 0x300
10004b5f:	3459                                    	s32i.n	a5, a4, 12
10004b61:	642852                                    	l32i	a5, a8, 0x190
10004b64:	1155f0                                    	slli	a5, a5, 1
10004b67:	105570                                    	and	a5, a5, a7
10004b6a:	5a5a                                    	add.n	a5, a10, a5
10004b6c:	0558                                    	l32i.n	a5, a5, 0
10004b6e:	4459                                    	s32i.n	a5, a4, 16
10004b70:	091872                                    	l16ui	a7, a8, 18
10004b73:	fa7c                                    	movi.n	a10, -1
10004b75:	346070                                    	extui	a6, a7, 0, 4
10004b78:	401600                                    	ssl	a6
10004b7b:	a16a00                                    	sll	a6, a10
10004b7e:	746060                                    	extui	a6, a6, 0, 8
10004b81:	ffa372                                    	movi	a7, 0x3ff
10004b84:	306670                                    	xor	a6, a6, a7
10004b87:	5469                                    	s32i.n	a6, a4, 20
10004b89:	6459                                    	s32i.n	a5, a4, 24
10004b8b:	642852                                    	l32i	a5, a8, 0x190
10004b8e:	f0f471                                    	l32r	a7, 10000f60 (10024560 <sample_to_char_lut>)
10004b91:	045750                                    	extui	a5, a5, 7, 1
10004b94:	7459                                    	s32i.n	a5, a4, 28
10004b96:	642852                                    	l32i	a5, a8, 0x190
10004b99:	f0f9a1                                    	l32r	a10, 10000f80 (670113c <_memmap_mem_sram_end+0x64c113c>)
10004b9c:	045850                                    	extui	a5, a5, 8, 1
10004b9f:	8459                                    	s32i.n	a5, a4, 32
10004ba1:	9499                                    	s32i.n	a9, a4, 36
10004ba3:	642842                                    	l32i	a4, a8, 0x190
10004ba6:	5baa                                    	add.n	a5, a11, a10
10004ba8:	244940                                    	extui	a4, a4, 9, 3
10004bab:	a04470                                    	addx4	a4, a4, a7
10004bae:	fcc442                                    	addi	a4, a4, -4
10004bb1:	0448                                    	l32i.n	a4, a4, 0
10004bb3:	5168                                    	l32i.n	a6, a1, 20
10004bb5:	144040                                    	extui	a4, a4, 0, 2
10004bb8:	0549                                    	s32i.n	a4, a5, 0
10004bba:	f0f271                                    	l32r	a7, 10000f84 (67012c0 <_memmap_mem_sram_end+0x64c12c0>)
10004bbd:	930642                                    	l8ui	a4, a6, 147
10004bc0:	1a0c                                    	movi.n	a10, 1
10004bc2:	016ae0                                    	slli	a6, a10, 18
10004bc5:	5b7a                                    	add.n	a5, a11, a7
10004bc7:	446a                                    	add.n	a4, a4, a6
10004bc9:	0549                                    	s32i.n	a4, a5, 0
10004bcb:	65f9                                    	s32i.n	a15, a5, 24
10004bcd:	642842                                    	l32i	a4, a8, 0x190
10004bd0:	047740                                    	extui	a7, a4, 7, 1
10004bd3:	244c40                                    	extui	a4, a4, 12, 3
10004bd6:	1157b0                                    	slli	a5, a7, 5
10004bd9:	a40b                                    	addi.n	a10, a4, -1
10004bdb:	c24540                                    	quou	a4, a5, a4
10004bde:	c470a0                                    	extui	a7, a10, 0, 13
10004be1:	f0e9a1                                    	l32r	a10, 10000f88 (6701368 <_memmap_mem_sram_end+0x64c1368>)
10004be4:	1144b0                                    	slli	a4, a4, 5
10004be7:	6baa                                    	add.n	a6, a11, a10
10004be9:	204740                                    	or	a4, a7, a4
10004bec:	0649                                    	s32i.n	a4, a6, 0
10004bee:	642842                                    	l32i	a4, a8, 0x190
10004bf1:	f0e6a1                                    	l32r	a10, 10000f8c (67013e0 <_memmap_mem_sram_end+0x64c13e0>)
10004bf4:	257040                                    	extui	a7, a4, 16, 3
10004bf7:	254340                                    	extui	a4, a4, 19, 3
10004bfa:	115780                                    	slli	a5, a7, 8
10004bfd:	44ea                                    	add.n	a4, a4, a14
10004bff:	7baa                                    	add.n	a7, a11, a10
10004c01:	a54a                                    	add.n	a10, a5, a4
10004c03:	f0e341                                    	l32r	a4, 10000f90 (67012c4 <_memmap_mem_sram_end+0x64c12c4>)
10004c06:	f0e361                                    	l32r	a6, 10000f94 (67012d4 <_memmap_mem_sram_end+0x64c12d4>)
10004c09:	00a352                                    	movi	a5, 0x300
10004c0c:	07a9                                    	s32i.n	a10, a7, 0
10004c0e:	7b4a                                    	add.n	a7, a11, a4
10004c10:	0759                                    	s32i.n	a5, a7, 0
10004c12:	642852                                    	l32i	a5, a8, 0x190
10004c15:	6b6a                                    	add.n	a6, a11, a6
10004c17:	155650                                    	extui	a5, a5, 22, 2
10004c1a:	550b                                    	addi.n	a5, a5, -1
10004c1c:	0659                                    	s32i.n	a5, a6, 0
10004c1e:	4858                                    	l32i.n	a5, a8, 16
10004c20:	404392                                    	s8i	a9, a3, 64
10004c23:	345450                                    	extui	a5, a5, 4, 4
10004c26:	401500                                    	ssl	a5
10004c29:	a16900                                    	sll	a6, a9
10004c2c:	860b                                    	addi.n	a8, a6, -1
10004c2e:	1178e0                                    	slli	a7, a8, 2
10004c31:	f0da81                                    	l32r	a8, 10000f9c (10024490 <jesd_strm_mem_inst_cnt>)
10004c34:	1163c2                                    	s32i	a12, a3, 68
10004c37:	887a                                    	add.n	a8, a8, a7
10004c39:	0888                                    	l32i.n	a8, a8, 0
10004c3b:	f0d931                                    	l32r	a3, 10000fa0 (6708010 <_memmap_mem_sram_end+0x64c8010>)
10004c3e:	31a8                                    	l32i.n	a10, a1, 12
10004c40:	3b3a                                    	add.n	a3, a11, a3
10004c42:	548080                                    	extui	a8, a8, 0, 6
10004c45:	0a29                                    	s32i.n	a2, a10, 0
10004c47:	0389                                    	s32i.n	a8, a3, 0
10004c49:	f0d781                                    	l32r	a8, 10000fa8 (100244d0 <jesd_strm_mem_size>)
10004c4c:	f0d631                                    	l32r	a3, 10000fa4 (670d240 <_memmap_mem_sram_end+0x64cd240>)
10004c4f:	787a                                    	add.n	a7, a8, a7
10004c51:	f0d141                                    	l32r	a4, 10000f98 (670d200 <_memmap_mem_sram_end+0x64cd200>)
10004c54:	2b3a                                    	add.n	a2, a11, a3
10004c56:	001782                                    	l16ui	a8, a7, 0
10004c59:	400500                                    	ssr	a5
10004c5c:	0289                                    	s32i.n	a8, a2, 0
10004c5e:	1289                                    	s32i.n	a8, a2, 4
10004c60:	3289                                    	s32i.n	a8, a2, 12
10004c62:	4289                                    	s32i.n	a8, a2, 16
10004c64:	6289                                    	s32i.n	a8, a2, 24
10004c66:	7289                                    	s32i.n	a8, a2, 28
10004c68:	a289                                    	s32i.n	a8, a2, 40
10004c6a:	b289                                    	s32i.n	a8, a2, 44
10004c6c:	c289                                    	s32i.n	a8, a2, 48
10004c6e:	d289                                    	s32i.n	a8, a2, 52
10004c70:	e289                                    	s32i.n	a8, a2, 56
10004c72:	f289                                    	s32i.n	a8, a2, 60
10004c74:	2289                                    	s32i.n	a8, a2, 8
10004c76:	5289                                    	s32i.n	a8, a2, 20
10004c78:	8289                                    	s32i.n	a8, a2, 32
10004c7a:	9289                                    	s32i.n	a8, a2, 36
10004c7c:	9120e0                                    	srl	a2, a14
10004c7f:	24e060                                    	extui	a14, a6, 0, 3
10004c82:	4b4a                                    	add.n	a4, a11, a4
10004c84:	030c                                    	movi.n	a3, 0
10004c86:	415360                                    	srli	a5, a6, 3
10004c89:	059e76                                    	loopnez	a14, 10004c92 <ax_config_jesd_tx+0x412>
10004c8c:	0439                                    	s32i.n	a3, a4, 0
10004c8e:	444b                                    	addi.n	a4, a4, 4
10004c90:	332a                                    	add.n	a3, a3, a2

10004c92 <ax_config_jesd_tx+0x412>:
10004c92:	85ac                                    	beqz.n	a5, 10004cbe <ax_config_jesd_tx+0x43e>
10004c94:	229576                                    	loopnez	a5, 10004cba <ax_config_jesd_tx+0x43a>
10004c97:	632a                                    	add.n	a6, a3, a2
10004c99:	562a                                    	add.n	a5, a6, a2
10004c9b:	0439                                    	s32i.n	a3, a4, 0
10004c9d:	1469                                    	s32i.n	a6, a4, 4
10004c9f:	a52a                                    	add.n	a10, a5, a2
10004ca1:	9a2a                                    	add.n	a9, a10, a2
10004ca3:	892a                                    	add.n	a8, a9, a2
10004ca5:	782a                                    	add.n	a7, a8, a2
10004ca7:	672a                                    	add.n	a6, a7, a2
10004ca9:	362a                                    	add.n	a3, a6, a2
10004cab:	2459                                    	s32i.n	a5, a4, 8
10004cad:	34a9                                    	s32i.n	a10, a4, 12
10004caf:	4499                                    	s32i.n	a9, a4, 16
10004cb1:	5489                                    	s32i.n	a8, a4, 20
10004cb3:	6479                                    	s32i.n	a7, a4, 24
10004cb5:	7469                                    	s32i.n	a6, a4, 28
10004cb7:	20c442                                    	addi	a4, a4, 32
10004cba:	31a8                                    	l32i.n	a10, a1, 12
10004cbc:	190c                                    	movi.n	a9, 1

10004cbe <ax_config_jesd_tx+0x43e>:
10004cbe:	2168                                    	l32i.n	a6, a1, 8
10004cc0:	240c                                    	movi.n	a4, 2
10004cc2:	642622                                    	l32i	a2, a6, 0x190
10004cc5:	051c                                    	movi.n	a5, 16
10004cc7:	413c20                                    	srli	a3, a2, 12
10004cca:	102240                                    	and	a2, a2, a4
10004ccd:	248030                                    	extui	a8, a3, 0, 3
10004cd0:	330b                                    	addi.n	a3, a3, -1
10004cd2:	112290                                    	slli	a2, a2, 7
10004cd5:	243030                                    	extui	a3, a3, 0, 3
10004cd8:	f0b5e1                                    	l32r	a14, 10000fac (6708014 <_memmap_mem_sram_end+0x64c8014>)
10004cdb:	232a                                    	add.n	a2, a3, a2
10004cdd:	c24580                                    	quou	a4, a5, a8
10004ce0:	3bea                                    	add.n	a3, a11, a14
10004ce2:	b02420                                    	addx8	a2, a4, a2
10004ce5:	0329                                    	s32i.n	a2, a3, 0
10004ce7:	099c66                                    	bnei	a12, 10, 10004cf4 <ax_config_jesd_tx+0x474>
10004cea:	f0b121                                    	l32r	a2, 10000fb0 (6708068 <_memmap_mem_sram_end+0x64c8068>)
10004ced:	f0b131                                    	l32r	a3, 10000fb4 (f78650 <_memmap_mem_sram_end+0xd38650>)
10004cf0:	2b2a                                    	add.n	a2, a11, a2
10004cf2:	0239                                    	s32i.n	a3, a2, 0
10004cf4:	f0b121                                    	l32r	a2, 10000fb8 (670d030 <_memmap_mem_sram_end+0x64cd030>)
10004cf7:	f37c                                    	movi.n	a3, -1
10004cf9:	2b2a                                    	add.n	a2, a11, a2
10004cfb:	f43030                                    	extui	a3, a3, 0, 16
10004cfe:	4188                                    	l32i.n	a8, a1, 16
10004d00:	0239                                    	s32i.n	a3, a2, 0
10004d02:	f0aee1                                    	l32r	a14, 10000fbc (670801c <_memmap_mem_sram_end+0x64c801c>)
10004d05:	cd0832                                    	l8ui	a3, a8, 205
10004d08:	2bea                                    	add.n	a2, a11, a14
10004d0a:	0d7d                                    	mov.n	a7, a13
10004d0c:	15e307                                    	bbsi	a3, 0, 10004d25 <ax_config_jesd_tx+0x4a5>
10004d0f:	f0acd1                                    	l32r	a13, 10000fc0 (6705400 <_memmap_mem_sram_end+0x64c5400>)
10004d12:	680c                                    	movi.n	a8, 6
10004d14:	0289                                    	s32i.n	a8, a2, 0
10004d16:	ebda                                    	add.n	a14, a11, a13
10004d18:	f0ab21                                    	l32r	a2, 10000fc4 (6705480 <_memmap_mem_sram_end+0x64c5480>)
10004d1b:	f0ab31                                    	l32r	a3, 10000fc8 (6705484 <_memmap_mem_sram_end+0x64c5484>)
10004d1e:	0e99                                    	s32i.n	a9, a14, 0
10004d20:	1e99                                    	s32i.n	a9, a14, 4
10004d22:	fee346                                    	j	100048b3 <ax_config_jesd_tx+0x33>

10004d25 <ax_config_jesd_tx+0x4a5>:
10004d25:	02f9                                    	s32i.n	a15, a2, 0
10004d27:	f0a921                                    	l32r	a2, 10000fcc (6708050 <_memmap_mem_sram_end+0x64c8050>)
10004d2a:	f0a931                                    	l32r	a3, 10000fd0 (6708054 <_memmap_mem_sram_end+0x64c8054>)
10004d2d:	fee086                                    	j	100048b3 <ax_config_jesd_tx+0x33>

10004d30 <ax_config_jesd_tx+0x4b0>:
10004d30:	f01d                                    	retw.n

10004d32 <ax_config_jesd_tx+0x4b2>:
	...

10004d34 <ax_config_jesd_rx>:
10004d34:	008136                                    	entry	a1, 64
10004d37:	0050a5                                    	call8	10005240 <ax_daco_get_addr>
10004d3a:	efc421                                    	l32r	a2, 10000c4c (10020314 <ax_static_data_init>)
10004d3d:	182a32                                    	l32i	a3, a10, 96
10004d40:	f07061                                    	l32r	a6, 10000f00 (10025db0 <tx_link_quad_map>)
10004d43:	afaa72                                    	movi	a7, 0xfffffaaf
10004d46:	fd0c                                    	movi.n	a13, 15
10004d48:	64ca92                                    	addi	a9, a10, 100
10004d4b:	05d242                                    	addmi	a4, a2, 0x500
10004d4e:	a0a320                                    	addx4	a10, a3, a2
10004d51:	f47070                                    	extui	a7, a7, 0, 16
10004d54:	1c0c                                    	movi.n	a12, 1
10004d56:	11dd70                                    	slli	a13, a13, 9
10004d59:	4e0c                                    	movi.n	a14, 4
10004d5b:	10c6f2                                    	addi	a15, a6, 16
10004d5e:	5149                                    	s32i.n	a4, a1, 20
10004d60:	6139                                    	s32i.n	a3, a1, 24
10004d62:	31a9                                    	s32i.n	a10, a1, 12
10004d64:	003386                                    	j	10004e36 <ax_config_jesd_rx+0x102>

10004d67 <ax_config_jesd_rx+0x33>:
10004d67:	f0b431                                    	l32r	a3, 10001038 (670c010 <_memmap_mem_sram_end+0x64cc010>)
10004d6a:	f0b441                                    	l32r	a4, 1000103c (10024510 <jesd_rx_mem_strm_cfg_lut>)
10004d6d:	4420c0                                    	extui	a2, a12, 0, 5
10004d70:	e0a082                                    	movi	a8, 224
10004d73:	a04c40                                    	addx4	a4, a12, a4
10004d76:	3b3a                                    	add.n	a3, a11, a3
10004d78:	228a                                    	add.n	a2, a2, a8
10004d7a:	fcc442                                    	addi	a4, a4, -4
10004d7d:	0329                                    	s32i.n	a2, a3, 0
10004d7f:	0428                                    	l32i.n	a2, a4, 0
10004d81:	1329                                    	s32i.n	a2, a3, 4
10004d83:	642a22                                    	l32i	a2, a10, 0x190
10004d86:	f0ae91                                    	l32r	a9, 10001040 (6707010 <_memmap_mem_sram_end+0x64c7010>)
10004d89:	242c20                                    	extui	a2, a2, 12, 3
10004d8c:	4b9a                                    	add.n	a4, a11, a9
10004d8e:	51c8                                    	l32i.n	a12, a1, 20
10004d90:	0429                                    	s32i.n	a2, a4, 0
10004d92:	332c22                                    	l32i	a2, a12, 204
10004d95:	a8a062                                    	movi	a6, 168
10004d98:	042920                                    	extui	a2, a2, 9, 1
10004d9b:	1429                                    	s32i.n	a2, a4, 4
10004d9d:	332c22                                    	l32i	a2, a12, 204
10004da0:	efab71                                    	l32r	a7, 10000c4c (10020314 <ax_static_data_init>)
10004da3:	142620                                    	extui	a2, a2, 6, 2
10004da6:	d12260                                    	mul16s	a2, a2, a6
10004da9:	f0a691                                    	l32r	a9, 10001044 (670c300 <_memmap_mem_sram_end+0x64cc300>)
10004dac:	272a                                    	add.n	a2, a7, a2
10004dae:	05d252                                    	addmi	a5, a2, 0x500
10004db1:	342582                                    	l32i	a8, a5, 208
10004db4:	0c2c                                    	movi.n	a12, 32
10004db6:	344080                                    	extui	a4, a8, 0, 4
10004db9:	2349                                    	s32i.n	a4, a3, 8
10004dbb:	352542                                    	l32i	a4, a5, 212
10004dbe:	3349                                    	s32i.n	a4, a3, 12
10004dc0:	d8a562                                    	movi	a6, 0x5d8
10004dc3:	4143c0                                    	srli	a4, a12, 3
10004dc6:	3b9a                                    	add.n	a3, a11, a9
10004dc8:	226a                                    	add.n	a2, a2, a6
10004dca:	259476                                    	loopnez	a4, 10004df3 <ax_config_jesd_rx+0xbf>
10004dcd:	0248                                    	l32i.n	a4, a2, 0
10004dcf:	0349                                    	s32i.n	a4, a3, 0
10004dd1:	1248                                    	l32i.n	a4, a2, 4
10004dd3:	1349                                    	s32i.n	a4, a3, 4
10004dd5:	2248                                    	l32i.n	a4, a2, 8
10004dd7:	2349                                    	s32i.n	a4, a3, 8
10004dd9:	3248                                    	l32i.n	a4, a2, 12
10004ddb:	3349                                    	s32i.n	a4, a3, 12
10004ddd:	4248                                    	l32i.n	a4, a2, 16
10004ddf:	4349                                    	s32i.n	a4, a3, 16
10004de1:	5248                                    	l32i.n	a4, a2, 20
10004de3:	5349                                    	s32i.n	a4, a3, 20
10004de5:	6248                                    	l32i.n	a4, a2, 24
10004de7:	6349                                    	s32i.n	a4, a3, 24
10004de9:	7248                                    	l32i.n	a4, a2, 28
10004deb:	7349                                    	s32i.n	a4, a3, 28
10004ded:	20c332                                    	addi	a3, a3, 32
10004df0:	20c222                                    	addi	a2, a2, 32

10004df3 <ax_config_jesd_rx+0xbf>:
10004df3:	f09521                                    	l32r	a2, 10001048 (670c380 <_memmap_mem_sram_end+0x64cc380>)
10004df6:	562532                                    	l32i	a3, a5, 0x158
10004df9:	2b2a                                    	add.n	a2, a11, a2
10004dfb:	0239                                    	s32i.n	a3, a2, 0
10004dfd:	572532                                    	l32i	a3, a5, 0x15c
10004e00:	1239                                    	s32i.n	a3, a2, 4
10004e02:	582532                                    	l32i	a3, a5, 0x160
10004e05:	2239                                    	s32i.n	a3, a2, 8
10004e07:	592532                                    	l32i	a3, a5, 0x164
10004e0a:	3239                                    	s32i.n	a3, a2, 12
10004e0c:	5a2532                                    	l32i	a3, a5, 0x168
10004e0f:	4239                                    	s32i.n	a3, a2, 16
10004e11:	5b2532                                    	l32i	a3, a5, 0x16c
10004e14:	5239                                    	s32i.n	a3, a2, 20
10004e16:	5c2532                                    	l32i	a3, a5, 0x170
10004e19:	6239                                    	s32i.n	a3, a2, 24
10004e1b:	afaa72                                    	movi	a7, 0xfffffaaf
10004e1e:	5d2532                                    	l32i	a3, a5, 0x174
10004e21:	f03761                                    	l32r	a6, 10000f00 (10025db0 <tx_link_quad_map>)
10004e24:	7198                                    	l32i.n	a9, a1, 28
10004e26:	f47070                                    	extui	a7, a7, 0, 16
10004e29:	1c0c                                    	movi.n	a12, 1
10004e2b:	7239                                    	s32i.n	a3, a2, 28

10004e2d <ax_config_jesd_rx+0xf9>:
10004e2d:	ee0b                                    	addi.n	a14, a14, -1
10004e2f:	ff4b                                    	addi.n	a15, a15, 4
10004e31:	994b                                    	addi.n	a9, a9, 4
10004e33:	317e16                                    	beqz	a14, 1000514e <ax_config_jesd_rx+0x41a>
10004e36:	0928                                    	l32i.n	a2, a9, 0
10004e38:	f03751                                    	l32r	a5, 10000f14 (1b0104c <_memmap_mem_sram_end+0x18c104c>)
10004e3b:	ee1277                                    	beq	a2, a7, 10004e2d <ax_config_jesd_rx+0xf9>
10004e3e:	362a                                    	add.n	a3, a6, a2
10004e40:	600342                                    	l8ui	a4, a3, 96
10004e43:	1182c0                                    	slli	a8, a2, 4
10004e46:	043456                                    	bnez	a4, 10004e8d <ax_config_jesd_rx+0x159>
10004e49:	0c0c                                    	movi.n	a12, 0
10004e4b:	485a                                    	add.n	a4, a8, a5
10004e4d:	04c9                                    	s32i.n	a12, a4, 0
10004e4f:	0020c0                                    	memw
10004e52:	7fa052                                    	movi	a5, 127
10004e55:	1459                                    	s32i.n	a5, a4, 4
10004e57:	0020c0                                    	memw
10004e5a:	350c                                    	movi.n	a5, 3
10004e5c:	2459                                    	s32i.n	a5, a4, 8
10004e5e:	0020c0                                    	memw
10004e61:	351c                                    	movi.n	a5, 19
10004e63:	3459                                    	s32i.n	a5, a4, 12
10004e65:	0020c0                                    	memw
10004e68:	ea1c                                    	movi.n	a10, 30
10004e6a:	0d4d                                    	mov.n	a4, a13
10004e6c:	095d                                    	mov.n	a5, a9
10004e6e:	0e6d                                    	mov.n	a6, a14
10004e70:	0f7d                                    	mov.n	a7, a15
10004e72:	fdda65                                    	call8	10002c18 <com_timing_wait_ns>
10004e75:	afaae2                                    	movi	a14, 0xfffffaaf
10004e78:	07fd                                    	mov.n	a15, a7
10004e7a:	f470e0                                    	extui	a7, a14, 0, 16
10004e7d:	06ed                                    	mov.n	a14, a6
10004e7f:	1c0c                                    	movi.n	a12, 1
10004e81:	31a8                                    	l32i.n	a10, a1, 12
10004e83:	f01f61                                    	l32r	a6, 10000f00 (10025db0 <tx_link_quad_map>)
10004e86:	059d                                    	mov.n	a9, a5
10004e88:	04dd                                    	mov.n	a13, a4
10004e8a:	6043c2                                    	s8i	a12, a3, 96
10004e8d:	b05260                                    	addx8	a5, a2, a6
10004e90:	200532                                    	l8ui	a3, a5, 32
10004e93:	f05381                                    	l32r	a8, 10000fe0 (6706080 <_memmap_mem_sram_end+0x64c6080>)
10004e96:	f93356                                    	bnez	a3, 10004e2d <ax_config_jesd_rx+0xf9>
10004e99:	4a38                                    	l32i.n	a3, a10, 16
10004e9b:	01b290                                    	slli	a11, a2, 23
10004e9e:	7199                                    	s32i.n	a9, a1, 28
10004ea0:	7b8a                                    	add.n	a7, a11, a8
10004ea2:	059f30                                    	extui	a9, a3, 31, 1
10004ea5:	0799                                    	s32i.n	a9, a7, 0
10004ea7:	642a82                                    	l32i	a8, a10, 0x190
10004eaa:	41f9                                    	s32i.n	a15, a1, 16
10004eac:	044080                                    	extui	a4, a8, 0, 1
10004eaf:	4a68                                    	l32i.n	a6, a10, 16
10004eb1:	0efd                                    	mov.n	a15, a14
10004eb3:	b0a440                                    	addx8	a10, a4, a4
10004eb6:	f019e1                                    	l32r	a14, 10000f1c (100243f0 <jesd_clk_to_char_div_lut>)
10004eb9:	119ae0                                    	slli	a9, a10, 2
10004ebc:	353460                                    	extui	a3, a6, 20, 4
10004ebf:	ae9a                                    	add.n	a10, a14, a9
10004ec1:	f017e1                                    	l32r	a14, 10000f20 (10024440 <jesd_sample_to_char_div_lut>)
10004ec4:	a0a3a0                                    	addx4	a10, a3, a10
10004ec7:	9e9a                                    	add.n	a9, a14, a9
10004ec9:	356860                                    	extui	a6, a6, 24, 4
10004ecc:	0aa8                                    	l32i.n	a10, a10, 0
10004ece:	a06690                                    	addx4	a6, a6, a9
10004ed1:	0668                                    	l32i.n	a6, a6, 0
10004ed3:	1490a0                                    	extui	a9, a10, 0, 2
10004ed6:	1199c0                                    	slli	a9, a9, 4
10004ed9:	51e8                                    	l32i.n	a14, a1, 20
10004edb:	146060                                    	extui	a6, a6, 0, 2
10004ede:	994a                                    	add.n	a9, a9, a4
10004ee0:	a09690                                    	addx4	a9, a6, a9
10004ee3:	332e62                                    	l32i	a6, a14, 204
10004ee6:	4799                                    	s32i.n	a9, a7, 16
10004ee8:	066807                                    	bbci	a8, 0, 10004ef2 <ax_config_jesd_rx+0x1be>
10004eeb:	f03e71                                    	l32r	a7, 10000fe4 (67060a0 <_memmap_mem_sram_end+0x64c60a0>)
10004eee:	7b7a                                    	add.n	a7, a11, a7
10004ef0:	07c9                                    	s32i.n	a12, a7, 0
10004ef2:	f03d71                                    	l32r	a7, 10000fe8 (67060a4 <_memmap_mem_sram_end+0x64c60a4>)
10004ef5:	f03d81                                    	l32r	a8, 10000fec (670609c <_memmap_mem_sram_end+0x64c609c>)
10004ef8:	f03e91                                    	l32r	a9, 10000ff0 (6706098 <_memmap_mem_sram_end+0x64c6098>)
10004efb:	7b7a                                    	add.n	a7, a11, a7
10004efd:	8b8a                                    	add.n	a8, a11, a8
10004eff:	07c9                                    	s32i.n	a12, a7, 0
10004f01:	08c9                                    	s32i.n	a12, a8, 0
10004f03:	8b9a                                    	add.n	a8, a11, a9
10004f05:	f00b91                                    	l32r	a9, 10000f34 (10024580 <tsad_map_lut>)
10004f08:	1144c0                                    	slli	a4, a4, 4
10004f0b:	146060                                    	extui	a6, a6, 0, 2
10004f0e:	494a                                    	add.n	a4, a9, a4
10004f10:	f00aa1                                    	l32r	a10, 10000f38 (4000b <_memmap_mem_srom_end+0x2000b>)
10004f13:	f038e1                                    	l32r	a14, 10000ff4 (6706094 <_memmap_mem_sram_end+0x64c6094>)
10004f16:	17c9                                    	s32i.n	a12, a7, 4
10004f18:	a04640                                    	addx4	a4, a6, a4
10004f1b:	08a9                                    	s32i.n	a10, a8, 0
10004f1d:	6bea                                    	add.n	a6, a11, a14
10004f1f:	0448                                    	l32i.n	a4, a4, 0
10004f21:	0649                                    	s32i.n	a4, a6, 0
10004f23:	27c9                                    	s32i.n	a12, a7, 8
10004f25:	103366                                    	bnei	a3, 3, 10004f39 <ax_config_jesd_rx+0x205>
10004f28:	f03431                                    	l32r	a3, 10000ff8 (67060b8 <_memmap_mem_sram_end+0x64c60b8>)
10004f2b:	f03441                                    	l32r	a4, 10000ffc (67060b0 <_memmap_mem_sram_end+0x64c60b0>)
10004f2e:	3b3a                                    	add.n	a3, a11, a3
10004f30:	f00761                                    	l32r	a6, 10000f4c (30005 <_memmap_mem_srom_end+0x10005>)
10004f33:	4b4a                                    	add.n	a4, a11, a4
10004f35:	0369                                    	s32i.n	a6, a3, 0
10004f37:	04c9                                    	s32i.n	a12, a4, 0
10004f39:	31a8                                    	l32i.n	a10, a1, 12
10004f3b:	f03941                                    	l32r	a4, 10001020 (6703018 <_memmap_mem_sram_end+0x64c3018>)
10004f3e:	4a38                                    	l32i.n	a3, a10, 16
10004f40:	270c                                    	movi.n	a7, 2
10004f42:	0b6396                                    	bltz	a3, 10004ffc <ax_config_jesd_rx+0x2c8>
10004f45:	f02e81                                    	l32r	a8, 10001000 (6702018 <_memmap_mem_sram_end+0x64c2018>)
10004f48:	f02f61                                    	l32r	a6, 10001004 (67022c4 <_memmap_mem_sram_end+0x64c22c4>)
10004f4b:	4b8a                                    	add.n	a4, a11, a8
10004f4d:	0a0c                                    	movi.n	a10, 0
10004f4f:	3198                                    	l32i.n	a9, a1, 12
10004f51:	04a9                                    	s32i.n	a10, a4, 0
10004f53:	7b6a                                    	add.n	a7, a11, a6
10004f55:	642962                                    	l32i	a6, a9, 0x190
10004f58:	31e8                                    	l32i.n	a14, a1, 12
10004f5a:	446260                                    	extui	a6, a6, 2, 5
10004f5d:	4469                                    	s32i.n	a6, a4, 16
10004f5f:	4e68                                    	l32i.n	a6, a14, 16
10004f61:	3198                                    	l32i.n	a9, a1, 12
10004f63:	346860                                    	extui	a6, a6, 8, 4
10004f66:	660b                                    	addi.n	a6, a6, -1
10004f68:	6469                                    	s32i.n	a6, a4, 24
10004f6a:	642962                                    	l32i	a6, a9, 0x190
10004f6d:	490c                                    	movi.n	a9, 4
10004f6f:	1166f0                                    	slli	a6, a6, 1
10004f72:	effae1                                    	l32r	a14, 10000f5c (10024550 <jesd_smpl_resn_n_lut>)
10004f75:	106690                                    	and	a6, a6, a9
10004f78:	6e6a                                    	add.n	a6, a14, a6
10004f7a:	0668                                    	l32i.n	a6, a6, 0
10004f7c:	31e8                                    	l32i.n	a14, a1, 12
10004f7e:	7469                                    	s32i.n	a6, a4, 28
10004f80:	091e92                                    	l16ui	a9, a14, 18
10004f83:	fe7c                                    	movi.n	a14, -1
10004f85:	349090                                    	extui	a9, a9, 0, 4
10004f88:	401900                                    	ssl	a9
10004f8b:	a19e00                                    	sll	a9, a14
10004f8e:	3099e0                                    	xor	a9, a9, a14
10004f91:	8499                                    	s32i.n	a9, a4, 32
10004f93:	3198                                    	l32i.n	a9, a1, 12
10004f95:	9469                                    	s32i.n	a6, a4, 36
10004f97:	642962                                    	l32i	a6, a9, 0x190
10004f9a:	31e8                                    	l32i.n	a14, a1, 12
10004f9c:	046760                                    	extui	a6, a6, 7, 1
10004f9f:	a469                                    	s32i.n	a6, a4, 40
10004fa1:	642e62                                    	l32i	a6, a14, 0x190
10004fa4:	130c                                    	movi.n	a3, 1
10004fa6:	046860                                    	extui	a6, a6, 8, 1
10004fa9:	b469                                    	s32i.n	a6, a4, 44
10004fab:	3168                                    	l32i.n	a6, a1, 12
10004fad:	c439                                    	s32i.n	a3, a4, 48
10004faf:	642642                                    	l32i	a4, a6, 0x190
10004fb2:	efeb91                                    	l32r	a9, 10000f60 (10024560 <sample_to_char_lut>)
10004fb5:	244940                                    	extui	a4, a4, 9, 3
10004fb8:	f01481                                    	l32r	a8, 10001008 (670213c <_memmap_mem_sram_end+0x64c213c>)
10004fbb:	a04490                                    	addx4	a4, a4, a9
10004fbe:	f013e1                                    	l32r	a14, 1000100c (67022d8 <_memmap_mem_sram_end+0x64c22d8>)
10004fc1:	fcc442                                    	addi	a4, a4, -4
10004fc4:	8b8a                                    	add.n	a8, a11, a8
10004fc6:	0448                                    	l32i.n	a4, a4, 0
10004fc8:	6bea                                    	add.n	a6, a11, a14
10004fca:	0849                                    	s32i.n	a4, a8, 0
10004fcc:	06a9                                    	s32i.n	a10, a6, 0
10004fce:	31a8                                    	l32i.n	a10, a1, 12
10004fd0:	642a42                                    	l32i	a4, a10, 0x190
10004fd3:	048740                                    	extui	a8, a4, 7, 1
10004fd6:	244c40                                    	extui	a4, a4, 12, 3
10004fd9:	940b                                    	addi.n	a9, a4, -1
10004fdb:	1168d0                                    	slli	a6, a8, 3
10004fde:	c24640                                    	quou	a4, a6, a4
10004fe1:	c4e090                                    	extui	a14, a9, 0, 13
10004fe4:	f00b91                                    	l32r	a9, 10001010 (6702368 <_memmap_mem_sram_end+0x64c2368>)
10004fe7:	1144b0                                    	slli	a4, a4, 5
10004fea:	208e40                                    	or	a8, a14, a4
10004fed:	eb9a                                    	add.n	a14, a11, a9
10004fef:	f00961                                    	l32r	a6, 10001014 (67022cc <_memmap_mem_sram_end+0x64c22cc>)
10004ff2:	f00941                                    	l32r	a4, 10001018 (67022d4 <_memmap_mem_sram_end+0x64c22d4>)
10004ff5:	0e89                                    	s32i.n	a8, a14, 0
10004ff7:	0739                                    	s32i.n	a3, a7, 0
10004ff9:	002446                                    	j	1000508e <ax_config_jesd_rx+0x35a>

10004ffc <ax_config_jesd_rx+0x2c8>:
10004ffc:	4b4a                                    	add.n	a4, a11, a4
10004ffe:	0479                                    	s32i.n	a7, a4, 0
10005000:	642a72                                    	l32i	a7, a10, 0x190
10005003:	480c                                    	movi.n	a8, 4
10005005:	447270                                    	extui	a7, a7, 2, 5
10005008:	4479                                    	s32i.n	a7, a4, 16
1000500a:	4a78                                    	l32i.n	a7, a10, 16
1000500c:	efd491                                    	l32r	a9, 10000f5c (10024550 <jesd_smpl_resn_n_lut>)
1000500f:	347870                                    	extui	a7, a7, 8, 4
10005012:	770b                                    	addi.n	a7, a7, -1
10005014:	6479                                    	s32i.n	a7, a4, 24
10005016:	642a72                                    	l32i	a7, a10, 0x190
10005019:	f00031                                    	l32r	a3, 1000101c (670313c <_memmap_mem_sram_end+0x64c313c>)
1000501c:	1177f0                                    	slli	a7, a7, 1
1000501f:	107780                                    	and	a7, a7, a8
10005022:	797a                                    	add.n	a7, a9, a7
10005024:	0778                                    	l32i.n	a7, a7, 0
10005026:	7479                                    	s32i.n	a7, a4, 28
10005028:	091ae2                                    	l16ui	a14, a10, 18
1000502b:	f97c                                    	movi.n	a9, -1
1000502d:	3480e0                                    	extui	a8, a14, 0, 4
10005030:	401800                                    	ssl	a8
10005033:	a18900                                    	sll	a8, a9
10005036:	308890                                    	xor	a8, a8, a9
10005039:	8489                                    	s32i.n	a8, a4, 32
1000503b:	9479                                    	s32i.n	a7, a4, 36
1000503d:	642a72                                    	l32i	a7, a10, 0x190
10005040:	efc881                                    	l32r	a8, 10000f60 (10024560 <sample_to_char_lut>)
10005043:	047770                                    	extui	a7, a7, 7, 1
10005046:	a479                                    	s32i.n	a7, a4, 40
10005048:	642a72                                    	l32i	a7, a10, 0x190
1000504b:	3b3a                                    	add.n	a3, a11, a3
1000504d:	047870                                    	extui	a7, a7, 8, 1
10005050:	b479                                    	s32i.n	a7, a4, 44
10005052:	c4c9                                    	s32i.n	a12, a4, 48
10005054:	642a42                                    	l32i	a4, a10, 0x190
10005057:	eff361                                    	l32r	a6, 10001024 (6703368 <_memmap_mem_sram_end+0x64c3368>)
1000505a:	244940                                    	extui	a4, a4, 9, 3
1000505d:	a04480                                    	addx4	a4, a4, a8
10005060:	fcc442                                    	addi	a4, a4, -4
10005063:	0498                                    	l32i.n	a9, a4, 0
10005065:	0399                                    	s32i.n	a9, a3, 0
10005067:	642a32                                    	l32i	a3, a10, 0x190
1000506a:	6b6a                                    	add.n	a6, a11, a6
1000506c:	24ec30                                    	extui	a14, a3, 12, 3
1000506f:	043730                                    	extui	a3, a3, 7, 1
10005072:	1133d0                                    	slli	a3, a3, 3
10005075:	8e0b                                    	addi.n	a8, a14, -1
10005077:	c233e0                                    	quou	a3, a3, a14
1000507a:	1193b0                                    	slli	a9, a3, 5
1000507d:	c47080                                    	extui	a7, a8, 0, 13
10005080:	20e790                                    	or	a14, a7, a9
10005083:	06e9                                    	s32i.n	a14, a6, 0
10005085:	efe861                                    	l32r	a6, 10001028 (67032c4 <_memmap_mem_sram_end+0x64c32c4>)
10005088:	efe941                                    	l32r	a4, 1000102c (67032d4 <_memmap_mem_sram_end+0x64c32d4>)
1000508b:	00a132                                    	movi	a3, 0x100
1000508e:	6b6a                                    	add.n	a6, a11, a6
10005090:	0639                                    	s32i.n	a3, a6, 0
10005092:	642a32                                    	l32i	a3, a10, 0x190
10005095:	4b4a                                    	add.n	a4, a11, a4
10005097:	153630                                    	extui	a3, a3, 22, 2
1000509a:	930b                                    	addi.n	a9, a3, -1
1000509c:	0499                                    	s32i.n	a9, a4, 0
1000509e:	4a68                                    	l32i.n	a6, a10, 16
100050a0:	6178                                    	l32i.n	a7, a1, 24
100050a2:	346460                                    	extui	a6, a6, 4, 4
100050a5:	9579                                    	s32i.n	a7, a5, 36
100050a7:	401600                                    	ssl	a6
100050aa:	170c                                    	movi.n	a7, 1
100050ac:	efe141                                    	l32r	a4, 10001030 (670c180 <_memmap_mem_sram_end+0x64cc180>)
100050af:	0fed                                    	mov.n	a14, a15
100050b1:	41f8                                    	l32i.n	a15, a1, 16
100050b3:	2045c2                                    	s8i	a12, a5, 32
100050b6:	a1c700                                    	sll	a12, a7
100050b9:	400600                                    	ssr	a6
100050bc:	00a182                                    	movi	a8, 0x100
100050bf:	2490c0                                    	extui	a9, a12, 0, 3
100050c2:	0f29                                    	s32i.n	a2, a15, 0
100050c4:	4b4a                                    	add.n	a4, a11, a4
100050c6:	030c                                    	movi.n	a3, 0
100050c8:	912080                                    	srl	a2, a8
100050cb:	4153c0                                    	srli	a5, a12, 3
100050ce:	059976                                    	loopnez	a9, 100050d7 <ax_config_jesd_rx+0x3a3>
100050d1:	0439                                    	s32i.n	a3, a4, 0
100050d3:	332a                                    	add.n	a3, a3, a2
100050d5:	444b                                    	addi.n	a4, a4, 4

100050d7 <ax_config_jesd_rx+0x3a3>:
100050d7:	65ac                                    	beqz.n	a5, 10005101 <ax_config_jesd_rx+0x3cd>
100050d9:	229576                                    	loopnez	a5, 100050ff <ax_config_jesd_rx+0x3cb>
100050dc:	632a                                    	add.n	a6, a3, a2
100050de:	562a                                    	add.n	a5, a6, a2
100050e0:	0439                                    	s32i.n	a3, a4, 0
100050e2:	1469                                    	s32i.n	a6, a4, 4
100050e4:	a52a                                    	add.n	a10, a5, a2
100050e6:	9a2a                                    	add.n	a9, a10, a2
100050e8:	892a                                    	add.n	a8, a9, a2
100050ea:	782a                                    	add.n	a7, a8, a2
100050ec:	672a                                    	add.n	a6, a7, a2
100050ee:	362a                                    	add.n	a3, a6, a2
100050f0:	2459                                    	s32i.n	a5, a4, 8
100050f2:	34a9                                    	s32i.n	a10, a4, 12
100050f4:	4499                                    	s32i.n	a9, a4, 16
100050f6:	5489                                    	s32i.n	a8, a4, 20
100050f8:	6479                                    	s32i.n	a7, a4, 24
100050fa:	7469                                    	s32i.n	a6, a4, 28
100050fc:	20c442                                    	addi	a4, a4, 32
100050ff:	31a8                                    	l32i.n	a10, a1, 12

10005101 <ax_config_jesd_rx+0x3cd>:
10005101:	efcc31                                    	l32r	a3, 10001034 (670c1c0 <_memmap_mem_sram_end+0x64cc1c0>)
10005104:	040c                                    	movi.n	a4, 0
10005106:	6b3a                                    	add.n	a6, a11, a3
10005108:	050c                                    	movi.n	a5, 0
1000510a:	4171c0                                    	srli	a7, a12, 1
1000510d:	106c07                                    	bbci	a12, 0, 10005121 <ax_config_jesd_rx+0x3ed>
10005110:	843040                                    	extui	a3, a4, 0, 9
10005113:	1085d0                                    	and	a8, a5, a13
10005116:	338a                                    	add.n	a3, a3, a8
10005118:	0639                                    	s32i.n	a3, a6, 0
1000511a:	442a                                    	add.n	a4, a4, a2
1000511c:	02d552                                    	addmi	a5, a5, 0x200
1000511f:	664b                                    	addi.n	a6, a6, 4
10005121:	c42716                                    	beqz	a7, 10004d67 <ax_config_jesd_rx+0x33>
10005124:	0d3d                                    	mov.n	a3, a13
10005126:	1f9776                                    	loopnez	a7, 10005149 <ax_config_jesd_rx+0x415>
10005129:	842a                                    	add.n	a8, a4, a2
1000512b:	109530                                    	and	a9, a5, a3
1000512e:	847040                                    	extui	a7, a4, 0, 9
10005131:	482a                                    	add.n	a4, a8, a2
10005133:	779a                                    	add.n	a7, a7, a9
10005135:	849080                                    	extui	a9, a8, 0, 9
10005138:	02d582                                    	addmi	a8, a5, 0x200
1000513b:	02d852                                    	addmi	a5, a8, 0x200
1000513e:	108830                                    	and	a8, a8, a3
10005141:	898a                                    	add.n	a8, a9, a8
10005143:	0679                                    	s32i.n	a7, a6, 0
10005145:	1689                                    	s32i.n	a8, a6, 4
10005147:	668b                                    	addi.n	a6, a6, 8

10005149 <ax_config_jesd_rx+0x415>:
10005149:	03dd                                    	mov.n	a13, a3
1000514b:	ff0606                                    	j	10004d67 <ax_config_jesd_rx+0x33>

1000514e <ax_config_jesd_rx+0x41a>:
1000514e:	f01d                                    	retw.n

10005150 <main>:
10005150:	004136                                    	entry	a1, 32
10005153:	fde6e5                                    	call8	10002fc0 <core_fw_mismatch_check>
10005156:	ff1fa5                                    	call8	10004350 <com_shared_mem_wait_for_ready>
10005159:	00a0a2                                    	movi	a10, 0
1000515c:	00a0b2                                    	movi	a11, 0
1000515f:	ff1c25                                    	call8	10004320 <com_shared_mem_set_sys_status>
10005162:	0a0c                                    	movi.n	a10, 0
10005164:	00a0b2                                    	movi	a11, 0
10005167:	ff1da5                                    	call8	10004340 <com_shared_mem_set_cpu_loop_count>
1000516a:	1a0c                                    	movi.n	a10, 1
1000516c:	00a0b2                                    	movi	a11, 0
1000516f:	ff1b25                                    	call8	10004320 <com_shared_mem_set_sys_status>
10005172:	1a0c                                    	movi.n	a10, 1
10005174:	00a0b2                                    	movi	a11, 0
10005177:	ff1ca5                                    	call8	10004340 <com_shared_mem_set_cpu_loop_count>
1000517a:	2a0c                                    	movi.n	a10, 2
1000517c:	00a0b2                                    	movi	a11, 0
1000517f:	ff1a25                                    	call8	10004320 <com_shared_mem_set_sys_status>
10005182:	2a0c                                    	movi.n	a10, 2
10005184:	00a0b2                                    	movi	a11, 0
10005187:	ff1ba5                                    	call8	10004340 <com_shared_mem_set_cpu_loop_count>
1000518a:	3a0c                                    	movi.n	a10, 3
1000518c:	00a0b2                                    	movi	a11, 0
1000518f:	ff1925                                    	call8	10004320 <com_shared_mem_set_sys_status>
10005192:	3a0c                                    	movi.n	a10, 3
10005194:	00a0b2                                    	movi	a11, 0
10005197:	ff1aa5                                    	call8	10004340 <com_shared_mem_set_cpu_loop_count>
1000519a:	fdf565                                    	call8	100030f0 <dbg_n_trace>
1000519d:	03a0a2                                    	movi	a10, 3
100051a0:	ff1e25                                    	call8	10004384 <com_shared_mem_get_queue_block>
100051a3:	00bf65                                    	call8	10005d98 <com_queue_init>
100051a6:	0a0c                                    	movi.n	a10, 0
100051a8:	ff1da5                                    	call8	10004384 <com_shared_mem_get_queue_block>
100051ab:	00bee5                                    	call8	10005d98 <com_queue_init>
100051ae:	2a0c                                    	movi.n	a10, 2
100051b0:	ff1d25                                    	call8	10004384 <com_shared_mem_get_queue_block>
100051b3:	00be65                                    	call8	10005d98 <com_queue_init>
100051b6:	1a0c                                    	movi.n	a10, 1
100051b8:	ff1ca5                                    	call8	10004384 <com_shared_mem_get_queue_block>
100051bb:	00bde5                                    	call8	10005d98 <com_queue_init>
100051be:	0a0c                                    	movi.n	a10, 0
100051c0:	07a0b2                                    	movi	a11, 7
100051c3:	ff15e5                                    	call8	10004320 <com_shared_mem_set_sys_status>
100051c6:	fc6125                                    	call8	100017d8 <com_isr_init>
100051c9:	fdf965                                    	call8	10003160 <com_lock_init>
100051cc:	006f20                                    	rsil	a2, 15
100051cf:	0a0c                                    	movi.n	a10, 0
100051d1:	09a0b2                                    	movi	a11, 9
100051d4:	ff14a5                                    	call8	10004320 <com_shared_mem_set_sys_status>
100051d7:	ef9d21                                    	l32r	a2, 1000104c (26c00c <_memmap_mem_sram_end+0x2c00c>)
100051da:	031c                                    	movi.n	a3, 16
100051dc:	0a0c                                    	movi.n	a10, 0
100051de:	8b0c                                    	movi.n	a11, 8
100051e0:	0239                                    	s32i.n	a3, a2, 0
100051e2:	1239                                    	s32i.n	a3, a2, 4
100051e4:	026232                                    	s32i	a3, a2, 8
100051e7:	ff13a5                                    	call8	10004320 <com_shared_mem_set_sys_status>
100051ea:	0a0c                                    	movi.n	a10, 0
100051ec:	0ba0b2                                    	movi	a11, 11
100051ef:	ff1325                                    	call8	10004320 <com_shared_mem_set_sys_status>
100051f2:	fdf265                                    	call8	10003118 <com_boot_init>
100051f5:	ef96a1                                    	l32r	a10, 10001050 (10024c90 <admin_msg_irq_hdlr_map>)
100051f8:	05a0b2                                    	movi	a11, 5
100051fb:	ff0fa5                                    	call8	100042f4 <com_msg_init_mb_irq>
100051fe:	0a0c                                    	movi.n	a10, 0
10005200:	0fa0b2                                    	movi	a11, 15
10005203:	ff11e5                                    	call8	10004320 <com_shared_mem_set_sys_status>
10005206:	006020                                    	rsil	a2, 0
10005209:	0a0c                                    	movi.n	a10, 0
1000520b:	0aa0b2                                    	movi	a11, 10
1000520e:	ff1125                                    	call8	10004320 <com_shared_mem_set_sys_status>
10005211:	ee8d21                                    	l32r	a2, 10000c48 (10020000 <com_static_data_init>)
10005214:	e8a332                                    	movi	a3, 0x3e8
10005217:	002222                                    	l32i	a2, a2, 0
1000521a:	a44d20                                    	extui	a4, a2, 13, 11
1000521d:	75a820                                    	extui	a10, a2, 24, 8
10005220:	d1b430                                    	mul16s	a11, a4, a3
10005223:	fddde5                                    	call8	10003000 <core_sync_up>
10005226:	fed265                                    	call8	10003f4c <com_event_event_loop>
10005229:	0a0c                                    	movi.n	a10, 0
1000522b:	14a0b2                                    	movi	a11, 20
1000522e:	ff0f25                                    	call8	10004320 <com_shared_mem_set_sys_status>
10005231:	048176                                    	loop	a1, 10005239 <main+0xe9>

10005234 <main+0xe4>:
10005234:	007000                                    	waiti	0
10005237:	f03d                                    	nop.n

10005239 <main+0xe9>:
10005239:	fffdc6                                    	j	10005234 <main+0xe4>

1000523c <main+0xec>:
1000523c:	00000000                                ....

10005240 <ax_daco_get_addr>:
10005240:	004136                                    	entry	a1, 32
10005243:	ef8421                                    	l32r	a2, 10001054 (10024b58 <ax_daco>)
10005246:	f01d                                    	retw.n

10005248 <ax_daco_clear>:
10005248:	004136                                    	entry	a1, 32
1000524b:	040c                                    	movi.n	a4, 0
1000524d:	130c                                    	movi.n	a3, 1
1000524f:	fe7c                                    	movi.n	a14, -1
10005251:	ef81f1                                    	l32r	a15, 10001058 (afafafaf <_memmap_cacheattr_bp_allvalid+0x6b6b6b6b>)
10005254:	004232                                    	s8i	a3, a2, 0
10005257:	c249                                    	s32i.n	a4, a2, 48
10005259:	6249                                    	s32i.n	a4, a2, 24
1000525b:	1249                                    	s32i.n	a4, a2, 4
1000525d:	72e9                                    	s32i.n	a14, a2, 28
1000525f:	82e9                                    	s32i.n	a14, a2, 32
10005261:	92e9                                    	s32i.n	a14, a2, 36
10005263:	a2e9                                    	s32i.n	a14, a2, 40
10005265:	d2e9                                    	s32i.n	a14, a2, 52
10005267:	e2e9                                    	s32i.n	a14, a2, 56
10005269:	f2e9                                    	s32i.n	a14, a2, 60
1000526b:	1062e2                                    	s32i	a14, a2, 64
1000526e:	176242                                    	s32i	a4, a2, 92
10005271:	186242                                    	s32i	a4, a2, 96
10005274:	1962f2                                    	s32i	a15, a2, 100
10005277:	1a62f2                                    	s32i	a15, a2, 104
1000527a:	1b62f2                                    	s32i	a15, a2, 108
1000527d:	1c62f2                                    	s32i	a15, a2, 112
10005280:	116242                                    	s32i	a4, a2, 68
10005283:	126242                                    	s32i	a4, a2, 72
10005286:	1362f2                                    	s32i	a15, a2, 76
10005289:	1462f2                                    	s32i	a15, a2, 80
1000528c:	1562f2                                    	s32i	a15, a2, 84
1000528f:	1662f2                                    	s32i	a15, a2, 88
10005292:	f01d                                    	retw.n

10005294 <ax_daco_set_quad_antenna_mask>:
10005294:	004136                                    	entry	a1, 32
10005297:	0498                                    	l32i.n	a9, a4, 0
10005299:	150c                                    	movi.n	a5, 1
1000529b:	20f920                                    	or	a15, a9, a2
1000529e:	060c                                    	movi.n	a6, 0
100052a0:	f70c                                    	movi.n	a7, 15
100052a2:	380c                                    	movi.n	a8, 3
100052a4:	0c0c                                    	movi.n	a12, 0
100052a6:	948b                                    	addi.n	a9, a4, 8
100052a8:	04f9                                    	s32i.n	a15, a4, 0
100052aa:	0005c6                                    	j	100052c5 <ax_daco_set_quad_antenna_mask+0x31>

100052ad <ax_daco_set_quad_antenna_mask+0x19>:
100052ad:	a05a40                                    	addx4	a5, a10, a4
100052b0:	25c9                                    	s32i.n	a12, a5, 8
100052b2:	1458                                    	l32i.n	a5, a4, 4
100052b4:	551b                                    	addi.n	a5, a5, 1
100052b6:	016452                                    	s32i	a5, a4, 4
100052b9:	ac1b                                    	addi.n	a10, a12, 1
100052bb:	625c80                                    	saltu	a5, a12, a8
100052be:	664b                                    	addi.n	a6, a6, 4
100052c0:	0acd                                    	mov.n	a12, a10
100052c2:	234a26                                    	beqi	a10, 4, 100052e9 <ax_daco_set_quad_antenna_mask+0x55>
100052c5:	400600                                    	ssr	a6
100052c8:	91a020                                    	srl	a10, a2
100052cb:	ea07a7                                    	bnone	a7, a10, 100052b9 <ax_daco_set_quad_antenna_mask+0x25>
100052ce:	14a8                                    	l32i.n	a10, a4, 4
100052d0:	09bd                                    	mov.n	a11, a9
100052d2:	fd7a16                                    	beqz	a10, 100052ad <ax_daco_set_quad_antenna_mask+0x19>
100052d5:	068a76                                    	loop	a10, 100052df <ax_daco_set_quad_antenna_mask+0x4b>
100052d8:	0bd8                                    	l32i.n	a13, a11, 0
100052da:	bb4b                                    	addi.n	a11, a11, 4
100052dc:	021cd7                                    	beq	a12, a13, 100052e2 <ax_daco_set_quad_antenna_mask+0x4e>

100052df <ax_daco_set_quad_antenna_mask+0x4b>:
100052df:	fff286                                    	j	100052ad <ax_daco_set_quad_antenna_mask+0x19>

100052e2 <ax_daco_set_quad_antenna_mask+0x4e>:
100052e2:	0a5c                                    	movi.n	a10, 80
100052e4:	03bd                                    	mov.n	a11, a3
100052e6:	fd7965                                    	call8	10002a7c <com_send_rb_e_CONFIG_MSG_ERR>
100052e9:	120c                                    	movi.n	a2, 1
100052eb:	302250                                    	xor	a2, a2, a5
100052ee:	f01d                                    	retw.n

100052f0 <bfn_sync_handler>:
100052f0:	004136                                    	entry	a1, 32
100052f3:	1248                                    	l32i.n	a4, a2, 4
100052f5:	2238                                    	l32i.n	a3, a2, 8
100052f7:	032222                                    	l32i	a2, a2, 12
100052fa:	fff465                                    	call8	10005240 <ax_daco_get_addr>
100052fd:	ba58                                    	l32i.n	a5, a10, 44
100052ff:	5a68                                    	l32i.n	a6, a10, 20
10005301:	172a72                                    	l32i	a7, a10, 92
10005304:	112a82                                    	l32i	a8, a10, 68
10005307:	20a650                                    	or	a10, a6, a5
1000530a:	20b870                                    	or	a11, a8, a7
1000530d:	fcc4e5                                    	call8	10001f5c <com_bfn_set_ant_mask>
10005310:	03ad                                    	mov.n	a10, a3
10005312:	04bd                                    	mov.n	a11, a4
10005314:	05e207                                    	bbsi	a2, 0, 1000531d <bfn_sync_handler+0x2d>
10005317:	fce125                                    	call8	10002128 <com_bfn_sysref_sync>
1000531a:	f01d                                    	retw.n

1000531c <bfn_sync_handler+0x2c>:
	...

1000531d <bfn_sync_handler+0x2d>:
1000531d:	fce965                                    	call8	100021b4 <com_bfn_soft_sync>
10005320:	f01d                                    	retw.n

10005322 <bfn_sync_handler+0x32>:
	...

10005324 <warmup_handler>:
10005324:	00e136                                    	entry	a1, 112
10005327:	002252                                    	l32i	a5, a2, 0
1000532a:	022242                                    	l32i	a4, a2, 8
1000532d:	fff125                                    	call8	10005240 <ax_daco_get_addr>
10005330:	0a3d                                    	mov.n	a3, a10
10005332:	fccde5                                    	call8	10002010 <com_bfn_is_ant_mask_set>
10005335:	017a56                                    	bnez	a10, 10005350 <warmup_handler+0x2c>
10005338:	0b2362                                    	l32i	a6, a3, 44
1000533b:	052372                                    	l32i	a7, a3, 20
1000533e:	172382                                    	l32i	a8, a3, 92
10005341:	1123f2                                    	l32i	a15, a3, 68
10005344:	20a760                                    	or	a10, a7, a6
10005347:	20bf80                                    	or	a11, a15, a8
1000534a:	fcc125                                    	call8	10001f5c <com_bfn_set_ant_mask>
1000534d:	fcf5a5                                    	call8	100022a8 <com_bfn_self_sync>

10005350 <warmup_handler+0x2c>:
10005350:	416440                                    	srli	a6, a4, 4
10005353:	f70c                                    	movi.n	a7, 15
10005355:	0c0767                                    	bnone	a7, a6, 10005365 <warmup_handler+0x41>
10005358:	02ad                                    	mov.n	a10, a2
1000535a:	343060                                    	extui	a3, a6, 0, 4
1000535d:	ff3965                                    	call8	100046f4 <ax_tx_activate_handler>
10005360:	03ad                                    	mov.n	a10, a3
10005362:	ff4d65                                    	call8	10004838 <ax_jesd_rx_enable>
10005365:	0b0747                                    	bnone	a7, a4, 10005374 <warmup_handler+0x50>
10005368:	34a040                                    	extui	a10, a4, 0, 4
1000536b:	ff4865                                    	call8	100047f0 <ax_jesd_tx_enable>
1000536e:	20a220                                    	or	a10, a2, a2
10005371:	ff15e5                                    	call8	100044d0 <ax_rx_activate_handler>
10005374:	647567                                    	bbci	a5, 22, 100053dc <warmup_handler+0xb8>
10005377:	820c                                    	movi.n	a2, 8
10005379:	430c                                    	movi.n	a3, 4
1000537b:	250c                                    	movi.n	a5, 2
1000537d:	102420                                    	and	a2, a4, a2
10005380:	103430                                    	and	a3, a4, a3
10005383:	105450                                    	and	a5, a4, a5
10005386:	047040                                    	extui	a7, a4, 0, 1
10005389:	046060                                    	extui	a6, a6, 0, 1
1000538c:	0122b0                                    	slli	a2, a2, 21
1000538f:	113320                                    	slli	a3, a3, 14
10005392:	115590                                    	slli	a5, a5, 7
10005395:	fd71a5                                    	call8	10002ab0 <com_timing_get_current_bfn_time>
10005398:	80a0c2                                    	movi	a12, 128
1000539b:	092c                                    	movi.n	a9, 32
1000539d:	0b4c                                    	movi.n	a11, 64
1000539f:	575a                                    	add.n	a5, a7, a5
100053a1:	232a                                    	add.n	a2, a3, a2
100053a3:	103490                                    	and	a3, a4, a9
100053a6:	1074b0                                    	and	a7, a4, a11
100053a9:	10d4c0                                    	and	a13, a4, a12
100053ac:	1133d0                                    	slli	a3, a3, 3
100053af:	11f760                                    	slli	a15, a7, 10
100053b2:	014df0                                    	slli	a4, a13, 17
100053b5:	ee6c                                    	movi.n	a14, -18
100053b7:	363a                                    	add.n	a3, a6, a3
100053b9:	4f4a                                    	add.n	a4, a15, a4
100053bb:	252a                                    	add.n	a2, a5, a2
100053bd:	f450e0                                    	extui	a5, a14, 0, 16
100053c0:	51a9                                    	s32i.n	a10, a1, 20
100053c2:	080c                                    	movi.n	a8, 0
100053c4:	334a                                    	add.n	a3, a3, a4
100053c6:	10c1a2                                    	addi	a10, a1, 16
100053c9:	8b0c                                    	movi.n	a11, 8
100053cb:	4159                                    	s32i.n	a5, a1, 16
100053cd:	b189                                    	s32i.n	a8, a1, 44
100053cf:	a189                                    	s32i.n	a8, a1, 40
100053d1:	9189                                    	s32i.n	a8, a1, 36
100053d3:	8189                                    	s32i.n	a8, a1, 32
100053d5:	6129                                    	s32i.n	a2, a1, 24
100053d7:	7139                                    	s32i.n	a3, a1, 28
100053d9:	fee9a5                                    	call8	10004274 <com_msg_send_readback>
100053dc:	f01d                                    	retw.n

100053de <warmup_handler+0xba>:
	...

100053e0 <cal_config_handler>:
100053e0:	004136                                    	entry	a1, 32
100053e3:	f01d                                    	retw.n

100053e5 <cal_config_handler+0x5>:
100053e5:	000000                                        ...

100053e8 <reconfig_handler>:
100053e8:	004136                                    	entry	a1, 32
100053eb:	f01d                                    	retw.n

100053ed <reconfig_handler+0x5>:
100053ed:	000000                                        ...

100053f0 <sleep_control_handler>:
100053f0:	004136                                    	entry	a1, 32
100053f3:	f01d                                    	retw.n

100053f5 <sleep_control_handler+0x5>:
100053f5:	000000                                        ...

100053f8 <shutdown_handler>:
100053f8:	004136                                    	entry	a1, 32
100053fb:	00a0a2                                    	movi	a10, 0
100053fe:	fd8725                                    	call8	10002c70 <com_fsm_quad_init>
10005401:	1a0c                                    	movi.n	a10, 1
10005403:	fd86e5                                    	call8	10002c70 <com_fsm_quad_init>
10005406:	0a0c                                    	movi.n	a10, 0
10005408:	02a0b2                                    	movi	a11, 2
1000540b:	fd8c25                                    	call8	10002ccc <com_fsm_update_status>
1000540e:	1a0c                                    	movi.n	a10, 1
10005410:	2b0c                                    	movi.n	a11, 2
10005412:	fd8ba5                                    	call8	10002ccc <com_fsm_update_status>
10005415:	fce665                                    	call8	1000227c <com_bfn_shutdown>
10005418:	ffe265                                    	call8	10005240 <ax_daco_get_addr>
1000541b:	ffe2e5                                    	call8	10005248 <ax_daco_clear>
1000541e:	f01d                                    	retw.n

10005420 <admin_set_time_ref_handler>:
10005420:	004136                                    	entry	a1, 32
10005423:	0228                                    	l32i.n	a2, a2, 0
10005425:	fd68a5                                    	call8	10002ab0 <com_timing_get_current_bfn_time>
10005428:	0abd                                    	mov.n	a11, a10
1000542a:	35a220                                    	extui	a10, a2, 18, 4
1000542d:	fecc65                                    	call8	100040f4 <com_msg_ref_timestamp_set>
10005430:	f01d                                    	retw.n

10005432 <admin_set_time_ref_handler+0x12>:
	...

10005434 <admin_queue_msg_handler_irq>:
10005434:	00e136                                    	entry	a1, 112
10005437:	4a0c                                    	movi.n	a10, 4
10005439:	fc3765                                    	call8	100017b0 <com_mb_isr_clear>
1000543c:	020c                                    	movi.n	a2, 0
1000543e:	0a0c                                    	movi.n	a10, 0
10005440:	3129                                    	s32i.n	a2, a1, 12
10005442:	fef425                                    	call8	10004384 <com_shared_mem_get_queue_block>
10005445:	10c1b2                                    	addi	a11, a1, 16
10005448:	c1cb                                    	addi.n	a12, a1, 12
1000544a:	202aa0                                    	or	a2, a10, a10
1000544d:	00a025                                    	call8	10005e50 <com_queue_read>
10005450:	1f2a26                                    	beqi	a10, 2, 10005473 <admin_queue_msg_handler_irq+0x3f>
10005453:	ef0231                                    	l32r	a3, 1000105c (10024bd0 <admin_hdlr_lut>)
10005456:	10c142                                    	addi	a4, a1, 16
10005459:	0cc152                                    	addi	a5, a1, 12

1000545c <admin_queue_msg_handler_irq+0x28>:
1000545c:	0c0c                                    	movi.n	a12, 0
1000545e:	04ad                                    	mov.n	a10, a4
10005460:	20b330                                    	or	a11, a3, a3
10005463:	fed1e5                                    	call8	10004180 <com_msg_schedule_macro>
10005466:	02ad                                    	mov.n	a10, a2
10005468:	04bd                                    	mov.n	a11, a4
1000546a:	20c550                                    	or	a12, a5, a5
1000546d:	009e25                                    	call8	10005e50 <com_queue_read>
10005470:	e82a66                                    	bnei	a10, 2, 1000545c <admin_queue_msg_handler_irq+0x28>
10005473:	f01d                                    	retw.n

10005475 <admin_queue_msg_handler_irq+0x41>:
	...

10005480 <ax_clk_rst_init>:
10005480:	006136                                    	entry	a1, 48
10005483:	eef731                                    	l32r	a3, 10001060 (10025e14 <g_rst_jesd_mask>)
10005486:	eef771                                    	l32r	a7, 10001064 (1e10008 <_memmap_mem_sram_end+0x1bd0008>)
10005489:	041342                                    	l16ui	a4, a3, 8
1000548c:	08b456                                    	bnez	a4, 1000551b <ax_clk_rst_init+0x9b>
1000548f:	1258                                    	l32i.n	a5, a2, 4
10005491:	0768                                    	l32i.n	a6, a7, 0
10005493:	2169                                    	s32i.n	a6, a1, 8
10005495:	074d                                    	mov.n	a4, a7
10005497:	121566                                    	bnei	a5, 1, 100054ad <ax_clk_rst_init+0x2d>
1000549a:	2268                                    	l32i.n	a6, a2, 8
1000549c:	2178                                    	l32i.n	a7, a1, 8
1000549e:	f3af82                                    	movi	a8, -13
100054a1:	146060                                    	extui	a6, a6, 0, 2
100054a4:	107780                                    	and	a7, a7, a8
100054a7:	a06670                                    	addx4	a6, a6, a7
100054aa:	026162                                    	s32i	a6, a1, 8

100054ad <ax_clk_rst_init+0x2d>:
100054ad:	0268                                    	l32i.n	a6, a2, 0
100054af:	2178                                    	l32i.n	a7, a1, 8
100054b1:	dfaf82                                    	movi	a8, -33
100054b4:	046060                                    	extui	a6, a6, 0, 1
100054b7:	11b6b0                                    	slli	a11, a6, 5
100054ba:	107780                                    	and	a7, a7, a8
100054bd:	77ba                                    	add.n	a7, a7, a11
100054bf:	2179                                    	s32i.n	a7, a1, 8
100054c1:	2178                                    	l32i.n	a7, a1, 8
100054c3:	bfafc2                                    	movi	a12, -65
100054c6:	1166a0                                    	slli	a6, a6, 6
100054c9:	1077c0                                    	and	a7, a7, a12
100054cc:	676a                                    	add.n	a6, a7, a6
100054ce:	2169                                    	s32i.n	a6, a1, 8
100054d0:	2168                                    	l32i.n	a6, a1, 8
100054d2:	045050                                    	extui	a5, a5, 0, 1
100054d5:	7fafd2                                    	movi	a13, -129
100054d8:	115590                                    	slli	a5, a5, 7
100054db:	1066d0                                    	and	a6, a6, a13
100054de:	565a                                    	add.n	a5, a6, a5
100054e0:	2159                                    	s32i.n	a5, a1, 8
100054e2:	3258                                    	l32i.n	a5, a2, 12
100054e4:	21e8                                    	l32i.n	a14, a1, 8
100054e6:	045050                                    	extui	a5, a5, 0, 1
100054e9:	ff6c                                    	movi.n	a15, -17
100054eb:	106ef0                                    	and	a6, a14, a15
100054ee:	1155c0                                    	slli	a5, a5, 4
100054f1:	565a                                    	add.n	a5, a6, a5
100054f3:	2159                                    	s32i.n	a5, a1, 8
100054f5:	2158                                    	l32i.n	a5, a1, 8
100054f7:	0459                                    	s32i.n	a5, a4, 0
100054f9:	0020c0                                    	memw
100054fc:	3fa152                                    	movi	a5, 0x13f
100054ff:	eeda41                                    	l32r	a4, 10001068 (1e10010 <_memmap_mem_sram_end+0x1bd0010>)
10005502:	115560                                    	slli	a5, a5, 10
10005505:	0459                                    	s32i.n	a5, a4, 0
10005507:	0020c0                                    	memw
1000550a:	eed841                                    	l32r	a4, 1000106c (1b03004 <_memmap_mem_sram_end+0x18c3004>)
1000550d:	eed961                                    	l32r	a6, 10001074 (1b04004 <_memmap_mem_sram_end+0x18c4004>)
10005510:	eed851                                    	l32r	a5, 10001070 (31f3fff <_memmap_mem_sram_end+0x2fb3fff>)
10005513:	0459                                    	s32i.n	a5, a4, 0
10005515:	006652                                    	s32i	a5, a6, 0
10005518:	0020c0                                    	memw
1000551b:	140242                                    	l8ui	a4, a2, 20
1000551e:	081252                                    	l16ui	a5, a2, 16
10005521:	084416                                    	beqz	a4, 100055a9 <ax_clk_rst_init+0x129>
10005524:	054d                                    	mov.n	a4, a5
10005526:	07f516                                    	beqz	a5, 100055a9 <ax_clk_rst_init+0x129>
10005529:	000352                                    	l8ui	a5, a3, 0
1000552c:	0fa062                                    	movi	a6, 15
1000552f:	761567                                    	beq	a5, a6, 100055a9 <ax_clk_rst_init+0x129>
10005532:	304540                                    	xor	a4, a5, a4
10005535:	026407                                    	bbci	a4, 0, 1000553b <ax_clk_rst_init+0xbb>
10005538:	004206                                    	j	10005644 <ax_clk_rst_init+0x1c4>
1000553b:	026417                                    	bbci	a4, 1, 10005541 <ax_clk_rst_init+0xc1>
1000553e:	0043c6                                    	j	10005651 <ax_clk_rst_init+0x1d1>
10005541:	076427                                    	bbci	a4, 2, 1000554c <ax_clk_rst_init+0xcc>
10005544:	eece51                                    	l32r	a5, 1000107c (1b0106c <_memmap_mem_sram_end+0x18c106c>)
10005547:	060c                                    	movi.n	a6, 0
10005549:	006562                                    	s32i	a6, a5, 0
1000554c:	260c                                    	movi.n	a6, 2
1000554e:	045040                                    	extui	a5, a4, 0, 1
10005551:	076437                                    	bbci	a4, 3, 1000555c <ax_clk_rst_init+0xdc>
10005554:	eecb71                                    	l32r	a7, 10001080 (1b0107c <_memmap_mem_sram_end+0x18c107c>)
10005557:	080c                                    	movi.n	a8, 0
10005559:	006782                                    	s32i	a8, a7, 0
1000555c:	470c                                    	movi.n	a7, 4
1000555e:	106460                                    	and	a6, a4, a6
10005561:	0020c0                                    	memw
10005564:	658c                                    	beqz.n	a5, 1000556e <ax_clk_rst_init+0xee>
10005566:	eec781                                    	l32r	a8, 10001084 (1b01050 <_memmap_mem_sram_end+0x18c1050>)
10005569:	7fa092                                    	movi	a9, 127
1000556c:	0899                                    	s32i.n	a9, a8, 0
1000556e:	880c                                    	movi.n	a8, 8
10005570:	107470                                    	and	a7, a4, a7
10005573:	0eb656                                    	bnez	a6, 10005662 <ax_clk_rst_init+0x1e2>
10005576:	104480                                    	and	a4, a4, a8
10005579:	0f3756                                    	bnez	a7, 10005670 <ax_clk_rst_init+0x1f0>
1000557c:	0fb456                                    	bnez	a4, 1000567b <ax_clk_rst_init+0x1fb>
1000557f:	0020c0                                    	memw
10005582:	103556                                    	bnez	a5, 10005689 <ax_clk_rst_init+0x209>
10005585:	10f656                                    	bnez	a6, 10005698 <ax_clk_rst_init+0x218>
10005588:	11b756                                    	bnez	a7, 100056a7 <ax_clk_rst_init+0x227>
1000558b:	b48c                                    	beqz.n	a4, 1000559a <ax_clk_rst_init+0x11a>
1000558d:	eec441                                    	l32r	a4, 100010a0 (1b01084 <_memmap_mem_sram_end+0x18c1084>)
10005590:	350c                                    	movi.n	a5, 3
10005592:	f3a062                                    	movi	a6, 243
10005595:	0459                                    	s32i.n	a5, a4, 0
10005597:	016462                                    	s32i	a6, a4, 4
1000559a:	100242                                    	l8ui	a4, a2, 16
1000559d:	000352                                    	l8ui	a5, a3, 0
100055a0:	204540                                    	or	a4, a5, a4
100055a3:	004342                                    	s8i	a4, a3, 0
100055a6:	0020c0                                    	memw
100055a9:	041342                                    	l16ui	a4, a3, 8
100055ac:	eebe51                                    	l32r	a5, 100010a4 (2408094 <_memmap_mem_sram_end+0x21c8094>)
100055af:	d4dc                                    	bnez.n	a4, 100055d0 <ax_clk_rst_init+0x150>
100055b1:	040c                                    	movi.n	a4, 0
100055b3:	3149                                    	s32i.n	a4, a1, 12
100055b5:	0549                                    	s32i.n	a4, a5, 0
100055b7:	1549                                    	s32i.n	a4, a5, 4
100055b9:	0020c0                                    	memw
100055bc:	eebb41                                    	l32r	a4, 100010a8 (2408090 <_memmap_mem_sram_end+0x21c8090>)
100055bf:	550c                                    	movi.n	a5, 5
100055c1:	088576                                    	loop	a5, 100055cd <ax_clk_rst_init+0x14d>
100055c4:	0458                                    	l32i.n	a5, a4, 0
100055c6:	3159                                    	s32i.n	a5, a1, 12
100055c8:	3158                                    	l32i.n	a5, a1, 12
100055ca:	ffe507                                    	bbsi	a5, 0, 100055cd <ax_clk_rst_init+0x14d>

100055cd <ax_clk_rst_init+0x14d>:
100055cd:	0020c0                                    	memw

100055d0 <ax_clk_rst_init+0x150>:
100055d0:	150242                                    	l8ui	a4, a2, 21
100055d3:	091222                                    	l16ui	a2, a2, 18
100055d6:	05f416                                    	beqz	a4, 10005639 <ax_clk_rst_init+0x1b9>
100055d9:	05c216                                    	beqz	a2, 10005639 <ax_clk_rst_init+0x1b9>
100055dc:	040342                                    	l8ui	a4, a3, 4
100055df:	ffa052                                    	movi	a5, 255
100055e2:	531457                                    	beq	a4, a5, 10005639 <ax_clk_rst_init+0x1b9>
100055e5:	060c                                    	movi.n	a6, 0
100055e7:	170c                                    	movi.n	a7, 1
100055e9:	045d                                    	mov.n	a5, a4
100055eb:	028d                                    	mov.n	a8, a2
100055ed:	188176                                    	loop	a1, 10005609 <ax_clk_rst_init+0x189>
100055f0:	089d                                    	mov.n	a9, a8
100055f2:	401600                                    	ssl	a6
100055f5:	a1f700                                    	sll	a15, a7
100055f8:	14a080                                    	extui	a10, a8, 0, 2
100055fb:	93afa0                                    	movnez	a10, a15, a10
100055fe:	661b                                    	addi.n	a6, a6, 1
10005600:	418280                                    	srli	a8, a8, 2
10005603:	205a50                                    	or	a5, a10, a5
10005606:	0249b6                                    	bltui	a9, 4, 1000560c <ax_clk_rst_init+0x18c>

10005609 <ax_clk_rst_init+0x189>:
10005609:	fff8c6                                    	j	100055f0 <ax_clk_rst_init+0x170>

1000560c <ax_clk_rst_init+0x18c>:
1000560c:	206540                                    	or	a6, a5, a4
1000560f:	747050                                    	extui	a7, a5, 0, 8
10005612:	044362                                    	s8i	a6, a3, 4
10005615:	201747                                    	beq	a7, a4, 10005639 <ax_clk_rst_init+0x1b9>
10005618:	306540                                    	xor	a6, a5, a4
1000561b:	eea441                                    	l32r	a4, 100010ac (100245b0 <gp_v2d_bfn_csr>)
1000561e:	f0a352                                    	movi	a5, 0x3f0
10005621:	118176                                    	loop	a1, 10005636 <ax_clk_rst_init+0x1b6>
10005624:	036607                                    	bbci	a6, 0, 1000562b <ax_clk_rst_init+0x1ab>
10005627:	0478                                    	l32i.n	a7, a4, 0
10005629:	2759                                    	s32i.n	a5, a7, 8
1000562b:	747060                                    	extui	a7, a6, 0, 8
1000562e:	444b                                    	addi.n	a4, a4, 4
10005630:	416170                                    	srli	a6, a7, 1
10005633:	0227b6                                    	bltui	a7, 2, 10005639 <ax_clk_rst_init+0x1b9>

10005636 <ax_clk_rst_init+0x1b6>:
10005636:	fffa86                                    	j	10005624 <ax_clk_rst_init+0x1a4>

10005639 <ax_clk_rst_init+0x1b9>:
10005639:	049342                                    	l16si	a4, a3, 8
1000563c:	202420                                    	or	a2, a4, a2
1000563f:	045322                                    	s16i	a2, a3, 8
10005642:	f01d                                    	retw.n

10005644 <ax_clk_rst_init+0x1c4>:
10005644:	ee3451                                    	l32r	a5, 10000f14 (1b0104c <_memmap_mem_sram_end+0x18c104c>)
10005647:	060c                                    	movi.n	a6, 0
10005649:	0569                                    	s32i.n	a6, a5, 0
1000564b:	02e417                                    	bbsi	a4, 1, 10005651 <ax_clk_rst_init+0x1d1>
1000564e:	ffbbc6                                    	j	10005541 <ax_clk_rst_init+0xc1>
10005651:	ee8951                                    	l32r	a5, 10001078 (1b0105c <_memmap_mem_sram_end+0x18c105c>)
10005654:	060c                                    	movi.n	a6, 0
10005656:	0569                                    	s32i.n	a6, a5, 0
10005658:	026427                                    	bbci	a4, 2, 1000565e <ax_clk_rst_init+0x1de>
1000565b:	ffb946                                    	j	10005544 <ax_clk_rst_init+0xc4>
1000565e:	ffba86                                    	j	1000554c <ax_clk_rst_init+0xcc>

10005661 <ax_clk_rst_init+0x1e1>:
	...

10005662 <ax_clk_rst_init+0x1e2>:
10005662:	ee8991                                    	l32r	a9, 10001088 (1b01060 <_memmap_mem_sram_end+0x18c1060>)
10005665:	7fa0a2                                    	movi	a10, 127
10005668:	09a9                                    	s32i.n	a10, a9, 0
1000566a:	104480                                    	and	a4, a4, a8
1000566d:	f0b716                                    	beqz	a7, 1000557c <ax_clk_rst_init+0xfc>
10005670:	ee8781                                    	l32r	a8, 1000108c (1b01070 <_memmap_mem_sram_end+0x18c1070>)
10005673:	7fa092                                    	movi	a9, 127
10005676:	0899                                    	s32i.n	a9, a8, 0
10005678:	f03416                                    	beqz	a4, 1000557f <ax_clk_rst_init+0xff>
1000567b:	ee8581                                    	l32r	a8, 10001090 (1b01080 <_memmap_mem_sram_end+0x18c1080>)
1000567e:	7fa092                                    	movi	a9, 127
10005681:	0899                                    	s32i.n	a9, a8, 0
10005683:	0020c0                                    	memw
10005686:	efb516                                    	beqz	a5, 10005585 <ax_clk_rst_init+0x105>
10005689:	ee8251                                    	l32r	a5, 10001094 (1b01054 <_memmap_mem_sram_end+0x18c1054>)
1000568c:	380c                                    	movi.n	a8, 3
1000568e:	f3a092                                    	movi	a9, 243
10005691:	0589                                    	s32i.n	a8, a5, 0
10005693:	1599                                    	s32i.n	a9, a5, 4
10005695:	eef616                                    	beqz	a6, 10005588 <ax_clk_rst_init+0x108>
10005698:	ee8051                                    	l32r	a5, 10001098 (1b01064 <_memmap_mem_sram_end+0x18c1064>)
1000569b:	360c                                    	movi.n	a6, 3
1000569d:	f3a082                                    	movi	a8, 243
100056a0:	0569                                    	s32i.n	a6, a5, 0
100056a2:	1589                                    	s32i.n	a8, a5, 4
100056a4:	ee3716                                    	beqz	a7, 1000558b <ax_clk_rst_init+0x10b>
100056a7:	ee7d51                                    	l32r	a5, 1000109c (1b01074 <_memmap_mem_sram_end+0x18c1074>)
100056aa:	360c                                    	movi.n	a6, 3
100056ac:	f3a072                                    	movi	a7, 243
100056af:	0569                                    	s32i.n	a6, a5, 0
100056b1:	1579                                    	s32i.n	a7, a5, 4
100056b3:	ed6456                                    	bnez	a4, 1000558d <ax_clk_rst_init+0x10d>
100056b6:	ffb806                                    	j	1000559a <ax_clk_rst_init+0x11a>

100056b9 <ax_clk_rst_init+0x239>:
100056b9:	000000                                        ...

100056bc <ax_clk_rst_shutdown>:
100056bc:	006136                                    	entry	a1, 48
100056bf:	ee6821                                    	l32r	a2, 10001060 (10025e14 <g_rst_jesd_mask>)
100056c2:	ee7a31                                    	l32r	a3, 100010ac (100245b0 <gp_v2d_bfn_csr>)
100056c5:	040252                                    	l8ui	a5, a2, 4
100056c8:	00a042                                    	movi	a4, 0
100056cb:	759c                                    	beqz.n	a5, 100056e6 <ax_clk_rst_shutdown+0x2a>
100056cd:	108176                                    	loop	a1, 100056e1 <ax_clk_rst_shutdown+0x25>

100056d0 <ax_clk_rst_shutdown+0x14>:
100056d0:	056d                                    	mov.n	a6, a5
100056d2:	036507                                    	bbci	a5, 0, 100056d9 <ax_clk_rst_shutdown+0x1d>
100056d5:	0358                                    	l32i.n	a5, a3, 0
100056d7:	2549                                    	s32i.n	a4, a5, 8
100056d9:	415160                                    	srli	a5, a6, 1
100056dc:	334b                                    	addi.n	a3, a3, 4
100056de:	0426b6                                    	bltui	a6, 2, 100056e6 <ax_clk_rst_shutdown+0x2a>

100056e1 <ax_clk_rst_shutdown+0x25>:
100056e1:	fffac6                                    	j	100056d0 <ax_clk_rst_shutdown+0x14>

100056e4 <ax_clk_rst_shutdown+0x28>:
	...

100056e6 <ax_clk_rst_shutdown+0x2a>:
100056e6:	ee72f1                                    	l32r	a15, 100010b0 (2408098 <_memmap_mem_sram_end+0x21c8098>)
100056e9:	ee6e61                                    	l32r	a6, 100010a4 (2408094 <_memmap_mem_sram_end+0x21c8094>)
100056ec:	030c                                    	movi.n	a3, 0
100056ee:	150c                                    	movi.n	a5, 1
100056f0:	3139                                    	s32i.n	a3, a1, 12
100056f2:	006f52                                    	s32i	a5, a15, 0
100056f5:	006652                                    	s32i	a5, a6, 0
100056f8:	000242                                    	l8ui	a4, a2, 0
100056fb:	ee6651                                    	l32r	a5, 10001094 (1b01054 <_memmap_mem_sram_end+0x18c1054>)
100056fe:	063416                                    	beqz	a4, 10005765 <ax_clk_rst_shutdown+0xa9>
10005701:	026407                                    	bbci	a4, 0, 10005707 <ax_clk_rst_shutdown+0x4b>
10005704:	001fc6                                    	j	10005787 <ax_clk_rst_shutdown+0xcb>
10005707:	026417                                    	bbci	a4, 1, 1000570d <ax_clk_rst_shutdown+0x51>
1000570a:	002146                                    	j	10005793 <ax_clk_rst_shutdown+0xd7>
1000570d:	096427                                    	bbci	a4, 2, 1000571a <ax_clk_rst_shutdown+0x5e>
10005710:	ee6351                                    	l32r	a5, 1000109c (1b01074 <_memmap_mem_sram_end+0x18c1074>)
10005713:	060c                                    	movi.n	a6, 0
10005715:	0569                                    	s32i.n	a6, a5, 0
10005717:	016562                                    	s32i	a6, a5, 4
1000571a:	260c                                    	movi.n	a6, 2
1000571c:	045040                                    	extui	a5, a4, 0, 1
1000571f:	086437                                    	bbci	a4, 3, 1000572b <ax_clk_rst_shutdown+0x6f>
10005722:	ee5f71                                    	l32r	a7, 100010a0 (1b01084 <_memmap_mem_sram_end+0x18c1084>)
10005725:	080c                                    	movi.n	a8, 0
10005727:	0789                                    	s32i.n	a8, a7, 0
10005729:	1789                                    	s32i.n	a8, a7, 4
1000572b:	470c                                    	movi.n	a7, 4
1000572d:	106460                                    	and	a6, a4, a6
10005730:	558c                                    	beqz.n	a5, 10005739 <ax_clk_rst_shutdown+0x7d>
10005732:	ee5481                                    	l32r	a8, 10001084 (1b01050 <_memmap_mem_sram_end+0x18c1050>)
10005735:	090c                                    	movi.n	a9, 0
10005737:	0899                                    	s32i.n	a9, a8, 0
10005739:	880c                                    	movi.n	a8, 8
1000573b:	107470                                    	and	a7, a4, a7
1000573e:	063656                                    	bnez	a6, 100057a5 <ax_clk_rst_shutdown+0xe9>
10005741:	104480                                    	and	a4, a4, a8
10005744:	06a756                                    	bnez	a7, 100057b2 <ax_clk_rst_shutdown+0xf6>
10005747:	548c                                    	beqz.n	a4, 10005750 <ax_clk_rst_shutdown+0x94>
10005749:	ee5181                                    	l32r	a8, 10001090 (1b01080 <_memmap_mem_sram_end+0x18c1080>)
1000574c:	090c                                    	movi.n	a9, 0
1000574e:	0899                                    	s32i.n	a9, a8, 0
10005750:	f87c                                    	movi.n	a8, -1
10005752:	418480                                    	srli	a8, a8, 4
10005755:	067556                                    	bnez	a5, 100057c0 <ax_clk_rst_shutdown+0x104>
10005758:	06c656                                    	bnez	a6, 100057c8 <ax_clk_rst_shutdown+0x10c>
1000575b:	071756                                    	bnez	a7, 100057d0 <ax_clk_rst_shutdown+0x114>
1000575e:	348c                                    	beqz.n	a4, 10005765 <ax_clk_rst_shutdown+0xa9>
10005760:	ee4841                                    	l32r	a4, 10001080 (1b0107c <_memmap_mem_sram_end+0x18c107c>)
10005763:	0489                                    	s32i.n	a8, a4, 0
10005765:	ee4141                                    	l32r	a4, 1000106c (1b03004 <_memmap_mem_sram_end+0x18c3004>)
10005768:	ee4351                                    	l32r	a5, 10001074 (1b04004 <_memmap_mem_sram_end+0x18c4004>)
1000576b:	ee3f61                                    	l32r	a6, 10001068 (1e10010 <_memmap_mem_sram_end+0x1bd0010>)
1000576e:	ee3de1                                    	l32r	a14, 10001064 (1e10008 <_memmap_mem_sram_end+0x1bd0008>)
10005771:	01a1f2                                    	movi	a15, 0x101
10005774:	0439                                    	s32i.n	a3, a4, 0
10005776:	0539                                    	s32i.n	a3, a5, 0
10005778:	0639                                    	s32i.n	a3, a6, 0
1000577a:	0ef9                                    	s32i.n	a15, a14, 0
1000577c:	044232                                    	s8i	a3, a2, 4
1000577f:	004232                                    	s8i	a3, a2, 0
10005782:	045232                                    	s16i	a3, a2, 8
10005785:	f01d                                    	retw.n

10005787 <ax_clk_rst_shutdown+0xcb>:
10005787:	060c                                    	movi.n	a6, 0
10005789:	0569                                    	s32i.n	a6, a5, 0
1000578b:	1569                                    	s32i.n	a6, a5, 4
1000578d:	02e417                                    	bbsi	a4, 1, 10005793 <ax_clk_rst_shutdown+0xd7>
10005790:	ffde46                                    	j	1000570d <ax_clk_rst_shutdown+0x51>
10005793:	ee4151                                    	l32r	a5, 10001098 (1b01064 <_memmap_mem_sram_end+0x18c1064>)
10005796:	060c                                    	movi.n	a6, 0
10005798:	0569                                    	s32i.n	a6, a5, 0
1000579a:	1569                                    	s32i.n	a6, a5, 4
1000579c:	026427                                    	bbci	a4, 2, 100057a2 <ax_clk_rst_shutdown+0xe6>
1000579f:	ffdb46                                    	j	10005710 <ax_clk_rst_shutdown+0x54>
100057a2:	ffdd06                                    	j	1000571a <ax_clk_rst_shutdown+0x5e>

100057a5 <ax_clk_rst_shutdown+0xe9>:
100057a5:	ee3891                                    	l32r	a9, 10001088 (1b01060 <_memmap_mem_sram_end+0x18c1060>)
100057a8:	0a0c                                    	movi.n	a10, 0
100057aa:	09a9                                    	s32i.n	a10, a9, 0
100057ac:	104480                                    	and	a4, a4, a8
100057af:	f94716                                    	beqz	a7, 10005747 <ax_clk_rst_shutdown+0x8b>
100057b2:	ee3681                                    	l32r	a8, 1000108c (1b01070 <_memmap_mem_sram_end+0x18c1070>)
100057b5:	090c                                    	movi.n	a9, 0
100057b7:	0899                                    	s32i.n	a9, a8, 0
100057b9:	f8c456                                    	bnez	a4, 10005749 <ax_clk_rst_shutdown+0x8d>
100057bc:	ffe406                                    	j	10005750 <ax_clk_rst_shutdown+0x94>

100057bf <ax_clk_rst_shutdown+0x103>:
	...

100057c0 <ax_clk_rst_shutdown+0x104>:
100057c0:	edd551                                    	l32r	a5, 10000f14 (1b0104c <_memmap_mem_sram_end+0x18c104c>)
100057c3:	0589                                    	s32i.n	a8, a5, 0
100057c5:	f92616                                    	beqz	a6, 1000575b <ax_clk_rst_shutdown+0x9f>
100057c8:	ee2c51                                    	l32r	a5, 10001078 (1b0105c <_memmap_mem_sram_end+0x18c105c>)
100057cb:	0589                                    	s32i.n	a8, a5, 0
100057cd:	f8d716                                    	beqz	a7, 1000575e <ax_clk_rst_shutdown+0xa2>
100057d0:	ee2b51                                    	l32r	a5, 1000107c (1b0106c <_memmap_mem_sram_end+0x18c106c>)
100057d3:	0589                                    	s32i.n	a8, a5, 0
100057d5:	f87456                                    	bnez	a4, 10005760 <ax_clk_rst_shutdown+0xa4>
100057d8:	ffe246                                    	j	10005765 <ax_clk_rst_shutdown+0xa9>

100057db <ax_clk_rst_shutdown+0x11f>:
	...

100057dc <xtos_unhandled_interrupt>:
100057dc:	1003f000 c0de5afe                       .....Z..

100057e4 <__reset_hook>:
100057e4:	ee3421                                    	l32r	a2, 100010b4 (100057dc <xtos_unhandled_interrupt>)
100057e7:	ed1231                                    	l32r	a3, 10000c30 (10040000 <__stack>)
100057ea:	fcc332                                    	addi	a3, a3, -4
100057ed:	1248                                    	l32i.n	a4, a2, 4
100057ef:	0228                                    	l32i.n	a2, a2, 0

100057f1 <__reset_hook+0xd>:
100057f1:	0349                                    	s32i.n	a4, a3, 0
100057f3:	fcc332                                    	addi	a3, a3, -4
100057f6:	f7b327                                    	bgeu	a3, a2, 100057f1 <__reset_hook+0xd>
100057f9:	f00d                                    	ret.n

100057fb <__reset_hook+0x17>:
	...

100057fc <xtos_interrupt_enable>:
100057fc:	004136                                    	entry	a1, 32
100057ff:	023d                                    	mov.n	a3, a2
10005801:	f27c                                    	movi.n	a2, -1
10005803:	27c3f6                                    	bgeui	a3, 32, 1000582e <xtos_interrupt_enable+0x32>
10005806:	120c                                    	movi.n	a2, 1
10005808:	401300                                    	ssl	a3
1000580b:	a12200                                    	sll	a2, a2
1000580e:	006530                                    	rsil	a3, 5
10005811:	ee2941                                    	l32r	a4, 100010b8 (10024cc0 <xtos_enabled>)
10005814:	ee2a51                                    	l32r	a5, 100010bc (10024cc4 <xtos_vpri_enabled>)
10005817:	0468                                    	l32i.n	a6, a4, 0
10005819:	0558                                    	l32i.n	a5, a5, 0
1000581b:	202620                                    	or	a2, a6, a2
1000581e:	105520                                    	and	a5, a5, a2
10005821:	0429                                    	s32i.n	a2, a4, 0
10005823:	13e450                                    	wsr.intenable	a5
10005826:	13e630                                    	wsr.ps	a3
10005829:	002010                                    	rsync
1000582c:	020c                                    	movi.n	a2, 0

1000582e <xtos_interrupt_enable+0x32>:
1000582e:	f01d                                    	retw.n

10005830 <xtos_interrupt_disable>:
10005830:	004136                                    	entry	a1, 32
10005833:	023d                                    	mov.n	a3, a2
10005835:	f27c                                    	movi.n	a2, -1
10005837:	27c3f6                                    	bgeui	a3, 32, 10005862 <xtos_interrupt_disable+0x32>
1000583a:	006520                                    	rsil	a2, 5
1000583d:	ee1ef1                                    	l32r	a15, 100010b8 (10024cc0 <xtos_enabled>)
10005840:	ee1f51                                    	l32r	a5, 100010bc (10024cc4 <xtos_vpri_enabled>)
10005843:	e47c                                    	movi.n	a4, -2
10005845:	401300                                    	ssl	a3
10005848:	0f68                                    	l32i.n	a6, a15, 0
1000584a:	814440                                    	src	a4, a4, a4
1000584d:	0558                                    	l32i.n	a5, a5, 0
1000584f:	104640                                    	and	a4, a6, a4
10005852:	105540                                    	and	a5, a5, a4
10005855:	0f49                                    	s32i.n	a4, a15, 0
10005857:	13e450                                    	wsr.intenable	a5
1000585a:	13e620                                    	wsr.ps	a2
1000585d:	002010                                    	rsync
10005860:	020c                                    	movi.n	a2, 0

10005862 <xtos_interrupt_disable+0x32>:
10005862:	f01d                                    	retw.n

10005864 <xtos_set_interrupt_handler>:
10005864:	004136                                    	entry	a1, 32
10005867:	026d                                    	mov.n	a6, a2
10005869:	f27c                                    	movi.n	a2, -1
1000586b:	35c6f6                                    	bgeui	a6, 32, 100058a4 <xtos_set_interrupt_handler+0x40>
1000586e:	ee1471                                    	l32r	a7, 100010c0 (10024060 <Xthal_intlevel>)
10005871:	f81c                                    	movi.n	a8, 31
10005873:	907670                                    	addx2	a7, a6, a7
10005876:	001772                                    	l16ui	a7, a7, 0
10005879:	c09860                                    	sub	a9, a8, a6
1000587c:	2467f6                                    	bgeui	a7, 6, 100058a4 <xtos_set_interrupt_handler+0x40>
1000587f:	ee11f1                                    	l32r	a15, 100010c4 (10024cc8 <xtos_interrupt_table>)
10005882:	ee0c71                                    	l32r	a7, 100010b4 (100057dc <xtos_unhandled_interrupt>)
10005885:	b029f0                                    	addx8	a2, a9, a15
10005888:	438c                                    	beqz.n	a3, 10005890 <xtos_set_interrupt_handler+0x2c>
1000588a:	1249                                    	s32i.n	a4, a2, 4
1000588c:	000106                                    	j	10005894 <xtos_set_interrupt_handler+0x30>

1000588f <xtos_set_interrupt_handler+0x2b>:
	...

10005890 <xtos_set_interrupt_handler+0x2c>:
10005890:	073d                                    	mov.n	a3, a7
10005892:	1269                                    	s32i.n	a6, a2, 4
10005894:	0248                                    	l32i.n	a4, a2, 0
10005896:	0239                                    	s32i.n	a3, a2, 0
10005898:	020c                                    	movi.n	a2, 0
1000589a:	658c                                    	beqz.n	a5, 100058a4 <xtos_set_interrupt_handler+0x40>
1000589c:	c03470                                    	sub	a3, a4, a7
1000589f:	933430                                    	movnez	a3, a4, a3
100058a2:	0539                                    	s32i.n	a3, a5, 0
100058a4:	f01d                                    	retw.n

100058a6 <xtos_set_interrupt_handler+0x42>:
	...

100058a8 <_xtos_syscall_handler>:
100058a8:	03b130                                    	rsr.epc1	a3
100058ab:	030120                                    	rsr.lend	a2
100058ae:	333b                                    	addi.n	a3, a3, 3
100058b0:	0c9237                                    	bne	a2, a3, 100058c0 <_xtos_syscall_handler+0x18>
100058b3:	030220                                    	rsr.lcount	a2
100058b6:	628c                                    	beqz.n	a2, 100058c0 <_xtos_syscall_handler+0x18>
100058b8:	220b                                    	addi.n	a2, a2, -1
100058ba:	130220                                    	wsr.lcount	a2
100058bd:	030030                                    	rsr.lbeg	a3

100058c0 <_xtos_syscall_handler+0x18>:
100058c0:	4128                                    	l32i.n	a2, a1, 16
100058c2:	13b130                                    	wsr.epc1	a3
100058c5:	5138                                    	l32i.n	a3, a1, 20
100058c7:	056256                                    	bnez	a2, 10005921 <__deep_call+0x19>
100058ca:	116132                                    	s32i	a3, a1, 68
100058cd:	126142                                    	s32i	a4, a1, 72
100058d0:	136152                                    	s32i	a5, a1, 76
100058d3:	edfd31                                    	l32r	a3, 100010c8 (50023 <_memmap_mem_srom_end+0x30023>)
100058d6:	03e620                                    	rsr.ps	a2
100058d9:	13e630                                    	wsr.ps	a3
100058dc:	03b130                                    	rsr.epc1	a3
100058df:	60c112                                    	addi	a1, a1, 96
100058e2:	002010                                    	rsync
100058e5:	040c                                    	movi.n	a4, 0

100058e7 <_SyscallException>:
100058e7:	008136                                    	entry	a1, 64
100058ea:	0001f5                                    	call12	10005908 <__deep_call>
100058ed:	ed5fe1                                    	l32r	a14, 10000e6c (80000007 <_memmap_cacheattr_bp_allvalid+0x3bbbbbc3>)
100058f0:	0cea                                    	add.n	a0, a12, a14
100058f2:	f01d                                    	retw.n

100058f4 <_SyscallException+0xd>:
100058f4:	13e620                                    	wsr.ps	a2
100058f7:	020c                                    	movi.n	a2, 0
100058f9:	a548                                    	l32i.n	a4, a5, 40
100058fb:	002010                                    	rsync
100058fe:	13b130                                    	wsr.epc1	a3
10005901:	9538                                    	l32i.n	a3, a5, 36
10005903:	b558                                    	l32i.n	a5, a5, 44
10005905:	003000                                    	rfe

10005908 <__deep_call>:
10005908:	006136                                    	entry	a1, 48
1000590b:	edf0c1                                    	l32r	a12, 100010cc (5 <_memmap_cacheattr_bp_base+0x1>)
1000590e:	c0ca                                    	add.n	a12, a0, a12
10005910:	006136                                    	entry	a1, 48
10005913:	00cd                                    	mov.n	a12, a0
10005915:	006136                                    	entry	a1, 48
10005918:	00cd                                    	mov.n	a12, a0
1000591a:	002136                                    	entry	a1, 16
1000591d:	0bbd                                    	mov.n	a11, a11
1000591f:	f01d                                    	retw.n

10005921 <__deep_call+0x19>:
10005921:	f27c                                    	movi.n	a2, -1
10005923:	60c112                                    	addi	a1, a1, 96
10005926:	003000                                    	rfe

10005929 <__deep_call+0x21>:
10005929:	000000                                        ...

1000592c <_Level2FromVector>:
1000592c:	61d220                                    	xsr.excsave2	a2
1000592f:	a0c112                                    	addi	a1, a1, -96
10005932:	4129                                    	s32i.n	a2, a1, 16
10005934:	ede521                                    	l32r	a2, 100010c8 (50023 <_memmap_mem_srom_end+0x30023>)
10005937:	6149                                    	s32i.n	a4, a1, 24
10005939:	7159                                    	s32i.n	a5, a1, 28
1000593b:	13e620                                    	wsr.ps	a2
1000593e:	002010                                    	rsync
10005941:	60c112                                    	addi	a1, a1, 96
10005944:	03b240                                    	rsr.epc2	a4
10005947:	ede251                                    	l32r	a5, 100010d0 (c0000000 <_memmap_cacheattr_bp_allvalid+0x7bbbbbbc>)
1000594a:	204540                                    	or	a4, a5, a4
1000594d:	904540                                    	addx2	a4, a5, a4
10005950:	00c136                                    	entry	a1, 96
10005953:	0062f0                                    	rsil	a15, 2
10005956:	03e2f0                                    	rsr.interrupt	a15

10005959 <Pri_2_initial>:
10005959:	03e4c0                                    	rsr.intenable	a12
1000595c:	edded1                                    	l32r	a13, 100010d4 (840f0f0e <_memmap_cacheattr_bp_allvalid+0x3fcacaca>)
1000595f:	10ffc0                                    	and	a15, a15, a12
10005962:	10ffd0                                    	and	a15, a15, a13
10005965:	063f16                                    	beqz	a15, 100059cc <spurious2int>
10005968:	0303e0                                    	rsr.sar	a14
1000596b:	0302d0                                    	rsr.lcount	a13
1000596e:	0300c0                                    	rsr.lbeg	a12
10005971:	91d9                                    	s32i.n	a13, a1, 36
10005973:	0301d0                                    	rsr.lend	a13
10005976:	a1c9                                    	s32i.n	a12, a1, 40
10005978:	b1d9                                    	s32i.n	a13, a1, 44
1000597a:	21e9                                    	s32i.n	a14, a1, 8

1000597c <Pri_2_initial+0x23>:
1000597c:	60c0f0                                    	neg	a12, a15
1000597f:	10ccf0                                    	and	a12, a12, a15
10005982:	13e3c0                                    	wsr.intclear	a12
10005985:	edcfd1                                    	l32r	a13, 100010c4 (10024cc8 <xtos_interrupt_table>)

10005988 <Pri_2_loop_postclear>:
10005988:	fe1c                                    	movi.n	a14, 31
1000598a:	40fcc0                                    	nsau	a12, a12
1000598d:	c0fec0                                    	sub	a15, a14, a12
10005990:	60f0f0                                    	neg	a15, a15
10005993:	1fcff2                                    	addi	a15, a15, 31
10005996:	b0cfd0                                    	addx8	a12, a15, a13
10005999:	0cd8                                    	l32i.n	a13, a12, 0
1000599b:	012ce2                                    	l32i	a14, a12, 4
1000599e:	20f110                                    	or	a15, a1, a1
100059a1:	000df0                                    	callx12	a13
100059a4:	03e2f0                                    	rsr.interrupt	a15
100059a7:	03e4c0                                    	rsr.intenable	a12
100059aa:	edcad1                                    	l32r	a13, 100010d4 (840f0f0e <_memmap_cacheattr_bp_allvalid+0x3fcacaca>)
100059ad:	10ffc0                                    	and	a15, a15, a12
100059b0:	10ffd0                                    	and	a15, a15, a13

100059b3 <Pri_2_loop_postclear+0x2b>:
100059b3:	fc5f56                                    	bnez	a15, 1000597c <Pri_2_initial+0x23>

100059b6 <spurious2int_restore_ex>:
100059b6:	21e8                                    	l32i.n	a14, a1, 8
100059b8:	91c8                                    	l32i.n	a12, a1, 36
100059ba:	0a21d2                                    	l32i	a13, a1, 40
100059bd:	0b21f2                                    	l32i	a15, a1, 44
100059c0:	1302c0                                    	wsr.lcount	a12
100059c3:	1300d0                                    	wsr.lbeg	a13
100059c6:	1301f0                                    	wsr.lend	a15
100059c9:	1303e0                                    	wsr.sar	a14

100059cc <spurious2int>:
100059cc:	003120                                    	clrex
100059cf:	edc201                                    	l32r	a0, 100010d8 (100059e0 <return2from_exc>)
100059d2:	edbfd1                                    	l32r	a13, 100010d0 (c0000000 <_memmap_cacheattr_bp_allvalid+0x7bbbbbbc>)
100059d5:	2000d0                                    	or	a0, a0, a13
100059d8:	900d00                                    	addx2	a0, a13, a0
100059db:	0063e0                                    	rsil	a14, 3
100059de:	f01d                                    	retw.n

100059e0 <return2from_exc>:
100059e0:	4528                                    	l32i.n	a2, a5, 16
100059e2:	6548                                    	l32i.n	a4, a5, 24
100059e4:	7558                                    	l32i.n	a5, a5, 28
100059e6:	003210                                    	rfi	2

100059e9 <return2from_exc+0x9>:
100059e9:	000000                                        ...

100059ec <_Level3FromVector>:
100059ec:	61d320                                    	xsr.excsave3	a2
100059ef:	a0c112                                    	addi	a1, a1, -96
100059f2:	4129                                    	s32i.n	a2, a1, 16
100059f4:	edb521                                    	l32r	a2, 100010c8 (50023 <_memmap_mem_srom_end+0x30023>)
100059f7:	6149                                    	s32i.n	a4, a1, 24
100059f9:	7159                                    	s32i.n	a5, a1, 28
100059fb:	13e620                                    	wsr.ps	a2
100059fe:	002010                                    	rsync
10005a01:	60c112                                    	addi	a1, a1, 96
10005a04:	03b340                                    	rsr.epc3	a4
10005a07:	edb251                                    	l32r	a5, 100010d0 (c0000000 <_memmap_cacheattr_bp_allvalid+0x7bbbbbbc>)
10005a0a:	204540                                    	or	a4, a5, a4
10005a0d:	904540                                    	addx2	a4, a5, a4
10005a10:	00c136                                    	entry	a1, 96
10005a13:	0063f0                                    	rsil	a15, 3
10005a16:	0303e0                                    	rsr.sar	a14
10005a19:	0c4c                                    	movi.n	a12, 64
10005a1b:	21e9                                    	s32i.n	a14, a1, 8
10005a1d:	13e3c0                                    	wsr.intclear	a12

10005a20 <Pri_3_loop_postclear>:
10005a20:	0302d0                                    	rsr.lcount	a13
10005a23:	0300e0                                    	rsr.lbeg	a14
10005a26:	91d9                                    	s32i.n	a13, a1, 36
10005a28:	0301d0                                    	rsr.lend	a13
10005a2b:	a1e9                                    	s32i.n	a14, a1, 40
10005a2d:	b1d9                                    	s32i.n	a13, a1, 44
10005a2f:	edabc1                                    	l32r	a12, 100010dc (10024d90 <xtos_interrupt_table+0xc8>)
10005a32:	0cd8                                    	l32i.n	a13, a12, 0
10005a34:	1ce8                                    	l32i.n	a14, a12, 4
10005a36:	20f110                                    	or	a15, a1, a1
10005a39:	000df0                                    	callx12	a13

10005a3c <spurious3int_restore_ex>:
10005a3c:	21e8                                    	l32i.n	a14, a1, 8
10005a3e:	91c8                                    	l32i.n	a12, a1, 36
10005a40:	a1d8                                    	l32i.n	a13, a1, 40
10005a42:	b1f8                                    	l32i.n	a15, a1, 44
10005a44:	1302c0                                    	wsr.lcount	a12
10005a47:	1300d0                                    	wsr.lbeg	a13
10005a4a:	1301f0                                    	wsr.lend	a15
10005a4d:	1303e0                                    	wsr.sar	a14

10005a50 <spurious3int>:
10005a50:	003120                                    	clrex
10005a53:	eda301                                    	l32r	a0, 100010e0 (10005a61 <return3from_exc>)
10005a56:	ed9ed1                                    	l32r	a13, 100010d0 (c0000000 <_memmap_cacheattr_bp_allvalid+0x7bbbbbbc>)
10005a59:	2000d0                                    	or	a0, a0, a13
10005a5c:	900d00                                    	addx2	a0, a13, a0
10005a5f:	f01d                                    	retw.n

10005a61 <return3from_exc>:
10005a61:	4528                                    	l32i.n	a2, a5, 16
10005a63:	6548                                    	l32i.n	a4, a5, 24
10005a65:	7558                                    	l32i.n	a5, a5, 28
10005a67:	003310                                    	rfi	3

10005a6a <return3from_exc+0x9>:
	...

10005a6c <_Level4FromVector>:
10005a6c:	ed9e21                                    	l32r	a2, 100010e4 (10026220 <_Pri_4_SaveArea>)
10005a6f:	b209                                    	s32i.n	a0, a2, 44
10005a71:	ed9d01                                    	l32r	a0, 100010e8 (100245dc <_Pri_4_HandlerAddress>)
10005a74:	c219                                    	s32i.n	a1, a2, 48
10005a76:	0008                                    	l32i.n	a0, a0, 0
10005a78:	e239                                    	s32i.n	a3, a2, 56
10005a7a:	61d400                                    	xsr.excsave4	a0
10005a7d:	f249                                    	s32i.n	a4, a2, 60
10005a7f:	d209                                    	s32i.n	a0, a2, 52
10005a81:	03b130                                    	rsr.epc1	a3
10005a84:	03e840                                    	rsr.exccause	a4
10005a87:	3239                                    	s32i.n	a3, a2, 12
10005a89:	4249                                    	s32i.n	a4, a2, 16
10005a8b:	03ee30                                    	rsr.excvaddr	a3
10005a8e:	5239                                    	s32i.n	a3, a2, 20
10005a90:	03d140                                    	rsr.excsave1	a4
10005a93:	6249                                    	s32i.n	a4, a2, 24
10005a95:	803c                                    	movi.n	a0, 56
10005a97:	106252                                    	s32i	a5, a2, 64
10005a9a:	116262                                    	s32i	a6, a2, 68
10005a9d:	126272                                    	s32i	a7, a2, 72

10005aa0 <_Level4FromVector+0x34>:
10005aa0:	136282                                    	s32i	a8, a2, 76
10005aa3:	146292                                    	s32i	a9, a2, 80
10005aa6:	1562a2                                    	s32i	a10, a2, 84
10005aa9:	1662b2                                    	s32i	a11, a2, 88
10005aac:	1762c2                                    	s32i	a12, a2, 92
10005aaf:	1862d2                                    	s32i	a13, a2, 96
10005ab2:	1962e2                                    	s32i	a14, a2, 100
10005ab5:	1a62f2                                    	s32i	a15, a2, 104
10005ab8:	f8c082                                    	addi	a8, a0, -8
10005abb:	20c2a2                                    	addi	a10, a2, 32
10005abe:	408020                                    	rotw	2
10005ac1:	fdb056                                    	bnez	a0, 10005aa0 <_Level4FromVector+0x34>
10005ac4:	408020                                    	rotw	2
10005ac7:	034930                                    	rsr.windowstart	a3
10005aca:	034840                                    	rsr.windowbase	a4
10005acd:	1239                                    	s32i.n	a3, a2, 4
10005acf:	2249                                    	s32i.n	a4, a2, 8
10005ad1:	130c                                    	movi.n	a3, 1
10005ad3:	040c                                    	movi.n	a4, 0
10005ad5:	134930                                    	wsr.windowstart	a3
10005ad8:	134840                                    	wsr.windowbase	a4
10005adb:	002010                                    	rsync
10005ade:	ed8111                                    	l32r	a1, 100010e4 (10026220 <_Pri_4_SaveArea>)
10005ae1:	000c                                    	movi.n	a0, 0
10005ae3:	ed8221                                    	l32r	a2, 100010ec (50024 <_memmap_mem_srom_end+0x30024>)
10005ae6:	13e620                                    	wsr.ps	a2
10005ae9:	002010                                    	rsync
10005aec:	0303e0                                    	rsr.sar	a14
10005aef:	01e9                                    	s32i.n	a14, a1, 0
10005af1:	0302e0                                    	rsr.lcount	a14
10005af4:	81e9                                    	s32i.n	a14, a1, 32
10005af6:	0300e0                                    	rsr.lbeg	a14
10005af9:	91e9                                    	s32i.n	a14, a1, 36
10005afb:	0301e0                                    	rsr.lend	a14
10005afe:	a1e9                                    	s32i.n	a14, a1, 40
10005b00:	ed7cd1                                    	l32r	a13, 100010f0 (8000000 <_memmap_mem_sram_end+0x7dc0000>)
10005b03:	ed70c1                                    	l32r	a12, 100010c4 (10024cc8 <xtos_interrupt_table>)
10005b06:	13e3d0                                    	wsr.intclear	a13

10005b09 <Pri_4_loop_postclear>:
10005b09:	8cd8                                    	l32i.n	a13, a12, 32
10005b0b:	9c68                                    	l32i.n	a6, a12, 36
10005b0d:	000dd0                                    	callx4	a13

10005b10 <Pri_4_spurious>:
10005b10:	003120                                    	clrex
10005b13:	81d8                                    	l32i.n	a13, a1, 32
10005b15:	91e8                                    	l32i.n	a14, a1, 36
10005b17:	a1f8                                    	l32i.n	a15, a1, 40
10005b19:	1302d0                                    	wsr.lcount	a13
10005b1c:	1300e0                                    	wsr.lbeg	a14
10005b1f:	1301f0                                    	wsr.lend	a15
10005b22:	01f8                                    	l32i.n	a15, a1, 0
10005b24:	1303f0                                    	wsr.sar	a15
10005b27:	423c                                    	movi.n	a2, 52
10005b29:	13e620                                    	wsr.ps	a2
10005b2c:	002010                                    	rsync
10005b2f:	1128                                    	l32i.n	a2, a1, 4
10005b31:	2138                                    	l32i.n	a3, a1, 8
10005b33:	134920                                    	wsr.windowstart	a2
10005b36:	134830                                    	wsr.windowbase	a3
10005b39:	002010                                    	rsync
10005b3c:	ed6a11                                    	l32r	a1, 100010e4 (10026220 <_Pri_4_SaveArea>)
10005b3f:	863c                                    	movi.n	a6, 56
10005b41:	e0c172                                    	addi	a7, a1, -32
10005b44:	f8c6e2                                    	addi	a14, a6, -8
10005b47:	20c7f2                                    	addi	a15, a7, 32
10005b4a:	ff48                                    	l32i.n	a4, a15, 60
10005b4c:	102f52                                    	l32i	a5, a15, 64
10005b4f:	112f62                                    	l32i	a6, a15, 68
10005b52:	122f72                                    	l32i	a7, a15, 72
10005b55:	132f82                                    	l32i	a8, a15, 76
10005b58:	142f92                                    	l32i	a9, a15, 80
10005b5b:	152fa2                                    	l32i	a10, a15, 84
10005b5e:	162fb2                                    	l32i	a11, a15, 88
10005b61:	408020                                    	rotw	2
10005b64:	fdc656                                    	bnez	a6, 10005b44 <Pri_4_spurious+0x34>
10005b67:	172742                                    	l32i	a4, a7, 92
10005b6a:	182752                                    	l32i	a5, a7, 96
10005b6d:	192762                                    	l32i	a6, a7, 100
10005b70:	1a2772                                    	l32i	a7, a7, 104
10005b73:	408020                                    	rotw	2
10005b76:	3128                                    	l32i.n	a2, a1, 12
10005b78:	4138                                    	l32i.n	a3, a1, 16
10005b7a:	13b120                                    	wsr.epc1	a2
10005b7d:	13e830                                    	wsr.exccause	a3
10005b80:	5128                                    	l32i.n	a2, a1, 20
10005b82:	13ee20                                    	wsr.excvaddr	a2
10005b85:	6138                                    	l32i.n	a3, a1, 24
10005b87:	13d130                                    	wsr.excsave1	a3
10005b8a:	b108                                    	l32i.n	a0, a1, 44
10005b8c:	d128                                    	l32i.n	a2, a1, 52
10005b8e:	e138                                    	l32i.n	a3, a1, 56
10005b90:	c118                                    	l32i.n	a1, a1, 48
10005b92:	003410                                    	rfi	4

10005b95 <Pri_4_spurious+0x85>:
10005b95:	000000                                        ...

10005b98 <_xtos_l1int_handler>:
10005b98:	7159                                    	s32i.n	a5, a1, 28
10005b9a:	ed4b21                                    	l32r	a2, 100010c8 (50023 <_memmap_mem_srom_end+0x30023>)
10005b9d:	03b130                                    	rsr.epc1	a3
10005ba0:	61e620                                    	xsr.ps	a2
10005ba3:	0139                                    	s32i.n	a3, a1, 0
10005ba5:	1129                                    	s32i.n	a2, a1, 4
10005ba7:	60c112                                    	addi	a1, a1, 96
10005baa:	002010                                    	rsync
10005bad:	ed4841                                    	l32r	a4, 100010d0 (c0000000 <_memmap_cacheattr_bp_allvalid+0x7bbbbbbc>)
10005bb0:	203430                                    	or	a3, a4, a3
10005bb3:	904430                                    	addx2	a4, a4, a3

10005bb6 <_LevelOneInterrupt>:
10005bb6:	00c136                                    	entry	a1, 96
10005bb9:	0061f0                                    	rsil	a15, 1
10005bbc:	ed3fe1                                    	l32r	a14, 100010b8 (10024cc0 <xtos_enabled>)
10005bbf:	03e2f0                                    	rsr.interrupt	a15
10005bc2:	03e4c0                                    	rsr.intenable	a12
10005bc5:	1ed8                                    	l32i.n	a13, a14, 4
10005bc7:	10ffc0                                    	and	a15, a15, a12
10005bca:	0303c0                                    	rsr.sar	a12
10005bcd:	31d9                                    	s32i.n	a13, a1, 12
10005bcf:	07df16                                    	beqz	a15, 10005c50 <spurious_int>
10005bd2:	21c9                                    	s32i.n	a12, a1, 8
10005bd4:	8129                                    	s32i.n	a2, a1, 32
10005bd6:	f27c                                    	movi.n	a2, -1

10005bd8 <_LevelOneInterrupt+0x22>:
10005bd8:	40ffc0                                    	nsau	a12, a15
10005bdb:	ed46f1                                    	l32r	a15, 100010f4 (80000000 <_memmap_cacheattr_bp_allvalid+0x3bbbbbbc>)
10005bde:	400c00                                    	ssr	a12
10005be1:	91f0f0                                    	srl	a15, a15
10005be4:	3022f0                                    	xor	a2, a2, a15
10005be7:	ed37d1                                    	l32r	a13, 100010c4 (10024cc8 <xtos_interrupt_table>)
10005bea:	13e3f0                                    	wsr.intclear	a15
10005bed:	b0ccd0                                    	addx8	a12, a12, a13
10005bf0:	402cd2                                    	l32i	a13, a12, 0x100
10005bf3:	0065f0                                    	rsil	a15, 5
10005bf6:	0ef8                                    	l32i.n	a15, a14, 0
10005bf8:	1ed9                                    	s32i.n	a13, a14, 4
10005bfa:	10ffd0                                    	and	a15, a15, a13
10005bfd:	13e4f0                                    	wsr.intenable	a15
10005c00:	002010                                    	rsync
10005c03:	0060f0                                    	rsil	a15, 0
10005c06:	0302d0                                    	rsr.lcount	a13
10005c09:	0300f0                                    	rsr.lbeg	a15
10005c0c:	91d9                                    	s32i.n	a13, a1, 36
10005c0e:	0301d0                                    	rsr.lend	a13
10005c11:	a1f9                                    	s32i.n	a15, a1, 40
10005c13:	b1d9                                    	s32i.n	a13, a1, 44
10005c15:	0cd8                                    	l32i.n	a13, a12, 0
10005c17:	01fd                                    	mov.n	a15, a1
10005c19:	1ce8                                    	l32i.n	a14, a12, 4
10005c1b:	000df0                                    	callx12	a13
10005c1e:	91d8                                    	l32i.n	a13, a1, 36
10005c20:	a1e8                                    	l32i.n	a14, a1, 40
10005c22:	b1f8                                    	l32i.n	a15, a1, 44
10005c24:	1302d0                                    	wsr.lcount	a13
10005c27:	1300e0                                    	wsr.lbeg	a14
10005c2a:	1301f0                                    	wsr.lend	a15
10005c2d:	ed22e1                                    	l32r	a14, 100010b8 (10024cc0 <xtos_enabled>)
10005c30:	03e2f0                                    	rsr.interrupt	a15
10005c33:	0065d0                                    	rsil	a13, 5
10005c36:	0ed8                                    	l32i.n	a13, a14, 0
10005c38:	31c8                                    	l32i.n	a12, a1, 12
10005c3a:	10ddc0                                    	and	a13, a13, a12
10005c3d:	10ffd0                                    	and	a15, a15, a13

10005c40 <_LevelOneInterrupt+0x8a>:
10005c40:	024f56                                    	bnez	a15, 10005c68 <preloop>
10005c43:	8128                                    	l32i.n	a2, a1, 32
10005c45:	1ec9                                    	s32i.n	a12, a14, 4
10005c47:	0221c2                                    	l32i	a12, a1, 8
10005c4a:	13e4d0                                    	wsr.intenable	a13
10005c4d:	0063d0                                    	rsil	a13, 3

10005c50 <spurious_int>:
10005c50:	003120                                    	clrex
10005c53:	ed2901                                    	l32r	a0, 100010f8 (100060e0 <_xtos_return_from_exc>)
10005c56:	ed1ed1                                    	l32r	a13, 100010d0 (c0000000 <_memmap_cacheattr_bp_allvalid+0x7bbbbbbc>)
10005c59:	1303c0                                    	wsr.sar	a12
10005c5c:	2000d0                                    	or	a0, a0, a13
10005c5f:	900d00                                    	addx2	a0, a13, a0
10005c62:	0063d0                                    	rsil	a13, 3
10005c65:	f01d                                    	retw.n

10005c67 <spurious_int+0x17>:
	...

10005c68 <preloop>:
10005c68:	40ffd0                                    	nsau	a13, a15
10005c6b:	ed16c1                                    	l32r	a12, 100010c4 (10024cc8 <xtos_interrupt_table>)
10005c6e:	b0cdc0                                    	addx8	a12, a13, a12
10005c71:	412ce2                                    	l32i	a14, a12, 0x104
10005c74:	10ff20                                    	and	a15, a15, a2
10005c77:	10ffe0                                    	and	a15, a15, a14
10005c7a:	ed0fe1                                    	l32r	a14, 100010b8 (10024cc0 <xtos_enabled>)

10005c7d <preloop+0x15>:
10005c7d:	f57f56                                    	bnez	a15, 10005bd8 <_LevelOneInterrupt+0x22>
10005c80:	ed1df1                                    	l32r	a15, 100010f4 (80000000 <_memmap_cacheattr_bp_allvalid+0x3bbbbbbc>)
10005c83:	400d00                                    	ssr	a13
10005c86:	91d0f0                                    	srl	a13, a15
10005c89:	412cf2                                    	l32i	a15, a12, 0x104
10005c8c:	13e3d0                                    	wsr.intclear	a13
10005c8f:	2022f0                                    	or	a2, a2, a15
10005c92:	3022d0                                    	xor	a2, a2, a13
10005c95:	ffd5c6                                    	j	10005bf0 <_LevelOneInterrupt+0x3a>

10005c98 <preloop+0x30>:
	...

10005ca0 <com_cpu_user_exception>:
10005ca0:	006136                                    	entry	a1, 48
10005ca3:	03e830                                    	rsr.exccause	a3
10005ca6:	03ee40                                    	rsr.excvaddr	a4
10005ca9:	fb7065                                    	call8	100013b0 <com_trax_stop>
10005cac:	002a16                                    	beqz	a10, 10005cb2 <com_cpu_user_exception+0x12>
10005caf:	fb7565                                    	call8	10001404 <com_trax_store_trace>

10005cb2 <com_cpu_user_exception+0x12>:
10005cb2:	72d8                                    	l32i.n	a13, a2, 28
10005cb4:	02c8                                    	l32i.n	a12, a2, 0
10005cb6:	12e8                                    	l32i.n	a14, a2, 4
10005cb8:	32f8                                    	l32i.n	a15, a2, 12
10005cba:	4258                                    	l32i.n	a5, a2, 16
10005cbc:	5268                                    	l32i.n	a6, a2, 20
10005cbe:	6278                                    	l32i.n	a7, a2, 24
10005cc0:	31d9                                    	s32i.n	a13, a1, 12
10005cc2:	0a0c                                    	movi.n	a10, 0
10005cc4:	03bd                                    	mov.n	a11, a3
10005cc6:	04dd                                    	mov.n	a13, a4
10005cc8:	2179                                    	s32i.n	a7, a1, 8
10005cca:	1169                                    	s32i.n	a6, a1, 4
10005ccc:	0159                                    	s32i.n	a5, a1, 0
10005cce:	fcc4e5                                    	call8	1000291c <com_send_rb_e_EXCEPTION_ERR>
10005cd1:	048176                                    	loop	a1, 10005cd9 <com_cpu_user_exception+0x39>
10005cd4:	007000                                    	waiti	0
10005cd7:	f03d                                    	nop.n

10005cd9 <com_cpu_user_exception+0x39>:
10005cd9:	fffdc6                                    	j	10005cd4 <com_cpu_user_exception+0x34>

10005cdc <com_cpu_kernel_exception>:
10005cdc:	006136                                    	entry	a1, 48
10005cdf:	03e830                                    	rsr.exccause	a3
10005ce2:	03ee40                                    	rsr.excvaddr	a4
10005ce5:	fb6ca5                                    	call8	100013b0 <com_trax_stop>
10005ce8:	002a16                                    	beqz	a10, 10005cee <com_cpu_kernel_exception+0x12>
10005ceb:	fb71a5                                    	call8	10001404 <com_trax_store_trace>

10005cee <com_cpu_kernel_exception+0x12>:
10005cee:	72d8                                    	l32i.n	a13, a2, 28
10005cf0:	02c8                                    	l32i.n	a12, a2, 0
10005cf2:	12e8                                    	l32i.n	a14, a2, 4
10005cf4:	32f8                                    	l32i.n	a15, a2, 12
10005cf6:	4258                                    	l32i.n	a5, a2, 16
10005cf8:	5268                                    	l32i.n	a6, a2, 20
10005cfa:	6278                                    	l32i.n	a7, a2, 24
10005cfc:	31d9                                    	s32i.n	a13, a1, 12
10005cfe:	1a0c                                    	movi.n	a10, 1
10005d00:	03bd                                    	mov.n	a11, a3
10005d02:	04dd                                    	mov.n	a13, a4
10005d04:	2179                                    	s32i.n	a7, a1, 8
10005d06:	1169                                    	s32i.n	a6, a1, 4
10005d08:	0159                                    	s32i.n	a5, a1, 0
10005d0a:	fcc125                                    	call8	1000291c <com_send_rb_e_EXCEPTION_ERR>
10005d0d:	048176                                    	loop	a1, 10005d15 <com_cpu_kernel_exception+0x39>
10005d10:	007000                                    	waiti	0
10005d13:	f03d                                    	nop.n

10005d15 <com_cpu_kernel_exception+0x39>:
10005d15:	fffdc6                                    	j	10005d10 <com_cpu_kernel_exception+0x34>

10005d18 <com_cpu_double_exception>:
10005d18:	006136                                    	entry	a1, 48
10005d1b:	03e830                                    	rsr.exccause	a3
10005d1e:	03ee40                                    	rsr.excvaddr	a4
10005d21:	fb68e5                                    	call8	100013b0 <com_trax_stop>
10005d24:	002a16                                    	beqz	a10, 10005d2a <com_cpu_double_exception+0x12>
10005d27:	fb6de5                                    	call8	10001404 <com_trax_store_trace>

10005d2a <com_cpu_double_exception+0x12>:
10005d2a:	72d8                                    	l32i.n	a13, a2, 28
10005d2c:	02c8                                    	l32i.n	a12, a2, 0
10005d2e:	12e8                                    	l32i.n	a14, a2, 4
10005d30:	32f8                                    	l32i.n	a15, a2, 12
10005d32:	4258                                    	l32i.n	a5, a2, 16
10005d34:	5268                                    	l32i.n	a6, a2, 20
10005d36:	6278                                    	l32i.n	a7, a2, 24
10005d38:	31d9                                    	s32i.n	a13, a1, 12
10005d3a:	2a0c                                    	movi.n	a10, 2
10005d3c:	03bd                                    	mov.n	a11, a3
10005d3e:	04dd                                    	mov.n	a13, a4
10005d40:	2179                                    	s32i.n	a7, a1, 8
10005d42:	1169                                    	s32i.n	a6, a1, 4
10005d44:	0159                                    	s32i.n	a5, a1, 0
10005d46:	fcbd65                                    	call8	1000291c <com_send_rb_e_EXCEPTION_ERR>
10005d49:	048176                                    	loop	a1, 10005d51 <com_cpu_double_exception+0x39>
10005d4c:	007000                                    	waiti	0
10005d4f:	f03d                                    	nop.n

10005d51 <com_cpu_double_exception+0x39>:
10005d51:	fffdc6                                    	j	10005d4c <com_cpu_double_exception+0x34>

10005d54 <com_cpu_debug_exception>:
10005d54:	006136                                    	entry	a1, 48
10005d57:	03e830                                    	rsr.exccause	a3
10005d5a:	03ee40                                    	rsr.excvaddr	a4
10005d5d:	fb6525                                    	call8	100013b0 <com_trax_stop>
10005d60:	002a16                                    	beqz	a10, 10005d66 <com_cpu_debug_exception+0x12>
10005d63:	fb6a25                                    	call8	10001404 <com_trax_store_trace>

10005d66 <com_cpu_debug_exception+0x12>:
10005d66:	72d8                                    	l32i.n	a13, a2, 28
10005d68:	02c8                                    	l32i.n	a12, a2, 0
10005d6a:	12e8                                    	l32i.n	a14, a2, 4
10005d6c:	32f8                                    	l32i.n	a15, a2, 12
10005d6e:	4258                                    	l32i.n	a5, a2, 16
10005d70:	5268                                    	l32i.n	a6, a2, 20
10005d72:	6278                                    	l32i.n	a7, a2, 24
10005d74:	31d9                                    	s32i.n	a13, a1, 12
10005d76:	3a0c                                    	movi.n	a10, 3
10005d78:	03bd                                    	mov.n	a11, a3
10005d7a:	04dd                                    	mov.n	a13, a4
10005d7c:	2179                                    	s32i.n	a7, a1, 8
10005d7e:	1169                                    	s32i.n	a6, a1, 4
10005d80:	0159                                    	s32i.n	a5, a1, 0
10005d82:	fcb9a5                                    	call8	1000291c <com_send_rb_e_EXCEPTION_ERR>
10005d85:	048176                                    	loop	a1, 10005d8d <com_cpu_debug_exception+0x39>
10005d88:	007000                                    	waiti	0
10005d8b:	f03d                                    	nop.n

10005d8d <com_cpu_debug_exception+0x39>:
10005d8d:	fffdc6                                    	j	10005d88 <com_cpu_debug_exception+0x34>

10005d90 <com_memory_init>:
10005d90:	004136                                    	entry	a1, 32
10005d93:	f01d                                    	retw.n

10005d95 <com_memory_init+0x5>:
10005d95:	000000                                        ...

10005d98 <com_queue_init>:
10005d98:	008136                                    	entry	a1, 64
10005d9b:	030c                                    	movi.n	a3, 0
10005d9d:	18c1b2                                    	addi	a11, a1, 24
10005da0:	8c0c                                    	movi.n	a12, 8
10005da2:	02ad                                    	mov.n	a10, a2
10005da4:	7139                                    	s32i.n	a3, a1, 28
10005da6:	6139                                    	s32i.n	a3, a1, 24
10005da8:	056132                                    	s32i	a3, a1, 20
10005dab:	4139                                    	s32i.n	a3, a1, 16
10005dad:	001525                                    	call8	10005f00 <com_shared_mem_write>
10005db0:	a28b                                    	addi.n	a10, a2, 8
10005db2:	10c1b2                                    	addi	a11, a1, 16
10005db5:	8c0c                                    	movi.n	a12, 8
10005db7:	0014a5                                    	call8	10005f00 <com_shared_mem_write>
10005dba:	f01d                                    	retw.n

10005dbc <com_queue_insert>:
10005dbc:	010136                                    	entry	a1, 128
10005dbf:	628b                                    	addi.n	a6, a2, 8
10005dc1:	a1cb                                    	addi.n	a10, a1, 12
10005dc3:	8c0c                                    	movi.n	a12, 8
10005dc5:	06bd                                    	mov.n	a11, a6
10005dc7:	025d                                    	mov.n	a5, a2
10005dc9:	001465                                    	call8	10005f10 <com_shared_mem_read>
10005dcc:	14c1a2                                    	addi	a10, a1, 20
10005dcf:	8c0c                                    	movi.n	a12, 8
10005dd1:	02bd                                    	mov.n	a11, a2
10005dd3:	0013e5                                    	call8	10005f10 <com_shared_mem_read>
10005dd6:	41f8                                    	l32i.n	a15, a1, 16
10005dd8:	6178                                    	l32i.n	a7, a1, 24
10005dda:	120c                                    	movi.n	a2, 1
10005ddc:	c07f70                                    	sub	a7, a15, a7
10005ddf:	69b726                                    	beqi	a7, 16, 10005e4c <com_queue_insert+0x90>
10005de2:	20c172                                    	addi	a7, a1, 32
10005de5:	0b0c                                    	movi.n	a11, 0
10005de7:	0c4c                                    	movi.n	a12, 64
10005de9:	07ad                                    	mov.n	a10, a7
10005deb:	00a022                                    	movi	a2, 0
10005dee:	002a65                                    	call8	10006094 <memset>
10005df1:	748040                                    	extui	a8, a4, 0, 8
10005df4:	11c4e0                                    	slli	a12, a4, 2
10005df7:	07ad                                    	mov.n	a10, a7
10005df9:	03bd                                    	mov.n	a11, a3
10005dfb:	7189                                    	s32i.n	a8, a1, 28
10005dfd:	0016a5                                    	call8	10005f68 <memcpy>
10005e00:	3138                                    	l32i.n	a3, a1, 12
10005e02:	1cc1b2                                    	addi	a11, a1, 28
10005e05:	1143a0                                    	slli	a4, a3, 6
10005e08:	a03340                                    	addx4	a3, a3, a4
10005e0b:	353a                                    	add.n	a3, a5, a3
10005e0d:	10c3a2                                    	addi	a10, a3, 16
10005e10:	4c4c                                    	movi.n	a12, 68
10005e12:	000ee5                                    	call8	10005f00 <com_shared_mem_write>
10005e15:	0020c0                                    	memw
10005e18:	4138                                    	l32i.n	a3, a1, 16
10005e1a:	056c                                    	movi.n	a5, -32
10005e1c:	431b                                    	addi.n	a4, a3, 1
10005e1e:	20c332                                    	addi	a3, a3, 32
10005e21:	b33440                                    	movgez	a3, a4, a4
10005e24:	103350                                    	and	a3, a3, a5
10005e27:	c03430                                    	sub	a3, a4, a3
10005e2a:	234300                                    	sext	a4, a3, 7
10005e2d:	e3fb                                    	addi.n	a14, a3, 15
10005e2f:	b3e340                                    	movgez	a14, a3, a4
10005e32:	f0a0f2                                    	movi	a15, 240
10005e35:	104ef0                                    	and	a4, a14, a15
10005e38:	c04340                                    	sub	a4, a3, a4
10005e3b:	234400                                    	sext	a4, a4, 7
10005e3e:	b1cb                                    	addi.n	a11, a1, 12
10005e40:	8c0c                                    	movi.n	a12, 8
10005e42:	06ad                                    	mov.n	a10, a6
10005e44:	4139                                    	s32i.n	a3, a1, 16
10005e46:	036142                                    	s32i	a4, a1, 12
10005e49:	000b65                                    	call8	10005f00 <com_shared_mem_write>

10005e4c <com_queue_insert+0x90>:
10005e4c:	f01d                                    	retw.n

10005e4e <com_queue_insert+0x92>:
	...

10005e50 <com_queue_read>:
10005e50:	008136                                    	entry	a1, 64
10005e53:	b28b                                    	addi.n	a11, a2, 8
10005e55:	18c1a2                                    	addi	a10, a1, 24
10005e58:	08a0c2                                    	movi	a12, 8
10005e5b:	205220                                    	or	a5, a2, a2
10005e5e:	000b25                                    	call8	10005f10 <com_shared_mem_read>
10005e61:	a1cb                                    	addi.n	a10, a1, 12
10005e63:	8c0c                                    	movi.n	a12, 8
10005e65:	02bd                                    	mov.n	a11, a2
10005e67:	000aa5                                    	call8	10005f10 <com_shared_mem_read>
10005e6a:	7168                                    	l32i.n	a6, a1, 28
10005e6c:	4178                                    	l32i.n	a7, a1, 16
10005e6e:	220c                                    	movi.n	a2, 2
10005e70:	6a1677                                    	beq	a6, a7, 10005ede <com_queue_read+0x8e>
10005e73:	3128                                    	l32i.n	a2, a1, 12
10005e75:	10c572                                    	addi	a7, a5, 16
10005e78:	1162a0                                    	slli	a6, a2, 6
10005e7b:	a02260                                    	addx4	a2, a2, a6
10005e7e:	b72a                                    	add.n	a11, a7, a2
10005e80:	14c1a2                                    	addi	a10, a1, 20
10005e83:	4c0c                                    	movi.n	a12, 4
10005e85:	0008a5                                    	call8	10005f10 <com_shared_mem_read>
10005e88:	3128                                    	l32i.n	a2, a1, 12
10005e8a:	5168                                    	l32i.n	a6, a1, 20
10005e8c:	1182a0                                    	slli	a8, a2, 6
10005e8f:	a02280                                    	addx4	a2, a2, a8
10005e92:	746060                                    	extui	a6, a6, 0, 8
10005e95:	272a                                    	add.n	a2, a7, a2
10005e97:	11c6e0                                    	slli	a12, a6, 2
10005e9a:	b24b                                    	addi.n	a11, a2, 4
10005e9c:	03ad                                    	mov.n	a10, a3
10005e9e:	000725                                    	call8	10005f10 <com_shared_mem_read>
10005ea1:	140122                                    	l8ui	a2, a1, 20
10005ea4:	0429                                    	s32i.n	a2, a4, 0
10005ea6:	0020c0                                    	memw
10005ea9:	4128                                    	l32i.n	a2, a1, 16
10005eab:	046c                                    	movi.n	a4, -32
10005ead:	321b                                    	addi.n	a3, a2, 1
10005eaf:	20c222                                    	addi	a2, a2, 32
10005eb2:	b32330                                    	movgez	a2, a3, a3
10005eb5:	102240                                    	and	a2, a2, a4
10005eb8:	c02320                                    	sub	a2, a3, a2
10005ebb:	233200                                    	sext	a3, a2, 7
10005ebe:	e2fb                                    	addi.n	a14, a2, 15
10005ec0:	b3e230                                    	movgez	a14, a2, a3
10005ec3:	f0a0f2                                    	movi	a15, 240
10005ec6:	103ef0                                    	and	a3, a14, a15
10005ec9:	c03230                                    	sub	a3, a2, a3
10005ecc:	233300                                    	sext	a3, a3, 7
10005ecf:	b1cb                                    	addi.n	a11, a1, 12
10005ed1:	8c0c                                    	movi.n	a12, 8
10005ed3:	05ad                                    	mov.n	a10, a5
10005ed5:	4129                                    	s32i.n	a2, a1, 16
10005ed7:	3139                                    	s32i.n	a3, a1, 12
10005ed9:	000265                                    	call8	10005f00 <com_shared_mem_write>
10005edc:	020c                                    	movi.n	a2, 0

10005ede <com_queue_read+0x8e>:
10005ede:	f01d                                    	retw.n

10005ee0 <com_queue_dump>:
10005ee0:	00e136                                    	entry	a1, 112
10005ee3:	051c                                    	movi.n	a5, 16
10005ee5:	41cb                                    	addi.n	a4, a1, 12
10005ee7:	10c232                                    	addi	a3, a2, 16

10005eea <com_queue_dump+0xa>:
10005eea:	4c4c                                    	movi.n	a12, 68
10005eec:	04ad                                    	mov.n	a10, a4
10005eee:	20b330                                    	or	a11, a3, a3
10005ef1:	0001e5                                    	call8	10005f10 <com_shared_mem_read>
10005ef4:	550b                                    	addi.n	a5, a5, -1
10005ef6:	44c332                                    	addi	a3, a3, 68
10005ef9:	fed556                                    	bnez	a5, 10005eea <com_queue_dump+0xa>
10005efc:	f01d                                    	retw.n

10005efe <com_queue_dump+0x1e>:
	...

10005f00 <com_shared_mem_write>:
10005f00:	004136                                    	entry	a1, 32
10005f03:	02ad                                    	mov.n	a10, a2
10005f05:	03bd                                    	mov.n	a11, a3
10005f07:	04cd                                    	mov.n	a12, a4
10005f09:	0005e5                                    	call8	10005f68 <memcpy>
10005f0c:	f01d                                    	retw.n

10005f0e <com_shared_mem_write+0xe>:
	...

10005f10 <com_shared_mem_read>:
10005f10:	004136                                    	entry	a1, 32
10005f13:	02ad                                    	mov.n	a10, a2
10005f15:	03bd                                    	mov.n	a11, a3
10005f17:	04cd                                    	mov.n	a12, a4
10005f19:	0004e5                                    	call8	10005f68 <memcpy>
10005f1c:	f01d                                    	retw.n

10005f1e <com_shared_mem_read+0xe>:
	...

10005f20 <__memcpy_aux>:
	...

10005f2d <__memcpy_aux+0xd>:
10005f2d:	099476                                    	loopnez	a4, 10005f3a <__memcpy_aux+0x1a>
10005f30:	000362                                    	l8ui	a6, a3, 0
10005f33:	331b                                    	addi.n	a3, a3, 1
10005f35:	004562                                    	s8i	a6, a5, 0
10005f38:	551b                                    	addi.n	a5, a5, 1

10005f3a <__memcpy_aux+0x1a>:
10005f3a:	f01d                                    	retw.n

10005f3c <__memcpy_aux+0x1c>:
10005f3c:	ed74b6                                    	bltui	a4, 7, 10005f2d <__memcpy_aux+0xd>
10005f3f:	000362                                    	l8ui	a6, a3, 0
10005f42:	331b                                    	addi.n	a3, a3, 1
10005f44:	440b                                    	addi.n	a4, a4, -1
10005f46:	004562                                    	s8i	a6, a5, 0
10005f49:	551b                                    	addi.n	a5, a5, 1
10005f4b:	256517                                    	bbci	a5, 1, 10005f74 <memcpy+0xc>
10005f4e:	db64b6                                    	bltui	a4, 6, 10005f2d <__memcpy_aux+0xd>
10005f51:	000362                                    	l8ui	a6, a3, 0
10005f54:	010372                                    	l8ui	a7, a3, 1
10005f57:	332b                                    	addi.n	a3, a3, 2
10005f59:	fec442                                    	addi	a4, a4, -2
10005f5c:	004562                                    	s8i	a6, a5, 0
10005f5f:	014572                                    	s8i	a7, a5, 1
10005f62:	552b                                    	addi.n	a5, a5, 2
10005f64:	000306                                    	j	10005f74 <memcpy+0xc>

10005f67 <__memcpy_aux+0x47>:
	...

10005f68 <memcpy>:
10005f68:	002136                                    	entry	a1, 16
10005f6b:	205220                                    	or	a5, a2, a2
10005f6e:	cae207                                    	bbsi	a2, 0, 10005f3c <__memcpy_aux+0x1c>
10005f71:	d9e217                                    	bbsi	a2, 1, 10005f4e <__memcpy_aux+0x2e>

10005f74 <memcpy+0xc>:
10005f74:	417440                                    	srli	a7, a4, 4
10005f77:	018320                                    	slli	a8, a3, 30
10005f7a:	05a856                                    	bnez	a8, 10005fd8 <memcpy+0x70>
10005f7d:	159776                                    	loopnez	a7, 10005f96 <memcpy+0x2e>
10005f80:	0368                                    	l32i.n	a6, a3, 0
10005f82:	1378                                    	l32i.n	a7, a3, 4
10005f84:	0569                                    	s32i.n	a6, a5, 0
10005f86:	2368                                    	l32i.n	a6, a3, 8
10005f88:	1579                                    	s32i.n	a7, a5, 4
10005f8a:	3378                                    	l32i.n	a7, a3, 12
10005f8c:	2569                                    	s32i.n	a6, a5, 8
10005f8e:	10c332                                    	addi	a3, a3, 16
10005f91:	3579                                    	s32i.n	a7, a5, 12
10005f93:	10c552                                    	addi	a5, a5, 16

10005f96 <memcpy+0x2e>:
10005f96:	0b6437                                    	bbci	a4, 3, 10005fa5 <memcpy+0x3d>
10005f99:	0368                                    	l32i.n	a6, a3, 0
10005f9b:	1378                                    	l32i.n	a7, a3, 4
10005f9d:	338b                                    	addi.n	a3, a3, 8
10005f9f:	0569                                    	s32i.n	a6, a5, 0
10005fa1:	1579                                    	s32i.n	a7, a5, 4
10005fa3:	558b                                    	addi.n	a5, a5, 8

10005fa5 <memcpy+0x3d>:
10005fa5:	07e427                                    	bbsi	a4, 2, 10005fb0 <memcpy+0x48>
10005fa8:	14e417                                    	bbsi	a4, 1, 10005fc0 <memcpy+0x58>
10005fab:	20e407                                    	bbsi	a4, 0, 10005fcf <memcpy+0x67>
10005fae:	f01d                                    	retw.n

10005fb0 <memcpy+0x48>:
10005fb0:	0368                                    	l32i.n	a6, a3, 0
10005fb2:	334b                                    	addi.n	a3, a3, 4
10005fb4:	0569                                    	s32i.n	a6, a5, 0
10005fb6:	554b                                    	addi.n	a5, a5, 4
10005fb8:	04e417                                    	bbsi	a4, 1, 10005fc0 <memcpy+0x58>
10005fbb:	10e407                                    	bbsi	a4, 0, 10005fcf <memcpy+0x67>
10005fbe:	f01d                                    	retw.n

10005fc0 <memcpy+0x58>:
10005fc0:	001362                                    	l16ui	a6, a3, 0
10005fc3:	332b                                    	addi.n	a3, a3, 2
10005fc5:	005562                                    	s16i	a6, a5, 0
10005fc8:	552b                                    	addi.n	a5, a5, 2
10005fca:	01e407                                    	bbsi	a4, 0, 10005fcf <memcpy+0x67>
10005fcd:	f01d                                    	retw.n

10005fcf <memcpy+0x67>:
10005fcf:	000362                                    	l8ui	a6, a3, 0
10005fd2:	004562                                    	s8i	a6, a5, 0
10005fd5:	f01d                                    	retw.n

10005fd7 <memcpy+0x6f>:
	...

10005fd8 <memcpy+0x70>:
10005fd8:	ff9416                                    	beqz	a4, 10005fd5 <memcpy+0x6d>
10005fdb:	402300                                    	ssa8l	a3
10005fde:	15be80                                    	extui	a11, a8, 30, 2
10005fe1:	c033b0                                    	sub	a3, a3, a11
10005fe4:	0368                                    	l32i.n	a6, a3, 0
10005fe6:	219776                                    	loopnez	a7, 1000600b <memcpy+0xa3>
10005fe9:	1378                                    	l32i.n	a7, a3, 4
10005feb:	2388                                    	l32i.n	a8, a3, 8
10005fed:	816760                                    	src	a6, a7, a6
10005ff0:	0569                                    	s32i.n	a6, a5, 0
10005ff2:	3398                                    	l32i.n	a9, a3, 12
10005ff4:	817870                                    	src	a7, a8, a7
10005ff7:	1579                                    	s32i.n	a7, a5, 4
10005ff9:	4368                                    	l32i.n	a6, a3, 16
10005ffb:	818980                                    	src	a8, a9, a8
10005ffe:	2589                                    	s32i.n	a8, a5, 8
10006000:	10c332                                    	addi	a3, a3, 16
10006003:	819690                                    	src	a9, a6, a9
10006006:	3599                                    	s32i.n	a9, a5, 12
10006008:	10c552                                    	addi	a5, a5, 16

1000600b <memcpy+0xa3>:
1000600b:	136437                                    	bbci	a4, 3, 10006022 <memcpy+0xba>
1000600e:	1378                                    	l32i.n	a7, a3, 4
10006010:	2388                                    	l32i.n	a8, a3, 8
10006012:	816760                                    	src	a6, a7, a6
10006015:	0569                                    	s32i.n	a6, a5, 0
10006017:	338b                                    	addi.n	a3, a3, 8
10006019:	817870                                    	src	a7, a8, a7
1000601c:	1579                                    	s32i.n	a7, a5, 4
1000601e:	558b                                    	addi.n	a5, a5, 8
10006020:	086d                                    	mov.n	a6, a8

10006022 <memcpy+0xba>:
10006022:	0c6427                                    	bbci	a4, 2, 10006032 <memcpy+0xca>
10006025:	1378                                    	l32i.n	a7, a3, 4
10006027:	334b                                    	addi.n	a3, a3, 4
10006029:	816760                                    	src	a6, a7, a6
1000602c:	0569                                    	s32i.n	a6, a5, 0
1000602e:	554b                                    	addi.n	a5, a5, 4
10006030:	076d                                    	mov.n	a6, a7
10006032:	33ba                                    	add.n	a3, a3, a11
10006034:	04e417                                    	bbsi	a4, 1, 1000603c <memcpy+0xd4>
10006037:	16e407                                    	bbsi	a4, 0, 10006051 <memcpy+0xe9>
1000603a:	f01d                                    	retw.n

1000603c <memcpy+0xd4>:
1000603c:	000362                                    	l8ui	a6, a3, 0
1000603f:	010372                                    	l8ui	a7, a3, 1
10006042:	332b                                    	addi.n	a3, a3, 2
10006044:	004562                                    	s8i	a6, a5, 0
10006047:	014572                                    	s8i	a7, a5, 1
1000604a:	552b                                    	addi.n	a5, a5, 2
1000604c:	01e407                                    	bbsi	a4, 0, 10006051 <memcpy+0xe9>
1000604f:	f01d                                    	retw.n

10006051 <memcpy+0xe9>:
10006051:	000362                                    	l8ui	a6, a3, 0
10006054:	004562                                    	s8i	a6, a5, 0
10006057:	f01d                                    	retw.n

10006059 <memcpy+0xf1>:
10006059:	00000000                                 .......

10006060 <__memset_aux>:
	...

1000606d <__memset_aux+0xd>:
1000606d:	049476                                    	loopnez	a4, 10006075 <__memset_aux+0x15>
10006070:	004532                                    	s8i	a3, a5, 0
10006073:	551b                                    	addi.n	a5, a5, 1

10006075 <__memset_aux+0x15>:
10006075:	f01d                                    	retw.n

10006077 <__memset_aux+0x17>:
	...

10006078 <__memset_aux+0x18>:
10006078:	f184b6                                    	bltui	a4, 8, 1000606d <__memset_aux+0xd>
1000607b:	004532                                    	s8i	a3, a5, 0
1000607e:	551b                                    	addi.n	a5, a5, 1
10006080:	440b                                    	addi.n	a4, a4, -1
10006082:	286517                                    	bbci	a5, 1, 100060ae <memset+0x1a>
10006085:	e484b6                                    	bltui	a4, 8, 1000606d <__memset_aux+0xd>
10006088:	005532                                    	s16i	a3, a5, 0
1000608b:	552b                                    	addi.n	a5, a5, 2
1000608d:	fec442                                    	addi	a4, a4, -2
10006090:	000686                                    	j	100060ae <memset+0x1a>

10006093 <__memset_aux+0x33>:
	...

10006094 <memset>:
10006094:	002136                                    	entry	a1, 16
10006097:	743030                                    	extui	a3, a3, 0, 8
1000609a:	117380                                    	slli	a7, a3, 8
1000609d:	203370                                    	or	a3, a3, a7
100060a0:	117300                                    	slli	a7, a3, 16
100060a3:	203370                                    	or	a3, a3, a7
100060a6:	025d                                    	mov.n	a5, a2
100060a8:	cce207                                    	bbsi	a2, 0, 10006078 <__memset_aux+0x18>
100060ab:	d6e217                                    	bbsi	a2, 1, 10006085 <__memset_aux+0x25>

100060ae <memset+0x1a>:
100060ae:	417440                                    	srli	a7, a4, 4
100060b1:	0a9776                                    	loopnez	a7, 100060bf <memset+0x2b>
100060b4:	0539                                    	s32i.n	a3, a5, 0
100060b6:	1539                                    	s32i.n	a3, a5, 4
100060b8:	2539                                    	s32i.n	a3, a5, 8
100060ba:	3539                                    	s32i.n	a3, a5, 12
100060bc:	10c552                                    	addi	a5, a5, 16

100060bf <memset+0x2b>:
100060bf:	056437                                    	bbci	a4, 3, 100060c8 <memset+0x34>
100060c2:	0539                                    	s32i.n	a3, a5, 0
100060c4:	1539                                    	s32i.n	a3, a5, 4
100060c6:	558b                                    	addi.n	a5, a5, 8

100060c8 <memset+0x34>:
100060c8:	036427                                    	bbci	a4, 2, 100060cf <memset+0x3b>
100060cb:	0539                                    	s32i.n	a3, a5, 0
100060cd:	554b                                    	addi.n	a5, a5, 4
100060cf:	046417                                    	bbci	a4, 1, 100060d7 <memset+0x43>
100060d2:	005532                                    	s16i	a3, a5, 0
100060d5:	552b                                    	addi.n	a5, a5, 2
100060d7:	026407                                    	bbci	a4, 0, 100060dd <memset+0x49>
100060da:	004532                                    	s8i	a3, a5, 0
100060dd:	f01d                                    	retw.n

100060df <memset+0x4b>:
	...

100060e0 <_xtos_return_from_exc>:
100060e0:	1528                                    	l32i.n	a2, a5, 4
100060e2:	0538                                    	l32i.n	a3, a5, 0
100060e4:	13e620                                    	wsr.ps	a2
100060e7:	4528                                    	l32i.n	a2, a5, 16
100060e9:	6548                                    	l32i.n	a4, a5, 24
100060eb:	002010                                    	rsync
100060ee:	13b130                                    	wsr.epc1	a3
100060f1:	5538                                    	l32i.n	a3, a5, 20
100060f3:	7558                                    	l32i.n	a5, a5, 28
100060f5:	003000                                    	rfe

100060f8 <xthal_get_ccount>:
100060f8:	002136                                    	entry	a1, 16
100060fb:	03ea20                                    	rsr.ccount	a2
100060fe:	f01d                                    	retw.n

10006100 <xthal_set_ccompare>:
10006100:	002136                                    	entry	a1, 16
10006103:	62cc                                    	bnez.n	a2, 1000610d <xthal_set_ccompare+0xd>
10006105:	13f030                                    	wsr.ccompare0	a3
10006108:	002010                                    	rsync
1000610b:	f01d                                    	retw.n

1000610d <xthal_set_ccompare+0xd>:
1000610d:	071266                                    	bnei	a2, 1, 10006118 <xthal_set_ccompare+0x18>
10006110:	13f130                                    	wsr.ccompare1	a3
10006113:	002010                                    	rsync
10006116:	f01d                                    	retw.n

10006118 <xthal_set_ccompare+0x18>:
10006118:	f01d                                    	retw.n

1000611a <xthal_set_ccompare+0x1a>:
	...

1000611c <xthal_get_ccompare>:
1000611c:	002136                                    	entry	a1, 16
1000611f:	52cc                                    	bnez.n	a2, 10006128 <xthal_get_ccompare+0xc>
10006121:	03f020                                    	rsr.ccompare0	a2
10006124:	f01d                                    	retw.n

10006126 <xthal_get_ccompare+0xa>:
	...

10006128 <xthal_get_ccompare+0xc>:
10006128:	041266                                    	bnei	a2, 1, 10006130 <xthal_get_ccompare+0x14>
1000612b:	03f120                                    	rsr.ccompare1	a2
1000612e:	f01d                                    	retw.n

10006130 <xthal_get_ccompare+0x14>:
10006130:	020c                                    	movi.n	a2, 0
10006132:	f01d                                    	retw.n

Disassembly of section .dram0.com_tables.data:

10020000 <com_static_data_init>:
10020000:	64002005 00010000 00000000 018c1004     . .d............
10020010:	021d0008 01845003 031c1014 021c100d     .....P..........
10020020:	043d0018 030c5013 063c1024 043c101d     ..=..P..$.<...<.
10020030:	007d0028 061c5023 007c102d 018d0044     (.}.#P..-.|.D...
10020040:	020f0048 018c1043 031d0054 021d004d     H...C...T...M...
10020050:	041f0058 031c1053 063d0064 043d005d     X...S...d.=.].=.
10020060:	003f0068 063c1063 007d006d 01841084     h.?.c.<.m.}.....
10020070:	020d0088 01805083 030c1094 020c108d     .....P..........
10020080:	041d0098 03045093 061c10a4 041c109d     .....P..........
10020090:	003d00a8 060c50a3 003c10ad 018500c4     ..=..P....<.....
100200a0:	020700c8 018410c3 030d00d4 020d00cd     ................
100200b0:	040f00d8 030c10d3 061d00e4 041d00dd     ................
100200c0:	001f00e8 061c10e3 003d00ed 01801104     ..........=.....
100200d0:	02050108 0180d103 03041114 0204110d     ................
100200e0:	040d0118 03005113 060c1124 040c111d     .....Q..$.......
100200f0:	001d0128 06045123 001c112d 01810144     (...#Q..-...D...
10020100:	02030148 01801143 03050154 0205014d     H...C...T...M...
10020110:	04070158 03041153 060d0164 040d015d     X...S...d...]...
10020120:	000f0168 060c1163 001d016d 01803184     h...c...m....1..
10020130:	02010188 0180f183 03001194 0200118d     ................
10020140:	04050198 0300d193 060411a4 0404119d     ................
10020150:	000d01a8 060051a3 000c11ad 018001c4     .....Q..........
10020160:	018001c3 030101d4 020101cd 040301d8     ................
10020170:	030011d3 060501e4 040501dd 000701e8     ................
10020180:	060411e3 000d01ed 02000208 03003214     .............2..
10020190:	0200320d 04010218 0300f213 06001224     .2..........$...
100201a0:	0400121d 00050228 06007223 0004122d     ....(...#r..-...
100201b0:	03000254 0200024d 03003253 06010264     T...M...S2..d...
100201c0:	0401025d 06001263 0005026d 04000298     ]...c...m.......
100201d0:	060032a4 0400329d 000102a8 0600f2a3     .2...2..........
100201e0:	000012ad 030002d3 060002e4 060032e3     .............2..
100201f0:	000102ed 01800d44 02000d88 03000dd4     ....D...........
10020200:	02000dcd 04000e18 06000e64 04000e5d     ........d...]...
10020210:	00001823 00004c37 00002cb3 00008d31     #...7L...,..1...
10020220:	0000504f 000030c7 00009143 000051c1     OP...0..C....Q..
10020230:	000034df 00009557 000055d3 08100408     .4..W....U......
10020240:	20401020 00004080 0c18060c 30601830      .@ .@......0.`0
10020250:	408060c0 0204a020 0225a862 0246b0a4     .`.@ ...b.%...F.
10020260:	0267b8e6 021ce230 023dea72 025ef2b4     ..g.0...r.=...^.
10020270:	027ffaf6 093223c6 09f3a6cc 0ab529d2     .....#2......)..
10020280:	0b76acd8 0c382fde 0cf9b2e4 0dbb35ea     ..v../8......5..
10020290:	0e7cb8f0 25ca22c4 2bd628d0 31e22edc     ..|..".%.(.+...1
100202a0:	37ee34e8 3c773af4 43424140 00001001     .4.7.:w<@ABC....
100202b0:	00001208 00001007 0000180b 0000200f     ............. ..
100202c0:	00003017 0000401f 0000602f 0000803f     .0...@../`..?...
100202d0:	0000c05f 0001007f 000180bf 000200ff     _...............
100202e0:	0003017f 0000200f 00003017 0000401f     ..... ...0...@..
100202f0:	0000602f 0000803f 0000c05f 0001007f     /`..?..._.......
10020300:	000180bf 000200ff 0003017f 000401ff     ................
10020310:	000602ff                                ....

Disassembly of section .dram0.ax_tables.data:

10020314 <ax_static_data_init>:
10020314:	0023fc00 0023fc00 bddd6200 00000000     ..#...#..b......
10020324:	00040130 00050240 00030121 02241131     0...@...!...1.$.
10020334:	02251241 02231122 02241232 05543132     A.%.".#.2.$.21T.
10020344:	02251442 05553242 05553454 04452443     B.%.B2U.T4U.C$E.
10020354:	04432224 05533124 02241434 04442434     $"C.$1S.4.$.4$D.
10020364:	05543234 05553444 04432225 04442435     42T.D4U.%"C.5$D.
10020374:	07412106 05523116 05231426 07432426     .!A..1R.&.#.&$C.
10020384:	05533226 05543436 07412107 07432427     &2S.64T..!A.'$C.
10020394:	08513108 05523218 05533428 07422419     .1Q..2R.(4S..$B.
100203a4:	0551320a 0552341a 0741240b 0851340c     .2Q..4R..$A..4Q.
	...
100203c4:	81154243 84154444 82255244 84134125     CB..DD..DR%.%A..
100203d4:	84144235 84154445 87134226 87144436     5B..ED..&B..6D..
100203e4:	85245236 85255446 86356446 87457346     6R$.FT%.Fd5.FsE.
100203f4:	87134227 87144437 87447227 81134428     'B..7D..'rD.(D..
10020404:	88235228 86336228 88245438 86346438     (R#.(b3.8T$.8d4.
10020414:	87447338 87114109 87427119 87134429     8sD..A...qB.)D..
10020424:	87437229 8711420a 8712441a 8822521a     )rC..B...D...R".
10020434:	8632621a 8742721a 8523542a 8333642a     .b2..rB.*T#.*d3.
10020444:	8743732a 8743742a 8711420b 8712441b     *sC.*tC..B...D..
10020454:	8742721b 8821520c 8631620c 8741720c     .rB..R!..b1..rA.
10020464:	8822541c 8632641c 8742741c 8741720d     .T"..d2..tB..rA.
10020474:	8821540e 00000000 00000000 00000000     .T!.............
	...
100204a4:	114b127c 114b127c 0c49123c 114b127c     |.K.|.K.<.I.|.K.
100204b4:	114b127c 0c49123c 0c49123c 114b127c     |.K.<.I.<.I.|.K.
100204c4:	0c49123c 114b127c 0c4b22fc 0c49123d     <.I.|.K.."K.=.I.
100204d4:	0bd1122f 0c49123c 0b48121c 0bd1122f     /...<.I...H./...
100204e4:	0c49123c 0c49123c 0b48121d 0b48121d     <.I.<.I...H...H.
100204f4:	0bd11417 0b48121c 0948140c 0bd11417     ......H...H.....
10020504:	0b48121c 0b48121c 0948140d 0948140d     ..H...H...H...H.
10020514:	0948140c 0c48220c 0c48220c 07482405     ..H.."H.."H..$H.
10020524:	0a484204 0a484204 06484501 06484500     .BH..BH..EH..EH.
	...
10020544:	1148127d 0fd1145f 1148127c 0c48143d     }.H._...|.H.=.H.
10020554:	0c48143d 0c48143d 0bd1182f 0bd1182f     =.H.=.H./.../...
10020564:	0c48143c 0c48143c 0d61144c 0fd1145d     <.H.<.H.L.a.]...
10020574:	0b48181d 0b48181d 0c48143d 0ed10217     ..H...H.=.H.....
10020584:	0b48181c 0d6124cc 0b48181c 0d6124cc     ..H..$a...H..$a.
10020594:	0fd124dd 0c48280d 0c4824bd 0c48280d     .$...(H..$H..(H.
100205a4:	0c4824bd 0bd1480b 0bd1480b 0c48280c     .$H..H...H...(H.
100205b4:	0d614410 0ed14417 0c48440c 0d610210     .Da..D...DH...a.
100205c4:	0ed14415 0ed14417 0a484805 0a484805     .D...D...HH..HH.
100205d4:	0c48440d 0a484804 0d610490 0bd1040b     .DH..HH...a.....
100205e4:	0a484804 0d610490 0bd1040b 0a480405     .HH...a.......H.
100205f4:	09480900 00000000 00000000 00000000     ..H.............
	...
10020624:	bbc020af 03000200 1f3f4d36 00000010     . ......6M?.....
10020634:	00000011 00000012 00000013 00000014     ................
10020644:	00000015 00000016 00000017 00000018     ................
10020654:	00000019 0000001a 00000028 00000029     ........(...)...
10020664:	0000002a 0000001f 00000000 00000001     *...............
10020674:	00000002 00000003 00000004 00000005     ................
10020684:	00000006 00000007 00000008 00000009     ................
10020694:	0000000a 00000020 00000021 00000022     .... ...!..."...
100206a4:	0000000f 00000025 0000002f bc70306f     ....%.../...o0p.
100206b4:	01000200 1f3f4936 00000010 00000011     ....6I?.........
100206c4:	00000012 00000013 00000014 00000015     ................
100206d4:	00000016 00000028 00000029 0000002a     ....(...)...*...
100206e4:	0000002b 0000001f 00000000 00000001     +...............
100206f4:	00000002 00000003 00000004 00000005     ................
10020704:	00000006 00000020 00000021 00000022     .... ...!..."...
10020714:	00000023 0000000f 00000025 00000025     #.......%...%...
10020724:	00000025 00000025 00000025 00000025     %...%...%...%...
10020734:	00000025 00000025 a382007f 00000100     %...%...........
10020744:	1f3f4a35 00000010 00000011 00000012     5J?.............
10020754:	00000013 00000014 00000015 00000016     ................
10020764:	00000017 00000028 00000029 0000002a     ....(...)...*...
10020774:	0000001f 00000000 00000001 00000002     ................
10020784:	00000003 00000004 00000005 00000006     ................
10020794:	00000007 00000020 00000021 00000022     .... ...!..."...
100207a4:	0000000f 00000025 00000025 00000025     ....%...%...%...
100207b4:	00000025 00000025 00000025 00000025     %...%...%...%...
100207c4:	00000025 9bd000a7 05000200 7f004c26     %...........&L..
100207d4:	00000010 00000011 00000012 00000013     ................
100207e4:	00000014 00000015 00000016 00000017     ................
100207f4:	00000018 00000019 0000001a 0000001e     ................
10020804:	00000028 00000029 0000002a 00000000     (...)...*.......
10020814:	00000001 00000002 00000003 00000004     ................
10020824:	00000005 00000006 00000007 00000008     ................
10020834:	00000009 0000000a 0000000e 00000020     ............ ...
10020844:	00000021 00000022 00000025 0000001f     !..."...%.......
10020854:	94803067 05000200 1f004826 00000010     g0......&H......
10020864:	00000011 00000012 00000013 00000014     ................
10020874:	00000015 00000016 0000001f 00000028     ............(...
10020884:	00000029 0000002a 0000002b 00000000     )...*...+.......
10020894:	00000001 00000002 00000003 00000004     ................
100208a4:	00000005 00000006 0000000f 00000020     ............ ...
100208b4:	00000021 00000022 00000023 00000025     !..."...#...%...
100208c4:	00000025 00000025 00000025 00000025     %...%...%...%...
100208d4:	00000025 00000025 00000025 00000000     %...%...%.......
100208e4:	00004481 1f001025 00000000 00000001     .D..%...........
100208f4:	00000002 00000003 00000004 00000005     ................
10020904:	00000006 00000007 00000007 00000007     ................
10020914:	00000007 00000007 00000007 00000007     ................
10020924:	00000007 00000007 0000000c 0000000d     ................
10020934:	0000000e 0000000f 00000010 00000011     ................
10020944:	00000012 00000013 00000013 00000013     ................
10020954:	00000013 00000013 00000013 00000013     ................
10020964:	00000013 00000013 00000008 00000009     ................
10020974:	0000000a 0000000b 00000014 00000015     ................
10020984:	00000016 00000017 00006479 1f3f1035     ........yd..5.?.
10020994:	00000000 00000001 00000002 00000003     ................
100209a4:	00000004 00000005 00000006 00000020     ............ ...
100209b4:	00000021 00000021 00000021 00000021     !...!...!...!...
100209c4:	00000021 00000021 00000021 0000000b     !...!...!.......
100209d4:	0000000c 0000000d 0000000e 0000000f     ................
100209e4:	00000010 00000011 00000012 00000020     ............ ...
100209f4:	00000021 00000021 00000021 00000021     !...!...!...!...
10020a04:	00000021 00000021 00000021 00000017     !...!...!.......
10020a14:	00000007 00000008 00000009 0000000a     ................
10020a24:	00000013 00000014 00000015 00000016     ................
10020a34:	00002499 1f001015 00000000 00000001     .$..............
10020a44:	00000002 00000003 00000004 00000005     ................
10020a54:	00000006 00000007 00000008 00000021     ............!...
10020a64:	00000021 00000021 00000021 00000021     !...!...!...!...
10020a74:	00000021 00000009 0000000a 0000000b     !...............
10020a84:	0000000c 0000000d 0000000e 0000000f     ................
10020a94:	00000010 00000011 00000012 00000021     ............!...
10020aa4:	00000021 00000021 00000021 00000021     !...!...!...!...
10020ab4:	00000021 00000013 00000014 00000015     !...............
10020ac4:	00000016 00000017 00000014 00000015     ................
10020ad4:	00000016 00000017 000004a1 1f001005     ................
10020ae4:	00000000 00000001 00000002 00000003     ................
10020af4:	00000004 00000005 00000006 00000007     ................
10020b04:	00000008 00000009 00000009 00000009     ................
10020b14:	00000009 00000009 00000009 00000009     ................
10020b24:	0000000a 0000000b 0000000c 0000000d     ................
10020b34:	0000000e 0000000f 00000010 00000011     ................
10020b44:	00000012 00000013 00000013 00000013     ................
10020b54:	00000013 00000013 00000013 00000013     ................
10020b64:	00000014 00000015 00000016 00000017     ................
10020b74:	00000014 00000015 00000016 00000017     ................
10020b84:	00000007 000007c2 00000b68              ........h...

Disassembly of section .dram0.rodata:

10024000 <__handler_table>:
10024000:	10000bd4 100058a8 10000bd4 10000bd4     .....X..........
10024010:	10005b98 10000810 10000bd4 10000bd4     .[..............
10024020:	10000bd4 10000bd4 10000bd4 10000bf4     ................

Disassembly of section .dram0.data:

10024030 <g_idma_desc2d>:
	...

10024050 <g_idma_desc_memcpy>:
	...

Disassembly of section .rtos.rodata:

10024060 <Xthal_intlevel>:
10024060:	00020001 00020002 00010001 00060003     ................
10024070:	00020002 00020002 00010001 00010001     ................
10024080:	00020002 00020002 00010001 00010001     ................
10024090:	00010001 00040002 00010001 00020001     ................
	...

Disassembly of section .rodata:

10024160 <__switchjump_table_xp_temp_1_0>:
10024160:	100015b5 100015de 100015fa 100015fa     ................
10024170:	100015fa 100015fa 100015e7 100015fa     ................
10024180:	100015fa 100015f0                       ........

10024188 <__switchjump_table_xp_temp_3_0>:
10024188:	100016f6 10001714 1000172e 10001749     ............I...
	...

100241a0 <com_bfn_8inst_tbl>:
100241a0:	0383c040 0383c048 0383c04c 0383c054     @...H...L...T...
100241b0:	0387c040 0387c048 0387c04c 0387c054     @...H...L...T...
100241c0:	038bc040 038bc048 038bc04c 038bc054     @...H...L...T...
100241d0:	038fc040 038fc048 038fc04c 038fc054     @...H...L...T...
100241e0:	0393c040 0393c048 0393c04c 0393c054     @...H...L...T...
100241f0:	0397c040 0397c048 0397c04c 0397c054     @...H...L...T...
10024200:	039bc040 039bc048 039bc04c 039bc054     @...H...L...T...
10024210:	039fc040 039fc048 039fc04c 039fc054     @...H...L...T...
10024220:	0527f300 0527f308 0527f30c 0527f314     ..'...'...'...'.
10024230:	0529f300 0529f308 0529f30c 0529f314     ..)...)...)...).
10024240:	052bf300 052bf308 052bf30c 052bf314     ..+...+...+...+.
10024250:	052df300 052df308 052df30c 052df314     ..-...-...-...-.
10024260:	052ff300 052ff308 052ff30c 052ff314     ../.../.../.../.
10024270:	0531f300 0531f308 0531f30c 0531f314     ..1...1...1...1.
10024280:	0533f300 0533f308 0533f30c 0533f314     ..3...3...3...3.
10024290:	0535f300 0535f308 0535f30c 0535f314     ..5...5...5...5.
100242a0:	0513f300 0513f308 0513f30c 0513f314     ................
100242b0:	0515f300 0515f308 0515f30c 0515f314     ................
100242c0:	0517f300 0517f308 0517f30c 0517f314     ................
100242d0:	0519f300 0519f308 0519f30c 0519f314     ................
100242e0:	051bf300 051bf308 051bf30c 051bf314     ................
100242f0:	051df300 051df308 051df30c 051df314     ................
10024300:	051ff300 051ff308 051ff30c 051ff314     ................
10024310:	0521f300 0521f308 0521f30c 0521f314     ..!...!...!...!.

10024320 <__switchjump_table_xp_temp_8_0>:
10024320:	10002e17 10002e07 10002e07 10002e1f     ................
10024330:	10002e27 10002e34 10002e53 10002e5b     '...4...S...[...
10024340:	10002e63 10002e0f 10002e79 10002e81     c.......y.......
10024350:	10002e0f                                ....

10024354 <__switchjump_table_xp_temp_10_0>:
10024354:	10002ef8 10002ee0 10002f00 10002ee0     ........./......
10024364:	10002f08 10002f10 10002f15 10002f15     ./.../.../.../..
10024374:	10002f24 10002f2c 00000000              $/..,/......

10024380 <com_gpdma_trw_info>:
10024380:	00000040 00000006 00000020 00000005     @....... .......
10024390:	00000010 00000004 00000008 00000003     ................
100243a0:	00000004 00000002 00000002 00000001     ................
100243b0:	00000001 00000000                       ........

100243b8 <com_gpdma_trw_info+0x38>:
	...

100243c0 <gpdma_cfg>:
100243c0:	00270000 00000145 04502000 00000d54     ..'.E.... P.T...
100243d0:	04503000 00000d54 04702000 00000d54     .0P.T.... p.T...
100243e0:	04703000 00000d54 00000000 00000000     .0p.T...........

100243f0 <jesd_clk_to_char_div_lut>:
100243f0:	00000002 00000000 00000001 00000000     ................
	...
10024418:	00000001 00000000 00000000 00000000     ................
	...

10024438 <jesd_clk_to_char_div_lut+0x48>:
	...

10024440 <jesd_sample_to_char_div_lut>:
10024440:	00000003 00000000 00000002 00000001     ................
10024450:	00000000 00000001 00000000 00000000     ................
	...
10024468:	00000002 00000000 00000000 00000001     ................
	...

10024488 <jesd_sample_to_char_div_lut+0x48>:
	...

10024490 <jesd_strm_mem_inst_cnt>:
10024490:	00000010 00000008 00000000 00000004     ................
	...
100244ac:	00000002 00000000 00000000 00000000     ................
	...
100244cc:	00000001                                ....

100244d0 <jesd_strm_mem_size>:
100244d0:	0000ffff 00007fff 00000000 00003fff     .............?..
	...
100244ec:	00001fff 00000000 00000000 00000000     ................
	...
1002450c:	00000fff                                ....

10024510 <jesd_rx_mem_strm_cfg_lut>:
10024510:	000001ff 000000ff 00000000 0000007f     ................
	...
1002452c:	0000003f 00000000 00000000 00000000     ?...............
	...
1002454c:	0000001f                                ....

10024550 <jesd_smpl_resn_n_lut>:
10024550:	0000000f 00000017                       ........

10024558 <jesd_smpl_resn_n_lut+0x8>:
	...

10024560 <sample_to_char_lut>:
10024560:	00000000 00000001 00000000 00000002     ................
	...
1002457c:	00000003                                ....

10024580 <tsad_map_lut>:
10024580:	00000080 00000100 00000500 00000a00     ................
10024590:	000000c0 00000180 00000780 00000f00     ................

100245a0 <com_gpdma_e_lock>:
100245a0:	00000008 00000009 00000000 00000000     ................

100245b0 <gp_v2d_bfn_csr>:
100245b0:	0383c000 0387c000 038bc000 038fc000     ................
100245c0:	0393c000 0397c000 039bc000 039fc000     ................
100245d0:	10024ed0 10026370                       .N..pc..

Disassembly of section .rtos.percpu.data:

100245d8 <_Pri_4_HandlerAddress-0x4>:
100245d8:	00000000                                ....

100245dc <_Pri_4_HandlerAddress>:
100245dc:	00000000                                ....

Disassembly of section .data:

100245e0 <ver_fw>:
100245e0:	00461a80                                ..F.

100245e4 <g_com_print_level>:
100245e4:	00000003 00000000 00000000              ............

100245f0 <direct_irq_config>:
100245f0:	00000000 00000001 00000002 00000003     ................
10024600:	00000004 00000005 00000006 00000007     ................
10024610:	0000001c 0000001d 0000001e 0000001f     ................
10024620:	0000000e 0000000f 00000000 00000000     ................

10024630 <aggr_irq_config>:
10024630:	00000010 00000000 00000000 00000000     ................
10024640:	00000000 00000011 00000000 00000000     ................
10024650:	00000001 00000000 00000012 00000000     ................
10024660:	00000000 00000002 00000000 00000013     ................
	...
10024678:	00000003 00000000 00000014 00000000     ................
10024688:	00000000 00000004 00000000 00000015     ................
	...
100246a0:	00000005 00000000 00000016 00000000     ................
100246b0:	00000000 00000006 00000000 00000017     ................
	...
100246c8:	00000007 00000000 00000018 00000000     ................
100246d8:	00000000 00000008 00000000 00000019     ................
	...
100246f0:	00000009 00000000 00000008 00000000     ................
10024700:	00000000 0000000a 00000000 00000009     ................
	...
10024718:	0000000b 00000000 0000000a 00000000     ................
10024728:	00000000 0000000c 00000000 0000000b     ................
	...
10024740:	0000000d 00000000 0000000c 00000000     ................
10024750:	00000000 0000000e 00000000 0000000d     ................
	...
10024768:	0000000f 00000000 0000001a 00000000     ................
10024778:	00000000 00000010 00000000 0000001b     ................
	...
10024790:	00000011 00000000                       ........

10024798 <reg3_data>:
10024798:	00000003 10025150 0026c260              ....PQ..`.&.

100247a4 <reg4_data>:
100247a4:	00000004 10024f10 0026c270              .....O..p.&.

100247b0 <reg5_data>:
100247b0:	00000005 10025080 0026c280              .....P....&.

100247bc <reg10_data>:
100247bc:	0000000a 10024f60 0026c2d0              ....`O....&.

100247c8 <reg13_data>:
100247c8:	0000000d 10024fe0 0026c300              .....O....&.

100247d4 <g_bfn_rmt_check>:
100247d4:	00000001                                ....

100247d8 <ver_commit_id>:
100247d8:	00000978                                x...

100247dc <g_idma_last_err>:
100247dc:	11111111                                ....

100247e0 <gpdma_irq_info>:
100247e0:	00000000 00000004 11111111 11111111     ................
	...
100247f8:	00000001 00000004 11111111 11111111     ................
	...
10024810:	00000002 00000004 11111111 11111111     ................
	...
10024828:	00000003 00000004 11111111 11111111     ................
	...
10024840:	00000004 00000004 11111111 11111111     ................
	...
10024858:	00000005 00000004 11111111 11111111     ................
	...
10024870:	00000006 00000004 11111111 11111111     ................
	...
10024888:	00000007 00000004 11111111 11111111     ................
	...
100248a0:	00000008 00000004 11111111 11111111     ................
	...
100248b8:	00000009 00000004 11111111 11111111     ................
	...

100248d0 <event_loop_continue>:
100248d0:	00000001                                ....

100248d4 <next_free_event>:
100248d4:	ffffffff                                ....

100248d8 <next_scheduled_event>:
100248d8:	ffffffff                                ....

100248dc <next_plo_pending_event>:
100248dc:	ffffffff                                ....

100248e0 <next_phi_pending_event>:
100248e0:	ffffffff                                ....

100248e4 <keepalive_event_callback.min>:
100248e4:	000186a0                                ....

100248e8 <p_system_data>:
100248e8:	00200000 00000000                       .. .....

100248f0 <ax_rx_hdlr_lut>:
100248f0:	100043c0 100044c8 0000fff6 00000000     .C...D..........
10024900:	00000000 00000001 100044d0 100044fc     .........D...D..
10024910:	0000fff8 000063d7 000007ae 00000001     .....c..........
10024920:	100044d0 100044fc 0000ff28 0000451e     .D...D..(....E..
10024930:	000007ae 00000001 100044d0 10004504     .........D...E..
10024940:	0000fff9 0000547a 000007ae 00000001     ....zT..........
10024950:	100044d0 1000450c 0000fffa 0000451e     .D...E.......E..
10024960:	000007ae 00000001 100044d0 1000450c     .........D...E..
10024970:	0000ff2a 00001eb8 000007ae 00000001     *...............
	...

100249a0 <ax_rx_spi_hdlr_lut>:
100249a0:	100044d0 00000000 0000ff38 000063d7     .D......8....c..
100249b0:	000007ae 00000001 100044d0 00000000     .........D......
100249c0:	0000ff48 0000451e 000007ae 00000001     H....E..........
100249d0:	100044d0 00000000 0000ff3a 0000451e     .D......:....E..
100249e0:	000007ae 00000001 100044d0 00000000     .........D......
100249f0:	0000ff4a 00001eb8 000007ae 00000001     J...............
	...

10024a20 <ax_tx_hdlr_lut>:
10024a20:	100045c0 100046ec 0000fff1 00000000     .E...F..........
10024a30:	00000000 00000001 100046f4 10004720     .........F.. G..
10024a40:	0000fff3 000063d7 000007ae 00000001     .....c..........
10024a50:	100046f4 10004720 0000ff23 0000451e     .F.. G..#....E..
10024a60:	000007ae 00000001 100046f4 10004728     .........F..(G..
10024a70:	0000fff4 0000547a 000007ae 00000001     ....zT..........
10024a80:	100046f4 10004730 0000fff5 0000451e     .F..0G.......E..
10024a90:	000007ae 00000001 100046f4 10004730     .........F..0G..
10024aa0:	0000ff25 00001eb8 000007ae 00000001     %...............
	...

10024ad0 <ax_tx_spi_hdlr_lut>:
10024ad0:	100046f4 00000000 0000ff33 000063d7     .F......3....c..
10024ae0:	000007ae 00000001 100046f4 00000000     .........F......
10024af0:	0000ff43 0000451e 000007ae 00000001     C....E..........
10024b00:	100046f4 00000000 0000ff35 0000451e     .F......5....E..
10024b10:	000007ae 00000001 100046f4 00000000     .........F......
10024b20:	0000ff45 00001eb8 000007ae 00000001     E...............
	...

10024b48 <rm_fbr_cfg.fbr_cfg_msg>:
10024b48:	0000fe00 00000000 00000000 00000000     ................

10024b58 <ax_daco>:
10024b58:	00000001 00000000 00000000 00000000     ................
	...
10024b74:	ffffffff ffffffff ffffffff ffffffff     ................
	...
10024b8c:	ffffffff ffffffff ffffffff ffffffff     ................
	...
10024ba4:	0000faaf 0000faaf 0000faaf 0000faaf     ................
	...
10024bbc:	0000faaf 0000faaf 0000faaf 0000faaf     ................
10024bcc:	00000000                                ....

10024bd0 <admin_hdlr_lut>:
10024bd0:	100052f0 00000000 0000ff10 00000000     .R..............
	...
10024be8:	10005324 00000000 0000ff15 00000000     $S..............
10024bf8:	00000000 00000001 100053e0 00000000     .........S......
10024c08:	0000ff11 00000000 00000000 00000000     ................
10024c18:	100053e8 00000000 0000ff13 00000000     .S..............
	...
10024c30:	100053f0 00000000 0000ff12 00000000     .S..............
	...
10024c48:	100053f8 00000000 0000ff14 00000000     .S..............
10024c58:	00000000 00000001 10005420 00000000     ........ T......
10024c68:	0000ff16 00000000 00000000 00000000     ................
	...

10024c90 <admin_msg_irq_hdlr_map>:
10024c90:	00000004 10005434 00000003 10004568     ....4T......hE..
10024ca0:	00000002 10004514 00000001 1000478c     .....E.......G..
10024cb0:	00000000 10004738                       ....8G..

10024cb8 <exception_11_cnt>:
10024cb8:	00000000                                ....

10024cbc <exception_11_cnt+0x4>:
10024cbc:	00000000                                ....

10024cc0 <xtos_enabled>:
10024cc0:	00000000                                ....

10024cc4 <xtos_vpri_enabled>:
10024cc4:	ffffffff                                ....

10024cc8 <xtos_interrupt_table>:
10024cc8:	100017c4 0000001f 100017c4 0000001e     ................
10024cd8:	100017c4 0000001d 100017c4 0000001c     ................
10024ce8:	100017c4 0000001b 100017c4 0000001a     ................
10024cf8:	100017c4 00000019 100017c4 00000018     ................
10024d08:	100017c4 00000017 100017c4 00000016     ................
10024d18:	100017c4 00000015 100017c4 00000014     ................
10024d28:	100017c4 00000013 100017c4 00000012     ................
10024d38:	100017c4 00000011 100017c4 00000010     ................
10024d48:	100017c4 0000000f 100017c4 0000000e     ................
10024d58:	100017c4 0000000d 100017c4 0000000c     ................
10024d68:	100017c4 0000000b 100017c4 0000000a     ................
10024d78:	100017c4 00000009 100017c4 00000008     ................
10024d88:	100017c4 00000007 100017c4 00000006     ................
10024d98:	100017c4 00000005 100017c4 00000004     ................
10024da8:	100017c4 00000003 100017c4 00000002     ................
10024db8:	100017c4 00000001 100017c4 00000000     ................

10024dc8 <xtos_interrupt_mask_table>:
10024dc8:	8c0f0fce 80000000 8c0f0fce 40000000     ...............@
10024dd8:	cc0f0fce 20000000 ec0f0fce 10000000     ....... ........
10024de8:	fc0f0fce 08000000 fc0f0fce 04000000     ................
10024df8:	fc0f0fce 02000000 fe0f0fce 01000000     ................
10024e08:	ff0f0fce 00800000 ff8f0fce 00400000     ..............@.
10024e18:	ffcf0fce 00200000 ffef0fce 00100000     ...... .........
10024e28:	ffff0fce 00080000 ffff0fce 00040000     ................
10024e38:	ffff0fce 00020000 ffff0fce 00010000     ................
10024e48:	ffff0fce 00008000 ffff8fce 00004000     .............@..
10024e58:	ffffcfce 00002000 ffffefce 00001000     ..... ..........
10024e68:	ffffffce 00000800 ffffffce 00000400     ................
10024e78:	ffffffce 00000200 ffffffce 00000100     ................
10024e88:	ffffffce 00000080 ffffffce 00000040     ............@...
10024e98:	ffffffce 00000020 ffffffee 00000010     .... ...........
10024ea8:	fffffffe 00000008 fffffffe 00000004     ................
10024eb8:	fffffffe 00000002 fffffffe 00000001     ................

Disassembly of section .bss:

10024ed0 <g_trace_base>:
10024ed0:	00000000                                ....

10024ed4 <heap>:
	...

10024f00 <trax_initialized>:
	...

10024f10 <reg4_irq_config>:
	...

10024f60 <reg10_irq_config>:
	...

10024fe0 <reg13_irq_config>:
	...

10025080 <reg5_irq_config>:
	...

10025150 <reg3_irq_config>:
	...

10025230 <edge_irq_reg0_handler_map>:
	...

10025330 <edge_irq_reg1_handler_map>:
	...

10025430 <edge_irq_reg2_handler_map>:
	...

10025530 <com_bfn_8inst_cfg>:
	...

10025538 <g_bfn_have_rmt>:
10025538:	00000000                                ....

1002553c <g_bfn_rmt_started>:
1002553c:	00000000                                ....

10025540 <g_bfn_is_ext_sync>:
10025540:	00000000                                ....

10025544 <com_bfn_2inst_cfg>:
10025544:	00000000                                ....

10025548 <com_bfn_4inst_cfg>:
10025548:	00000000                                ....

1002554c <com_bfn_jesd_cfg>:
1002554c:	00000000                                ....

10025550 <g_bfn_cntl_total>:
10025550:	00000000                                ....

10025554 <g_bfn_oops_cfg>:
10025554:	00000000                                ....

10025558 <com_trace_bfn_cpu_offset>:
10025558:	00000000                                ....

1002555c <com_write_trace_buffer.idx>:
1002555c:	00000000                                ....

10025560 <g_com_timing_epoch>:
10025560:	00000000                                ....

10025564 <g_com_timing_prev_tick>:
10025564:	00000000                                ....

10025568 <com_shm_lock_first_addr>:
10025568:	00000000                                ....

1002556c <com_shm_lock_last_addr>:
1002556c:	00000000                                ....

10025570 <g_idma_que_task>:
10025570:	00000000                                ....

10025574 <gp_idma_done_handler>:
10025574:	00000000                                ....

10025578 <gp_idma_err_handler>:
	...

10025580 <event_table>:
	...

10025d60 <keepalive_event_callback.loops>:
10025d60:	00000000                                ....

10025d64 <keepalive_event_callback.count>:
10025d64:	00000000                                ....

10025d68 <keepalive_event_callback.total>:
10025d68:	00000000                                ....

10025d6c <keepalive_event_callback.max>:
10025d6c:	00000000                                ....

10025d70 <ref_timestamps>:
	...

10025db0 <tx_link_quad_map>:
	...

10025dc0 <rx_link_quad_map>:
	...

10025dd0 <rx_link_status>:
	...

10025df0 <tx_link_status>:
	...

10025e10 <hub_dlink_status>:
10025e10:	00000000                                ....

10025e14 <g_rst_jesd_mask>:
10025e14:	00000000                                ....

10025e18 <g_rst_v2d_mask>:
10025e18:	00000000                                ....

10025e1c <g_rst_antenna_mask>:
10025e1c:	00000000                                ....

10025e20 <_Pri_4_Stack>:
	...

10026220 <_Pri_4_SaveArea>:
	...

Disassembly of section .debug_aranges:

00000000 <.debug_aranges>:
   0:	0000001c 00000002 00040000 00000000     ................
  10:	100010fc 0000002f 00000000 00000000     ..../...........
  20:	0000001c 00260002 00040000 00000000     ......&.........
  30:	10005f20 00000139 00000000 00000000      _..9...........
  40:	0000001c 004c0002 00040000 00000000     ......L.........
  50:	10006060 0000007f 00000000 00000000     ``..............
  60:	0000001c 00720002 00040000 00000000     ......r.........
  70:	10000a68 0000000b 00000000 00000000     h...............
  80:	0000001c 00980002 00040000 00000000     ................
  90:	10000000 000001b4 00000000 00000000     ................
  a0:	0000001c 03580002 00040000 00000000     ......X.........
  b0:	100058a8 00000081 00000000 00000000     .X..............
  c0:	0000001c 037e0002 00040000 00000000     ......~.........
  d0:	10000330 00000026 00000000 00000000     0...&...........
  e0:	0000001c 03a40002 00040000 00000000     ................
  f0:	10000a80 00000003 00000000 00000000     ................
 100:	0000001c 03ca0002 00040000 00000000     ................
 110:	10000800 0000016a 00000000 00000000     ....j...........
 120:	0000001c 03f00002 00040000 00000000     ................
 130:	10000980 00000006 00000000 00000000     ................
 140:	0000001c 04160002 00040000 00000000     ................
 150:	100009c0 00000006 00000000 00000000     ................
 160:	0000001c 043c0002 00040000 00000000     ......<.........
 170:	10000a00 00000006 00000000 00000000     ................
 180:	0000001c 04620002 00040000 00000000     ......b.........
 190:	1000592c 000000bd 00000000 00000000     ,Y..............
 1a0:	0000001c 04880002 00040000 00000000     ................
 1b0:	100059ec 0000007e 00000000 00000000     .Y..~...........
 1c0:	0000001c 04ae0002 00040000 00000000     ................
 1d0:	10005a6c 00000129 00000000 00000000     lZ..)...........
 1e0:	0000001c 04d40002 00040000 00000000     ................
 1f0:	10005b98 00000100 00000000 00000000     .[..............
 200:	0000001c 04fa0002 00040000 00000000     ................
 210:	100060e0 00000018 00000000 00000000     .`..............
 220:	0000001c 05200002 00040000 00000000     ...... .........
 230:	100060f8 0000003c 00000000 00000000     .`..<...........

Disassembly of section .debug_info:

00000000 <.debug_info>:
   0:	00000022 00000002 01040000 00000000     "...............
  10:	100010fc 1000112b 00000000 0000005b     ....+.......[...
  20:	000000c4 00228001 00020000 00000014     ......".........
  30:	00e60104 5f200000 60591000 00d01000     ...... _..Y`....
  40:	01230000 00c40000 80010000 00000022     ..#........."...
  50:	00280002 01040000 0000042e 10006060     ..(.........``..
  60:	100060df 00000197 00000123 000000c4     .`......#.......
  70:	00228001 00020000 0000003c 05ae0104     ..".....<.......
  80:	0a680000 0a731000 01ea1000 005b0000     ..h...s.......[.
  90:	00c40000 80010000 00000022 00500002     ........".....P.
  a0:	01040000 00000653 10000000 100001b4     ....S...........
  b0:	0000024d 0000005b 000000c4 00a28001     M...[...........
  c0:	00040000 00000064 02b50104 000c0000     ....d...........
  d0:	000002dc 000008cd 0000005b 100057fc     ........[....W..
  e0:	00000034 00003102 00035900 03270200     4....1...Y....'.
  f0:	0000003d 00000350 0401cf01 00000343     =...P.......C...
 100:	fc050407 34100057 01000000 00036251     ....W..4....Qb..
 110:	873e0300 06000000 00000000 00000380     ..>.............
 120:	00263e03 1e070000 87000000 03000003     .>&.............
 130:	00002642 003c0700 038c0000 41030000     B&....<........A
 140:	00000026 00920200 035a0000 22020000     &.........Z...."
 150:	00009e03 00037800 01ce0100 00034c04     .....x.......L..
 160:	00040500 000000a2 00d50004 01040000     ................
 170:	000002b5 0394000c 0b000000 005b0000     ..............[.
 180:	58300000 00341000 31020000 59000000     ..0X..4....1...Y
 190:	02000003 003d0327 03500000 cf010000     ....'.=...P.....
 1a0:	03430401 04070000 00583005 00003410     ..C......0X..4..
 1b0:	fc510100 03000003 0000873e 004f0600     ..Q.....>.....O.
 1c0:	03800000 3e030000 00000026 00006d07     .......>&....m..
 1d0:	00038700 26420300 07000000 00000080     ......B&........
 1e0:	0000038c 00264103 02000000 00000092     .....A&.........
 1f0:	0000035a 9e032202 78000000 01000003     Z....".....x....
 200:	4c0401ce 05000003 014a0004 00040000     ...L......J.....
 210:	00000146 02b50104 000c0000 00000413     F...............
 220:	00000d3e 0000005b 10005864 00000042     >...[...dX..B...
 230:	00003102 00035900 03270200 0000003d     .1...Y....'.=...
 240:	00000350 0401cf01 00000343 4f020407     P.......C......O
 250:	5a000000 02000003 005b0322 03780000     ...Z....".[...x.
 260:	ce010000 034c0401 04050000 58640605     ......L.......dX
 270:	00421000 51010000 00000478 00444f03     ..B....Qx....OD.
 280:	93070000 80000000 03000003 0000264f     ............O&..
 290:	00b10700 04aa0000 50030000 000000d1     ...........P....
 2a0:	0000c407 0004b200 62510300 08000000     ..........Qb....
 2b0:	04b85501 52030000 000000f3 0000d709     .U.....R........
 2c0:	0004be00 d16d0300 09000000 000000ea     ......m.........
 2d0:	000004c2 00f86c03 02000000 000000dc     .....l..........
 2e0:	000004a5 e10a3604 02000000 000000ec     .....6..........
 2f0:	00000493 0c0b3504 00000062 00d10a00     .....5..b.......
 300:	fd0a0000 03000000 00000109 000004d4     ................
 310:	0d01e005 000004d4 01da0508 0004aa0e     ................
 320:	0000d100 01db0500 04c80e00 012c0000     ..............,.
 330:	df050000 040f0401 0e01dc05 000004ca     ................
 340:	00000062 0001dd05 0004cf0e 00002600     b............&..
 350:	01de0500 00000000 00000022 02070002     ........".......
 360:	01040000 00000fd3 100058a8 10005929     .........X..)Y..
 370:	000004e8 0000005b 000000c4 00228001     ....[.........".
 380:	00020000 0000021b 118e0104 03300000     ..............0.
 390:	03561000 05521000 005b0000 00c40000     ..V...R...[.....
 3a0:	80010000 00000022 022f0002 01040000     ...."...../.....
 3b0:	0000125b 10000a80 10000a83 000005b8     [...............
 3c0:	0000005b 000000c4 00228001 00020000     [.........".....
 3d0:	00000243 12ec0104 08000000 096a1000     C.............j.
 3e0:	06191000 005b0000 00c40000 80010000     ......[.........
 3f0:	00000022 02570002 01040000 00001556     ".....W.....V...
 400:	10000980 10000986 0000067e 0000005b     ........~...[...
 410:	000000c4 00228001 00020000 0000026b     ......".....k...
 420:	15ed0104 09c00000 09c61000 067e1000     ..............~.
 430:	005b0000 00c40000 80010000 00000022     ..[........."...
 440:	027f0002 01040000 00001684 10000a00     ................
 450:	10000a06 0000067e 0000005b 000000c4     ....~...[.......
 460:	00228001 00020000 00000293 171b0104     ..".............
 470:	592c0000 59e91000 06df1000 005b0000     ..,Y...Y......[.
 480:	00c40000 80010000 00000022 02a70002     ........".......
 490:	01040000 000018fc 100059ec 10005a6a     .........Y..jZ..
 4a0:	000006df 0000005b 000000c4 00228001     ....[.........".
 4b0:	00020000 000002bb 1a770104 5a6c0000     ..........w...lZ
 4c0:	5b951000 074b1000 005b0000 00c40000     ...[..K...[.....
 4d0:	80010000 00000022 02cf0002 01040000     ...."...........
 4e0:	00001db0 10005b98 10005c98 000007b8     .....[...\......
 4f0:	0000005b 000000c4 00228001 00020000     [.........".....
 500:	000002e3 202a0104 60e00000 60f81000     ......* ...`...`
 510:	08241000 005b0000 00c40000 80010000     ..$...[.........
 520:	00000022 02f70002 01040000 000020f2     "............ ..
 530:	100060f8 10006134 00000885 000008db     .`..4a..........
 540:	000000c4 00568001 00040000 0000030b     ......V.........
 550:	02b50104 000c0000 00000943 000021f6     ........C....!..
 560:	000008db 00099902 00002f00 054b0200     ........./....K.
 570:	02406003 003b0310 52040000 80000000     .`@...;....R....
 580:	00400500 4b060000 b7000000 01000009     ..@....K........
 590:	09a80726 02070000 0009c008 00070800     &...............

Disassembly of section .debug_abbrev:

00000000 <.debug_abbrev>:
   0:	10001101 12011106 1b0e0301 130e250e     .............%..
  10:	00000005 10001101 12011106 1b0e0301     ................
  20:	130e250e 00000005 10001101 12011106     .%..............
  30:	1b0e0301 130e250e 00000005 10001101     .....%..........
  40:	12011106 1b0e0301 130e250e 00000005     .........%......
  50:	10001101 12011106 1b0e0301 130e250e     .............%..
  60:	00000005 25011101 0305130e 1b17100e     .......%........
  70:	1201110e 02000006 13490016 0b3a0e03     ..........I...:.
  80:	00000b3b 49001603 3a0e0313 00053b0b     ;......I...:.;..
  90:	00240400 0b3e0e03 00000b0b 11012e05     ..$...>.........
  a0:	40061201 19429718 0b3a0e03 19270b3b     ...@..B...:.;.'.
  b0:	193f1349 05060000 03170200 3b0b3a0e     I.?..........:.;
  c0:	0013490b 00340700 0e031702 0b3b0b3a     .I....4.....:.;.
  d0:	00001349 01110100 05130e25 17100e03     I.......%.......
  e0:	01110e1b 00000612 49001602 3a0e0313     ...........I...:
  f0:	000b3b0b 00160300 0e031349 053b0b3a     .;......I...:.;.
 100:	24040000 3e0e0300 000b0b0b 012e0500     ...$...>........
 110:	06120111 42971840 3a0e0319 270b3b0b     ....@..B...:.;.'
 120:	3f134919 06000019 17020005 0b3a0e03     .I.?..........:.
 130:	13490b3b 34070000 03170200 3b0b3a0e     ;.I....4.....:.;
 140:	0013490b 11010000 130e2501 100e0305     .I.......%......
 150:	110e1b17 00061201 00160200 0e031349     ............I...
 160:	0b3b0b3a 16030000 03134900 3b0b3a0e     :.;......I...:.;
 170:	04000005 0e030024 0b0b0b3e 0f050000     ....$...>.......
 180:	06000000 0111012e 18400612 03194297     ..........@..B..
 190:	3b0b3a0e 4919270b 00193f13 00050700     .:.;.'.I.?......
 1a0:	0e031702 0b3b0b3a 00001349 02000508     ....:.;.I.......
 1b0:	3a0e0318 490b3b0b 09000013 17020034     ...:.;.I....4...
 1c0:	0b3a0e03 13490b3b 0f0a0000 00134900     ..:.;.I......I..
 1d0:	01150b00 00001927 4900050c 0d000013     ....'......I....
 1e0:	0e030113 0b3a0b0b 0000053b 03000d0e     ......:.;.......
 1f0:	3a13490e 38053b0b 0f00000b 0b0b0117     .I.:.;.8........
 200:	053b0b3a 01000000 06100011 01120111     :.;.............
 210:	0e1b0e03 05130e25 01000000 06100011     ....%...........
 220:	01120111 0e1b0e03 05130e25 01000000     ........%.......
 230:	06100011 01120111 0e1b0e03 05130e25     ............%...
 240:	01000000 06100011 01120111 0e1b0e03     ................
 250:	05130e25 01000000 06100011 01120111     %...............
 260:	0e1b0e03 05130e25 01000000 06100011     ....%...........
 270:	01120111 0e1b0e03 05130e25 01000000     ........%.......
 280:	06100011 01120111 0e1b0e03 05130e25     ............%...
 290:	01000000 06100011 01120111 0e1b0e03     ................
 2a0:	05130e25 01000000 06100011 01120111     %...............
 2b0:	0e1b0e03 05130e25 01000000 06100011     ....%...........
 2c0:	01120111 0e1b0e03 05130e25 01000000     ........%.......
 2d0:	06100011 01120111 0e1b0e03 05130e25     ............%...
 2e0:	01000000 06100011 01120111 0e1b0e03     ................
 2f0:	05130e25 01000000 06100011 01120111     %...............
 300:	0e1b0e03 05130e25 01000000 0e250111     ....%.........%.
 310:	0e030513 0e1b1710 34020000 490e0300     ...........4...I
 320:	3a193f13 020b3b0b 03000018 13490101     .?.:.;........I.
 330:	21040000 37134900 0500000b 13490026     ...!.I.7....&.I.
 340:	16060000 03134900 3b0b3a0e 0700000b     .....I...:.;....
 350:	0e030024 0b0b0b3e 24080000 0b0e0300     $...>......$....
 360:	000b3e0b                                 .>....

Disassembly of section .debug_line:

00000000 <.debug_line>:
       0:	000000e2 00710003 01010000 000d0efb     ......q.........
      10:	01010101 01000000 2f010000 656d6f68     .........../home
      20:	6770782f 74737563 6572742f 4a522f65     /xpgcust/tree/RJ
      30:	3230322d 2f322e33 742f6274 736c6f6f     -2023.2/tb/tools
      40:	7477732f 736c6f6f 3638782d 2d34365f     /swtools-x86_64-
      50:	756e696c 74782f78 61736e65 666c652d     linux/xtensa-elf
      60:	6372732f 6f74782f 63000073 2d317472     /src/xtos..crt1-
      70:	796e6974 0100532e 00000000 10fc0205     tiny.S..........
      80:	c4031000 01030100 01000309 03090e03     ................
      90:	01030100 01000309 03090203 0a030100     ................
      a0:	01000309 03090103 01030100 01000509     ................
      b0:	03090103 01030100 01000209 02090103     ................
      c0:	08030100 01000309 03090a03 01030100     ................
      d0:	01000209 03090303 02030100 01000309     ................
      e0:	00000309 03440101 00030000 00000069     ......D.....i...
      f0:	0efb0101 0101000d 00000101 00000100     ................
     100:	6f682f01 782f656d 75636770 742f7473     ./home/xpgcust/t
     110:	2f656572 322d4a52 2e333230 62742f32     ree/RJ-2023.2/tb
     120:	7234702f 2f746f6f 6e657458 542f6173     /p4root/Xtensa/T
     130:	65677261 696c2d74 782f7362 62696c63     arget-libs/xclib
     140:	6e65742f 696c6973 00006163 636d656d     /tensilica..memc
     150:	532e7970 00000100 02050000 10005f2d     py.S........-_..
     160:	0100cf03 03090503 01030100 01000309     ................
     170:	02090103 01030100 01000309 02090403     ................
     180:	09030100 01000209 03090303 01030100     ................
     190:	01000309 02090103 01030100 01000209     ................
     1a0:	03090103 03030100 01000209 03090503     ................
     1b0:	03030100 01000309 03090103 01030100     ................
     1c0:	01000309 02090103 01030100 01000309     ................
     1d0:	03090103 01030100 01000309 02090303     ................
     1e0:	07030100 01000409 03090303 01030100     ................
     1f0:	01000309 03090103 04030100 01000309     ................
     200:	03090303 01030100 01000309 03090403     ................
     210:	06030100 01000309 02090103 01030100     ................
     220:	01000209 02090103 02030100 01000209     ................
     230:	02090103 01030100 01000209 02090103     ................
     240:	01030100 01000309 02090103 06030100     ................
     250:	01000309 03090303 01030100 01000209     ................
     260:	02090103 01030100 01000209 02090103     ................
     270:	01030100 01000209 02090203 01030100     ................
     280:	01000309 03090103 01030100 01000309     ................
     290:	02090403 01030100 01000209 02090103     ................
     2a0:	01030100 01000209 02090103 01030100     ................
     2b0:	01000309 03090103 03030100 01000209     ................
     2c0:	03090103 01030100 01000209 03090103     ................
     2d0:	01030100 01000209 03090103 03030100     ................
     2e0:	01000209 03090103 03030100 01000309     ................
     2f0:	03090803 04030100 01000309 03090203     ................
     300:	01030100 01000309 03090203 02030100     ................
     310:	01000209 03090603 01030100 01000209     ................
     320:	02090103 01030100 01000309 02090103     ................
     330:	01030100 01000209 03090103 01030100     ................
     340:	01000209 02090103 01030100 01000309     ................
     350:	02090103 01030100 01000309 03090103     ................
     360:	01030100 01000209 03090503 03030100     ................
     370:	01000309 02090103 01030100 01000209     ................
     380:	03090103 01030100 01000209 02090103     ................
     390:	01030100 01000309 02090103 01030100     ................
     3a0:	01000209 02090203 03030100 01000309     ................
     3b0:	02090103 01030100 01000209 03090103     ................
     3c0:	01030100 01000209 02090103 03030100     ................
     3d0:	01000209 02090203 01030100 01000309     ................
     3e0:	03090103 03030100 01000209 03090103     ................
     3f0:	01030100 01000309 02090103 01030100     ................
     400:	01000309 03090103 01030100 01000209     ................
     410:	03090103 03030100 01000209 03090103     ................
     420:	01030100 01000309 00000209 017c0101     ..............|.
     430:	00030000 00000069 0efb0101 0101000d     ....i...........
     440:	00000101 00000100 6f682f01 782f656d     ........./home/x
     450:	75636770 742f7473 2f656572 322d4a52     pgcust/tree/RJ-2
     460:	2e333230 62742f32 7234702f 2f746f6f     023.2/tb/p4root/
     470:	6e657458 542f6173 65677261 696c2d74     Xtensa/Target-li
     480:	782f7362 62696c63 6e65742f 696c6973     bs/xclib/tensili
     490:	00006163 736d656d 532e7465 00000100     ca..memset.S....
     4a0:	02050000 1000606d 0100c503 03090503     ....m`..........
     4b0:	01030100 01000309 02090403 0a030100     ................
     4c0:	01000309 03090303 01030100 01000309     ................
     4d0:	02090103 03030100 01000209 03090503     ................
     4e0:	03030100 01000309 03090103 01030100     ................
     4f0:	01000209 03090303 07030100 01000409     ................
     500:	03090403 01030100 01000309 03090103     ................
     510:	01030100 01000309 03090103 02030100     ................
     520:	01000309 02090303 01030100 01000309     ................
     530:	03090403 04030100 01000309 03090703     ................
     540:	01030100 01000209 02090103 01030100     ................
     550:	01000209 02090103 06030100 01000309     ................
     560:	03090303 01030100 01000209 02090103     ................
     570:	02030100 01000209 03090303 01030100     ................
     580:	01000209 02090203 03030100 01000309     ................
     590:	03090103 02030100 01000209 03090303     ................
     5a0:	01030100 01000309 00000209 00a10101     ................
     5b0:	00030000 00000079 0efb0101 0101000d     ....y...........
     5c0:	00000101 00000100 6f682f01 782f656d     ........./home/x
     5d0:	75636770 742f7473 2f656572 322d4a52     pgcust/tree/RJ-2
     5e0:	2e333230 62742f32 6f6f742f 732f736c     023.2/tb/tools/s
     5f0:	6f6f7477 782d736c 365f3638 696c2d34     wtools-x86_64-li
     600:	2f78756e 6e657478 652d6173 732f666c     nux/xtensa-elf/s
     610:	782f6372 2f736f74 32616578 65640000     rc/xtos/xea2..de
     620:	2d677562 74636576 532e726f 00000100     bug-vector.S....
     630:	02050000 10000a68 03012903 00030901     ....h....)......
     640:	09010301 03010002 0003090c 00030901     ................
     650:	76010100 03000002 00007e00 fb010100     ...v.....~......
     660:	01000d0e 00010101 00010000 682f0100     ............../h
     670:	2f656d6f 63677078 2f747375 65657274     ome/xpgcust/tree
     680:	2d4a522f 33323032 742f322e 6f742f62     /RJ-2023.2/tb/to
     690:	2f736c6f 6f747773 2d736c6f 5f363878     ols/swtools-x86_
     6a0:	6c2d3436 78756e69 6574782f 2d61736e     64-linux/xtensa-
     6b0:	2f666c65 2f637273 736f7478 6165782f     elf/src/xtos/xea
     6c0:	72000032 74657365 6365762d 2d726f74     2..reset-vector-
     6d0:	32616578 0100532e 00000000 00000205     xea2.S..........
     6e0:	d0031000 36030100 01005809 03090103     .......6.X......
     6f0:	01030100 01000209 03093603 0c030100     .........6......
     700:	01000209 0900f603 03010003 00030901     ................
     710:	090d0301 03010003 0003093f 09010301     ........?.......
     720:	03010003 00030901 09020301 03010003     ................
     730:	00030901 09010301 03010003 00020901     ................
     740:	09010301 03010003 00720901 09010301     ..........r.....
     750:	03010003 00020901 09010301 03010003     ................
     760:	00030901 090a0301 03010005 00030901     ................
     770:	09010301 03010003 00030901 09010301     ................
     780:	03010002 00020901 09010301 03010002     ................
     790:	00030901 09040301 03010003 00030901     ................
     7a0:	09010301 03010003 00030901 09010301     ................
     7b0:	03010002 00030901 09010301 03010003     ................
     7c0:	00030901 09010301 03010003 00020901     ................
     7d0:	09010301 03010003 00030901 09010301     ................
     7e0:	03010002 00020901 09010301 03010003     ................
     7f0:	00030904 09010301 03010003 0003090b     ................
     800:	09010301 03010003 00030901 09050301     ................
     810:	03010003 00030920 09010301 03010003     .... ...........
     820:	00020901 09010301 03010003 00020901     ................
     830:	09040301 03010002 00030901 09010301     ................
     840:	03010002 00020901 09010301 03010002     ................
     850:	00020901 09010301 03010002 00030901     ................
     860:	09010301 03010002 00020901 09010301     ................
     870:	03010002 00020901 09010301 03010003     ................
     880:	00060901 09010301 03010003 0003090b     ................
     890:	091f0301 03010003 00030901 09010301     ................
     8a0:	03010003 00030901 09010301 03010003     ................
     8b0:	00030928 09010301 03010006 00060901     (...............
     8c0:	090f0301 0901000c 01000003 00022f01     ............./..
     8d0:	aa000300 01000001 0d0efb01 01010100     ................
     8e0:	00000001 01000001 2e2f2e2f 6f72702f     ......../././pro
     8f0:	7463656a 7375632f 65672f74 7070616e     ject/cust/genapp
     900:	2d4a522f 33323032 622f322e 646c6975     /RJ-2023.2/build
     910:	746e692f 6b5f6c65 732f7965 67707577     /intel_key/swupg
     920:	65646172 4357482f 5343525f 37584c5f     rade/HWC_RCS_LX7
     930:	3570305f 324a525f 3839332f 2f373035     _0p5_RJ2/398507/
     940:	322d4a52 2e333230 57482f32 43525f43     RJ-2023.2/HWC_RC
     950:	584c5f53 70305f37 4a525f35 74782f32     S_LX7_0p5_RJ2/xt
     960:	61736e65 666c652d 636e692f 6564756c     ensa-elf/include
     970:	3939632f 2f2e2f00 72702f2e 63656a6f     /c99./././projec
     980:	75632f74 672f7473 70616e65 4a522f70     t/cust/genapp/RJ
     990:	3230322d 2f322e33 6c697562 6e692f64     -2023.2/build/in
     9a0:	5f6c6574 2f79656b 70757773 64617267     tel_key/swupgrad
     9b0:	57482f65 43525f43 584c5f53 70305f37     e/HWC_RCS_LX7_0p
     9c0:	4a525f35 39332f32 37303538 2d4a522f     5_RJ2/398507/RJ-
     9d0:	33323032 482f322e 525f4357 4c5f5343     2023.2/HWC_RCS_L
     9e0:	305f3758 525f3570 782f324a 736e6574     X7_0p5_RJ2/xtens
     9f0:	6c652d61 6e692f66 64756c63 682f0065     a-elf/include./h
     a00:	2f656d6f 63677078 2f747375 65657274     ome/xpgcust/tree
     a10:	2d4a522f 33323032 742f322e 6f742f62     /RJ-2023.2/tb/to
     a20:	2f736c6f 6f747773 2d736c6f 5f363878     ols/swtools-x86_
     a30:	6c2d3436 78756e69 6574782f 2d61736e     64-linux/xtensa-
     a40:	2f666c65 2f637273 736f7478 76790000     elf/src/xtos..yv
     a50:	2e736c61 00010068 64747300 2e746e69     als.h....stdint.
     a60:	00020068 6f747800 6e692d73 72726574     h....xtos-interr
     a70:	2d747075 62616e65 632e656c 00000300     upt-enable.c....
     a80:	00030400 57fc0205 3e031000 0a090501     .......W...>....
     a90:	07090b03 19050100 05090603 1a050100     ................
     aa0:	06090103 12050100 03092103 1b050100     .........!......
     ab0:	03090103 12050100 03097f03 1b050100     ................
     ac0:	02090103 12050100 02097f03 19050100     ................
     ad0:	03090103 12050100 03097f03 05050100     ................
     ae0:	02090503 04030100 01000309 03090103     ................
     af0:	01050100 05091003 02090100 01010000     ................
     b00:	0000023a 01ab0003 01010000 000d0efb     :...............
     b10:	01010101 01000000 2f010000 2f2e2f2e     .........../././
     b20:	6a6f7270 2f746365 74737563 6e65672f     project/cust/gen
     b30:	2f707061 322d4a52 2e333230 75622f32     app/RJ-2023.2/bu
     b40:	2f646c69 65746e69 656b5f6c 77732f79     ild/intel_key/sw
     b50:	72677075 2f656461 5f435748 5f534352     upgrade/HWC_RCS_
     b60:	5f37584c 5f357030 2f324a52 35383933     LX7_0p5_RJ2/3985
     b70:	522f3730 30322d4a 322e3332 4357482f     07/RJ-2023.2/HWC
     b80:	5343525f 37584c5f 3570305f 324a525f     _RCS_LX7_0p5_RJ2
     b90:	6574782f 2d61736e 2f666c65 6c636e69     /xtensa-elf/incl
     ba0:	2f656475 00393963 2e2f2e2f 6f72702f     ude/c99./././pro
     bb0:	7463656a 7375632f 65672f74 7070616e     ject/cust/genapp
     bc0:	2d4a522f 33323032 622f322e 646c6975     /RJ-2023.2/build
     bd0:	746e692f 6b5f6c65 732f7965 67707577     /intel_key/swupg
     be0:	65646172 4357482f 5343525f 37584c5f     rade/HWC_RCS_LX7
     bf0:	3570305f 324a525f 3839332f 2f373035     _0p5_RJ2/398507/
     c00:	322d4a52 2e333230 57482f32 43525f43     RJ-2023.2/HWC_RC
     c10:	584c5f53 70305f37 4a525f35 74782f32     S_LX7_0p5_RJ2/xt
     c20:	61736e65 666c652d 636e692f 6564756c     ensa-elf/include
     c30:	6f682f00 782f656d 75636770 742f7473     ./home/xpgcust/t
     c40:	2f656572 322d4a52 2e333230 62742f32     ree/RJ-2023.2/tb
     c50:	6f6f742f 732f736c 6f6f7477 782d736c     /tools/swtools-x
     c60:	365f3638 696c2d34 2f78756e 6e657478     86_64-linux/xten
     c70:	652d6173 732f666c 782f6372 00736f74     sa-elf/src/xtos.
     c80:	61767900 682e736c 00000100 69647473     .yvals.h....stdi
     c90:	682e746e 00000200 736f7478 746e692d     nt.h....xtos-int
     ca0:	75727265 642d7470 62617369 632e656c     errupt-disable.c
     cb0:	00000300 00030400 58300205 3e031000     ..........0X...>
     cc0:	0a090501 07090b03 1a050100 03090703     ................
     cd0:	12050100 03092103 1b050100 03090103     .....!..........
     ce0:	15050100 05097f03 12050100 09000306     ................
     cf0:	05010003 09000315 05010002 0103061b     ................
     d00:	01000309 7f031205 01000209 01031905     ................
     d10:	01000309 7f031205 01000309 05030505     ................
     d20:	01000209 03090403 01030100 01000309     ................
     d30:	10030105 01000509 00000209 02910101     ................
     d40:	00030000 00000223 0efb0101 0101000d     ....#...........
     d50:	00000101 00000100 2f2e2f01 72702f2e     ........./././pr
     d60:	63656a6f 75632f74 672f7473 70616e65     oject/cust/genap
     d70:	4a522f70 3230322d 2f322e33 6c697562     p/RJ-2023.2/buil
     d80:	6e692f64 5f6c6574 2f79656b 70757773     d/intel_key/swup
     d90:	64617267 57482f65 43525f43 584c5f53     grade/HWC_RCS_LX
     da0:	70305f37 4a525f35 39332f32 37303538     7_0p5_RJ2/398507
     db0:	2d4a522f 33323032 482f322e 525f4357     /RJ-2023.2/HWC_R
     dc0:	4c5f5343 305f3758 525f3570 782f324a     CS_LX7_0p5_RJ2/x
     dd0:	736e6574 6c652d61 6e692f66 64756c63     tensa-elf/includ
     de0:	39632f65 2e2f0039 702f2e2f 656a6f72     e/c99./././proje
     df0:	632f7463 2f747375 616e6567 522f7070     ct/cust/genapp/R
     e00:	30322d4a 322e3332 6975622f 692f646c     J-2023.2/build/i
     e10:	6c65746e 79656b5f 7577732f 61726770     ntel_key/swupgra
     e20:	482f6564 525f4357 4c5f5343 305f3758     de/HWC_RCS_LX7_0
     e30:	525f3570 332f324a 30353839 4a522f37     p5_RJ2/398507/RJ
     e40:	3230322d 2f322e33 5f435748 5f534352     -2023.2/HWC_RCS_
     e50:	5f37584c 5f357030 2f324a52 6e657478     LX7_0p5_RJ2/xten
     e60:	652d6173 692f666c 756c636e 2f006564     sa-elf/include./
     e70:	656d6f68 6770782f 74737563 6572742f     home/xpgcust/tre
     e80:	4a522f65 3230322d 2f322e33 742f6274     e/RJ-2023.2/tb/t
     e90:	736c6f6f 7477732f 736c6f6f 3638782d     ools/swtools-x86
     ea0:	2d34365f 756e696c 74782f78 61736e65     _64-linux/xtensa
     eb0:	666c652d 6372732f 6f74782f 2e2f0073     -elf/src/xtos./.
     ec0:	682f2e2f 2f656d6f 63677078 2f747375     /./home/xpgcust/
     ed0:	65657274 2d4a522f 33323032 742f322e     tree/RJ-2023.2/t
     ee0:	6f742f62 2f736c6f 6f747773 2d736c6f     b/tools/swtools-
     ef0:	5f363878 6c2d3436 78756e69 6574782f     x86_64-linux/xte
     f00:	2d61736e 2f666c65 6c636e69 2f656475     nsa-elf/include/
     f10:	6e657478 00006173 6c617679 00682e73     xtensa..yvals.h.
     f20:	73000001 6e696474 00682e74 78000002     ...stdint.h....x
     f30:	2d736f74 2d746573 68746e69 6c646e61     tos-set-inthandl
     f40:	632e7265 00000300 75727478 6d69746e     er.c....xtruntim
     f50:	00682e65 78000004 2d736f74 65746e69     e.h....xtos-inte
     f60:	6c616e72 0300682e 04000000 02050003     rnal.h..........
     f70:	10005864 0100d203 030a0905 0007091c     dX..............
     f80:	03130501 00030906 03240501 000b0905     ..........$.....
     f90:	03090501 0003097b 030f0501 00030905     ....{...........
     fa0:	03090501 0009090d 03180501 00020902     ................
     fb0:	09040301 03010008 0004097f 03090501     ................
     fc0:	00040906 03010501 000a0915 00020901     ................
     fd0:	b7010100 03000001 00008000 fb010100     ................
     fe0:	01000d0e 00010101 00010000 682f0100     ............../h
     ff0:	2f656d6f 63677078 2f747375 65657274     ome/xpgcust/tree
    1000:	2d4a522f 33323032 742f322e 6f742f62     /RJ-2023.2/tb/to
    1010:	2f736c6f 6f747773 2d736c6f 5f363878     ols/swtools-x86_
    1020:	6c2d3436 78756e69 6574782f 2d61736e     64-linux/xtensa-
    1030:	2f666c65 2f637273 736f7478 6165782f     elf/src/xtos/xea
    1040:	65000032 732d6378 61637379 682d6c6c     2..exc-syscall-h
    1050:	6c646e61 532e7265 00000100 02050000     andler.S........
    1060:	100058a8 0100d703 03090603 01030100     .X..............
    1070:	01000309 02090103 01030100 01000309     ................
    1080:	03090103 01030100 01000209 02090103     ................
    1090:	01030100 01000309 03090203 06030100     ................
    10a0:	01000209 03090103 04030100 01000209     ................
    10b0:	03090703 01030100 01000309 03090103     ................
    10c0:	02030100 01000309 03090103 01030100     ................
    10d0:	01000309 03090203 01030100 01000309     ................
    10e0:	03090103 07030100 01000309 02090503     ................
    10f0:	02030100 01000309 03090203 01030100     ................
    1100:	01000309 02090203 04030100 01000209     ................
    1110:	03090103 01030100 01000209 02090103     ................
    1120:	01030100 01000309 03090103 01030100     ................
    1130:	01000209 02090103 08030100 01000309     ................
    1140:	03090403 01030100 01000309 02090103     ................
    1150:	01030100 01000309 02090103 01030100     ................
    1160:	01000309 02090103 01030100 01000309     ................
    1170:	02090203 05030100 01000209 02090103     ................
    1180:	01030100 01000309 00000309 00c90101     ................
    1190:	00030000 0000007c 0efb0101 0101000d     ....|...........
    11a0:	00000101 00000100 6f682f01 782f656d     ........./home/x
    11b0:	75636770 742f7473 2f656572 322d4a52     pgcust/tree/RJ-2
    11c0:	2e333230 62742f32 6f6f742f 732f736c     023.2/tb/tools/s
    11d0:	6f6f7477 782d736c 365f3638 696c2d34     wtools-x86_64-li
    11e0:	2f78756e 6e657478 652d6173 732f666c     nux/xtensa-elf/s
    11f0:	782f6372 2f736f74 32616578 656d0000     rc/xtos/xea2..me
    1200:	7272656d 762d726f 6f746365 00532e72     merror-vector.S.
    1210:	00000001 30020500 03100003 030100c5     .......0........
    1220:	0008090f 09010301 03010003 00030901     ................
    1230:	091b0301 03010003 00030902 090d0301     ................
    1240:	03010003 00060910 09020301 03010003     ................
    1250:	00030901 00030901 8d010100 03000000     ................
    1260:	00007700 fb010100 01000d0e 00010101     .w..............
    1270:	00010000 682f0100 2f656d6f 63677078     ....../home/xpgc
    1280:	2f747375 65657274 2d4a522f 33323032     ust/tree/RJ-2023
    1290:	742f322e 6f742f62 2f736c6f 6f747773     .2/tb/tools/swto
    12a0:	2d736c6f 5f363878 6c2d3436 78756e69     ols-x86_64-linux
    12b0:	6574782f 2d61736e 2f666c65 2f637273     /xtensa-elf/src/
    12c0:	736f7478 6165782f 6e000032 762d696d     xtos/xea2..nmi-v
    12d0:	6f746365 00532e72 00000001 80020500     ector.S.........
    12e0:	0310000a 03090133 01010000 00000266     ....3.......f...
    12f0:	007b0003 01010000 000d0efb 01010101     ..{.............
    1300:	01000000 2f010000 656d6f68 6770782f     ......./home/xpg
    1310:	74737563 6572742f 4a522f65 3230322d     cust/tree/RJ-202
    1320:	2f322e33 742f6274 736c6f6f 7477732f     3.2/tb/tools/swt
    1330:	736c6f6f 3638782d 2d34365f 756e696c     ools-x86_64-linu
    1340:	74782f78 61736e65 666c652d 6372732f     x/xtensa-elf/src
    1350:	6f74782f 65782f73 00003261 646e6977     /xtos/xea2..wind
    1360:	762d776f 6f746365 532e7372 00000100     ow-vectors.S....
    1370:	02050000 10000800 0100f403 03090103     ................
    1380:	01030100 01000309 03090103 01030100     ................
    1390:	01000309 04092203 01030100 01000209     ....."..........
    13a0:	02090103 01030100 01000209 03090103     ................
    13b0:	01030100 01000309 03090103 01030100     ................
    13c0:	01000309 03090103 01030100 01000309     ................
    13d0:	03090103 12030100 01001509 03090103     ................
    13e0:	01030100 01000309 03090103 01030100     ................
    13f0:	01000309 04090b03 01030100 01000309     ................
    1400:	03090103 01030100 01000309 03090103     ................
    1410:	01030100 01000309 03090103 01030100     ................
    1420:	01000309 03090103 01030100 01000309     ................
    1430:	15091303 01030100 01000309 03090103     ................
    1440:	01030100 01000309 03090103 01030100     ................
    1450:	01000309 03090103 01030100 01000309     ................
    1460:	03090103 01030100 01000309 25091203     ...............%
    1470:	01030100 01000309 03090103 01030100     ................
    1480:	01000309 03090103 01030100 01000309     ................
    1490:	03090103 01030100 01000309 03090103     ................
    14a0:	01030100 01000309 25091303 01030100     ...........%....
    14b0:	01000309 03090103 01030100 01000309     ................
    14c0:	03090103 01030100 01000309 03090103     ................
    14d0:	01030100 01000309 03090103 01030100     ................
    14e0:	01000309 03090103 01030100 01000309     ................
    14f0:	03090103 01030100 01000309 19091203     ................
    1500:	01030100 01000309 03090103 01030100     ................
    1510:	01000309 03090103 01030100 01000309     ................
    1520:	03090103 01030100 01000309 03090103     ................
    1530:	01030100 01000309 03090103 01030100     ................
    1540:	01000309 03090103 01030100 01000309     ................
    1550:	00000309 00930101 00030000 00000077     ............w...
    1560:	0efb0101 0101000d 00000101 00000100     ................
    1570:	6f682f01 782f656d 75636770 742f7473     ./home/xpgcust/t
    1580:	2f656572 322d4a52 2e333230 62742f32     ree/RJ-2023.2/tb
    1590:	6f6f742f 732f736c 6f6f7477 782d736c     /tools/swtools-x
    15a0:	365f3638 696c2d34 2f78756e 6e657478     86_64-linux/xten
    15b0:	652d6173 732f666c 782f6372 2f736f74     sa-elf/src/xtos/
    15c0:	32616578 6e690000 65762d74 726f7463     xea2..int-vector
    15d0:	0100532e 00000000 09800205 33031000     .S.............3
    15e0:	09010301 09010003 01000003 00009301     ................
    15f0:	77000300 01000000 0d0efb01 01010100     ...w............
    1600:	00000001 01000001 6d6f682f 70782f65     ......../home/xp
    1610:	73756367 72742f74 522f6565 30322d4a     gcust/tree/RJ-20
    1620:	322e3332 2f62742f 6c6f6f74 77732f73     23.2/tb/tools/sw
    1630:	6c6f6f74 38782d73 34365f36 6e696c2d     tools-x86_64-lin
    1640:	782f7875 736e6574 6c652d61 72732f66     ux/xtensa-elf/sr
    1650:	74782f63 782f736f 00326165 746e6900     c/xtos/xea2..int
    1660:	6365762d 2e726f74 00010053 05000000     -vector.S.......
    1670:	0009c002 01330310 03090103 03090100     ......3.........
    1680:	01010000 00000093 00770003 01010000     ..........w.....
    1690:	000d0efb 01010101 01000000 2f010000     .............../
    16a0:	656d6f68 6770782f 74737563 6572742f     home/xpgcust/tre
    16b0:	4a522f65 3230322d 2f322e33 742f6274     e/RJ-2023.2/tb/t
    16c0:	736c6f6f 7477732f 736c6f6f 3638782d     ools/swtools-x86
    16d0:	2d34365f 756e696c 74782f78 61736e65     _64-linux/xtensa
    16e0:	666c652d 6372732f 6f74782f 65782f73     -elf/src/xtos/xe
    16f0:	00003261 2d746e69 74636576 532e726f     a2..int-vector.S
    1700:	00000100 02050000 10000a00 03013303     .............3..
    1710:	00030901 00030901 dd010100 03000001     ................
    1720:	00008200 fb010100 01000d0e 00010101     ................
    1730:	00010000 682f0100 2f656d6f 63677078     ....../home/xpgc
    1740:	2f747375 65657274 2d4a522f 33323032     ust/tree/RJ-2023
    1750:	742f322e 6f742f62 2f736c6f 6f747773     .2/tb/tools/swto
    1760:	2d736c6f 5f363878 6c2d3436 78756e69     ols-x86_64-linux
    1770:	6574782f 2d61736e 2f666c65 2f637273     /xtensa-elf/src/
    1780:	736f7478 6165782f 69000032 6d2d746e     xtos/xea2..int-m
    1790:	72706465 69642d69 74617073 72656863     edpri-dispatcher
    17a0:	0100532e 00000000 592c0205 3b031000     .S........,Y...;
    17b0:	09010301 03010003 00030901 09010301     ................
    17c0:	03010002 00030901 09010301 03010002     ................
    17d0:	00020901 09010301 03010003 00030914     ................
    17e0:	09020301 03010003 00030901 09010301     ................
    17f0:	03010003 00030901 09040301 03010003     ................
    1800:	00030907 00ce0301 01000309 03090403     ................
    1810:	01030100 01000309 03090103 01030100     ................
    1820:	01000309 03090103 01030100 01000309     ................
    1830:	03090103 01030100 01000f09 02090503     ................
    1840:	01030100 01000309 03090103 01030100     ................
    1850:	01000309 03090203 01030100 01000809     ................
    1860:	06090103 01030100 01000309 02090603     ................
    1870:	01030100 01000309 03090103 06030100     ................
    1880:	01000309 03090103 01030100 01000309     ................
    1890:	03090103 01030100 01000309 03090503     ................
    18a0:	08030100 01000309 02090103 01030100     ................
    18b0:	01001109 03090603 18030100 01000309     ................
    18c0:	03090103 01030100 01000309 03090103     ................
    18d0:	06030100 01000309 03090203 05030100     ................
    18e0:	01000209 02090103 01030100 01000209     ................
    18f0:	02090103 03090100 01010000 00000177     ............w...
    1900:	00820003 01010000 000d0efb 01010101     ................
    1910:	01000000 2f010000 656d6f68 6770782f     ......./home/xpg
    1920:	74737563 6572742f 4a522f65 3230322d     cust/tree/RJ-202
    1930:	2f322e33 742f6274 736c6f6f 7477732f     3.2/tb/tools/swt
    1940:	736c6f6f 3638782d 2d34365f 756e696c     ools-x86_64-linu
    1950:	74782f78 61736e65 666c652d 6372732f     x/xtensa-elf/src
    1960:	6f74782f 65782f73 00003261 2d746e69     /xtos/xea2..int-
    1970:	7064656d 642d6972 61707369 65686374     medpri-dispatche
    1980:	00532e72 00000001 ec020500 03100059     r.S.........Y...
    1990:	0103013b 01000309 03090103 01030100     ;...............
    19a0:	01000209 03090103 01030100 01000209     ................
    19b0:	02090103 01030100 01000309 03091403     ................
    19c0:	02030100 01000309 03090103 01030100     ................
    19d0:	01000309 03090103 04030100 01000309     ................
    19e0:	03090703 06030100 01000309 03090203     ................
    19f0:	0a030100 01000209 02090203 0b030100     ................
    1a00:	01000309 0f090603 01030100 01000309     ................
    1a10:	02090603 01030100 01000209 03090103     ................
    1a20:	d7030100 00030900 09010301 03010002     ................
    1a30:	000f0901 09060301 03010003 00030918     ................
    1a40:	09010301 03010003 00030901 09010301     ................
    1a50:	03010003 00030908 09050301 03010002     ................
    1a60:	00020901 09010301 03010002 00020901     ................
    1a70:	00030901 35010100 03000003 00008300     .......5........
    1a80:	fb010100 01000d0e 00010101 00010000     ................
    1a90:	682f0100 2f656d6f 63677078 2f747375     ../home/xpgcust/
    1aa0:	65657274 2d4a522f 33323032 742f322e     tree/RJ-2023.2/t
    1ab0:	6f742f62 2f736c6f 6f747773 2d736c6f     b/tools/swtools-
    1ac0:	5f363878 6c2d3436 78756e69 6574782f     x86_64-linux/xte
    1ad0:	2d61736e 2f666c65 2f637273 736f7478     nsa-elf/src/xtos
    1ae0:	6165782f 69000032 682d746e 70686769     /xea2..int-highp
    1af0:	642d6972 61707369 65686374 00532e72     ri-dispatcher.S.
    1b00:	00000001 6c020500 0310005a 030100e7     .......lZ.......
    1b10:	00030903 09010301 03010002 00030901     ................
    1b20:	09010301 03010002 00020901 09010301     ................
    1b30:	03010002 00030901 09010301 03010002     ................
    1b40:	0002090f 09010301 03010003 00030901     ................
    1b50:	09010301 03010002 00020901 09010301     ................
    1b60:	03010003 00020901 09010301 03010003     ................
    1b70:	00020904 09030301 03010002 00030901     ................
    1b80:	09010301 03010003 00030903 09010301     ................
    1b90:	03010003 00030901 09010301 03010003     ................
    1ba0:	00030901 09010301 03010003 00030901     ................
    1bb0:	09010301 03010003 00030903 09010301     ................
    1bc0:	03010003 00030901 09010301 03010003     ................
    1bd0:	00030902 09040301 03010003 00030901     ................
    1be0:	09010301 03010003 00020901 09030301     ................
    1bf0:	03010002 00020901 09010301 03010002     ................
    1c00:	00030901 09010301 03010003 00030906     ................
    1c10:	09010301 03010003 00020909 09010301     ................
    1c20:	03010003 00030901 09090301 03010003     ................
    1c30:	00030901 09020301 03010002 00030901     ................
    1c40:	09010301 03010002 00030901 09010301     ................
    1c50:	03010002 00030901 00e00301 01000209     ................
    1c60:	03090a03 02030100 01000309 03090f03     ................
    1c70:	05030100 01000209 02090103 1b030100     ................
    1c80:	01000309 03090803 01030100 01000209     ................
    1c90:	02090103 01030100 01000209 03090103     ................
    1ca0:	01030100 01000309 03091303 01030100     ................
    1cb0:	01000209 03090503 01030100 01000209     ................
    1cc0:	03090103 04030100 01000309 02090103     ................
    1cd0:	01030100 01000209 03090103 01030100     ................
    1ce0:	01000309 03090403 01030100 01000309     ................
    1cf0:	02090103 05030100 01000309 03090103     ................
    1d00:	01030100 01000309 02090103 01030100     ................
    1d10:	01000309 03090103 01030100 01000309     ................
    1d20:	03090103 01030100 01000309 03090103     ................
    1d30:	01030100 01000309 03090103 02030100     ................
    1d40:	01000309 03090103 01030100 01000309     ................
    1d50:	03090103 01030100 01000309 03091603     ................
    1d60:	01030100 01000209 02090103 01030100     ................
    1d70:	01000309 03090103 01030100 01000209     ................
    1d80:	03090103 01030100 01000209 03090203     ................
    1d90:	01030100 01000209 02090103 01030100     ................
    1da0:	01000209 02090103 03090100 01010000     ................
    1db0:	00000276 00820003 01010000 000d0efb     v...............
    1dc0:	01010101 01000000 2f010000 656d6f68     .........../home
    1dd0:	6770782f 74737563 6572742f 4a522f65     /xpgcust/tree/RJ
    1de0:	3230322d 2f322e33 742f6274 736c6f6f     -2023.2/tb/tools
    1df0:	7477732f 736c6f6f 3638782d 2d34365f     /swtools-x86_64-
    1e00:	756e696c 74782f78 61736e65 666c652d     linux/xtensa-elf
    1e10:	6372732f 6f74782f 65782f73 00003261     /src/xtos/xea2..
    1e20:	2d746e69 70776f6c 642d6972 61707369     int-lowpri-dispa
    1e30:	65686374 00532e72 00000001 98020500     tcher.S.........
    1e40:	0310005b 030100e6 0002090b 09010301     [...............
    1e50:	03010003 00030901 090a0301 03010003     ................
    1e60:	00020901 09180301 03010002 00030901     ................
    1e70:	00d30301 01000309 03090103 01030100     ................
    1e80:	01000309 03090803 30030100 01000309     ...........0....
    1e90:	03092203 01030100 01000309 03090103     ."..............
    1ea0:	01030100 01000309 02090103 01030100     ................
    1eb0:	01000309 03090103 02030100 01000209     ................
    1ec0:	03090103 02030100 01000209 02090103     ................
    1ed0:	1e030100 01000209 0c090403 01030100     ................
    1ee0:	01000309 03090103 01030100 01000309     ................
    1ef0:	03090403 05030100 01000309 03090403     ................
    1f00:	01030100 01000209 02090103 02030100     ................
    1f10:	01000309 03090303 0b030100 01000309     ................
    1f20:	0901bc03 03010003 000f0904 09100301     ................
    1f30:	03010002 00020901 09010301 03010002     ................
    1f40:	00030904 090c0301 0301000f 00030902     ................
    1f50:	09010301 03010003 00030901 09010301     ................
    1f60:	03010002 00020902 09010301 03010003     ................
    1f70:	00030909 09010301 03010003 0002090b     ................
    1f80:	09010301 03010002 00030901 09030301     ................
    1f90:	03010003 030900d3 03030100 01000309     ................
    1fa0:	03090803 01030100 01000309 03090103     ................
    1fb0:	01030100 01000309 03090303 02030100     ................
    1fc0:	01000309 03091703 06030100 01000309     ................
    1fd0:	03090203 01030100 01000309 03090103     ................
    1fe0:	01030100 01000309 03090103 01030100     ................
    1ff0:	01000309 03090903 01030100 01000309     ................
    2000:	03090103 07030100 01000309 03090103     ................
    2010:	01030100 01000309 03090103 01030100     ................
    2020:	01000309 00000309 00c40101 00030000     ................
    2030:	00000077 0efb0101 0101000d 00000101     w...............
    2040:	00000100 6f682f01 782f656d 75636770     ...../home/xpgcu
    2050:	742f7473 2f656572 322d4a52 2e333230     st/tree/RJ-2023.
    2060:	62742f32 6f6f742f 732f736c 6f6f7477     2/tb/tools/swtoo
    2070:	782d736c 365f3638 696c2d34 2f78756e     ls-x86_64-linux/
    2080:	6e657478 652d6173 732f666c 782f6372     xtensa-elf/src/x
    2090:	2f736f74 32616578 78650000 65722d63     tos/xea2..exc-re
    20a0:	6e727574 0100532e 00000000 60e00205     turn.S.........`
    20b0:	cc031000 01030100 01000209 02090103     ................
    20c0:	02030100 01000309 02090103 01030100     ................
    20d0:	01000209 03090203 08030100 01000309     ................
    20e0:	02090103 02030100 01000209 00000309     ................
    20f0:	01000101 00030000 0000006c 0efb0101     ........l.......
    2100:	0101000d 00000101 00000100 6f682f01     ............./ho
    2110:	782f656d 75636770 742f7473 2f656572     me/xpgcust/tree/
    2120:	322d4a52 2e333230 62742f32 6f6f742f     RJ-2023.2/tb/too
    2130:	732f736c 6f6f7477 782d736c 365f3638     ls/swtools-x86_6
    2140:	696c2d34 2f78756e 6e657478 652d6173     4-linux/xtensa-e
    2150:	732f666c 682f6372 00006c61 636f6c63     lf/src/hal..cloc
    2160:	00532e6b 00000001 f8020500 03100060     k.S.........`...
    2170:	02030127 01000309 03091203 0e030100     '...............
    2180:	01000209 03090203 01030100 01000209     ................
    2190:	03090103 01030100 01000309 02090403     ................
    21a0:	01030100 01000309 03090103 01030100     ................
    21b0:	01000309 02090903 0a030100 01000409     ................
    21c0:	03090203 01030100 01000209 03090103     ................
    21d0:	04030100 01000409 03090103 01030100     ................
    21e0:	01000309 02090c03 02030100 01000209     ................
    21f0:	00000209 01070101 00030000 00000101     ................
    2200:	0efb0101 0101000d 00000101 00000100     ................
    2210:	2f2e2f01 72702f2e 63656a6f 75632f74     ./././project/cu
    2220:	672f7473 70616e65 4a522f70 3230322d     st/genapp/RJ-202
    2230:	2f322e33 6c697562 6e692f64 5f6c6574     3.2/build/intel_
    2240:	2f79656b 70757773 64617267 57482f65     key/swupgrade/HW
    2250:	43525f43 584c5f53 70305f37 4a525f35     C_RCS_LX7_0p5_RJ
    2260:	39332f32 37303538 2d4a522f 33323032     2/398507/RJ-2023
    2270:	482f322e 525f4357 4c5f5343 305f3758     .2/HWC_RCS_LX7_0
    2280:	525f3570 782f324a 736e6574 6c652d61     p5_RJ2/xtensa-el
    2290:	6e692f66 64756c63 682f0065 2f656d6f     f/include./home/
    22a0:	63677078 2f747375 65657274 2d4a522f     xpgcust/tree/RJ-
    22b0:	33323032 742f322e 6f742f62 2f736c6f     2023.2/tb/tools/
    22c0:	6f747773 2d736c6f 5f363878 6c2d3436     swtools-x86_64-l
    22d0:	78756e69 6574782f 2d61736e 2f666c65     inux/xtensa-elf/
    22e0:	2f637273 006c6168 64747300 2e746e69     src/hal..stdint.
    22f0:	00010068 6e6f6300 632e7473 00000200     h....const.c....
	...

Disassembly of section .debug_frame:

00000000 <.debug_frame>:
   0:	00000010 ffffffff 7c010001 00010c10     ...........|....
  10:	0000010c 00000010 00000000 100057fc     .............W..
  20:	00000034 00200e43 00000010 ffffffff     4...C. .........
  30:	7c010001 00010c10 0000010c 00000010     ...|............
  40:	00000028 10005830 00000034 00200e43     (...0X..4...C. .
  50:	00000010 ffffffff 7c010001 00010c10     ...........|....
  60:	0000010c 00000010 00000050 10005864     ........P...dX..
  70:	00000042 00200e43                       B...C. .

Disassembly of section .debug_str:

00000000 <.debug_str>:
   0:	6d6f682f 70782f65 73756367 72742f74     /home/xpgcust/tr
  10:	522f6565 30322d4a 322e3332 2f62742f     ee/RJ-2023.2/tb/
  20:	6c6f6f74 77732f73 6c6f6f74 38782d73     tools/swtools-x8
  30:	34365f36 6e696c2d 782f7875 736e6574     6_64-linux/xtens
  40:	6c652d61 72732f66 74782f63 632f736f     a-elf/src/xtos/c
  50:	2d317472 796e6974 2f00532e 6a6f7270     rt1-tiny.S./proj
  60:	2f746365 74737563 6e65672f 2f707061     ect/cust/genapp/
  70:	322d4a52 2e333230 75622f32 2f646c69     RJ-2023.2/build/
  80:	65746e69 656b5f6c 77732f79 72677075     intel_key/swupgr
  90:	2f656461 5f435748 5f534352 5f37584c     ade/HWC_RCS_LX7_
  a0:	5f357030 2f324a52 35383933 782f3730     0p5_RJ2/398507/x
  b0:	6c697562 57532f64 666e6f43 782f6769     build/SWConfig/x
  c0:	00736f74 20554e47 32205341 0034332e     tos.GNU AS 2.34.
  d0:	6d6f682f 70782f65 73756367 72742f74     /home/xpgcust/tr
  e0:	522f6565 30322d4a 322e3332 2f62742f     ee/RJ-2023.2/tb/
  f0:	6f723470 582f746f 736e6574 61542f61     p4root/Xtensa/Ta
 100:	74656772 62696c2d 63782f73 2f62696c     rget-libs/xclib/
 110:	736e6574 63696c69 656d2f61 7970636d     tensilica/memcpy
 120:	2f00532e 6a6f7270 2f746365 74737563     .S./project/cust
 130:	6e65672f 2f707061 322d4a52 2e333230     /genapp/RJ-2023.
 140:	75622f32 2f646c69 65746e69 656b5f6c     2/build/intel_ke
 150:	77732f79 72677075 2f656461 5f435748     y/swupgrade/HWC_
 160:	5f534352 5f37584c 5f357030 2f324a52     RCS_LX7_0p5_RJ2/
 170:	35383933 782f3730 6c697562 57532f64     398507/xbuild/SW
 180:	666e6f43 782f6769 62696c63 6e65742f     Config/xclib/ten
 190:	696c6973 2f006163 656d6f68 6770782f     silica./home/xpg
 1a0:	74737563 6572742f 4a522f65 3230322d     cust/tree/RJ-202
 1b0:	2f322e33 702f6274 6f6f7234 74582f74     3.2/tb/p4root/Xt
 1c0:	61736e65 7261542f 2d746567 7362696c     ensa/Target-libs
 1d0:	6c63782f 742f6269 69736e65 6163696c     /xclib/tensilica
 1e0:	6d656d2f 2e746573 682f0053 2f656d6f     /memset.S./home/
 1f0:	63677078 2f747375 65657274 2d4a522f     xpgcust/tree/RJ-
 200:	33323032 742f322e 6f742f62 2f736c6f     2023.2/tb/tools/
 210:	6f747773 2d736c6f 5f363878 6c2d3436     swtools-x86_64-l
 220:	78756e69 6574782f 2d61736e 2f666c65     inux/xtensa-elf/
 230:	2f637273 736f7478 6165782f 65642f32     src/xtos/xea2/de
 240:	2d677562 74636576 532e726f 6f682f00     bug-vector.S./ho
 250:	782f656d 75636770 742f7473 2f656572     me/xpgcust/tree/
 260:	322d4a52 2e333230 62742f32 6f6f742f     RJ-2023.2/tb/too
 270:	732f736c 6f6f7477 782d736c 365f3638     ls/swtools-x86_6
 280:	696c2d34 2f78756e 6e657478 652d6173     4-linux/xtensa-e
 290:	732f666c 782f6372 2f736f74 32616578     lf/src/xtos/xea2
 2a0:	7365722f 762d7465 6f746365 65782d72     /reset-vector-xe
 2b0:	532e3261 65745800 5461736e 736c6f6f     a2.S.XtensaTools
 2c0:	2e35312d 63203230 676e616c 72657620     -15.02 clang ver
 2d0:	6e6f6973 2e353120 00372e30 6d6f682f     sion 15.0.7./hom
 2e0:	70782f65 73756367 72742f74 522f6565     e/xpgcust/tree/R
 2f0:	30322d4a 322e3332 2f62742f 6c6f6f74     J-2023.2/tb/tool
 300:	77732f73 6c6f6f74 38782d73 34365f36     s/swtools-x86_64
 310:	6e696c2d 782f7875 736e6574 6c652d61     -linux/xtensa-el
 320:	72732f66 74782f63 782f736f 2d736f74     f/src/xtos/xtos-
 330:	65746e69 70757272 6e652d74 656c6261     interrupt-enable
 340:	7500632e 6769736e 2064656e 00746e69     .c.unsigned int.
 350:	6e69555f 74323374 6e697500 5f323374     _Uint32t.uint32_
 360:	74780074 695f736f 7265746e 74707572     t.xtos_interrupt
 370:	616e655f 00656c62 746e495f 00743233     _enable._Int32t.
 380:	6e746e69 6d006d75 006b7361 65766173     intnum.mask.save
 390:	0073705f 6d6f682f 70782f65 73756367     _ps./home/xpgcus
 3a0:	72742f74 522f6565 30322d4a 322e3332     t/tree/RJ-2023.2
 3b0:	2f62742f 6c6f6f74 77732f73 6c6f6f74     /tb/tools/swtool
 3c0:	38782d73 34365f36 6e696c2d 782f7875     s-x86_64-linux/x
 3d0:	736e6574 6c652d61 72732f66 74782f63     tensa-elf/src/xt
 3e0:	782f736f 2d736f74 65746e69 70757272     os/xtos-interrup
 3f0:	69642d74 6c626173 00632e65 736f7478     t-disable.c.xtos
 400:	746e695f 75727265 645f7470 62617369     _interrupt_disab
 410:	2f00656c 656d6f68 6770782f 74737563     le./home/xpgcust
 420:	6572742f 4a522f65 3230322d 2f322e33     /tree/RJ-2023.2/
 430:	742f6274 736c6f6f 7477732f 736c6f6f     tb/tools/swtools
 440:	3638782d 2d34365f 756e696c 74782f78     -x86_64-linux/xt
 450:	61736e65 666c652d 6372732f 6f74782f     ensa-elf/src/xto
 460:	74782f73 732d736f 692d7465 6168746e     s/xtos-set-intha
 470:	656c646e 00632e72 736f7478 7465735f     ndler.c.xtos_set
 480:	746e695f 75727265 685f7470 6c646e61     _interrupt_handl
 490:	78007265 5f736f74 646e6168 5f72656c     er.xtos_handler_
 4a0:	636e7566 6f747800 61685f73 656c646e     func.xtos_handle
 4b0:	61700072 006d6172 65727070 6c6f0076     r.param.pprev.ol
 4c0:	6e650064 00797274 61760075 6e006772     d.entry.u.varg.n
 4d0:	00677261 736f7458 48746e49 6c646e61     arg.XtosIntHandl
 4e0:	6e457265 00797274 6d6f682f 70782f65     erEntry./home/xp
 4f0:	73756367 72742f74 522f6565 30322d4a     gcust/tree/RJ-20
 500:	322e3332 2f62742f 6c6f6f74 77732f73     23.2/tb/tools/sw
 510:	6c6f6f74 38782d73 34365f36 6e696c2d     tools-x86_64-lin
 520:	782f7875 736e6574 6c652d61 72732f66     ux/xtensa-elf/sr
 530:	74782f63 782f736f 2f326165 2d637865     c/xtos/xea2/exc-
 540:	63737973 2d6c6c61 646e6168 2e72656c     syscall-handler.
 550:	682f0053 2f656d6f 63677078 2f747375     S./home/xpgcust/
 560:	65657274 2d4a522f 33323032 742f322e     tree/RJ-2023.2/t
 570:	6f742f62 2f736c6f 6f747773 2d736c6f     b/tools/swtools-
 580:	5f363878 6c2d3436 78756e69 6574782f     x86_64-linux/xte
 590:	2d61736e 2f666c65 2f637273 736f7478     nsa-elf/src/xtos
 5a0:	6165782f 656d2f32 7272656d 762d726f     /xea2/memerror-v
 5b0:	6f746365 00532e72 6d6f682f 70782f65     ector.S./home/xp
 5c0:	73756367 72742f74 522f6565 30322d4a     gcust/tree/RJ-20
 5d0:	322e3332 2f62742f 6c6f6f74 77732f73     23.2/tb/tools/sw
 5e0:	6c6f6f74 38782d73 34365f36 6e696c2d     tools-x86_64-lin
 5f0:	782f7875 736e6574 6c652d61 72732f66     ux/xtensa-elf/sr
 600:	74782f63 782f736f 2f326165 2d696d6e     c/xtos/xea2/nmi-
 610:	74636576 532e726f 6f682f00 782f656d     vector.S./home/x
 620:	75636770 742f7473 2f656572 322d4a52     pgcust/tree/RJ-2
 630:	2e333230 62742f32 6f6f742f 732f736c     023.2/tb/tools/s
 640:	6f6f7477 782d736c 365f3638 696c2d34     wtools-x86_64-li
 650:	2f78756e 6e657478 652d6173 732f666c     nux/xtensa-elf/s
 660:	782f6372 2f736f74 32616578 6e69772f     rc/xtos/xea2/win
 670:	2d776f64 74636576 2e73726f 682f0053     dow-vectors.S./h
 680:	2f656d6f 63677078 2f747375 65657274     ome/xpgcust/tree
 690:	2d4a522f 33323032 742f322e 6f742f62     /RJ-2023.2/tb/to
 6a0:	2f736c6f 6f747773 2d736c6f 5f363878     ols/swtools-x86_
 6b0:	6c2d3436 78756e69 6574782f 2d61736e     64-linux/xtensa-
 6c0:	2f666c65 2f637273 736f7478 6165782f     elf/src/xtos/xea
 6d0:	6e692f32 65762d74 726f7463 2f00532e     2/int-vector.S./
 6e0:	656d6f68 6770782f 74737563 6572742f     home/xpgcust/tre
 6f0:	4a522f65 3230322d 2f322e33 742f6274     e/RJ-2023.2/tb/t
 700:	736c6f6f 7477732f 736c6f6f 3638782d     ools/swtools-x86
 710:	2d34365f 756e696c 74782f78 61736e65     _64-linux/xtensa
 720:	666c652d 6372732f 6f74782f 65782f73     -elf/src/xtos/xe
 730:	692f3261 6d2d746e 72706465 69642d69     a2/int-medpri-di
 740:	74617073 72656863 2f00532e 656d6f68     spatcher.S./home
 750:	6770782f 74737563 6572742f 4a522f65     /xpgcust/tree/RJ
 760:	3230322d 2f322e33 742f6274 736c6f6f     -2023.2/tb/tools
 770:	7477732f 736c6f6f 3638782d 2d34365f     /swtools-x86_64-
 780:	756e696c 74782f78 61736e65 666c652d     linux/xtensa-elf
 790:	6372732f 6f74782f 65782f73 692f3261     /src/xtos/xea2/i
 7a0:	682d746e 70686769 642d6972 61707369     nt-highpri-dispa
 7b0:	65686374 00532e72 6d6f682f 70782f65     tcher.S./home/xp
 7c0:	73756367 72742f74 522f6565 30322d4a     gcust/tree/RJ-20
 7d0:	322e3332 2f62742f 6c6f6f74 77732f73     23.2/tb/tools/sw
 7e0:	6c6f6f74 38782d73 34365f36 6e696c2d     tools-x86_64-lin
 7f0:	782f7875 736e6574 6c652d61 72732f66     ux/xtensa-elf/sr
 800:	74782f63 782f736f 2f326165 2d746e69     c/xtos/xea2/int-
 810:	70776f6c 642d6972 61707369 65686374     lowpri-dispatche
 820:	00532e72 6d6f682f 70782f65 73756367     r.S./home/xpgcus
 830:	72742f74 522f6565 30322d4a 322e3332     t/tree/RJ-2023.2
 840:	2f62742f 6c6f6f74 77732f73 6c6f6f74     /tb/tools/swtool
 850:	38782d73 34365f36 6e696c2d 782f7875     s-x86_64-linux/x
 860:	736e6574 6c652d61 72732f66 74782f63     tensa-elf/src/xt
 870:	782f736f 2f326165 2d637865 75746572     os/xea2/exc-retu
 880:	532e6e72 6f682f00 782f656d 75636770     rn.S./home/xpgcu
 890:	742f7473 2f656572 322d4a52 2e333230     st/tree/RJ-2023.
 8a0:	62742f32 6f6f742f 732f736c 6f6f7477     2/tb/tools/swtoo
 8b0:	782d736c 365f3638 696c2d34 2f78756e     ls-x86_64-linux/
 8c0:	6e657478 652d6173 732f666c 682f6372     xtensa-elf/src/h
 8d0:	632f6c61 6b636f6c 2f00532e 6a6f7270     al/clock.S./proj
 8e0:	2f746365 74737563 6e65672f 2f707061     ect/cust/genapp/
 8f0:	322d4a52 2e333230 75622f32 2f646c69     RJ-2023.2/build/
 900:	65746e69 656b5f6c 77732f79 72677075     intel_key/swupgr
 910:	2f656461 5f435748 5f534352 5f37584c     ade/HWC_RCS_LX7_
 920:	5f357030 2f324a52 35383933 782f3730     0p5_RJ2/398507/x
 930:	6c697562 57532f64 666e6f43 682f6769     build/SWConfig/h
 940:	2f006c61 656d6f68 6770782f 74737563     al./home/xpgcust
 950:	6572742f 4a522f65 3230322d 2f322e33     /tree/RJ-2023.2/
 960:	742f6274 736c6f6f 7477732f 736c6f6f     tb/tools/swtools
 970:	3638782d 2d34365f 756e696c 74782f78     -x86_64-linux/xt
 980:	61736e65 666c652d 6372732f 6c61682f     ensa-elf/src/hal
 990:	6e6f632f 632e7473 68745800 695f6c61     /const.c.Xthal_i
 9a0:	656c746e 006c6576 69736e75 64656e67     ntlevel.unsigned
 9b0:	6f687320 75007472 31746e69 00745f36      short.uint16_t.
 9c0:	52415f5f 5f594152 455a4953 5059545f     __ARRAY_SIZE_TYP
 9d0:	005f5f45                                E__.

Disassembly of section .debug_loc:

00000000 <.debug_loc>:
   0:	00000000 00000005 05520001 15000000     ..........R.....
  10:	01000000 00005300 00000000 00120000     .....S..........
  20:	00220000 00010000 00002552 00003200     ..".....R%...2..
  30:	55000100 00000000 00000000 00000015     ...U............
  40:	00000032 00530001 00000000 00000000     2.....S.........
  50:	05000000 01000000 00055200 00340000     .........R....4.
  60:	00010000 00000053 00000000 00002500     ....S........%..
  70:	00003200 55000100 00000000 00000000     .2.....U........
  80:	0000000d 00000032 00520001 00000000     ....2.....R.....
  90:	00000000 05000000 01000000 00055200     .............R..
  a0:	00420000 00010000 00000056 00000000     ..B.....V.......
  b0:	00000000 00002e00 53000100 00000000     ...........S....
	...
  c8:	00000032 00540001 00000000 32000000     2.....T........2
  d8:	40000000 01000000 00005400 00000000     ...@.....T......
  e8:	00240000 00360000 00010000 00000052     ..$...6.....R...
  f8:	00000000                                 .....

Disassembly of section .xt.prop:

00000000 <.xt.prop>:
       0:	10000c30 00000010 00000001 100010fc     0...............
      10:	0000001a 00000082 10001116 00000007     ................
      20:	000000a2 1000111d 00000003 000000a2     ................
      30:	10001120 0000000b 000000a2 1000112b      ...........+...
      40:	00000000 00000008 10000c40 00000010     ........@.......
      50:	00000001 1000112c 00000000 00002804     ....,........(..
      60:	1000112c 0000000a 00000082 10001136     ,...........6...
      70:	00000000 00002808 10001138 0000000a     .....(..8.......
      80:	00000082 10001142 00000000 00002808     ....B........(..
      90:	10001144 00000014 00000082 10001158     D...........X...
      a0:	00000004 000000a2 1000115c 00000000     ........\.......
      b0:	00000008 1000115c 00000011 000000a2     ....\...........
      c0:	1000116d 00000006 000000a2 10001173     m...........s...
      d0:	00000000 00000008 10000c50 0000000c     ........P.......
      e0:	00000001 10001180 00000000 00002804     .............(..
      f0:	10001180 0000004c 00000082 100011cc     ....L...........
     100:	00000007 000000a2 100011d3 00000000     ................
     110:	00002808 100011d4 00000018 00000082     .(..............
     120:	100011ec 0000000c 000000a2 100011f8     ................
     130:	00000005 00000092 100011fd 00000000     ................
     140:	00000008 100011fd 00000012 000000a2     ................
     150:	1000120f 00000001 00000008 10001210     ................
     160:	00000004 000000a2 10001214 00000000     ................
     170:	00000008 10001214 00000028 000000a2     ........(.......
     180:	1000123c 00000007 000000a2 10001243     <...........C...
     190:	00000000 00002808 10001244 0000008c     .....(..D.......
     1a0:	00000082 100012d0 00000032 000000a2     ........2.......
     1b0:	10001302 00000007 000000a2 10001309     ................
     1c0:	00000000 00000008 10001309 00000017     ................
     1d0:	000000a2 10001320 00000008 000000a2     .... ...........
     1e0:	10001328 00000002 000000a2 1000132a     (...........*...
     1f0:	00000000 00000008 10000c5c 00000030     ........\...0...
     200:	00000001 10001330 00000000 00002804     ....0........(..
     210:	10001330 00000026 00000082 10001356     0...&.......V...
     220:	00000010 000000b2 10001366 0000000d     ........f.......
     230:	00000092 10001373 0000003c 00000092     ....s...<.......
     240:	100013af 00000000 00002808 100013b0     .........(......
     250:	00000026 00000082 100013d6 00000002     &...............
     260:	000000a2 100013d8 00000000 00002808     .............(..
     270:	100013d8 0000002a 00000082 10001402     ....*...........
     280:	00000002 000000a2 10001404 00000000     ................
     290:	00002808 10001404 0000003c 00000082     .(......<.......
     2a0:	10001440 00000020 00000092 10001460     @... .......`...
     2b0:	00000000 00000008 10001460 00000003     ........`.......
     2c0:	000000a2 10001463 00000020 000000a2     ....c... .......
     2d0:	10001483 00000002 000000b2 10001485     ................
     2e0:	00000000 00000008 10000c8c 0000004c     ............L...
     2f0:	00000001 10001488 00000000 00002804     .............(..
     300:	10001488 00000021 00000082 100014a9     ....!...........
     310:	00000000 00000008 100014a9 0000000d     ................
     320:	000000a2 100014b6 00000019 000000a2     ................
     330:	100014cf 00000001 00000008 100014d0     ................
     340:	00000012 000000a2 100014e2 00000002     ................
     350:	00000008 100014e4 0000000a 000000a2     ................
     360:	100014ee 00000019 000000a2 10001507     ................
     370:	00000001 00000008 10001508 00000011     ................
     380:	000000a2 10001519 00000000 00000008     ................
     390:	10001519 0000000b 000000a2 10001524     ............$...
     3a0:	00000019 000000a2 1000153d 00000000     ........=.......
     3b0:	00000008 1000153d 00000002 000000a2     ....=...........
     3c0:	1000153f 00000000 00002808 10001540     ?........(..@...
     3d0:	00000016 00000082 10001556 00000007     ........V.......
     3e0:	000000a2 1000155d 00000006 000000a2     ....]...........
     3f0:	10001563 00000001 00000008 10001564     c...........d...
     400:	00000008 000000a2 1000156c 00000002     ........l.......
     410:	000000a2 1000156e 00000000 00000008     ....n...........
     420:	1000156e 00000025 000000a2 10001593     n...%...........
     430:	00000001 00000008 10001594 00000021     ............!...
     440:	000000a2 100015b5 00000000 00000008     ................
     450:	100015b5 00000008 00000082 100015bd     ................
     460:	00000000 00000008 100015bd 00000003     ................
     470:	000000a2 100015c0 00000009 000000a2     ................
     480:	100015c9 00000000 00000008 100015c9     ................
     490:	00000015 000000a2 100015de 00000000     ................
     4a0:	00000008 100015de 00000009 00000082     ................
     4b0:	100015e7 00000000 00000008 100015e7     ................
     4c0:	00000009 00000082 100015f0 00000000     ................
     4d0:	00000008 100015f0 00000006 00000082     ................
     4e0:	100015f6 00000002 000000a2 100015f8     ................
     4f0:	00000002 000000a2 100015fa 00000018     ................
     500:	000000a2 10001612 00000000 00002808     .............(..
     510:	10001614 00000016 00000082 1000162a     ............*...
     520:	00000002 00000008 1000162c 00000034     ........,...4...
     530:	000000a2 10001660 00000000 00000008     ....`...........
     540:	10001660 0000000d 000000a2 1000166d     `...........m...
     550:	00000000 00000008 1000166d 0000000b     ........m.......
     560:	000000a2 10001678 00000005 000000a2     ....x...........
     570:	1000167d 0000001f 000000a2 1000169c     }...............
     580:	00000005 000000a2 100016a1 00000002     ................
     590:	000000a2 100016a3 00000000 00002808     .............(..
     5a0:	100016a4 00000014 00000082 100016b8     ................
     5b0:	00000008 000000a2 100016c0 00000000     ................
     5c0:	00000008 100016c0 00000035 000000a2     ........5.......
     5d0:	100016f5 00000001 00000008 100016f6     ................
     5e0:	0000001e 00000082 10001714 00000000     ................
     5f0:	00000008 10001714 00000010 00000082     ................
     600:	10001724 0000000a 000000a2 1000172e     $...............
     610:	00000000 00000008 1000172e 00000010     ................
     620:	00000082 1000173e 0000000a 000000a2     ....>...........
     630:	10001748 00000001 00000008 10001749     H...........I...
     640:	0000000d 00000082 10001756 00000008     ........V.......
     650:	000000a2 1000175e 00000007 000000a2     ....^...........
     660:	10001765 0000000f 000000a2 10001774     e...........t...
     670:	00000002 000000a2 10001776 00000002     ........v.......
     680:	00000008 10001778 00000003 000000a2     ....x...........
     690:	1000177b 00000000 00002808 1000177c     {........(..|...
     6a0:	00000011 00000082 1000178d 00000000     ................
     6b0:	00002808 10001790 00000012 00000082     .(..............
     6c0:	100017a2 00000002 00000008 100017a4     ................
     6d0:	0000000a 000000a2 100017ae 00000000     ................
     6e0:	00002808 100017b0 00000012 00000082     .(..............
     6f0:	100017c2 00000000 00002808 100017c4     .........(......
     700:	00000013 00000082 100017d7 00000000     ................
     710:	00002808 100017d8 00000052 00000082     .(......R.......
     720:	1000182a 00000000 00002808 1000182c     *........(..,...
     730:	00000012 00000082 1000183e 00000002     ........>.......
     740:	00000008 10001840 0000000a 000000a2     ....@...........
     750:	1000184a 0000001f 000000a2 10001869     J...........i...
     760:	00000000 00000008 10001869 00000002     ........i.......
     770:	000000a2 1000186b 00000000 00000008     ....k...........
     780:	10024160 00000028 00002804 10000cd8     `A..(....(......
     790:	00000004 00000001 1000186c 00000000     ........l.......
     7a0:	00002804 1000186c 0000000d 00000082     .(..l...........
     7b0:	10001879 00000000 00000008 10000cdc     y...............
     7c0:	0000013c 00000001 10001880 00000000     <...............
     7d0:	00002804 10001880 00000078 00000082     .(......x.......
     7e0:	100018f8 00000016 000000a2 1000190e     ................
     7f0:	00000005 00000008 10001913 00000025     ............%...
     800:	000000a2 10001938 00000039 000000a2     ....8...9.......
     810:	10001971 00000037 000000a2 100019a8     q...7...........
     820:	00000005 000000a2 100019ad 0000003b     ............;...
     830:	000000a2 100019e8 00000035 000000a2     ........5.......
     840:	10001a1d 0000003b 000000a2 10001a58     ....;.......X...
     850:	00000035 000000a2 10001a8d 00000007     5...............
     860:	000000a2 10001a94 00000038 000000a2     ........8.......
     870:	10001acc 00000012 000000a2 10001ade     ................
     880:	00000000 00000008 10001ade 0000000a     ................
     890:	000000a2 10001ae8 00000034 000000a2     ........4.......
     8a0:	10001b1c 00000007 000000a2 10001b23     ............#...
     8b0:	00000039 000000a2 10001b5c 00000007     9.......\.......
     8c0:	000000a2 10001b63 00000039 000000a2     ....c...9.......
     8d0:	10001b9c 00000007 000000a2 10001ba3     ................
     8e0:	00000043 000000a2 10001be6 00000031     C...........1...
     8f0:	000000a2 10001c17 00000034 000000a2     ........4.......
     900:	10001c4b 00000005 000000a2 10001c50     K...........P...
     910:	00000005 000000a2 10001c55 0000003b     ........U...;...
     920:	00000092 10001c90 00000010 000000a2     ................
     930:	10001ca0 00000002 00000008 10001ca2     ................
     940:	00000007 000000a2 10001ca9 00000032     ............2...
     950:	000000a2 10001cdb 00000005 000000a2     ................
     960:	10001ce0 00000037 000000a2 10001d17     ....7...........
     970:	00000005 000000a2 10001d1c 0000003a     ............:...
     980:	000000a2 10001d56 00000005 000000a2     ....V...........
     990:	10001d5b 0000002b 000000a2 10001d86     [...+...........
     9a0:	00000006 000000a2 10001d8c 00000000     ................
     9b0:	00002808 10001d8c 00000021 00000082     .(......!.......
     9c0:	10001dad 0000001b 000000a2 10001dc8     ................
     9d0:	0000000a 000000a2 10001dd2 0000000a     ................
     9e0:	000000a2 10001ddc 0000000a 000000a2     ................
     9f0:	10001de6 0000000a 000000a2 10001df0     ................
     a00:	0000001b 000000a2 10001e0b 00000005     ................
     a10:	000000a2 10001e10 0000000d 00000092     ................
     a20:	10001e1d 0000000a 000000a2 10001e27     ............'...
     a30:	0000000a 000000a2 10001e31 0000000a     ........1.......
     a40:	000000a2 10001e3b 00000002 000000a2     ....;...........
     a50:	10001e3d 00000000 00002808 10001e40     =........(..@...
     a60:	0000003f 00000082 10001e7f 00000000     ?...............
     a70:	00002808 10001e80 00000022 00000082     .(......".......
     a80:	10001ea2 0000001b 000000a2 10001ebd     ................
     a90:	0000000a 000000a2 10001ec7 0000000a     ................
     aa0:	000000a2 10001ed1 0000000a 000000a2     ................
     ab0:	10001edb 0000000a 000000a2 10001ee5     ................
     ac0:	0000001b 000000a2 10001f00 00000005     ................
     ad0:	000000a2 10001f05 0000000d 00000092     ................
     ae0:	10001f12 0000000a 000000a2 10001f1c     ................
     af0:	0000000a 000000a2 10001f26 0000000a     ........&.......
     b00:	000000a2 10001f30 00000002 000000a2     ....0...........
     b10:	10001f32 00000000 00002808 10001f34     2........(..4...
     b20:	0000001a 00000082 10001f4e 00000000     ........N.......
     b30:	00002808 10001f50 0000000c 00000082     .(..P...........
     b40:	10001f5c 00000000 00002808 10001f5c     \........(..\...
     b50:	00000094 00000082 10001ff0 0000001d     ................
     b60:	00000092 1000200d 00000000 00002808     ..... .......(..
     b70:	10002010 0000000b 00000082 1000201b     . ........... ..
     b80:	00000000 00002808 1000201c 00000038     .....(... ..8...
     b90:	00000082 10002054 00000008 000000a2     ....T ..........
     ba0:	1000205c 00000047 000000a2 100020a3     \ ..G........ ..
     bb0:	00000032 000000a2 100020d5 00000012     2........ ......
     bc0:	000000a2 100020e7 00000012 000000a2     ..... ..........
     bd0:	100020f9 0000000e 000000a2 10002107     . ...........!..
     be0:	00000002 000000a2 10002109 00000000     .........!......
     bf0:	00002808 1000210c 0000001c 00000082     .(...!..........
     c00:	10002128 00000000 00002808 10002128     (!.......(..(!..
     c10:	0000001f 00000082 10002147 00000034     ........G!..4...
     c20:	000000a2 1000217b 00000038 000000a2     ....{!..8.......
     c30:	100021b3 00000000 00002808 100021b4     .!.......(...!..
     c40:	00000057 00000082 1000220b 00000005     W........"......
     c50:	000000a2 10002210 0000001b 000000a2     ....."..........
     c60:	1000222b 00000018 000000a2 10002243     +"..........C"..
     c70:	00000012 000000a2 10002255 00000012     ........U"......
     c80:	000000a2 10002267 00000006 000000a2     ....g"..........
     c90:	1000226d 00000000 00000008 1000226d     m"..........m"..
     ca0:	0000000e 000000a2 1000227b 00000000     ........{"......
     cb0:	00002808 1000227c 00000029 00000082     .(..|"..).......
     cc0:	100022a5 00000000 00002808 100022a8     .".......(..."..
     cd0:	00000085 00000082 1000232d 00000002     ........-#......
     ce0:	000000a2 1000232f 00000000 00002808     ..../#.......(..
     cf0:	10002330 0000004b 00000082 1000237b     0#..K.......{#..
     d00:	00000000 00002808 1000237c 0000001f     .....(..|#......
     d10:	00000082 1000239b 00000000 00002808     .....#.......(..
     d20:	1000239c 0000000a 00000082 100023a6     .#...........#..
     d30:	00000000 00002808 100023a8 0000000c     .....(...#......
     d40:	00000082 100023b4 00000000 00002808     .....#.......(..
     d50:	100023b4 0000003e 00000082 100023f2     .#..>........#..
     d60:	00000000 00002808 100023f4 00000039     .....(...#..9...
     d70:	00000082 1000242d 00000000 00002808     ....-$.......(..
     d80:	10002430 00000021 00000082 10002451     0$..!.......Q$..
     d90:	0000001c 000000a2 1000246d 0000000a     ........m$......
     da0:	000000a2 10002477 0000000a 000000a2     ....w$..........
     db0:	10002481 0000000a 000000a2 1000248b     .$...........$..
     dc0:	0000000a 000000a2 10002495 0000001b     .........$......
     dd0:	000000a2 100024b0 00000005 000000a2     .....$..........
     de0:	100024b5 0000000d 00000092 100024c2     .$...........$..
     df0:	0000000a 000000a2 100024cc 0000000a     .........$......
     e00:	000000a2 100024d6 0000000a 000000a2     .....$..........
     e10:	100024e0 00000002 000000a2 100024e2     .$...........$..
     e20:	00000000 00002808 100024e4 0000003f     .....(...$..?...
     e30:	00000082 10002523 00000016 000000a2     ....#%..........
     e40:	10002539 00000012 000000a2 1000254b     9%..........K%..
     e50:	00000012 000000a2 1000255d 00000017     ........]%......
     e60:	000000a2 10002574 00000002 000000a2     ....t%..........
     e70:	10002576 00000000 00000008 10000e18     v%..............
     e80:	00000008 00000001 10002578 00000000     ........x%......
     e90:	00002804 10002578 00000027 00000082     .(..x%..'.......
     ea0:	1000259f 00000000 00002808 100025a0     .%.......(...%..
     eb0:	00000019 00000082 100025b9 00000000     .........%......
     ec0:	00000008 100025b9 00000057 000000a2     .....%..W.......
     ed0:	10002610 00000024 000000a2 10002634     .&..$.......4&..
     ee0:	00000000 00002808 10002634 00000015     .....(..4&......
     ef0:	00000082 10002649 00000000 00000008     ....I&..........
     f00:	10002649 0000005b 000000a2 100026a4     I&..[........&..
     f10:	00000024 000000a2 100026c8 00000000     $........&......
     f20:	00002808 100026c8 00000016 00000082     .(...&..........
     f30:	100026de 00000003 00000008 100026e1     .&...........&..
     f40:	0000005f 000000a2 10002740 00000024     _.......@'..$...
     f50:	000000a2 10002764 00000000 00002808     ....d'.......(..
     f60:	10002764 00000011 00000082 10002775     d'..........u'..
     f70:	00000000 00000008 10002775 00000018     ........u'......
     f80:	000000a2 1000278d 0000001b 000000a2     .....'..........
     f90:	100027a8 00000000 00000008 100027a8     .'...........'..
     fa0:	00000050 000000a2 100027f8 00000028     P........'..(...
     fb0:	000000a2 10002820 0000000a 000000a2     .... (..........
     fc0:	1000282a 00000003 00000008 1000282d     *(..........-(..
     fd0:	00000033 000000a2 10002860 00000046     3.......`(..F...
     fe0:	000000a2 100028a6 00000000 00000008     .....(..........
     ff0:	10000e20 00000004 00000001 100028a8      ............(..
    1000:	00000000 00002804 100028a8 0000002c     .....(...(..,...
    1010:	00000082 100028d4 00000000 00002808     .....(.......(..
    1020:	100028d4 00000046 00000082 1000291a     .(..F........)..
    1030:	00000000 00002808 1000291c 00000067     .....(...)..g...
    1040:	00000082 10002983 00000000 00002808     .....).......(..
    1050:	10002984 00000030 00000082 100029b4     .)..0........)..
    1060:	00000000 00002808 100029b4 0000002e     .....(...)......
    1070:	00000082 100029e2 00000000 00002808     .....).......(..
    1080:	100029e4 00000032 00000082 10002a16     .)..2........*..
    1090:	00000000 00002808 10002a18 00000034     .....(...*..4...
    10a0:	00000082 10002a4c 00000000 00002808     ....L*.......(..
    10b0:	10002a4c 00000030 00000082 10002a7c     L*..0.......|*..
    10c0:	00000000 00002808 10002a7c 00000030     .....(..|*..0...
    10d0:	00000082 10002aac 00000000 00000008     .....*..........
    10e0:	10000e24 00000004 00000001 10002ab0     $............*..
    10f0:	00000000 00002804 10002ab0 0000000a     .....(...*......
    1100:	00000082 10002aba 00000000 00002808     .....*.......(..
    1110:	10002abc 0000001f 00000082 10002adb     .*...........*..
    1120:	00000000 00002808 10002adc 00000021     .....(...*..!...
    1130:	00000082 10002afd 00000000 00002808     .....*.......(..
    1140:	10002b00 0000004e 00000082 10002b4e     .+..N.......N+..
    1150:	00000000 00000008 10002b4e 00000002     ........N+......
    1160:	000000a2 10002b50 00000008 000000a2     ....P+..........
    1170:	10002b58 00000000 00002808 10002b58     X+.......(..X+..
    1180:	00000034 00000082 10002b8c 00000002     4........+......
    1190:	000000a2 10002b8e 00000020 000000a2     .....+.. .......
    11a0:	10002bae 00000000 00002808 10002bb0     .+.......(...+..
    11b0:	0000003a 00000082 10002bea 00000000     :........+......
    11c0:	00000008 10002bea 0000000e 000000a2     .....+..........
    11d0:	10002bf8 00000008 000000a2 10002c00     .+...........,..
    11e0:	00000000 00002808 10002c00 0000000a     .....(...,......
    11f0:	00000082 10002c0a 00000000 00002808     .....,.......(..
    1200:	10002c0c 0000000a 00000082 10002c16     .,...........,..
    1210:	00000000 00002808 10002c18 00000018     .....(...,......
    1220:	00000082 10002c30 00000002 000000a2     ....0,..........
    1230:	10002c32 00000001 00000008 10002c33     2,..........3,..
    1240:	00000005 000000a2 10002c38 00000009     ........8,......
    1250:	000000a2 10002c41 00000003 00000092     ....A,..........
    1260:	10002c44 00000000 00000008 10000e28     D,..........(...
    1270:	00000008 00000001 10002c44 00000000     ........D,......
    1280:	00002804 10002c44 0000002c 00000082     .(..D,..,.......
    1290:	10002c70 00000000 00002808 10002c70     p,.......(..p,..
    12a0:	00000024 00000082 10002c94 00000000     $........,......
    12b0:	00002808 10002c94 0000000f 00000082     .(...,..........
    12c0:	10002ca3 00000000 00002808 10002ca4     .,.......(...,..
    12d0:	00000014 00000082 10002cb8 00000005     .........,......
    12e0:	000000a2 10002cbd 00000000 00002808     .....,.......(..
    12f0:	10002cc0 0000000c 00000082 10002ccc     .,...........,..
    1300:	00000000 00002808 10002ccc 00000010     .....(...,......
    1310:	00000082 10002cdc 00000002 000000a2     .....,..........
    1320:	10002cde 00000000 00002808 10002ce0     .,.......(...,..
    1330:	00000018 00000082 10002cf8 00000001     .........,......
    1340:	00000008 10002cf9 00000007 000000a2     .....,..........
    1350:	10002d00 0000001c 000000a2 10002d1c     .-...........-..
    1360:	0000000b 000000a2 10002d27 00000002     ........'-......
    1370:	00000008 10002d29 00000007 000000a2     ....)-..........
    1380:	10002d30 0000001d 000000a2 10002d4d     0-..........M-..
    1390:	00000001 00000008 10002d4e 00000002     ........N-......
    13a0:	000000a2 10002d50 00000009 000000a2     ....P-..........
    13b0:	10002d59 00000000 00000008 10002d59     Y-..........Y-..
    13c0:	00000007 000000a2 10002d60 0000001a     ........`-......
    13d0:	000000a2 10002d7a 00000004 000000a2     ....z-..........
    13e0:	10002d7e 00000002 000000a2 10002d80     ~-...........-..
    13f0:	00000001 00000008 10002d81 00000007     .........-......
    1400:	000000a2 10002d88 00000007 000000a2     .....-..........
    1410:	10002d8f 00000002 00000008 10002d91     .-...........-..
    1420:	00000007 000000a2 10002d98 0000001c     .........-......
    1430:	000000a2 10002db4 00000000 00000008     .....-..........
    1440:	10002db4 00000004 000000a2 10002db8     .-...........-..
    1450:	00000000 00002808 10002db8 0000000a     .....(...-......
    1460:	00000082 10002dc2 00000000 00000008     .....-..........
    1470:	10002dc2 00000007 000000a2 10002dc9     .-...........-..
    1480:	0000001e 000000a2 10002de7 00000001     .........-......
    1490:	00000008 10002de8 00000004 000000a2     .....-..........
    14a0:	10002dec 00000000 00002808 10002dec     .-.......(...-..
    14b0:	0000001b 00000082 10002e07 00000000     ................
    14c0:	00000008 10002e07 00000008 00000082     ................
    14d0:	10002e0f 00000000 00000008 10002e0f     ................
    14e0:	00000008 00000082 10002e17 00000000     ................
    14f0:	00000008 10002e17 00000008 00000082     ................
    1500:	10002e1f 00000000 00000008 10002e1f     ................
    1510:	00000008 00000082 10002e27 00000000     ........'.......
    1520:	00000008 10002e27 0000000d 00000082     ....'...........
    1530:	10002e34 00000000 00000008 10002e34     4...........4...
    1540:	00000008 00000082 10002e3c 00000010     ........<.......
    1550:	000000a2 10002e4c 00000007 000000a2     ....L...........
    1560:	10002e53 00000000 00000008 10002e53     S...........S...
    1570:	00000008 00000082 10002e5b 00000000     ........[.......
    1580:	00000008 10002e5b 00000008 00000082     ....[...........
    1590:	10002e63 00000000 00000008 10002e63     c...........c...
    15a0:	00000005 00000082 10002e68 00000011     ........h.......
    15b0:	000000a2 10002e79 00000000 00000008     ....y...........
    15c0:	10002e79 00000008 00000082 10002e81     y...............
    15d0:	00000000 00000008 10002e81 00000008     ................
    15e0:	00000082 10002e89 00000000 00002808     .............(..
    15f0:	10002e8c 0000002c 00000082 10002eb8     ....,...........
    1600:	00000002 000000a2 10002eba 00000000     ................
    1610:	00000008 10002eba 0000000b 000000a2     ................
    1620:	10002ec5 00000000 00002808 10002ec8     .........(......
    1630:	00000018 00000082 10002ee0 00000000     ................
    1640:	00000008 10002ee0 00000005 00000082     ................
    1650:	10002ee5 0000000f 000000a2 10002ef4     ................
    1660:	00000002 000000a2 10002ef6 00000002     ................
    1670:	00000008 10002ef8 00000008 00000082     ................
    1680:	10002f00 00000000 00000008 10002f00     ./.........../..
    1690:	00000008 00000082 10002f08 00000000     ........./......
    16a0:	00000008 10002f08 00000008 00000082     ...../..........
    16b0:	10002f10 00000000 00000008 10002f10     ./.........../..
    16c0:	00000005 00000082 10002f15 0000000f     ........./......
    16d0:	000000a2 10002f24 00000000 00000008     ....$/..........
    16e0:	10002f24 00000008 00000082 10002f2c     $/..........,/..
    16f0:	00000000 00000008 10002f2c 00000008     ........,/......
    1700:	00000082 10002f34 00000000 00002808     ....4/.......(..
    1710:	10002f34 00000052 00000082 10002f86     4/..R......../..
    1720:	00000002 000000a2 10002f88 00000001     ........./......
    1730:	00000008 10002f89 0000000b 000000a2     ...../..........
    1740:	10002f94 00000000 00002808 10002f94     ./.......(.../..
    1750:	0000001f 00000082 10002fb3 00000000     ........./......
    1760:	00000008 10024320 00000034 00002804     .... C..4....(..
    1770:	10000e30 0000000c 00000001 10002fc0     0............/..
    1780:	00000000 00002804 10002fc0 0000001c     .....(.../......
    1790:	00000082 10002fdc 00000005 000000a2     ...../..........
    17a0:	10002fe1 00000003 00000092 10002fe4     ./.........../..
    17b0:	00000000 00000008 10002fe4 00000002     ........./......
    17c0:	000000a2 10002fe6 00000000 00002808     ...../.......(..
    17d0:	10002fe8 00000015 00000082 10002ffd     ./.........../..
    17e0:	00000000 00002808 10003000 00000011     .....(...0......
    17f0:	00000082 10003011 000000a4 000000a2     .....0..........
    1800:	100030b5 00000001 00000008 100030b6     .0...........0..
    1810:	00000028 000000a2 100030de 0000000a     (........0......
    1820:	000000a2 100030e8 00000005 000000a2     .....0..........
    1830:	100030ed 00000003 00000092 100030f0     .0...........0..
    1840:	00000000 00002808 100030f0 00000026     .....(...0..&...
    1850:	00000082 10003116 00000000 00002808     .....1.......(..
    1860:	10003118 00000031 00000082 10003149     .1..1.......I1..
    1870:	00000000 00002808 1000314c 00000012     .....(..L1......
    1880:	00000082 1000315e 00000000 00000008     ....^1..........
    1890:	10000e3c 00000004 00000001 10003160     <...........`1..
    18a0:	00000000 00002804 10003160 0000001c     .....(..`1......
    18b0:	00000082 1000317c 00000005 00000092     ....|1..........
    18c0:	10003181 00000000 00002808 10003184     .1.......(...1..
    18d0:	00000014 00000082 10003198 00000000     .........1......
    18e0:	00000008 10000e40 00000038 00000001     ....@...8.......
    18f0:	100031a0 00000000 00002804 100031a0     .1.......(...1..
    1900:	00000038 00000082 100031d8 00000000     8........1......
    1910:	00002808 100031d8 00000020 00000082     .(...1.. .......
    1920:	100031f8 00000002 000000a2 100031fa     .1...........1..
    1930:	00000000 00002808 100031fc 0000003a     .....(...1..:...
    1940:	00000082 10003236 0000000a 000000a2     ....62..........
    1950:	10003240 00000002 000000a2 10003242     @2..........B2..
    1960:	00000000 00002808 10003244 0000002a     .....(..D2..*...
    1970:	00000082 1000326e 00000002 000000a2     ....n2..........
    1980:	10003270 00000000 00002808 10003270     p2.......(..p2..
    1990:	0000000e 00000082 1000327e 00000000     ........~2......
    19a0:	00002808 10003280 0000000e 00000082     .(...2..........
    19b0:	1000328e 00000000 00002808 10003290     .2.......(...2..
    19c0:	0000000d 00000082 1000329d 0000000a     .........2......
    19d0:	000000a2 100032a7 00000003 00000092     .....2..........
    19e0:	100032aa 00000000 00000008 100032aa     .2...........2..
    19f0:	00000007 000000a2 100032b1 00000000     .........2......
    1a00:	00002808 100032b4 00000024 00000082     .(...2..$.......
    1a10:	100032d8 0000000a 000000a2 100032e2     .2...........2..
    1a20:	00000003 00000092 100032e5 00000000     .........2......
    1a30:	00000008 100032e5 0000002b 000000a2     .....2..+.......
    1a40:	10003310 00000000 00002808 10003310     .3.......(...3..
    1a50:	0000000d 00000082 1000331d 0000000a     .........3......
    1a60:	000000a2 10003327 00000003 00000092     ....'3..........
    1a70:	1000332a 00000000 00000008 1000332a     *3..........*3..
    1a80:	0000002b 000000a2 10003355 00000000     +.......U3......
    1a90:	00002808 10003358 00000025 00000082     .(..X3..%.......
    1aa0:	1000337d 0000000a 000000a2 10003387     }3...........3..
    1ab0:	00000003 00000092 1000338a 00000000     .........3......
    1ac0:	00000008 1000338a 0000002b 000000a2     .....3..+.......
    1ad0:	100033b5 00000000 00002808 100033b8     .3.......(...3..
    1ae0:	00000024 00000082 100033dc 0000000a     $........3......
    1af0:	000000a2 100033e6 00000003 00000092     .....3..........
    1b00:	100033e9 00000000 00000008 100033e9     .3...........3..
    1b10:	0000002b 000000a2 10003414 00000000     +........4......
    1b20:	00002808 10003414 0000001d 00000082     .(...4..........
    1b30:	10003431 0000000a 000000a2 1000343b     14..........;4..
    1b40:	00000003 00000092 1000343e 00000002     ........>4......
    1b50:	00000008 10003440 00000029 000000a2     ....@4..).......
    1b60:	10003469 0000000a 000000a2 10003473     i4..........s4..
    1b70:	00000003 00000092 10003476 00000000     ........v4......
    1b80:	00000008 10003476 0000003b 000000a2     ....v4..;.......
    1b90:	100034b1 0000000a 000000a2 100034bb     .4...........4..
    1ba0:	00000009 000000a2 100034c4 00000000     .........4......
    1bb0:	00000008 10024050 00000000 00003804     ....P@.......8..
    1bc0:	10005ca0 00000000 00002804 10005ca0     .\.......(...\..
    1bd0:	00000012 00000082 10005cb2 00000022     .........\.."...
    1be0:	000000a2 10005cd4 00000005 000000a2     .....\..........
    1bf0:	10005cd9 00000003 00000092 10005cdc     .\...........\..
    1c00:	00000000 00002808 10005cdc 00000012     .....(...\......
    1c10:	00000082 10005cee 00000022 000000a2     .....\..".......
    1c20:	10005d10 00000005 000000a2 10005d15     .]...........]..
    1c30:	00000003 00000092 10005d18 00000000     .........]......
    1c40:	00002808 10005d18 00000012 00000082     .(...]..........
    1c50:	10005d2a 00000022 000000a2 10005d4c     *]..".......L]..
    1c60:	00000005 000000a2 10005d51 00000003     ........Q]......
    1c70:	00000092 10005d54 00000000 00002808     ....T].......(..
    1c80:	10005d54 00000012 00000082 10005d66     T]..........f]..
    1c90:	00000022 000000a2 10005d88 00000005     "........]......
    1ca0:	000000a2 10005d8d 00000003 00000092     .....]..........
    1cb0:	10005d90 00000000 00000008 10005d90     .]...........]..
    1cc0:	00000000 00002804 10005d90 00000005     .....(...]......
    1cd0:	00000082 10005d95 00000000 00000008     .....]..........
    1ce0:	10000e78 0000002c 00000001 100034d0     x...,........4..
    1cf0:	00000000 00002804 100034d0 00000030     .....(...4..0...
    1d00:	00000082 10003500 00000002 000000a2     .....5..........
    1d10:	10003502 00000005 000000b2 10003507     .5...........5..
    1d20:	00000087 000000a2 1000358e 00000000     .........5......
    1d30:	00000008 1000358e 00000005 000000a2     .....5..........
    1d40:	10003593 00000006 000000a2 10003599     .5...........5..
    1d50:	00000000 00002808 1000359c 00000025     .....(...5..%...
    1d60:	00000082 100035c1 00000000 00002808     .....5.......(..
    1d70:	100035c4 00000025 00000082 100035e9     .5..%........5..
    1d80:	00000000 00000008 100035e9 00000002     .........5......
    1d90:	000000a2 100035eb 0000000b 000000a2     .....5..........
    1da0:	100035f6 0000005f 000000a2 10003655     .5.._.......U6..
    1db0:	00000018 000000a2 1000366d 0000001f     ........m6......
    1dc0:	000000a2 1000368c 00000000 00000008     .....6..........
    1dd0:	1000368c 00000002 000000a2 1000368e     .6...........6..
    1de0:	00000000 00002808 10003690 00000024     .....(...6..$...
    1df0:	00000082 100036b4 0000000f 000000a2     .....6..........
    1e00:	100036c3 00000003 00000092 100036c6     .6...........6..
    1e10:	00000000 00000008 100036c6 0000000f     .........6......
    1e20:	000000a2 100036d5 00000000 00002808     .....6.......(..
    1e30:	100036d8 00000018 00000082 100036f0     .6...........6..
    1e40:	00000000 00002808 100036f0 0000002e     .....(...6......
    1e50:	00000082 1000371e 00000002 000000a2     .....7..........
    1e60:	10003720 00000005 000000b2 10003725      7..........%7..
    1e70:	00000051 000000a2 10003776 00000018     Q.......v7......
    1e80:	000000a2 1000378e 00000002 00000008     .....7..........
    1e90:	10003790 00000011 000000a2 100037a1     .7...........7..
    1ea0:	00000030 000001a6 100037d1 00000003     0........7......
    1eb0:	00000092 100037d4 00000000 00000008     .....7..........
    1ec0:	100037d4 0000001a 000000a2 100037ee     .7...........7..
    1ed0:	0000000f 000000a2 100037fd 00000003     .........7......
    1ee0:	00000092 10003800 00000000 00000008     .....8..........
    1ef0:	10003800 00000012 000000a2 10003812     .8...........8..
    1f00:	00000000 00000008 10003812 00000008     .........8......
    1f10:	000000a2 1000381a 000000aa 000000a2     .....8..........
    1f20:	100038c4 00000002 000000a2 100038c6     .8...........8..
    1f30:	00000000 00002808 100038c8 00000010     .....(...8......
    1f40:	00000082 100038d8 00000000 00002808     .....8.......(..
    1f50:	100038d8 00000012 00000082 100038ea     .8...........8..
    1f60:	00000083 000000a2 1000396d 00000003     ........m9......
    1f70:	00000092 10003970 00000000 00000008     ....p9..........
    1f80:	10003970 00000030 000000a2 100039a0     p9..0........9..
    1f90:	00000018 000000a2 100039b8 00000000     .........9......
    1fa0:	00000008 100039b8 00000011 000000a2     .....9..........
    1fb0:	100039c9 00000030 000001a6 100039f9     .9..0........9..
    1fc0:	00000003 00000092 100039fc 00000001     .........9......
    1fd0:	00000008 100039fd 0000001b 000000a2     .....9..........
    1fe0:	10003a18 0000000f 000000a2 10003a27     .:..........':..
    1ff0:	00000003 00000092 10003a2a 00000000     ........*:......
    2000:	00000008 10003a2a 0000000e 000000a2     ....*:..........
    2010:	10003a38 00000002 00000008 10003a3a     8:..........::..
    2020:	00000006 000000a2 10003a40 00000069     ........@:..i...
    2030:	000000a2 10003aa9 00000002 000000a2     .....:..........
    2040:	10003aab 00000000 00002808 10003aac     .:.......(...:..
    2050:	00000010 00000082 10003abc 00000000     .........:......
    2060:	00000008 10024380 00000038 00004804     .....C..8....H..
    2070:	10000ea4 00000020 00000001 10003ac0     .... ........:..
    2080:	00000000 00002804 10003ac0 00000005     .....(...:......
    2090:	00000082 10003ac5 00000000 00002808     .....:.......(..
    20a0:	10003ac8 00000020 00000082 10003ae8     .:.. ........:..
    20b0:	00000008 000000a2 10003af0 00000000     .........:......
    20c0:	00002808 10003af0 00000036 00000082     .(...:..6.......
    20d0:	10003b26 00000002 00000008 10003b28     &;..........(;..
    20e0:	00000011 000000a2 10003b39 0000000f     ........9;......
    20f0:	000000a2 10003b48 0000003e 000000a2     ....H;..>.......
    2100:	10003b86 00000000 00002808 10003b88     .;.......(...;..
    2110:	00000030 00000082 10003bb8 00000000     0........;......
    2120:	00000008 10003bb8 00000013 000000a2     .....;..........
    2130:	10003bcb 00000000 00002808 10003bcc     .;.......(...;..
    2140:	00000017 00000082 10003be3 00000001     .........;......
    2150:	00000008 10003be4 0000000c 000000a2     .....;..........
    2160:	10003bf0 00000000 00002808 10003bf0     .;.......(...;..
    2170:	00000029 00000082 10003c19 0000000b     )........<......
    2180:	000000a2 10003c24 0000000c 000000a2     ....$<..........
    2190:	10003c30 00000014 000000a2 10003c44     0<..........D<..
    21a0:	00000001 00000008 10003c45 00000007     ........E<......
    21b0:	000000a2 10003c4c 00000006 000000a2     ....L<..........
    21c0:	10003c52 00000000 00002808 10003c54     R<.......(..T<..
    21d0:	0000004a 00000082 10003c9e 0000001e     J........<......
    21e0:	000000a2 10003cbc 00000022 000000a2     .....<..".......
    21f0:	10003cde 00000000 00000008 10003cde     .<...........<..
    2200:	00000009 000000a2 10003ce7 00000003     .........<......
    2210:	00000008 10003cea 00000017 000000a2     .....<..........
    2220:	10003d01 00000027 000000a2 10003d28     .=..'.......(=..
    2230:	00000021 000000a2 10003d49 0000000a     !.......I=......
    2240:	000000a2 10003d53 00000000 00002808     ....S=.......(..
    2250:	10003d54 0000000d 00000082 10003d61     T=..........a=..
    2260:	00000000 00002808 10003d64 0000001a     .....(..d=......
    2270:	00000082 10003d7e 0000003c 00000092     ....~=..<.......
    2280:	10003dba 00000000 00002808 10003dbc     .=.......(...=..
    2290:	00000034 00000082 10003df0 00000021     4........=..!...
    22a0:	000000a2 10003e11 00000002 000000a2     .....>..........
    22b0:	10003e13 00000000 00002808 10003e14     .>.......(...>..
    22c0:	00000037 00000082 10003e4b 0000000f     7.......K>......
    22d0:	000000a2 10003e5a 00000016 000000a2     ....Z>..........
    22e0:	10003e70 0000001e 000000a2 10003e8e     p>...........>..
    22f0:	00000002 00000008 10003e90 00000009     .........>......
    2300:	000000a2 10003e99 00000001 00000008     .....>..........
    2310:	10003e9a 00000006 000000a2 10003ea0     .>...........>..
    2320:	00000008 000000a2 10003ea8 00000000     .........>......
    2330:	00002808 10003ea8 0000002e 00000082     .(...>..........
    2340:	10003ed6 00000002 000000a2 10003ed8     .>...........>..
    2350:	00000000 00002808 10003ed8 00000039     .....(...>..9...
    2360:	00000082 10003f11 0000000a 000000a2     .....?..........
    2370:	10003f1b 00000003 00000092 10003f1e     .?...........?..
    2380:	00000000 00000008 10003f1e 00000009     .........?......
    2390:	000000a2 10003f27 00000000 00000008     ....'?..........
    23a0:	10003f27 00000006 000000a2 10003f2d     '?..........-?..
    23b0:	00000000 00000008 10003f2d 00000006     ........-?......
    23c0:	000000a2 10003f33 00000019 000000a2     ....3?..........
    23d0:	10003f4c 00000000 00002808 10003f4c     L?.......(..L?..
    23e0:	0000002b 00000082 10003f77 00000000     +.......w?......
    23f0:	00000008 10003f77 00000006 000000a2     ....w?..........
    2400:	10003f7d 00000009 000000a2 10003f86     }?...........?..
    2410:	0000003a 000000a2 10003fc0 00000019     :........?......
    2420:	000000a2 10003fd9 00000000 00000008     .....?..........
    2430:	10003fd9 00000012 000000a2 10003feb     .?...........?..
    2440:	00000000 00000008 10003feb 00000002     .........?......
    2450:	000000a2 10003fed 00000000 00002808     .....?.......(..
    2460:	10003ff0 00000033 00000082 10004023     .?..3.......#@..
    2470:	00000000 00000008 10004023 00000003     ........#@......
    2480:	000000a2 10004026 0000001b 000000a2     ....&@..........
    2490:	10004041 0000003b 000000a2 1000407c     A@..;.......|@..
    24a0:	0000000a 000000a2 10004086 00000003     .........@......
    24b0:	00000092 10004089 00000000 00000008     .....@..........
    24c0:	10004089 00000006 000000a2 1000408f     .@...........@..
    24d0:	00000001 00000008 10004090 00000005     .........@......
    24e0:	000000a2 10004095 00000011 000000a2     .....@..........
    24f0:	100040a6 00000000 00000008 100040a6     .@...........@..
    2500:	00000002 000000a2 100040a8 0000000d     .........@......
    2510:	000000a2 100040b5 00000000 00000008     .....@..........
    2520:	10005d98 00000000 00002804 10005d98     .].......(...]..
    2530:	00000024 00000082 10005dbc 00000000     $........]......
    2540:	00002808 10005dbc 00000090 00000082     .(...]..........
    2550:	10005e4c 00000002 000000a2 10005e4e     L^..........N^..
    2560:	00000000 00002808 10005e50 0000008e     .....(..P^......
    2570:	00000082 10005ede 00000002 000000a2     .....^..........
    2580:	10005ee0 00000000 00002808 10005ee0     .^.......(...^..
    2590:	0000000a 00000082 10005eea 00000014     .........^......
    25a0:	000000a2 10005efe 00000000 00000008     .....^..........
    25b0:	10000ec4 00000010 00000001 100040c0     .............@..
    25c0:	00000000 00002804 100040c0 00000008     .....(...@......
    25d0:	00000082 100040c8 00000000 00002808     .....@.......(..
    25e0:	100040c8 00000006 00000082 100040ce     .@...........@..
    25f0:	0000000a 000000a2 100040d8 00000003     .........@......
    2600:	00000092 100040db 00000000 00000008     .....@..........
    2610:	100040db 00000002 000000a2 100040dd     .@...........@..
    2620:	00000004 000000a2 100040e1 00000000     .........@......
    2630:	00002808 100040e4 0000000f 00000082     .(...@..........
    2640:	100040f3 00000000 00002808 100040f4     .@.......(...@..
    2650:	0000000d 00000082 10004101 00000000     .........A......
    2660:	00002808 10004104 00000038 00000082     .(...A..8.......
    2670:	1000413c 00000000 00000008 1000413c     <A..........<A..
    2680:	0000001b 000000a2 10004157 00000000     ........WA......
    2690:	00000008 10004157 00000027 000000a2     ....WA..'.......
    26a0:	1000417e 00000002 000000a2 10004180     ~A...........A..
    26b0:	00000000 00002808 10004180 0000000d     .....(...A......
    26c0:	00000082 1000418d 0000000a 000000a2     .....A..........
    26d0:	10004197 00000003 00000092 1000419a     .A...........A..
    26e0:	00000000 00000008 1000419a 0000000b     .........A......
    26f0:	000000a2 100041a5 00000024 000000a2     .....A..$.......
    2700:	100041c9 00000000 00000008 100041c9     .A...........A..
    2710:	00000009 000000a2 100041d2 00000000     .........A......
    2720:	00000008 100041d2 00000002 000000a2     .....A..........
    2730:	100041d4 0000002f 000000a2 10004203     .A../........B..
    2740:	00000000 00000008 10004203 00000011     .........B......
    2750:	000000a2 10004214 00000000 00000008     .....B..........
    2760:	10004214 00000002 000000a2 10004216     .B...........B..
    2770:	00000029 000000a2 1000423f 00000002     ).......?B......
    2780:	00000008 10004241 00000030 000000a2     ....AB..0.......
    2790:	10004271 00000000 00002808 10004274     qB.......(..tB..
    27a0:	0000000e 00000082 10004282 00000013     .........B......
    27b0:	000000a2 10004295 00000000 00000008     .....B..........
    27c0:	10004295 00000012 000000a2 100042a7     .B...........B..
    27d0:	00000030 000001a6 100042d7 00000003     0........B......
    27e0:	00000092 100042da 00000000 00000008     .....B..........
    27f0:	100042da 0000001a 000000a2 100042f4     .B...........B..
    2800:	00000000 00002808 100042f4 00000008     .....(...B......
    2810:	00000082 100042fc 00000019 000000a2     .....B..........
    2820:	10004315 00000002 000000a2 10004317     .C...........C..
    2830:	00000000 00000008 10005f00 00000000     ........._......
    2840:	00002804 10005f00 0000000e 00000082     .(..._..........
    2850:	10005f0e 00000000 00002808 10005f10     ._.......(..._..
    2860:	0000000e 00000082 10005f1e 00000000     ........._......
    2870:	00000008 10000ed4 00000008 00000001     ................
    2880:	10004320 00000000 00002804 10004320      C.......(.. C..
    2890:	0000000f 00000082 1000432f 00000000     ......../C......
    28a0:	00002808 10004330 0000000f 00000082     .(..0C..........
    28b0:	1000433f 00000000 00002808 10004340     ?C.......(..@C..
    28c0:	0000000f 00000082 1000434f 00000000     ........OC......
    28d0:	00002808 10004350 00000011 00000082     .(..PC..........
    28e0:	10004361 00000003 00000092 10004364     aC..........dC..
    28f0:	00000000 00000008 10004364 00000015     ........dC......
    2900:	000000a2 10004379 0000000a 000000a2     ....yC..........
    2910:	10004383 00000000 00002808 10004384     .C.......(...C..
    2920:	00000015 00000082 10004399 00000000     .........C......
    2930:	00002808 1000439c 00000012 00000082     .(...C..........
    2940:	100043ae 00000000 00002808 100043b0     .C.......(...C..
    2950:	00000010 00000082 100043c0 00000000     .........C......
    2960:	00000008 10000edc 00000010 00000001     ................
    2970:	100043c0 00000000 00002804 100043c0     .C.......(...C..
    2980:	0000004f 00000082 1000440f 0000002e     O........D......
    2990:	000000a2 1000443d 00000020 000000a2     ....=D.. .......
    29a0:	1000445d 00000020 000000a2 1000447d     ]D.. .......}D..
    29b0:	00000020 000000a2 1000449d 00000027      ........D..'...
    29c0:	000000a2 100044c4 00000002 000000a2     .....D..........
    29d0:	100044c6 00000000 00002808 100044c8     .D.......(...D..
    29e0:	00000005 00000082 100044cd 00000000     .........D......
    29f0:	00002808 100044d0 0000002a 00000082     .(...D..*.......
    2a00:	100044fa 00000000 00002808 100044fc     .D.......(...D..
    2a10:	00000005 00000082 10004501 00000000     .........E......
    2a20:	00002808 10004504 00000005 00000082     .(...E..........
    2a30:	10004509 00000000 00002808 1000450c     .E.......(...E..
    2a40:	00000005 00000082 10004511 00000000     .........E......
    2a50:	00002808 10004514 00000030 00000082     .(...E..0.......
    2a60:	10004544 00000018 000000a2 1000455c     DE..........\E..
    2a70:	0000000a 000000a2 10004566 00000000     ........fE......
    2a80:	00002808 10004568 00000038 00000082     .(..hE..8.......
    2a90:	100045a0 00000000 00002808 100045a0     .E.......(...E..
    2aa0:	00000020 00000082 100045c0 00000000      ........E......
    2ab0:	00000008 10024998 00000000 00004804     .....I.......H..
    2ac0:	10000eec 00000014 00000001 100045c0     .............E..
    2ad0:	00000000 00002804 100045c0 0000004f     .....(...E..O...
    2ae0:	00000082 1000460f 00000029 000000a2     .....F..).......
    2af0:	10004638 0000001e 000000a2 10004656     8F..........VF..
    2b00:	00000020 000000a2 10004676 00000023      .......vF..#...
    2b10:	000000a2 10004699 0000004f 000000a2     .....F..O.......
    2b20:	100046e8 00000002 000000a2 100046ea     .F...........F..
    2b30:	00000000 00002808 100046ec 00000005     .....(...F......
    2b40:	00000082 100046f1 00000000 00002808     .....F.......(..
    2b50:	100046f4 0000002a 00000082 1000471e     .F..*........G..
    2b60:	00000000 00002808 10004720 00000005     .....(.. G......
    2b70:	00000082 10004725 00000000 00002808     ....%G.......(..
    2b80:	10004728 00000005 00000082 1000472d     (G..........-G..
    2b90:	00000000 00002808 10004730 00000005     .....(..0G......
    2ba0:	00000082 10004735 00000000 00002808     ....5G.......(..
    2bb0:	10004738 00000030 00000082 10004768     8G..0.......hG..
    2bc0:	00000018 000000a2 10004780 0000000a     .........G......
    2bd0:	000000a2 1000478a 00000000 00002808     .....G.......(..
    2be0:	1000478c 00000038 00000082 100047c4     .G..8........G..
    2bf0:	00000000 00002808 100047c4 00000020     .....(...G.. ...
    2c00:	00000082 100047e4 00000000 00000008     .....G..........
    2c10:	10024ac8 00000000 00004804 10024b48     .J.......H..HK..
    2c20:	00000000 00002804 10000f00 0000014c     .....(......L...
    2c30:	00000001 100047f0 00000000 00002804     .....G.......(..
    2c40:	100047f0 00000040 00000082 10004830     .G..@.......0H..
    2c50:	00000004 000000a2 10004834 00000002     ........4H......
    2c60:	00000092 10004836 00000000 00002808     ....6H.......(..
    2c70:	10004838 0000003f 00000082 10004877     8H..?.......wH..
    2c80:	00000004 000000a2 1000487b 00000002     ........{H......
    2c90:	00000092 1000487d 00000000 00002808     ....}H.......(..
    2ca0:	10004880 00000032 00000082 100048b2     .H..2........H..
    2cb0:	00000001 00000008 100048b3 0000007b     .........H..{...
    2cc0:	000000a2 1000492e 00000003 00000092     .....I..........
    2cd0:	10004931 00000009 000000a2 1000493a     1I..........:I..
    2ce0:	00000057 000000a2 10004991 00000069     W........I..i...
    2cf0:	000000a2 100049fa 00000053 000000a2     .....I..S.......
    2d00:	10004a4d 000000ee 000000a2 10004b3b     MJ..........;K..
    2d10:	00000000 00000008 10004b3b 000000d3     ........;K......
    2d20:	000000a2 10004c0e 00000084 000000a2     .....L..........
    2d30:	10004c92 00000028 00000092 10004cba     .L..(........L..
    2d40:	00000004 00000092 10004cbe 00000036     .........L..6...
    2d50:	000000a2 10004cf4 00000031 000000a2     .....L..1.......
    2d60:	10004d25 00000000 00000008 10004d25     %M..........%M..
    2d70:	0000000b 000000a2 10004d30 00000000     ........0M......
    2d80:	00000008 10004d30 00000002 000000a2     ....0M..........
    2d90:	10004d32 00000000 00002808 10004d34     2M.......(..4M..
    2da0:	00000033 00000082 10004d67 00000000     3.......gM......
    2db0:	00000008 10004d67 0000008c 000000a2     ....gM..........
    2dc0:	10004df3 0000003a 00000092 10004e2d     .M..:.......-N..
    2dd0:	00000009 000000a2 10004e36 00000057     ........6N..W...
    2de0:	000000a2 10004e8d 00000065 000000a2     .....N..e.......
    2df0:	10004ef2 00000047 000000a2 10004f39     .N..G.......9O..
    2e00:	000000c3 000000a2 10004ffc 00000000     .........O......
    2e10:	00000008 10004ffc 00000092 000000a2     .....O..........
    2e20:	1000508e 00000049 000000a2 100050d7     .P..I........P..
    2e30:	00000028 00000092 100050ff 00000002     (........P......
    2e40:	00000092 10005101 00000020 000000a2     .....Q.. .......
    2e50:	10005121 00000028 000000a2 10005149     !Q..(.......IQ..
    2e60:	00000005 00000092 1000514e 00000000     ........NQ......
    2e70:	00000008 1000514e 00000002 000000a2     ....NQ..........
    2e80:	10005150 00000000 00000008 100243f0     PQ...........C..
    2e90:	00000048 00004804 10024440 00000048     H....H..@D..H...
    2ea0:	00004804 10024490 00000080 00004804     .H...D.......H..
    2eb0:	10024510 00000040 00003804 10024550     .E..@....8..PE..
    2ec0:	00000008 00004804 10024560 00000020     .....H..`E.. ...
    2ed0:	00004804 1000104c 00000008 00000001     .H..L...........
    2ee0:	10005150 00000000 00002804 10005150     PQ.......(..PQ..
    2ef0:	000000e4 00000082 10005234 00000005     ........4R......
    2f00:	000000a2 10005239 00000003 00000092     ....9R..........
    2f10:	1000523c 00000000 00000008 10001054     <R..........T...
    2f20:	00000008 00000001 10005240 00000000     ........@R......
    2f30:	00002804 10005240 00000008 00000082     .(..@R..........
    2f40:	10005248 00000000 00002808 10005248     HR.......(..HR..
    2f50:	0000004c 00000082 10005294 00000000     L........R......
    2f60:	00002808 10005294 00000019 00000082     .(...R..........
    2f70:	100052ad 00000000 00000008 100052ad     .R...........R..
    2f80:	0000000c 000000a2 100052b9 0000000c     .........R......
    2f90:	000000a2 100052c5 0000001a 000000a2     .....R..........
    2fa0:	100052df 00000003 00000092 100052e2     .R...........R..
    2fb0:	00000000 00000008 100052e2 00000007     .........R......
    2fc0:	000000a2 100052e9 00000007 000000a2     .....R..........
    2fd0:	100052f0 00000000 00000008 1000105c     .R..........\...
    2fe0:	00000004 00000001 100052f0 00000000     .........R......
    2ff0:	00002804 100052f0 0000002c 00000082     .(...R..,.......
    3000:	1000531c 00000001 00000008 1000531d     .S...........S..
    3010:	00000005 000000a2 10005322 00000000     ........"S......
    3020:	00002808 10005324 0000002c 00000082     .(..$S..,.......
    3030:	10005350 00000015 000000a2 10005365     PS..........eS..
    3040:	0000000f 000000a2 10005374 00000068     ........tS..h...
    3050:	000000a2 100053dc 00000002 000000a2     .....S..........
    3060:	100053de 00000000 00002808 100053e0     .S.......(...S..
    3070:	00000005 00000082 100053e5 00000000     .........S......
    3080:	00002808 100053e8 00000005 00000082     .(...S..........
    3090:	100053ed 00000000 00002808 100053f0     .S.......(...S..
    30a0:	00000005 00000082 100053f5 00000000     .........S......
    30b0:	00002808 100053f8 00000028 00000082     .(...S..(.......
    30c0:	10005420 00000000 00002808 10005420      T.......(.. T..
    30d0:	00000012 00000082 10005432 00000000     ........2T......
    30e0:	00002808 10005434 00000028 00000082     .(..4T..(.......
    30f0:	1000545c 00000017 000000a2 10005473     \T..........sT..
    3100:	00000002 000000a2 10005475 00000000     ........uT......
    3110:	00000008 10024c90 00000000 00004804     .....L.......H..
    3120:	10001060 00000054 00000001 10005480     `...T........T..
    3130:	00000000 00002804 10005480 0000002d     .....(...T..-...
    3140:	00000082 100054ad 0000006e 000000a2     .....T..n.......
    3150:	1000551b 00000026 000000a2 10005541     .U..&.......AU..
    3160:	00000003 000000a2 10005544 00000008     ........DU......
    3170:	000000a2 1000554c 00000010 000000a2     ....LU..........
    3180:	1000555c 00000012 000000a2 1000556e     \U..........nU..
    3190:	0000000e 000000a2 1000557c 00000003     ........|U......
    31a0:	000000a2 1000557f 00000006 000000a2     .....U..........
    31b0:	10005585 00000003 000000a2 10005588     .U...........U..
    31c0:	00000003 000000a2 1000558b 00000002     .........U......
    31d0:	000000a2 1000558d 0000000d 000000a2     .....U..........
    31e0:	1000559a 0000000f 000000a2 100055a9     .U...........U..
    31f0:	00000024 000000a2 100055cd 00000003     $........U......
    3200:	000000b2 100055d0 00000020 000000a2     .....U.. .......
    3210:	100055f0 00000019 000000a2 10005609     .U...........V..
    3220:	00000003 00000092 1000560c 00000000     .........V......
    3230:	00000008 1000560c 00000018 000000a2     .....V..........
    3240:	10005624 00000007 000000a2 1000562b     $V..........+V..
    3250:	0000000b 000000a2 10005636 00000003     ........6V......
    3260:	00000092 10005639 00000000 00000008     ....9V..........
    3270:	10005639 0000000b 000000a2 10005644     9V..........DV..
    3280:	00000000 00000008 10005644 0000000d     ........DV......
    3290:	000000a2 10005651 00000010 000000a2     ....QV..........
    32a0:	10005661 00000001 00000008 10005662     aV..........bV..
    32b0:	0000000e 000000a2 10005670 0000000b     ........pV......
    32c0:	000000a2 1000567b 0000000e 000000a2     ....{V..........
    32d0:	10005689 0000000f 000000a2 10005698     .V...........V..
    32e0:	0000000f 000000a2 100056a7 00000012     .........V......
    32f0:	000000a2 100056b9 00000000 00002808     .....V.......(..
    3300:	100056bc 00000014 00000082 100056d0     .V...........V..
    3310:	00000009 000000a2 100056d9 00000008     .........V......
    3320:	000000a2 100056e1 00000003 00000092     .....V..........
    3330:	100056e4 00000002 00000008 100056e6     .V...........V..
    3340:	00000027 000000a2 1000570d 00000003     '........W......
    3350:	000000a2 10005710 0000000a 000000a2     .....W..........
    3360:	1000571a 00000011 000000a2 1000572b     .W..........+W..
    3370:	0000000e 000000a2 10005739 0000000e     ........9W......
    3380:	000000a2 10005747 00000002 000000a2     ....GW..........
    3390:	10005749 00000007 000000a2 10005750     IW..........PW..
    33a0:	0000000b 000000a2 1000575b 00000003     ........[W......
    33b0:	000000a2 1000575e 00000002 000000a2     ....^W..........
    33c0:	10005760 00000005 000000a2 10005765     `W..........eW..
    33d0:	00000022 000000a2 10005787 00000000     "........W......
    33e0:	00000008 10005787 0000000c 000000a2     .....W..........
    33f0:	10005793 00000012 000000a2 100057a5     .W...........W..
    3400:	00000000 00000008 100057a5 0000000d     .........W......
    3410:	000000a2 100057b2 0000000d 000000a2     .....W..........
    3420:	100057bf 00000001 00000008 100057c0     .W...........W..
    3430:	00000008 000000a2 100057c8 00000008     .........W......
    3440:	000000a2 100057d0 0000000b 000000a2     .....W..........
    3450:	100057db 00000000 00000008 00000000     .W..............
    3460:	00000008 00000082 00000008 00000000     ................
    3470:	00000008 10000bc0 00000014 00000001     ................
    3480:	10000af8 00000004 00000001 10000b38     ............8...
    3490:	00000008 00000001 10000ab8 00000008     ................
    34a0:	00000001 10000a38 00000008 00000001     ....8...........
    34b0:	100010b4 00000004 00000001 100057dc     .............W..
    34c0:	00000008 00002804 100057e4 0000000d     .....(...W......
    34d0:	00000082 100057f1 0000000a 000000a2     .....W..........
    34e0:	100057fb 00000000 00000008 10024cb8     .W...........L..
    34f0:	00000004 00003804 10024cc4 00000004     .....8...L......
    3500:	00003804 10000bd4 00000020 00002882     .8...... ....(..
    3510:	10000bf4 00000028 00000082 10000c1c     ....(...........
    3520:	00000000 00000008 10000c1c 00000005     ................
    3530:	000000a2 10000c21 00000000 00000008     ....!...........
    3540:	10000b00 00000014 00000082 10000b14     ................
    3550:	00000007 000000a2 10000b1b 00000000     ................
    3560:	00000008 10000b80 00000025 00000082     ........%.......
    3570:	10000ac0 00000025 00000082 10000a40     ....%.......@...
    3580:	00000025 00000082 10005f2d 0000000d     %.......-_......
    3590:	00000022 10005f3a 00000002 00000012     "...:_..........
    35a0:	10005f3c 00000000 00002808 10005f3c     <_.......(..<_..
    35b0:	00000012 00000022 10005f4e 00000019     ...."...N_......
    35c0:	00000022 10005f67 00000000 00002808     "...g_.......(..
    35d0:	10005f68 0000000c 00000002 10005f74     h_..........t_..
    35e0:	00000022 00000022 10005f96 0000000f     "..."...._......
    35f0:	00000012 10005fa5 0000000b 00000022     ....._......"...
    3600:	10005fb0 00000000 00002808 10005fb0     ._.......(..._..
    3610:	00000010 00000022 10005fc0 00000000     ...."...._......
    3620:	00000008 10005fc0 0000000f 00000022     ....._......"...
    3630:	10005fcf 00000000 00000008 10005fcf     ._..........._..
    3640:	00000006 00000022 10005fd5 00000002     ...."...._......
    3650:	00000022 10005fd7 00000000 00002808     "...._.......(..
    3660:	10005fd8 00000033 00000022 1000600b     ._..3..."....`..
    3670:	00000017 00000012 10006022 00000010     ........"`......
    3680:	00000022 10006032 0000000a 00000022     "...2`......"...
    3690:	1000603c 00000000 00000008 1000603c     <`..........<`..
    36a0:	00000015 00000022 10006051 00000000     ...."...Q`......
    36b0:	00000008 10006051 00000008 00000022     ....Q`......"...
    36c0:	10006059 00000000 00000008 1000606d     Y`..........m`..
    36d0:	00000008 00000022 10006075 00000002     ...."...u`......
    36e0:	00000012 10006077 00000000 00002808     ....w`.......(..
    36f0:	10006078 0000000d 00000022 10006085     x`......"....`..
    3700:	0000000e 00000022 10006093 00000000     ...."....`......
    3710:	00002808 10006094 0000001a 00000002     .(...`..........
    3720:	100060ae 00000011 00000022 100060bf     .`......"....`..
    3730:	00000009 00000012 100060c8 00000007     .........`......
    3740:	00000022 100060cf 00000008 00000022     "....`......"...
    3750:	100060d7 00000006 00000022 100060dd     .`......"....`..
    3760:	00000002 00000022 100060df 00000000     ...."....`......
    3770:	00000008 10000a68 00000008 00000082     ....h...........
    3780:	10000a70 00000003 000000a2 10000a73     p...........s...
    3790:	00000000 00000008 10000000 00000003     ................
    37a0:	00000082 10000003 00000000 00002808     .............(..
    37b0:	10000004 0000003c 00002801 10000044     ....<....(..D...
    37c0:	00000014 00002804 10000058 00000008     .....(..X.......
    37d0:	000000a2 10000060 0000002a 000000a2     ....`...*.......
    37e0:	1000008a 00000000 00003808 10000090     .........8......
    37f0:	0000000c 000000a2 1000009c 00000010     ................
    3800:	000000a2 100000ac 0000001d 000000a2     ................
    3810:	100000c9 00000000 00003808 100000d0     .........8......
    3820:	00000032 000000a2 10000102 00000000     2...............
    3830:	00000008 10000104 00000015 000000a2     ................
    3840:	10000119 00000029 000000a2 10000142     ....).......B...
    3850:	0000001e 000000a2 10000160 00000005     ........`.......
    3860:	000000a2 10000165 0000000b 000000a2     ....e...........
    3870:	10000170 0000000e 000000a2 1000017e     p...........~...
    3880:	00000000 00000008 10000181 00000006     ................
    3890:	000000a2 10000187 0000002d 000000a2     ........-.......
    38a0:	100010b8 00000008 00000001 100057fc     .............W..
    38b0:	00000000 00002804 100057fc 00000032     .....(...W..2...
    38c0:	00000082 1000582e 00000002 000000a2     .....X..........
    38d0:	10005830 00000000 00000008 10005830     0X..........0X..
    38e0:	00000000 00002804 10005830 00000032     .....(..0X..2...
    38f0:	00000082 10005862 00000002 000000a2     ....bX..........
    3900:	10005864 00000000 00000008 100010c0     dX..............
    3910:	00000008 00000001 10005864 00000000     ........dX......
    3920:	00002804 10005864 0000002b 00000082     .(..dX..+.......
    3930:	1000588f 00000001 00000008 10005890     .X...........X..
    3940:	00000004 000000a2 10005894 00000010     .........X......
    3950:	000000a2 100058a4 00000002 000000a2     .....X..........
    3960:	100058a6 00000000 00000008 100010c8     .X..............
    3970:	00000008 00000001 100058a8 00000018     .........X......
    3980:	00000082 100058c0 00000027 000000a2     .....X..'.......
    3990:	100058e7 00000006 00000186 100058ed     .X...........X..
    39a0:	00000007 00000082 100058f4 00000000     .........X......
    39b0:	00000008 100058f4 00000014 00000082     .....X..........
    39c0:	10005908 00000000 00002808 10005908     .Y.......(...Y..
    39d0:	00000008 00000082 10005910 00000003     .........Y......
    39e0:	00000186 10005913 00000002 00000082     .....Y..........
    39f0:	10005915 00000003 00000186 10005918     .Y...........Y..
    3a00:	00000002 00000082 1000591a 00000003     .........Y......
    3a10:	00000186 1000591d 00000004 00000082     .....Y..........
    3a20:	10005921 00000000 00000008 10005921     !Y..........!Y..
    3a30:	00000008 000000a2 10005929 00000000     ........)Y......
    3a40:	00000008 10000330 00000003 00000082     ....0...........
    3a50:	10000333 00000000 00002808 10000334     3........(..4...
    3a60:	00000004 00000001 10000338 00000012     ........8.......
    3a70:	000000a2 1000034a 00000000 00000008     ....J...........
    3a80:	1000034d 00000003 000000a2 10000350     M...........P...
    3a90:	00000006 000000a2 10000356 00000000     ........V.......
    3aa0:	00000008 10000a80 00000003 00000082     ................
    3ab0:	10000a83 00000000 00000008 10000800     ................
    3ac0:	0000000f 00000186 1000080f 00000000     ................
    3ad0:	0000290c 10000810 0000001e 00000186     .)..............
    3ae0:	1000082e 00000000 0000010c 10000840     ............@...
    3af0:	0000000f 000001a6 1000084f 00000000     ........O.......
    3b00:	0000290c 10000850 0000001e 000001a6     .)..P...........
    3b10:	1000086e 00000000 0000010c 10000880     n...............
    3b20:	0000001e 00000186 1000089e 00000000     ................
    3b30:	0000010c 100008c0 0000001e 000001a6     ................
    3b40:	100008de 00000000 0000010c 10000900     ................
    3b50:	0000002a 00000186 1000092a 00000000     *.......*.......
    3b60:	0000010c 10000940 0000002a 000000a2     ....@...*.......
    3b70:	1000096a 00000000 00000008 10000980     j...............
    3b80:	00000006 00000082 10000986 00000000     ................
    3b90:	00000008 100009c0 00000006 00000082     ................
    3ba0:	100009c6 00000000 00000008 10000a00     ................
    3bb0:	00000006 00000082 10000a06 00000000     ................
    3bc0:	00000008 100010d0 0000000c 00000001     ................
    3bd0:	1000592c 00000024 00000082 10005950     ,Y..$.......PY..
    3be0:	00000003 00000186 10005953 00000012     ........SY......
    3bf0:	00000082 10005965 00000003 00000186     ....eY..........
    3c00:	10005968 00000014 00000082 1000597c     hY..........|Y..
    3c10:	00000037 000000a2 100059b3 00000003     7........Y......
    3c20:	00000186 100059b6 00000016 00000082     .....Y..........
    3c30:	100059cc 00000014 000000a2 100059e0     .Y...........Y..
    3c40:	00000000 00000008 100059e0 00000009     .........Y......
    3c50:	00000082 100059e9 00000000 00000008     .....Y..........
    3c60:	100010dc 00000008 00000001 100059ec     .............Y..
    3c70:	00000024 00000082 10005a10 00000003     $........Z......
    3c80:	00000186 10005a13 0000004e 00000082     .....Z..N.......
    3c90:	10005a61 00000000 00000008 10005a61     aZ..........aZ..
    3ca0:	00000009 00000082 10005a6a 00000000     ........jZ......
    3cb0:	00000008 100010e4 00000010 00000001     ................
    3cc0:	10005a6c 00000034 00000082 10005aa0     lZ..4........Z..
    3cd0:	000000a4 000000a2 10005b44 00000051     ........D[..Q...
    3ce0:	000000a2 10005b95 00000000 00000008     .....[..........
    3cf0:	100010f4 00000008 00000001 10005b98     .............[..
    3d00:	0000001e 00000082 10005bb6 00000003     .........[......
    3d10:	00000186 10005bb9 00000016 00000082     .....[..........
    3d20:	10005bcf 00000003 00000186 10005bd2     .[...........[..
    3d30:	00000006 00000082 10005bd8 00000018     .........[......
    3d40:	000000a2 10005bf0 00000050 000000a2     .....[..P.......
    3d50:	10005c40 00000003 00000186 10005c43     @\..........C\..
    3d60:	0000000d 00000082 10005c50 00000017     ........P\......
    3d70:	000000a2 10005c67 00000001 00000008     ....g\..........
    3d80:	10005c68 00000015 000000a2 10005c7d     h\..........}\..
    3d90:	00000003 00000186 10005c80 00000018     .........\......
    3da0:	00000082 10005c98 00000000 00000008     .....\..........
    3db0:	100060e0 00000018 00000082 100060f8     .`...........`..
    3dc0:	00000000 00000008 100060f8 00000000     .........`......
    3dd0:	00002804 100060f8 00000008 00000082     .(...`..........
    3de0:	10006100 00000000 00002808 10006100     .a.......(...a..
    3df0:	0000000d 00000082 1000610d 00000000     .........a......
    3e00:	00000008 1000610d 0000000b 000000a2     .....a..........
    3e10:	10006118 00000000 00000008 10006118     .a...........a..
    3e20:	00000002 00000082 1000611a 00000000     .........a......
    3e30:	00002808 1000611c 0000000a 00000082     .(...a..........
    3e40:	10006126 00000002 00000008 10006128     &a..........(a..
    3e50:	00000008 000000a2 10006130 00000000     ........0a......
    3e60:	00000008 10006130 00000004 00000082     ....0a..........
    3e70:	10006134 00000000 00000008              4a..........

Disassembly of section .xt.lit:

00000000 <.xt.lit>:
   0:	10000c30 00000010 10000c40 00000010     0.......@.......
  10:	10000c50 0000000c 10000c5c 00000030     P.......\...0...
  20:	10000c8c 0000004c 10000cd8 00000004     ....L...........
  30:	10000cdc 0000013c 10000e18 00000008     ....<...........
  40:	10000e20 00000004 10000e24 00000004      .......$.......
  50:	10000e28 00000008 10000e30 0000000c     (.......0.......
  60:	10000e3c 00000004 10000e40 00000038     <.......@...8...
  70:	10000e78 0000002c 10000ea4 00000020     x...,....... ...
  80:	10000ec4 00000010 10000ed4 00000008     ................
  90:	10000edc 00000010 10000eec 00000014     ................
  a0:	10000f00 0000014c 1000104c 00000008     ....L...L.......
  b0:	10001054 00000008 1000105c 00000004     T.......\.......
  c0:	10001060 00000054 10000bc0 00000014     `...T...........
  d0:	10000af8 00000004 10000b38 00000008     ........8.......
  e0:	10000ab8 00000008 10000a38 00000008     ........8.......
  f0:	100010b4 00000004 10000004 0000003c     ............<...
 100:	100010b8 00000008 100010c0 00000008     ................
 110:	100010c8 00000008 10000334 00000004     ........4.......
 120:	100010d0 0000000c 100010dc 00000008     ................
 130:	100010e4 00000010 100010f4 00000008     ................

Disassembly of section .xtensa.info:

00000000 <.xtensa.info>:
   0:	0000000c 000001d0 00000001 6e657458     ............Xten
  10:	495f6173 006f666e 435f5748 49464e4f     sa_Info.HW_CONFI
  20:	30444947 6378303d 39303030 0a363832     GID0=0xc0009286.
  30:	435f5748 49464e4f 31444947 3278303d     HW_CONFIGID1=0x2
  40:	30613461 0a393237 4c495542 4e555f44     a4a0729.BUILD_UN
  50:	45555149 3d44495f 30307830 38636130     IQUE_ID=0x000ac8
  60:	410a3361 303d4942 4553550a 5342415f     a3.ABI=0.USE_ABS
  70:	54554c4f 494c5f45 41524554 303d534c     OLUTE_LITERALS=0
  80:	5f57530a 414f4c46 474e4954 494f505f     .SW_FLOATING_POI
  90:	415f544e 303d4942 5f57480a 53524556     NT_ABI=0.HW_VERS
  a0:	3d4e4f49 37584c22 392e312e 57480a22     ION="LX7.1.9".HW
  b0:	4e494d5f 5245565f 4e4f4953 4a414d5f     _MIN_VERSION_MAJ
  c0:	323d524f 0a303138 4d5f5748 565f4e49     OR=2810.HW_MIN_V
  d0:	49535245 4d5f4e4f 524f4e49 0a30393d     ERSION_MINOR=90.
  e0:	4d5f5748 565f5841 49535245 4d5f4e4f     HW_MAX_VERSION_M
  f0:	524f4a41 3138323d 57480a30 58414d5f     AJOR=2810.HW_MAX
 100:	5245565f 4e4f4953 4e494d5f 393d524f     _VERSION_MINOR=9
 110:	45520a30 5341454c 414e5f45 223d454d     0.RELEASE_NAME="
 120:	322d4a52 2e333230 520a2232 41454c45     RJ-2023.2".RELEA
 130:	565f4553 49535245 223d4e4f 302e3531     SE_VERSION="15.0
 140:	520a2232 41454c45 4d5f4553 524f4a41     2".RELEASE_MAJOR
 150:	3078303d 33303030 0a636161 454c4552     =0x00003aac.RELE
 160:	5f455341 4f4e494d 0a303d52 45524f43     ASE_MINOR=0.CORE
 170:	4d414e5f 48223d45 525f4357 4c5f5343     _NAME="HWC_RCS_L
 180:	0a223758 45435845 4f495450 52415f4e     X7".EXCEPTION_AR
 190:	323d4843 4549540a 4548435f 55534b43     CH=2.TIE_CHECKSU
 1a0:	3d305f4d 49540a30 48435f45 534b4345     M_0=0.TIE_CHECKS
 1b0:	315f4d55 540a303d 435f4549 4b434548     UM_1=0.TIE_CHECK
 1c0:	5f4d5553 0a303d32 5f454954 43454843     SUM_2=0.TIE_CHEC
 1d0:	4d55534b 303d335f 4b44540a 5441505f     KSUM_3=0.TDK_PAT
 1e0:	22223d48 0000000a                       H=""....

Disassembly of section .comment:

00000000 <.comment>:
   0:	6e657458 6f546173 2d736c6f 302e3531     XtensaTools-15.0
  10:	6c632032 20676e61 73726576 206e6f69     2 clang version 
  20:	302e3531                                 15.0.7.
