
/nfs/site/disks/zsc14.xne_abc_fe_001/users/chandrbi/emulval_0p8_17Jun/abc_emul-srvrgen4/src/rcs_fw/out/bin/rx_hw.elf:     file format elf32-xtensa-le


Disassembly of section .srom.text:

00000000 <__BootRom>:
   0:	100c                                    	movi.n	a0, 1
   2:	010040                                    	slli	a0, a0, 28
   5:	0000a0                                    	jx	a0

Disassembly of section .ResetVector.text:

10000000 <_ResetVector>:
10000000:	001506                                    	j	10000058 <_ResetHandler>

10000003 <_ResetVector+0x3>:
	...

10000004 <_ResetVector+0x4>:
10000004:	10004430 10000800 00000000 00000000     0D..............
10000014:	00000000 44444444 10000044 20000000     ....DDDDD...... 
10000024:	00000001 00000000 00000000 100050a8     .............P..
10000034:	10005168 100051e8 10024264              hQ...Q..dB..

10000040 <_ResetVector+0x40>:
10000040:	00000000                                ....

10000044 <_xtos_mpu_attribs>:
10000044:	00006018 000f7718 000d5718 000c4718     .`...w...W...G..
10000054:	00006718                                .g..

10000058 <_ResetHandler>:
10000058:	ffeb21                                    	l32r	a2, 10000004 (10004430 <__reset_hook>)
1000005b:	128c                                    	beqz.n	a2, 10000060 <_ResetHandler+0x8>
1000005d:	0002c0                                    	callx0	a2
10000060:	000c                                    	movi.n	a0, 0
10000062:	13e400                                    	wsr.intenable	a0
10000065:	ffe821                                    	l32r	a2, 10000008 (10000800 <_WindowOverflow4>)
10000068:	13e720                                    	wsr.vecbase	a2
1000006b:	006120                                    	rsil	a2, 1
1000006e:	ffe721                                    	l32r	a2, 1000000c (0 <_Level2HandlerLabel>)
10000071:	ffe731                                    	l32r	a3, 10000010 (0 <_Level2HandlerLabel>)
10000074:	ffe841                                    	l32r	a4, 10000014 (0 <_Level2HandlerLabel>)
10000077:	089216                                    	beqz	a2, 10000104 <_ResetHandler+0xac>
1000007a:	086316                                    	beqz	a3, 10000104 <_ResetHandler+0xac>
1000007d:	0338                                    	l32i.n	a3, a3, 0
1000007f:	081316                                    	beqz	a3, 10000104 <_ResetHandler+0xac>
10000082:	090c                                    	movi.n	a9, 0
10000084:	136290                                    	wsr.cacheadrdis	a9
10000087:	000146                                    	j	10000090 <_ResetHandler+0x38>

1000008a <_ResetHandler+0x32>:
1000008a:	00000000                                 ......

10000090 <_ResetHandler+0x38>:
10000090:	135a90                                    	wsr.mpuenb	a9
10000093:	002000                                    	isync
10000096:	00a0a2                                    	movi	a10, 0
10000099:	20a0b2                                    	movi	a11, 32
1000009c:	0caa37                                    	bge	a10, a3, 100000ac <_ResetHandler+0x54>
1000009f:	b0fa20                                    	addx8	a15, a10, a2
100000a2:	0fd8                                    	l32i.n	a13, a15, 0
100000a4:	1fc8                                    	l32i.n	a12, a15, 4
100000a6:	44e0c0                                    	extui	a14, a12, 0, 5
100000a9:	30cce0                                    	xor	a12, a12, a14
100000ac:	14e0d0                                    	extui	a14, a13, 0, 2
100000af:	30fde0                                    	xor	a15, a13, a14
100000b2:	20eca0                                    	or	a14, a12, a10
100000b5:	50efe0                                    	wptlb	a14, a15
100000b8:	01fd10                                    	slli	a15, a13, 31
100000bb:	419190                                    	srli	a9, a9, 1
100000be:	2099f0                                    	or	a9, a9, a15
100000c1:	aa1b                                    	addi.n	a10, a10, 1
100000c3:	d59ab7                                    	bne	a10, a11, 1000009c <_ResetHandler+0x44>
100000c6:	000186                                    	j	100000d0 <_ResetHandler+0x78>

100000c9 <_ResetHandler+0x71>:
100000c9:	00000000                                 .......

100000d0 <_ResetHandler+0x78>:
100000d0:	135a90                                    	wsr.mpuenb	a9
100000d3:	002000                                    	isync
100000d6:	20a330                                    	or	a10, a3, a3
100000d9:	b0b320                                    	addx8	a11, a3, a2
100000dc:	aa0b                                    	addi.n	a10, a10, -1
100000de:	f8cbb2                                    	addi	a11, a11, -8
100000e1:	1bc8                                    	l32i.n	a12, a11, 4
100000e3:	0bd8                                    	l32i.n	a13, a11, 0
100000e5:	44e0c0                                    	extui	a14, a12, 0, 5
100000e8:	30cce0                                    	xor	a12, a12, a14
100000eb:	20eca0                                    	or	a14, a12, a10
100000ee:	50ede0                                    	wptlb	a14, a13
100000f1:	fe7a56                                    	bnez	a10, 100000dc <_ResetHandler+0x84>
100000f4:	050416                                    	beqz	a4, 10000148 <_ResetHandler+0xf0>
100000f7:	0448                                    	l32i.n	a4, a4, 0
100000f9:	136240                                    	wsr.cacheadrdis	a4
100000fc:	002030                                    	dsync
100000ff:	001146                                    	j	10000148 <_ResetHandler+0xf0>

10000102 <_ResetHandler+0xaa>:
	...

10000104 <_ResetHandler+0xac>:
10000104:	ffc521                                    	l32r	a2, 10000018 (44444444 <_memmap_cacheattr_bp_allvalid>)
10000107:	ffc531                                    	l32r	a3, 1000001c (10000044 <_xtos_mpu_attribs>)
1000010a:	ffc541                                    	l32r	a4, 10000020 (20000000 <__stack+0xffc0000>)
1000010d:	860c                                    	movi.n	a6, 8
1000010f:	170c                                    	movi.n	a7, 1
10000111:	090c                                    	movi.n	a9, 0
10000113:	136290                                    	wsr.cacheadrdis	a9
10000116:	002030                                    	dsync
10000119:	358c20                                    	extui	a8, a2, 28, 4
1000011c:	145080                                    	extui	a5, a8, 0, 2
1000011f:	1199f0                                    	slli	a9, a9, 1
10000122:	a91b                                    	addi.n	a10, a9, 1
10000124:	839a50                                    	moveqz	a9, a10, a5
10000127:	a05830                                    	addx4	a5, a8, a3
1000012a:	fbc882                                    	addi	a8, a8, -5
1000012d:	b35380                                    	movgez	a5, a3, a8
10000130:	0558                                    	l32i.n	a5, a5, 0
10000132:	1122c0                                    	slli	a2, a2, 4
10000135:	c07740                                    	sub	a7, a7, a4
10000138:	660b                                    	addi.n	a6, a6, -1
1000013a:	556a                                    	add.n	a5, a5, a6
1000013c:	50e750                                    	wptlb	a5, a7
1000013f:	fd6656                                    	bnez	a6, 10000119 <_ResetHandler+0xc1>
10000142:	136290                                    	wsr.cacheadrdis	a9
10000145:	002030                                    	dsync
10000148:	036120                                    	rsr.memctl	a2
1000014b:	ffb631                                    	l32r	a3, 10000024 (1 <_memmap_cacheattr_wb_base>)
1000014e:	202230                                    	or	a2, a2, a3
10000151:	136120                                    	wsr.memctl	a2
10000154:	ffb521                                    	l32r	a2, 10000028 (0 <_Level2HandlerLabel>)
10000157:	528c                                    	beqz.n	a2, 10000160 <_ResetHandler+0x108>
10000159:	0002c0                                    	callx0	a2
1000015c:	000c                                    	movi.n	a0, 0
1000015e:	52ec                                    	bnez.n	a2, 10000187 <unpackdone>
10000160:	ffb321                                    	l32r	a2, 1000002c (0 <_Level2HandlerLabel>)
10000163:	02ac                                    	beqz.n	a2, 10000187 <unpackdone>

10000165 <unpack>:
10000165:	0238                                    	l32i.n	a3, a2, 0
10000167:	1248                                    	l32i.n	a4, a2, 4
10000169:	2258                                    	l32i.n	a5, a2, 8
1000016b:	22cb                                    	addi.n	a2, a2, 12
1000016d:	10b347                                    	bgeu	a3, a4, 10000181 <upnext>

10000170 <uploop>:
10000170:	0568                                    	l32i.n	a6, a5, 0
10000172:	554b                                    	addi.n	a5, a5, 4
10000174:	0369                                    	s32i.n	a6, a3, 0
10000176:	334b                                    	addi.n	a3, a3, 4
10000178:	f43347                                    	bltu	a3, a4, 10000170 <uploop>
1000017b:	fff986                                    	j	10000165 <unpack>

1000017e <uploop+0xe>:
1000017e:	000000                                        ...

10000181 <upnext>:
10000181:	fe0356                                    	bnez	a3, 10000165 <unpack>
10000184:	fdd556                                    	bnez	a5, 10000165 <unpack>

10000187 <unpackdone>:
10000187:	002000                                    	isync
1000018a:	01a012                                    	movi	a1, 1
1000018d:	134910                                    	wsr.windowstart	a1
10000190:	134800                                    	wsr.windowbase	a0
10000193:	002010                                    	rsync
10000196:	00a002                                    	movi	a0, 0
10000199:	ffa541                                    	l32r	a4, 10000030 (100050a8 <_Level2FromVector>)
1000019c:	13d240                                    	wsr.excsave2	a4
1000019f:	ffa541                                    	l32r	a4, 10000034 (10005168 <_Level3FromVector>)
100001a2:	13d340                                    	wsr.excsave3	a4
100001a5:	ffa441                                    	l32r	a4, 10000038 (100051e8 <_Level4FromVector>)
100001a8:	13d440                                    	wsr.excsave4	a4
100001ab:	ffa451                                    	l32r	a5, 1000003c (10024264 <_Pri_4_HandlerAddress>)
100001ae:	006542                                    	s32i	a4, a5, 0
100001b1:	00c845                                    	call0	10000e38 <_start>

Disassembly of section .MemoryExceptionVector.text:

10000330 <_MemErrorVector>:
10000330:	000106                                    	j	10000338 <_MemErrorVector+0x8>

10000333 <_MemErrorVector+0x3>:
	...

10000334 <_MemErrorVector+0x4>:
10000334:	00000000                                ....

10000338 <_MemErrorVector+0x8>:
10000338:	136c00                                    	wsr.mesave	a0
1000033b:	036d00                                    	rsr.mesr	a0
1000033e:	0be017                                    	bbsi	a0, 1, 1000034d <_MemErrorVector+0x1d>
10000341:	03e700                                    	rsr.vecbase	a0
10000344:	b12002                                    	l32i	a0, a0, 0x2c4
10000347:	0000a0                                    	jx	a0

1000034a <_MemErrorVector+0x1a>:
1000034a:	000000                                        ...

1000034d <_MemErrorVector+0x1d>:
1000034d:	fff901                                    	l32r	a0, 10000334 (0 <_Level2HandlerLabel>)
10000350:	ffc016                                    	beqz	a0, 10000350 <_MemErrorVector+0x20>
10000353:	0000a0                                    	jx	a0

10000356 <_MemErrorVector+0x26>:
	...

Disassembly of section .WindowVectors.text:

10000800 <_WindowOverflow4>:
10000800:	49c500                                    	s32e	a0, a5, -16
10000803:	49d510                                    	s32e	a1, a5, -12
10000806:	49e520                                    	s32e	a2, a5, -8
10000809:	49f530                                    	s32e	a3, a5, -4
1000080c:	003400                                    	rfwo

1000080f <_WindowOverflow4+0xf>:
	...

10000810 <_xtos_alloca_handler>:
10000810:	4128                                    	l32i.n	a2, a1, 16
10000812:	5138                                    	l32i.n	a3, a1, 20
10000814:	6148                                    	l32i.n	a4, a1, 24
10000816:	60c112                                    	addi	a1, a1, 96
10000819:	13d100                                    	wsr.excsave1	a0
1000081c:	034800                                    	rsr.windowbase	a0
1000081f:	4080f0                                    	rotw	-1
10000822:	03e620                                    	rsr.ps	a2
10000825:	343820                                    	extui	a3, a2, 8, 4
10000828:	303340                                    	xor	a3, a3, a4
1000082b:	000846                                    	j	10000850 <_xtos_alloca_2>

1000082e <_xtos_alloca_handler+0x1e>:
	...

10000840 <_WindowUnderflow4>:
10000840:	09c500                                    	l32e	a0, a5, -16
10000843:	09d510                                    	l32e	a1, a5, -12
10000846:	09e520                                    	l32e	a2, a5, -8
10000849:	09f530                                    	l32e	a3, a5, -4
1000084c:	003500                                    	rfwu

1000084f <_WindowUnderflow4+0xf>:
	...

10000850 <_xtos_alloca_2>:
10000850:	03d140                                    	rsr.excsave1	a4
10000853:	113380                                    	slli	a3, a3, 8
10000856:	302230                                    	xor	a2, a2, a3
10000859:	13e620                                    	wsr.ps	a2
1000085c:	002010                                    	rsync
1000085f:	dd74f7                                    	bbci	a4, 31, 10000840 <_WindowUnderflow4>
10000862:	4080f0                                    	rotw	-1
10000865:	5778e7                                    	bbci	a8, 30, 100008c0 <_WindowUnderflow8>
10000868:	4080f0                                    	rotw	-1
1000086b:	003446                                    	j	10000940 <_WindowUnderflow12>

1000086e <_xtos_alloca_2+0x1e>:
	...

10000880 <_WindowOverflow8>:
10000880:	49c900                                    	s32e	a0, a9, -16
10000883:	09d100                                    	l32e	a0, a1, -12
10000886:	49d910                                    	s32e	a1, a9, -12
10000889:	49e920                                    	s32e	a2, a9, -8
1000088c:	49f930                                    	s32e	a3, a9, -4
1000088f:	498040                                    	s32e	a4, a0, -32
10000892:	499050                                    	s32e	a5, a0, -28
10000895:	49a060                                    	s32e	a6, a0, -24
10000898:	49b070                                    	s32e	a7, a0, -20
1000089b:	003400                                    	rfwo

1000089e <_WindowOverflow8+0x1e>:
	...

100008c0 <_WindowUnderflow8>:
100008c0:	09c900                                    	l32e	a0, a9, -16
100008c3:	09d910                                    	l32e	a1, a9, -12
100008c6:	09e920                                    	l32e	a2, a9, -8
100008c9:	09d170                                    	l32e	a7, a1, -12
100008cc:	09f930                                    	l32e	a3, a9, -4
100008cf:	098740                                    	l32e	a4, a7, -32
100008d2:	099750                                    	l32e	a5, a7, -28
100008d5:	09a760                                    	l32e	a6, a7, -24
100008d8:	09b770                                    	l32e	a7, a7, -20
100008db:	003500                                    	rfwu

100008de <_WindowUnderflow8+0x1e>:
	...

10000900 <_WindowOverflow12>:
10000900:	49cd00                                    	s32e	a0, a13, -16
10000903:	09d100                                    	l32e	a0, a1, -12
10000906:	49dd10                                    	s32e	a1, a13, -12
10000909:	49ed20                                    	s32e	a2, a13, -8
1000090c:	49fd30                                    	s32e	a3, a13, -4
1000090f:	494040                                    	s32e	a4, a0, -48
10000912:	495050                                    	s32e	a5, a0, -44
10000915:	496060                                    	s32e	a6, a0, -40
10000918:	497070                                    	s32e	a7, a0, -36
1000091b:	498080                                    	s32e	a8, a0, -32
1000091e:	499090                                    	s32e	a9, a0, -28
10000921:	49a0a0                                    	s32e	a10, a0, -24
10000924:	49b0b0                                    	s32e	a11, a0, -20
10000927:	003400                                    	rfwo

1000092a <_WindowOverflow12+0x2a>:
	...

10000940 <_WindowUnderflow12>:
10000940:	09cd00                                    	l32e	a0, a13, -16
10000943:	09dd10                                    	l32e	a1, a13, -12
10000946:	09ed20                                    	l32e	a2, a13, -8
10000949:	09d1b0                                    	l32e	a11, a1, -12
1000094c:	09fd30                                    	l32e	a3, a13, -4
1000094f:	094b40                                    	l32e	a4, a11, -48
10000952:	095b50                                    	l32e	a5, a11, -44
10000955:	096b60                                    	l32e	a6, a11, -40
10000958:	097b70                                    	l32e	a7, a11, -36
1000095b:	098b80                                    	l32e	a8, a11, -32
1000095e:	099b90                                    	l32e	a9, a11, -28
10000961:	09aba0                                    	l32e	a10, a11, -24
10000964:	09bbb0                                    	l32e	a11, a11, -20
10000967:	003500                                    	rfwu

1000096a <_WindowUnderflow12+0x2a>:
	...

Disassembly of section .Level2InterruptVector.text:

10000980 <_Level2Vector>:
10000980:	61d220                                    	xsr.excsave2	a2
10000983:	0002a0                                    	jx	a2

10000986 <_Level2Vector+0x6>:
	...

Disassembly of section .Level3InterruptVector.text:

100009c0 <_Level3Vector>:
100009c0:	61d320                                    	xsr.excsave3	a2
100009c3:	0002a0                                    	jx	a2

100009c6 <_Level3Vector+0x6>:
	...

Disassembly of section .Level4InterruptVector.text:

10000a00 <_Level4Vector>:
10000a00:	61d420                                    	xsr.excsave4	a2
10000a03:	0002a0                                    	jx	a2

10000a06 <_Level4Vector+0x6>:
	...

Disassembly of section .DebugExceptionVector.literal:

10000a38 <_memmap_seg_iram0_11_end-0x8>:
10000a38:	00050023 100054d4                       #....T..

Disassembly of section .DebugExceptionVector.text:

10000a40 <_DebugExceptionVector>:
10000a40:	a0c112                                    	addi	a1, a1, -96
10000a43:	4129                                    	s32i.n	a2, a1, 16
10000a45:	5139                                    	s32i.n	a3, a1, 20
10000a47:	03e620                                    	rsr.ps	a2
10000a4a:	1129                                    	s32i.n	a2, a1, 4
10000a4c:	03b120                                    	rsr.epc1	a2
10000a4f:	0129                                    	s32i.n	a2, a1, 0
10000a51:	3109                                    	s32i.n	a0, a1, 12
10000a53:	6149                                    	s32i.n	a4, a1, 24
10000a55:	7159                                    	s32i.n	a5, a1, 28
10000a57:	fff821                                    	l32r	a2, 10000a38 <_DebugExceptionVector_literal_start>
10000a5a:	13e620                                    	wsr.ps	a2
10000a5d:	016d                                    	mov.n	a6, a1
10000a5f:	fff731                                    	l32r	a3, 10000a3c <_DebugExceptionVector_literal_start+0x4>
10000a62:	0003d0                                    	callx4	a3

10000a65 <_DebugExceptionVector+0x25>:
10000a65:	000000                                        ...

10000a68 <_DebugExceptionVector>:
10000a68:	13d520                                    	wsr.excsave5	a2
10000a6b:	827c                                    	movi.n	a2, -8
10000a6d:	005100                                    	simcall	0

10000a70 <_DebugExceptionVector+0x8>:
10000a70:	ffff06                                    	j	10000a70 <_DebugExceptionVector+0x8>

10000a73 <_DebugExceptionVector+0xb>:
	...

Disassembly of section .NMIExceptionVector.text:

10000a80 <_NMIExceptionVector>:
10000a80:	003610                                    	rfi	6

10000a83 <_NMIExceptionVector+0x3>:
	...

Disassembly of section .KernelExceptionVector.literal:

10000ab8 <_memmap_seg_iram0_15_end-0x8>:
10000ab8:	00050023 1000545c                       #...\T..

Disassembly of section .KernelExceptionVector.text:

10000ac0 <_KernelExceptionVector>:
10000ac0:	a0c112                                    	addi	a1, a1, -96
10000ac3:	4129                                    	s32i.n	a2, a1, 16
10000ac5:	5139                                    	s32i.n	a3, a1, 20
10000ac7:	03e620                                    	rsr.ps	a2
10000aca:	1129                                    	s32i.n	a2, a1, 4
10000acc:	03b120                                    	rsr.epc1	a2
10000acf:	0129                                    	s32i.n	a2, a1, 0
10000ad1:	3109                                    	s32i.n	a0, a1, 12
10000ad3:	6149                                    	s32i.n	a4, a1, 24
10000ad5:	7159                                    	s32i.n	a5, a1, 28
10000ad7:	fff821                                    	l32r	a2, 10000ab8 <_KernelExceptionVector_literal_start>
10000ada:	13e620                                    	wsr.ps	a2
10000add:	016d                                    	mov.n	a6, a1
10000adf:	fff731                                    	l32r	a3, 10000abc <_KernelExceptionVector_literal_start+0x4>
10000ae2:	0003d0                                    	callx4	a3

10000ae5 <_KernelExceptionVector+0x25>:
10000ae5:	000000                                        ...

Disassembly of section .UserExceptionVector.literal:

10000af8 <_memmap_seg_iram0_17_end-0x8>:
10000af8:	10024000                                .@..

Disassembly of section .UserExceptionVector.text:

10000b00 <_UserExceptionVector>:
10000b00:	a0c112                                    	addi	a1, a1, -96
10000b03:	4129                                    	s32i.n	a2, a1, 16
10000b05:	056132                                    	s32i	a3, a1, 20
10000b08:	03e820                                    	rsr.exccause	a2
10000b0b:	fffb31                                    	l32r	a3, 10000af8 <_UserExceptionVector_literal_start>
10000b0e:	02a2f6                                    	bgeui	a2, 12, 10000b14 <_UserExceptionVector+0x14>
10000b11:	a03230                                    	addx4	a3, a2, a3

10000b14 <_UserExceptionVector+0x14>:
10000b14:	0338                                    	l32i.n	a3, a3, 0
10000b16:	6149                                    	s32i.n	a4, a1, 24
10000b18:	0003a0                                    	jx	a3

10000b1b <_UserExceptionVector+0x1b>:
	...

Disassembly of section .DoubleExceptionVector.literal:

10000b38 <_memmap_seg_iram0_19_end-0x8>:
10000b38:	00050023 10005498                       #....T..

Disassembly of section .DoubleExceptionVector.text:

10000b80 <_DoubleExceptionVector>:
10000b80:	a0c112                                    	addi	a1, a1, -96
10000b83:	4129                                    	s32i.n	a2, a1, 16
10000b85:	5139                                    	s32i.n	a3, a1, 20
10000b87:	03e620                                    	rsr.ps	a2
10000b8a:	1129                                    	s32i.n	a2, a1, 4
10000b8c:	03b120                                    	rsr.epc1	a2
10000b8f:	0129                                    	s32i.n	a2, a1, 0
10000b91:	3109                                    	s32i.n	a0, a1, 12
10000b93:	6149                                    	s32i.n	a4, a1, 24
10000b95:	7159                                    	s32i.n	a5, a1, 28
10000b97:	ffe821                                    	l32r	a2, 10000b38 <_DoubleExceptionVector_literal_start>
10000b9a:	13e620                                    	wsr.ps	a2
10000b9d:	016d                                    	mov.n	a6, a1
10000b9f:	ffe731                                    	l32r	a3, 10000b3c <_DoubleExceptionVector_literal_start+0x4>
10000ba2:	0003d0                                    	callx4	a3

10000ba5 <_DoubleExceptionVector+0x25>:
10000ba5:	000000                                        ...

Disassembly of section .iram0.text:

10000bc0 <_user_exception_c_trampoline-0x14>:
10000bc0:	00050023 10005420 10024c20 100254a4     #... T.. L...T..
10000bd0:	100254a8                                .T..

10000bd4 <_user_exception_c_trampoline>:
10000bd4:	03e620                                    	rsr.ps	a2
10000bd7:	1129                                    	s32i.n	a2, a1, 4
10000bd9:	03b120                                    	rsr.epc1	a2
10000bdc:	0129                                    	s32i.n	a2, a1, 0
10000bde:	3109                                    	s32i.n	a0, a1, 12
10000be0:	6149                                    	s32i.n	a4, a1, 24
10000be2:	076152                                    	s32i	a5, a1, 28
10000be5:	fff621                                    	l32r	a2, 10000bc0 (50023 <_memmap_mem_srom_end+0x30023>)
10000be8:	13e620                                    	wsr.ps	a2
10000beb:	206110                                    	or	a6, a1, a1
10000bee:	fff531                                    	l32r	a3, 10000bc4 (10005420 <com_cpu_user_exception>)
10000bf1:	0003d0                                    	callx4	a3

10000bf4 <_user_exception_11_handler>:
10000bf4:	fff521                                    	l32r	a2, 10000bc8 (10024c20 <exception_11_cnt>)
10000bf7:	0238                                    	l32i.n	a3, a2, 0
10000bf9:	331b                                    	addi.n	a3, a3, 1
10000bfb:	0239                                    	s32i.n	a3, a2, 0
10000bfd:	03ee20                                    	rsr.excvaddr	a2
10000c00:	fff331                                    	l32r	a3, 10000bcc (100254a4 <com_shm_lock_first_addr>)
10000c03:	0338                                    	l32i.n	a3, a3, 0
10000c05:	132237                                    	blt	a2, a3, 10000c1c <_user_exception_11_handler+0x28>
10000c08:	fff231                                    	l32r	a3, 10000bd0 (100254a8 <com_shm_lock_last_addr>)
10000c0b:	0338                                    	l32i.n	a3, a3, 0
10000c0d:	0b2327                                    	blt	a3, a2, 10000c1c <_user_exception_11_handler+0x28>
10000c10:	6148                                    	l32i.n	a4, a1, 24
10000c12:	5138                                    	l32i.n	a3, a1, 20
10000c14:	4128                                    	l32i.n	a2, a1, 16
10000c16:	60c112                                    	addi	a1, a1, 96
10000c19:	003000                                    	rfe

10000c1c <_user_exception_11_handler+0x28>:
10000c1c:	0338                                    	l32i.n	a3, a3, 0
10000c1e:	0003a0                                    	jx	a3

10000c21 <_user_exception_11_handler+0x2d>:
10000c21:	000000                                        ...

Disassembly of section .text:

10000c30 <_stext>:
10000c30:	10040000 00040020 10024e30 10026250     .... ...0N..Pb..
10000c40:	10024274 10024e30 10020000 10020314     tB..0N..........
10000c50:	10024e34 aaaaaaaa 55555555 00103020     4N......UUUU 0..
10000c60:	00103024 10001000 00100014 00100018     $0..............
10000c70:	00100004 10024e60 00100008 100244b8     ....`N.......D..
10000c80:	ddda0010 00100010 0010000c 0026c1b0     ..............&.
10000c90:	10025190 0026c1d8 0026c200 10024280     .Q....&...&..B..
10000ca0:	10024e70 10001510 10024160 0026c1b4     pN......`A....&.
10000cb0:	0026c1dc 0026c204 0026c354 0026c3f4     ..&...&.T.&...&.
10000cc0:	10024188 0026c6b4 0026c04c 0026c0a0     .A....&.L.&...&.
10000cd0:	0026c1a8 0383c008 10025490 00268c4c     ..&......T..L.&.
10000ce0:	10025494 bbba0001 0001fffe ffff0002     .T..............
10000cf0:	1002549c 10024198 100241cc 10024464     .T...A...A..dD..
10000d00:	100021e0 100254a4 100254ac 00110014     .!...T...T......
10000d10:	10002248 1000226c 10024468 00110040     H"..l"..hD..@...
10000d20:	10024030 80000003 11111111 00110008     0@..............
10000d30:	00110010 80000007 10024050 0011000c     ........P@......
10000d40:	e0ffffff 10024610 100241f4 10024210     .....F...A...B..
10000d50:	000cc050 10002c9c 10024470 00270100     P....,..pD....'.
10000d60:	fa3f7fe0 10024250 00270018 0027001c     ..?.PB....'...'.
10000d70:	7f801018 fa3f7fe2 100254c0 100244a0     ......?..T...D..
10000d80:	10003270 10025ca0 00268100 1000343c     p2...\....&.<4..
10000d90:	0026c404 10003490 00268110 10025cb0     ..&..4....&..\..
10000da0:	493e0000 b6c20000 0000beef 0026c0f0     ..>I..........&.
10000db0:	0026c004 10003e9c fff8ffff 100244c0     ..&..>.......D..
10000dc0:	1fffffe0 e000001f 0001ffec 10004024     ............$@..
10000dd0:	10024240 10024600 7ffffc00 10004428     @B...F......(D..
10000de0:	00080000 7ff00000 001fffff 10025cf0     .............\..
10000df0:	7ff80000 10024c28 10024c2c 10024060     ....(L..,L..`@..
10000e00:	10024c30 00050023 00000005 c0000000     0L..#...........
10000e10:	840f0f0e 1000515c 10024cf8 100051dd     ....\Q...L...Q..
10000e20:	10026100 10024264 00050024 08000000     .a..dB..$.......
10000e30:	80000000 10005960                       ....`Y..

10000e38 <_start>:
10000e38:	00a002                                    	movi	a0, 0
10000e3b:	ff7d11                                    	l32r	a1, 10000c30 (10040000 <__stack>)
10000e3e:	ff7d31                                    	l32r	a3, 10000c34 (40020 <_memmap_mem_srom_end+0x20020>)
10000e41:	13e630                                    	wsr.ps	a3
10000e44:	002010                                    	rsync
10000e47:	ff7c61                                    	l32r	a6, 10000c38 (10024e30 <g_trace_base>)
10000e4a:	ff7c71                                    	l32r	a7, 10000c3c (10026250 <_bss_end>)
10000e4d:	f03d                                    	nop.n
10000e4f:	06b677                                    	bgeu	a6, a7, 10000e59 <_start+0x21>

10000e52 <_start+0x1a>:
10000e52:	0609                                    	s32i.n	a0, a6, 0
10000e54:	664b                                    	addi.n	a6, a6, 4
10000e56:	f83677                                    	bltu	a6, a7, 10000e52 <_start+0x1a>
10000e59:	032255                                    	call4	10004080 <main>
10000e5c:	120c                                    	movi.n	a2, 1
10000e5e:	005100                                    	simcall	0
10000e61:	0041f0                                    	break	1, 15
10000e64:	fffd06                                    	j	10000e5c <_start+0x24>

10000e67 <_start+0x2f>:
	...

10000e68 <com_set_print_level>:
10000e68:	004136                                    	entry	a1, 32
10000e6b:	ff7531                                    	l32r	a3, 10000c40 (10024274 <g_com_print_level>)
10000e6e:	0329                                    	s32i.n	a2, a3, 0
10000e70:	f01d                                    	retw.n

10000e72 <com_set_print_level+0xa>:
	...

10000e74 <com_get_print_level>:
10000e74:	004136                                    	entry	a1, 32
10000e77:	ff7221                                    	l32r	a2, 10000c40 (10024274 <g_com_print_level>)
10000e7a:	0228                                    	l32i.n	a2, a2, 0
10000e7c:	f01d                                    	retw.n

10000e7e <com_get_print_level+0xa>:
	...

10000e80 <com_test_FW>:
10000e80:	004136                                    	entry	a1, 32
10000e83:	ff7031                                    	l32r	a3, 10000c44 (10024e30 <g_trace_base>)
10000e86:	ff7061                                    	l32r	a6, 10000c48 (10020000 <com_static_data_init>)
10000e89:	0348                                    	l32i.n	a4, a3, 0
10000e8b:	ff7051                                    	l32r	a5, 10000c4c (10020314 <rx_static_data_init>)
10000e8e:	648c                                    	beqz.n	a4, 10000e98 <com_test_FW+0x18>
10000e90:	d30c                                    	movi.n	a3, 13
10000e92:	329c                                    	beqz.n	a2, 10000ea9 <com_test_FW+0x29>

10000e94 <com_test_FW+0x14>:
10000e94:	f439                                    	s32i.n	a3, a4, 60
10000e96:	f01d                                    	retw.n

10000e98 <com_test_FW+0x18>:
10000e98:	0648                                    	l32i.n	a4, a6, 0
10000e9a:	144040                                    	extui	a4, a4, 0, 2
10000e9d:	a04450                                    	addx4	a4, a4, a5
10000ea0:	2448                                    	l32i.n	a4, a4, 8
10000ea2:	0349                                    	s32i.n	a4, a3, 0
10000ea4:	d30c                                    	movi.n	a3, 13
10000ea6:	fea256                                    	bnez	a2, 10000e94 <com_test_FW+0x14>
10000ea9:	230c                                    	movi.n	a3, 2
10000eab:	f439                                    	s32i.n	a3, a4, 60
10000ead:	f01d                                    	retw.n

10000eaf <com_test_FW+0x2f>:
	...

10000eb0 <com_heap_create>:
10000eb0:	004136                                    	entry	a1, 32
10000eb3:	205230                                    	or	a5, a2, a3
10000eb6:	f63c                                    	movi.n	a6, 63
10000eb8:	544050                                    	extui	a4, a5, 0, 6
10000ebb:	3d8657                                    	bany	a6, a5, 10000efc <com_heap_create+0x4c>
10000ebe:	ff6451                                    	l32r	a5, 10000c50 (10024e34 <heap>)
10000ec1:	060c                                    	movi.n	a6, 0
10000ec3:	ff64c1                                    	l32r	a12, 10000c54 (aaaaaaaa <_memmap_cacheattr_bp_allvalid+0x66666666>)
10000ec6:	3569                                    	s32i.n	a6, a5, 12
10000ec8:	6569                                    	s32i.n	a6, a5, 24
10000eca:	9529                                    	s32i.n	a2, a5, 36
10000ecc:	4529                                    	s32i.n	a2, a5, 16
10000ece:	5529                                    	s32i.n	a2, a5, 20
10000ed0:	7529                                    	s32i.n	a2, a5, 28
10000ed2:	8529                                    	s32i.n	a2, a5, 32
10000ed4:	0529                                    	s32i.n	a2, a5, 0
10000ed6:	02c9                                    	s32i.n	a12, a2, 0
10000ed8:	076c                                    	movi.n	a7, -32
10000eda:	0568                                    	l32i.n	a6, a5, 0
10000edc:	10a370                                    	and	a10, a3, a7
10000edf:	e54b                                    	addi.n	a14, a5, 4
10000ee1:	418530                                    	srli	a8, a3, 5
10000ee4:	1b0c                                    	movi.n	a11, 1
10000ee6:	ff5cd1                                    	l32r	a13, 10000c58 (55555555 <_memmap_cacheattr_bp_allvalid+0x11111111>)
10000ee9:	f6aa                                    	add.n	a15, a6, a10
10000eeb:	2289                                    	s32i.n	a8, a2, 8
10000eed:	52b9                                    	s32i.n	a11, a2, 20
10000eef:	32e9                                    	s32i.n	a14, a2, 12
10000ef1:	42e9                                    	s32i.n	a14, a2, 16
10000ef3:	62e9                                    	s32i.n	a14, a2, 24
10000ef5:	72e9                                    	s32i.n	a14, a2, 28
10000ef7:	16d9                                    	s32i.n	a13, a6, 4
10000ef9:	0a65f2                                    	s32i	a15, a5, 40

10000efc <com_heap_create+0x4c>:
10000efc:	120c                                    	movi.n	a2, 1
10000efe:	622420                                    	saltu	a2, a4, a2
10000f01:	f01d                                    	retw.n

10000f03 <com_heap_create+0x53>:
	...

10000f04 <com_calloc>:
10000f04:	004136                                    	entry	a1, 32
10000f07:	82f320                                    	mull	a15, a3, a2
10000f0a:	ff5141                                    	l32r	a4, 10000c50 (10024e34 <heap>)
10000f0d:	1fcf32                                    	addi	a3, a15, 31
10000f10:	9468                                    	l32i.n	a6, a4, 36
10000f12:	413530                                    	srli	a3, a3, 5
10000f15:	062d                                    	mov.n	a2, a6
10000f17:	531b                                    	addi.n	a5, a3, 1
10000f19:	0b8176                                    	loop	a1, 10000f28 <com_calloc+0x24>

10000f1c <com_calloc+0x18>:
10000f1c:	3238                                    	l32i.n	a3, a2, 12
10000f1e:	2378                                    	l32i.n	a7, a3, 8
10000f20:	09b757                                    	bgeu	a7, a5, 10000f2d <com_calloc+0x29>
10000f23:	032d                                    	mov.n	a2, a3
10000f25:	171367                                    	beq	a3, a6, 10000f40 <com_calloc+0x3c>

10000f28 <com_calloc+0x24>:
10000f28:	032d                                    	mov.n	a2, a3
10000f2a:	fffb86                                    	j	10000f1c <com_calloc+0x18>

10000f2d <com_calloc+0x29>:
10000f2d:	139757                                    	bne	a7, a5, 10000f44 <com_calloc+0x40>
10000f30:	050c                                    	movi.n	a5, 0
10000f32:	3368                                    	l32i.n	a6, a3, 12
10000f34:	5359                                    	s32i.n	a5, a3, 20
10000f36:	3269                                    	s32i.n	a6, a2, 12
10000f38:	33f8                                    	l32i.n	a15, a3, 12
10000f3a:	4f29                                    	s32i.n	a2, a15, 16
10000f3c:	000b06                                    	j	10000f6c <com_calloc+0x68>

10000f3f <com_calloc+0x3b>:
	...

10000f40 <com_calloc+0x3c>:
10000f40:	020c                                    	movi.n	a2, 0
10000f42:	f01d                                    	retw.n

10000f44 <com_calloc+0x40>:
10000f44:	c06750                                    	sub	a6, a7, a5
10000f47:	1176b0                                    	slli	a7, a6, 5
10000f4a:	737a                                    	add.n	a7, a3, a7
10000f4c:	7388                                    	l32i.n	a8, a3, 28
10000f4e:	7789                                    	s32i.n	a8, a7, 28
10000f50:	7379                                    	s32i.n	a7, a3, 28
10000f52:	77c8                                    	l32i.n	a12, a7, 28
10000f54:	0d0c                                    	movi.n	a13, 0
10000f56:	ff3fe1                                    	l32r	a14, 10000c54 (aaaaaaaa <_memmap_cacheattr_bp_allvalid+0x66666666>)
10000f59:	ff3ff1                                    	l32r	a15, 10000c58 (55555555 <_memmap_cacheattr_bp_allvalid+0x11111111>)
10000f5c:	2369                                    	s32i.n	a6, a3, 8
10000f5e:	6739                                    	s32i.n	a3, a7, 24
10000f60:	2759                                    	s32i.n	a5, a7, 8
10000f62:	6c79                                    	s32i.n	a7, a12, 24
10000f64:	073d                                    	mov.n	a3, a7
10000f66:	57d9                                    	s32i.n	a13, a7, 20
10000f68:	07e9                                    	s32i.n	a14, a7, 0
10000f6a:	17f9                                    	s32i.n	a15, a7, 4
10000f6c:	9429                                    	s32i.n	a2, a4, 36
10000f6e:	20c322                                    	addi	a2, a3, 32
10000f71:	f01d                                    	retw.n

10000f73 <com_calloc+0x6f>:
	...

10000f74 <com_free>:
10000f74:	004136                                    	entry	a1, 32
10000f77:	023d                                    	mov.n	a3, a2
10000f79:	120c                                    	movi.n	a2, 1
10000f7b:	0d9316                                    	beqz	a3, 10001058 <com_free+0xe4>
10000f7e:	e0c352                                    	addi	a5, a3, -32
10000f81:	f41c                                    	movi.n	a4, 31
10000f83:	020c                                    	movi.n	a2, 0
10000f85:	020457                                    	bnone	a4, a5, 10000f8b <com_free+0x17>
10000f88:	003306                                    	j	10001058 <com_free+0xe4>
10000f8b:	ff3141                                    	l32r	a4, 10000c50 (10024e34 <heap>)
10000f8e:	ff3181                                    	l32r	a8, 10000c54 (aaaaaaaa <_memmap_cacheattr_bp_allvalid+0x66666666>)
10000f91:	0468                                    	l32i.n	a6, a4, 0
10000f93:	a478                                    	l32i.n	a7, a4, 40
10000f95:	02b567                                    	bgeu	a5, a6, 10000f9b <com_free+0x27>
10000f98:	002f06                                    	j	10001058 <com_free+0xe4>
10000f9b:	076d                                    	mov.n	a6, a7
10000f9d:	023577                                    	bltu	a5, a7, 10000fa3 <com_free+0x2f>
10000fa0:	002d06                                    	j	10001058 <com_free+0xe4>
10000fa3:	0578                                    	l32i.n	a7, a5, 0
10000fa5:	e4c392                                    	addi	a9, a3, -28
10000fa8:	021787                                    	beq	a7, a8, 10000fae <com_free+0x3a>
10000fab:	002a46                                    	j	10001058 <com_free+0xe4>
10000fae:	ff2a81                                    	l32r	a8, 10000c58 (55555555 <_memmap_cacheattr_bp_allvalid+0x11111111>)
10000fb1:	0978                                    	l32i.n	a7, a9, 0
10000fb3:	021787                                    	beq	a7, a8, 10000fb9 <com_free+0x45>
10000fb6:	002786                                    	j	10001058 <com_free+0xe4>
10000fb9:	e8c372                                    	addi	a7, a3, -24
10000fbc:	0788                                    	l32i.n	a8, a7, 0
10000fbe:	94b8                                    	l32i.n	a11, a4, 36
10000fc0:	1198b0                                    	slli	a9, a8, 5
10000fc3:	959a                                    	add.n	a9, a5, a9
10000fc5:	02b697                                    	bgeu	a6, a9, 10000fcb <com_free+0x57>
10000fc8:	002306                                    	j	10001058 <com_free+0xe4>
10000fcb:	fcc362                                    	addi	a6, a3, -4
10000fce:	0698                                    	l32i.n	a9, a6, 0
10000fd0:	0b2d                                    	mov.n	a2, a11
10000fd2:	59a8                                    	l32i.n	a10, a9, 20
10000fd4:	29b8                                    	l32i.n	a11, a9, 8
10000fd6:	261a66                                    	bnei	a10, 1, 10001000 <com_free+0x8c>
10000fd9:	1f0c                                    	movi.n	a15, 1
10000fdb:	8b8a                                    	add.n	a8, a11, a8
10000fdd:	0789                                    	s32i.n	a8, a7, 0
10000fdf:	7988                                    	l32i.n	a8, a9, 28
10000fe1:	6859                                    	s32i.n	a5, a8, 24
10000fe3:	0688                                    	l32i.n	a8, a6, 0
10000fe5:	38e8                                    	l32i.n	a14, a8, 12
10000fe7:	35e9                                    	s32i.n	a14, a5, 12
10000fe9:	4898                                    	l32i.n	a9, a8, 16
10000feb:	4599                                    	s32i.n	a9, a5, 16
10000fed:	3888                                    	l32i.n	a8, a8, 12
10000fef:	4859                                    	s32i.n	a5, a8, 16
10000ff1:	0688                                    	l32i.n	a8, a6, 0
10000ff3:	4888                                    	l32i.n	a8, a8, 16
10000ff5:	3859                                    	s32i.n	a5, a8, 12
10000ff7:	0688                                    	l32i.n	a8, a6, 0
10000ff9:	7888                                    	l32i.n	a8, a8, 28
10000ffb:	55f9                                    	s32i.n	a15, a5, 20
10000ffd:	006682                                    	s32i	a8, a6, 0

10001000 <com_free+0x8c>:
10001000:	f8c382                                    	addi	a8, a3, -8
10001003:	0898                                    	l32i.n	a9, a8, 0
10001005:	59a8                                    	l32i.n	a10, a9, 20
10001007:	29c8                                    	l32i.n	a12, a9, 8
10001009:	2c1a66                                    	bnei	a10, 1, 10001039 <com_free+0xc5>
1000100c:	0728                                    	l32i.n	a2, a7, 0
1000100e:	2c2a                                    	add.n	a2, a12, a2
10001010:	2929                                    	s32i.n	a2, a9, 8
10001012:	06d8                                    	l32i.n	a13, a6, 0
10001014:	08e8                                    	l32i.n	a14, a8, 0
10001016:	6de9                                    	s32i.n	a14, a13, 24
10001018:	0878                                    	l32i.n	a7, a8, 0
1000101a:	06f8                                    	l32i.n	a15, a6, 0
1000101c:	f4c322                                    	addi	a2, a3, -12
1000101f:	77f9                                    	s32i.n	a15, a7, 28
10001021:	0238                                    	l32i.n	a3, a2, 0
10001023:	0b1366                                    	bnei	a3, 1, 10001032 <com_free+0xbe>
10001026:	4538                                    	l32i.n	a3, a5, 16
10001028:	3568                                    	l32i.n	a6, a5, 12
1000102a:	3369                                    	s32i.n	a6, a3, 12
1000102c:	3538                                    	l32i.n	a3, a5, 12
1000102e:	45f8                                    	l32i.n	a15, a5, 16
10001030:	43f9                                    	s32i.n	a15, a3, 16
10001032:	130c                                    	movi.n	a3, 1
10001034:	0239                                    	s32i.n	a3, a2, 0
10001036:	000586                                    	j	10001050 <com_free+0xdc>

10001039 <com_free+0xc5>:
10001039:	f4c332                                    	addi	a3, a3, -12
1000103c:	0368                                    	l32i.n	a6, a3, 0
1000103e:	170c                                    	movi.n	a7, 1
10001040:	c6cc                                    	bnez.n	a6, 10001050 <com_free+0xdc>
10001042:	0379                                    	s32i.n	a7, a3, 0
10001044:	3238                                    	l32i.n	a3, a2, 12
10001046:	3539                                    	s32i.n	a3, a5, 12
10001048:	3238                                    	l32i.n	a3, a2, 12
1000104a:	4359                                    	s32i.n	a5, a3, 16
1000104c:	3259                                    	s32i.n	a5, a2, 12
1000104e:	4529                                    	s32i.n	a2, a5, 16
10001050:	9428                                    	l32i.n	a2, a4, 36
10001052:	32f8                                    	l32i.n	a15, a2, 12
10001054:	120c                                    	movi.n	a2, 1
10001056:	94f9                                    	s32i.n	a15, a4, 36
10001058:	f01d                                    	retw.n

1000105a <com_free+0xe6>:
1000105a:	00000000                                 ......

10001060 <com_trax_init>:
10001060:	004136                                    	entry	a1, 32
10001063:	130c                                    	movi.n	a3, 1
10001065:	fefd21                                    	l32r	a2, 10000c5c (103020 <_memmap_mem_srom_end+0xe3020>)
10001068:	113340                                    	slli	a3, a3, 12
1000106b:	407230                                    	wer	a3, a2
1000106e:	002010                                    	rsync
10001071:	fefb41                                    	l32r	a4, 10000c60 (103024 <_memmap_mem_srom_end+0xe3024>)
10001074:	406450                                    	rer	a5, a4
10001077:	0aa062                                    	movi	a6, 10
1000107a:	08e5c7                                    	bbsi	a5, 12, 10001086 <com_trax_init+0x26>
1000107d:	058676                                    	loop	a6, 10001086 <com_trax_init+0x26>
10001080:	406450                                    	rer	a5, a4
10001083:	ffe5c7                                    	bbsi	a5, 12, 10001086 <com_trax_init+0x26>

10001086 <com_trax_init+0x26>:
10001086:	fef741                                    	l32r	a4, 10000c64 (10001000 <com_free+0x8c>)
10001089:	407240                                    	wer	a4, a2
1000108c:	002010                                    	rsync
1000108f:	a40c                                    	movi.n	a4, 10
10001091:	018476                                    	loop	a4, 10001096 <com_trax_init+0x36>
10001094:	f03d                                    	nop.n

10001096 <com_trax_init+0x36>:
10001096:	407230                                    	wer	a3, a2
10001099:	002010                                    	rsync
1000109c:	a20c                                    	movi.n	a2, 10
1000109e:	018276                                    	loop	a2, 100010a3 <com_trax_init+0x43>
100010a1:	f03d                                    	nop.n
100010a3:	fee921                                    	l32r	a2, 10000c48 (10020000 <com_static_data_init>)
100010a6:	fef041                                    	l32r	a4, 10000c68 (100014 <_memmap_mem_srom_end+0xe0014>)
100010a9:	2238                                    	l32i.n	a3, a2, 8
100010ab:	1268                                    	l32i.n	a6, a2, 4
100010ad:	415530                                    	srli	a5, a3, 5
100010b0:	443030                                    	extui	a3, a3, 0, 5
100010b3:	015510                                    	slli	a5, a5, 31
100010b6:	353a                                    	add.n	a3, a5, a3
100010b8:	407460                                    	wer	a6, a4
100010bb:	feec41                                    	l32r	a4, 10000c6c (100018 <_memmap_mem_srom_end+0xe0018>)
100010be:	407430                                    	wer	a3, a4
100010c1:	2228                                    	l32i.n	a2, a2, 8
100010c3:	81a032                                    	movi	a3, 129
100010c6:	113390                                    	slli	a3, a3, 7
100010c9:	042620                                    	extui	a2, a2, 6, 1
100010cc:	fee941                                    	l32r	a4, 10000c70 (100004 <_memmap_mem_srom_end+0xe0004>)
100010cf:	a02230                                    	addx4	a2, a2, a3
100010d2:	407420                                    	wer	a2, a4
100010d5:	fee721                                    	l32r	a2, 10000c74 (10024e60 <trax_initialized>)
100010d8:	130c                                    	movi.n	a3, 1
100010da:	004232                                    	s8i	a3, a2, 0
100010dd:	f01d                                    	retw.n

100010df <com_trax_init+0x7f>:
	...

100010e0 <com_trax_stop>:
100010e0:	004136                                    	entry	a1, 32
100010e3:	fee4f1                                    	l32r	a15, 10000c74 (10024e60 <trax_initialized>)
100010e6:	020c                                    	movi.n	a2, 0
100010e8:	000f32                                    	l8ui	a3, a15, 0
100010eb:	fee341                                    	l32r	a4, 10000c78 (100008 <_memmap_mem_srom_end+0xe0008>)
100010ee:	439c                                    	beqz.n	a3, 10001106 <com_trax_stop+0x26>
100010f0:	406430                                    	rer	a3, a4
100010f3:	fedf51                                    	l32r	a5, 10000c70 (100004 <_memmap_mem_srom_end+0xe0004>)
100010f6:	0c6307                                    	bbci	a3, 0, 10001106 <com_trax_stop+0x26>
100010f9:	406530                                    	rer	a3, a5
100010fc:	240c                                    	movi.n	a4, 2
100010fe:	203340                                    	or	a3, a3, a4
10001101:	407530                                    	wer	a3, a5
10001104:	120c                                    	movi.n	a2, 1

10001106 <com_trax_stop+0x26>:
10001106:	f01d                                    	retw.n

10001108 <com_trax_start>:
10001108:	004136                                    	entry	a1, 32
1000110b:	feda21                                    	l32r	a2, 10000c74 (10024e60 <trax_initialized>)
1000110e:	feda31                                    	l32r	a3, 10000c78 (100008 <_memmap_mem_srom_end+0xe0008>)
10001111:	000222                                    	l8ui	a2, a2, 0
10001114:	a29c                                    	beqz.n	a2, 10001132 <com_trax_start+0x2a>
10001116:	406320                                    	rer	a2, a3
10001119:	fed551                                    	l32r	a5, 10000c70 (100004 <_memmap_mem_srom_end+0xe0004>)
1000111c:	12e207                                    	bbsi	a2, 0, 10001132 <com_trax_start+0x2a>
1000111f:	406530                                    	rer	a3, a5
10001122:	e47c                                    	movi.n	a4, -2
10001124:	104340                                    	and	a4, a3, a4
10001127:	407540                                    	wer	a4, a5
1000112a:	140c                                    	movi.n	a4, 1
1000112c:	203340                                    	or	a3, a3, a4
1000112f:	407530                                    	wer	a3, a5

10001132 <com_trax_start+0x2a>:
10001132:	f01d                                    	retw.n

10001134 <com_trax_store_trace>:
10001134:	004136                                    	entry	a1, 32
10001137:	fecf21                                    	l32r	a2, 10000c74 (10024e60 <trax_initialized>)
1000113a:	fed031                                    	l32r	a3, 10000c7c (100244b8 <p_system_data>)
1000113d:	000222                                    	l8ui	a2, a2, 0
10001140:	afa452                                    	movi	a5, 0x4af
10001143:	06c216                                    	beqz	a2, 100011b3 <com_trax_store_trace+0x7f>
10001146:	0328                                    	l32i.n	a2, a3, 0
10001148:	1155d0                                    	slli	a5, a5, 3
1000114b:	fecd41                                    	l32r	a4, 10000c80 (ddda0010 <xthals_hw_configid0+0x1dd96d8a>)
1000114e:	25d262                                    	addmi	a6, a2, 0x2500
10001151:	0e2c                                    	movi.n	a14, 32
10001153:	1f0c                                    	movi.n	a15, 1
10001155:	1d6642                                    	s32i	a4, a6, 116
10001158:	00a032                                    	movi	a3, 0
1000115b:	014fc0                                    	slli	a4, a15, 20
1000115e:	805250                                    	add	a5, a2, a5
10001161:	0b8e76                                    	loop	a14, 10001170 <com_trax_store_trace+0x3c>
10001164:	206340                                    	or	a6, a3, a4
10001167:	406660                                    	rer	a6, a6
1000116a:	0569                                    	s32i.n	a6, a5, 0
1000116c:	334b                                    	addi.n	a3, a3, 4
1000116e:	554b                                    	addi.n	a5, a5, 4

10001170 <com_trax_store_trace+0x3c>:
10001170:	fec531                                    	l32r	a3, 10000c84 (100010 <_memmap_mem_srom_end+0xe0010>)
10001173:	406350                                    	rer	a5, a3
10001176:	160c                                    	movi.n	a6, 1
10001178:	0166b0                                    	slli	a6, a6, 21
1000117b:	744050                                    	extui	a4, a5, 0, 8
1000117e:	0eb567                                    	bgeu	a5, a6, 10001190 <com_trax_store_trace+0x5c>
10001181:	640b                                    	addi.n	a6, a4, -1
10001183:	7fa052                                    	movi	a5, 127
10001186:	935640                                    	movnez	a5, a6, a4
10001189:	040c                                    	movi.n	a4, 0
1000118b:	45cc                                    	bnez.n	a5, 10001193 <com_trax_store_trace+0x5f>
1000118d:	000886                                    	j	100011b3 <com_trax_store_trace+0x7f>

10001190 <com_trax_store_trace+0x5c>:
10001190:	7fc452                                    	addi	a5, a4, 127
10001193:	6ca562                                    	movi	a6, 0x56c
10001196:	f06660                                    	subx8	a6, a6, a6
10001199:	c07540                                    	sub	a7, a5, a4
1000119c:	febb51                                    	l32r	a5, 10000c88 (10000c <_memmap_mem_srom_end+0xe000c>)
1000119f:	226a                                    	add.n	a2, a2, a6
100011a1:	0e8776                                    	loop	a7, 100011b3 <com_trax_store_trace+0x7f>
100011a4:	646040                                    	extui	a6, a4, 0, 7
100011a7:	407360                                    	wer	a6, a3
100011aa:	406560                                    	rer	a6, a5
100011ad:	0269                                    	s32i.n	a6, a2, 0
100011af:	224b                                    	addi.n	a2, a2, 4
100011b1:	441b                                    	addi.n	a4, a4, 1

100011b3 <com_trax_store_trace+0x7f>:
100011b3:	f01d                                    	retw.n

100011b5 <com_trax_store_trace+0x81>:
100011b5:	000000                                        ...

100011b8 <com_edge_irq_handler>:
100011b8:	004136                                    	entry	a1, 32
100011bb:	413226                                    	beqi	a2, 3, 10001200 <com_edge_irq_handler+0x48>
100011be:	762226                                    	beqi	a2, 2, 10001238 <com_edge_irq_handler+0x80>
100011c1:	021226                                    	beqi	a2, 1, 100011c7 <com_edge_irq_handler+0xf>
100011c4:	002946                                    	j	1000126d <com_edge_irq_handler+0xb5>
100011c7:	feb121                                    	l32r	a2, 10000c8c (26c1b0 <_memmap_mem_sram_end+0x2c1b0>)
100011ca:	feb141                                    	l32r	a4, 10000c90 (10025190 <edge_irq_reg0_handler_map>)
100011cd:	0278                                    	l32i.n	a7, a2, 0
100011cf:	030c                                    	movi.n	a3, 0
100011d1:	098716                                    	beqz	a7, 1000126d <com_edge_irq_handler+0xb5>
100011d4:	150c                                    	movi.n	a5, 1
100011d6:	000306                                    	j	100011e6 <com_edge_irq_handler+0x2e>

100011d9 <com_edge_irq_handler+0x21>:
100011d9:	417160                                    	srli	a7, a6, 1
100011dc:	331b                                    	addi.n	a3, a3, 1
100011de:	448b                                    	addi.n	a4, a4, 8
100011e0:	0226f6                                    	bgeui	a6, 2, 100011e6 <com_edge_irq_handler+0x2e>
100011e3:	002186                                    	j	1000126d <com_edge_irq_handler+0xb5>
100011e6:	076d                                    	mov.n	a6, a7
100011e8:	ed6707                                    	bbci	a7, 0, 100011d9 <com_edge_irq_handler+0x21>
100011eb:	002472                                    	l32i	a7, a4, 0
100011ee:	0124a2                                    	l32i	a10, a4, 4
100011f1:	0007e0                                    	callx8	a7
100011f4:	401300                                    	ssl	a3
100011f7:	a17500                                    	sll	a7, a5
100011fa:	0279                                    	s32i.n	a7, a2, 0
100011fc:	fff646                                    	j	100011d9 <com_edge_irq_handler+0x21>

100011ff <com_edge_irq_handler+0x47>:
	...

10001200 <com_edge_irq_handler+0x48>:
10001200:	fea621                                    	l32r	a2, 10000c98 (26c200 <_memmap_mem_sram_end+0x2c200>)
10001203:	fea341                                    	l32r	a4, 10000c90 (10025190 <edge_irq_reg0_handler_map>)
10001206:	0278                                    	l32i.n	a7, a2, 0
10001208:	030c                                    	movi.n	a3, 0
1000120a:	05f716                                    	beqz	a7, 1000126d <com_edge_irq_handler+0xb5>
1000120d:	150c                                    	movi.n	a5, 1
1000120f:	0002c6                                    	j	1000121e <com_edge_irq_handler+0x66>

10001212 <com_edge_irq_handler+0x5a>:
	...

10001214 <com_edge_irq_handler+0x5c>:
10001214:	417160                                    	srli	a7, a6, 1
10001217:	331b                                    	addi.n	a3, a3, 1
10001219:	448b                                    	addi.n	a4, a4, 8
1000121b:	4e26b6                                    	bltui	a6, 2, 1000126d <com_edge_irq_handler+0xb5>
1000121e:	076d                                    	mov.n	a6, a7
10001220:	f06707                                    	bbci	a7, 0, 10001214 <com_edge_irq_handler+0x5c>
10001223:	802472                                    	l32i	a7, a4, 0x200
10001226:	8124a2                                    	l32i	a10, a4, 0x204
10001229:	0007e0                                    	callx8	a7
1000122c:	401300                                    	ssl	a3
1000122f:	a17500                                    	sll	a7, a5
10001232:	0279                                    	s32i.n	a7, a2, 0
10001234:	fff706                                    	j	10001214 <com_edge_irq_handler+0x5c>

10001237 <com_edge_irq_handler+0x7f>:
	...

10001238 <com_edge_irq_handler+0x80>:
10001238:	fe9721                                    	l32r	a2, 10000c94 (26c1d8 <_memmap_mem_sram_end+0x2c1d8>)
1000123b:	fe9541                                    	l32r	a4, 10000c90 (10025190 <edge_irq_reg0_handler_map>)
1000123e:	0278                                    	l32i.n	a7, a2, 0
10001240:	030c                                    	movi.n	a3, 0
10001242:	77ac                                    	beqz.n	a7, 1000126d <com_edge_irq_handler+0xb5>
10001244:	150c                                    	movi.n	a5, 1
10001246:	000286                                    	j	10001254 <com_edge_irq_handler+0x9c>

10001249 <com_edge_irq_handler+0x91>:
10001249:	417160                                    	srli	a7, a6, 1
1000124c:	01c332                                    	addi	a3, a3, 1
1000124f:	448b                                    	addi.n	a4, a4, 8
10001251:	1826b6                                    	bltui	a6, 2, 1000126d <com_edge_irq_handler+0xb5>
10001254:	076d                                    	mov.n	a6, a7
10001256:	ef6707                                    	bbci	a7, 0, 10001249 <com_edge_irq_handler+0x91>
10001259:	402472                                    	l32i	a7, a4, 0x100
1000125c:	4124a2                                    	l32i	a10, a4, 0x104
1000125f:	0007e0                                    	callx8	a7
10001262:	401300                                    	ssl	a3
10001265:	a17500                                    	sll	a7, a5
10001268:	0279                                    	s32i.n	a7, a2, 0
1000126a:	fff6c6                                    	j	10001249 <com_edge_irq_handler+0x91>

1000126d <com_edge_irq_handler+0xb5>:
1000126d:	f01d                                    	retw.n

1000126f <com_edge_irq_handler+0xb7>:
	...

10001270 <com_isr_event>:
10001270:	004136                                    	entry	a1, 32
10001273:	cbad52                                    	movi	a5, 0xfffffdcb
10001276:	525a                                    	add.n	a5, a2, a5
10001278:	d60c                                    	movi.n	a6, 13
1000127a:	163657                                    	bltu	a6, a5, 10001294 <com_isr_event+0x24>
1000127d:	fe8721                                    	l32r	a2, 10000c9c (10024280 <direct_irq_config>)
10001280:	a02520                                    	addx4	a2, a5, a2
10001283:	0022a2                                    	l32i	a10, a2, 0

10001286 <com_isr_event+0x16>:
10001286:	0d0c                                    	movi.n	a13, 0
10001288:	03bd                                    	mov.n	a11, a3
1000128a:	20c440                                    	or	a12, a4, a4
1000128d:	03d525                                    	call8	10004fe0 <xtos_set_interrupt_handler>
10001290:	000206                                    	j	1000129c <com_isr_event+0x2c>

10001293 <com_isr_event+0x23>:
	...

10001294 <com_isr_event+0x24>:
10001294:	445520                                    	extui	a5, a2, 5, 5
10001297:	161c                                    	movi.n	a6, 17
10001299:	01b657                                    	bgeu	a6, a5, 1000129e <com_isr_event+0x2e>
1000129c:	f01d                                    	retw.n

1000129e <com_isr_event+0x2e>:
1000129e:	d60c                                    	movi.n	a6, 13
100012a0:	553657                                    	bltu	a6, a5, 100012f9 <com_isr_event+0x89>
100012a3:	87a462                                    	movi	a6, 0x487
100012a6:	1166d0                                    	slli	a6, a6, 3
100012a9:	4c5657                                    	bbc	a6, a5, 100012f9 <com_isr_event+0x89>
100012ac:	416a20                                    	srli	a6, a2, 10
100012af:	442020                                    	extui	a2, a2, 0, 5
100012b2:	e68c                                    	beqz.n	a6, 100012c4 <com_isr_event+0x54>
100012b4:	fe7751                                    	l32r	a5, 10000c90 (10025190 <edge_irq_reg0_handler_map>)
100012b7:	323626                                    	beqi	a6, 3, 100012ed <com_isr_event+0x7d>
100012ba:	322666                                    	bnei	a6, 2, 100012f0 <com_isr_event+0x80>
100012bd:	01d552                                    	addmi	a5, a5, 0x100
100012c0:	000b06                                    	j	100012f0 <com_isr_event+0x80>

100012c3 <com_isr_event+0x53>:
	...

100012c4 <com_isr_event+0x54>:
100012c4:	fe7771                                    	l32r	a7, 10000ca0 (10024e70 <reg4_irq_config>)
100012c7:	fe7561                                    	l32r	a6, 10000c9c (10024280 <direct_irq_config>)
100012ca:	40a282                                    	movi	a8, 0x240
100012cd:	a8a1a2                                    	movi	a10, 0x1a8
100012d0:	fcc592                                    	addi	a9, a5, -4
100012d3:	878a                                    	add.n	a8, a7, a8
100012d5:	c6aa                                    	add.n	a12, a6, a10
100012d7:	4f99f6                                    	bgeui	a9, 10, 1000132a <com_isr_event+0xba>
100012da:	fe73a1                                    	l32r	a10, 10000ca8 (10024160 <__switchjump_table_xp_temp_1_0>)
100012dd:	a099a0                                    	addx4	a9, a9, a10
100012e0:	0998                                    	l32i.n	a9, a9, 0
100012e2:	0009a0                                    	jx	a9

100012e5 <com_isr_event+0x75>:
100012e5:	b4a192                                    	movi	a9, 0x1b4
100012e8:	078d                                    	mov.n	a8, a7
100012ea:	000e86                                    	j	10001328 <com_isr_event+0xb8>

100012ed <com_isr_event+0x7d>:
100012ed:	02d552                                    	addmi	a5, a5, 0x200
100012f0:	b02250                                    	addx8	a2, a2, a5
100012f3:	0239                                    	s32i.n	a3, a2, 0
100012f5:	1249                                    	s32i.n	a4, a2, 4
100012f7:	f01d                                    	retw.n

100012f9 <com_isr_event+0x89>:
100012f9:	fe6821                                    	l32r	a2, 10000c9c (10024280 <direct_irq_config>)
100012fc:	a05550                                    	addx4	a5, a5, a5
100012ff:	a02520                                    	addx4	a2, a5, a2
10001302:	1022a2                                    	l32i	a10, a2, 64
10001305:	116232                                    	s32i	a3, a2, 68
10001308:	126242                                    	s32i	a4, a2, 72
1000130b:	ffddc6                                    	j	10001286 <com_isr_event+0x16>

1000130e <com_isr_event+0x9e>:
1000130e:	70a182                                    	movi	a8, 0x170
10001311:	c0a192                                    	movi	a9, 0x1c0
10001314:	000386                                    	j	10001326 <com_isr_event+0xb6>

10001317 <com_isr_event+0xa7>:
10001317:	cca192                                    	movi	a9, 0x1cc
1000131a:	50c782                                    	addi	a8, a7, 80
1000131d:	0001c6                                    	j	10001328 <com_isr_event+0xb8>

10001320 <com_isr_event+0xb0>:
10001320:	d0a082                                    	movi	a8, 208
10001323:	d8a192                                    	movi	a9, 0x1d8

10001326 <com_isr_event+0xb6>:
10001326:	878a                                    	add.n	a8, a7, a8
10001328:	c69a                                    	add.n	a12, a6, a9
1000132a:	a05550                                    	addx4	a5, a5, a5
1000132d:	a0f560                                    	addx4	a15, a5, a6
10001330:	b02280                                    	addx8	a2, a2, a8
10001333:	102fa2                                    	l32i	a10, a15, 64
10001336:	fe5bb1                                    	l32r	a11, 10000ca4 (10001510 <com_distinct_handler>)
10001339:	0d0c                                    	movi.n	a13, 0
1000133b:	0239                                    	s32i.n	a3, a2, 0
1000133d:	1249                                    	s32i.n	a4, a2, 4
1000133f:	ffd286                                    	j	1000128d <com_isr_event+0x1d>

10001342 <com_isr_event+0xd2>:
	...

10001344 <com_isr_interrupt_enable>:
10001344:	004136                                    	entry	a1, 32
10001347:	cbad32                                    	movi	a3, 0xfffffdcb
1000134a:	323a                                    	add.n	a3, a2, a3
1000134c:	d40c                                    	movi.n	a4, 13
1000134e:	0a3437                                    	bltu	a4, a3, 1000135c <com_isr_interrupt_enable+0x18>
10001351:	fe5221                                    	l32r	a2, 10000c9c (10024280 <direct_irq_config>)
10001354:	a03320                                    	addx4	a3, a3, a2
10001357:	001c46                                    	j	100013cc <com_isr_interrupt_enable+0x88>

1000135a <com_isr_interrupt_enable+0x16>:
	...

1000135c <com_isr_interrupt_enable+0x18>:
1000135c:	443520                                    	extui	a3, a2, 5, 5
1000135f:	141c                                    	movi.n	a4, 17
10001361:	6c3437                                    	bltu	a4, a3, 100013d1 <com_isr_interrupt_enable+0x8d>
10001364:	fe4ef1                                    	l32r	a15, 10000c9c (10024280 <direct_irq_config>)
10001367:	140c                                    	movi.n	a4, 1
10001369:	401200                                    	ssl	a2
1000136c:	a06330                                    	addx4	a6, a3, a3
1000136f:	415a20                                    	srli	a5, a2, 10
10001372:	a13400                                    	sll	a3, a4
10001375:	a026f0                                    	addx4	a2, a6, a15
10001378:	143526                                    	beqi	a5, 3, 10001390 <com_isr_interrupt_enable+0x4c>
1000137b:	1e2526                                    	beqi	a5, 2, 1000139d <com_isr_interrupt_enable+0x59>
1000137e:	034d                                    	mov.n	a4, a3
10001380:	291566                                    	bnei	a5, 1, 100013ad <com_isr_interrupt_enable+0x69>
10001383:	fe4a51                                    	l32r	a5, 10000cac (26c1b4 <_memmap_mem_sram_end+0x2c1b4>)
10001386:	440c                                    	movi.n	a4, 4
10001388:	0568                                    	l32i.n	a6, a5, 0
1000138a:	1f8367                                    	bany	a3, a6, 100013ad <com_isr_interrupt_enable+0x69>
1000138d:	0005c6                                    	j	100013a8 <com_isr_interrupt_enable+0x64>

10001390 <com_isr_interrupt_enable+0x4c>:
10001390:	fe4951                                    	l32r	a5, 10000cb4 (26c204 <_memmap_mem_sram_end+0x2c204>)
10001393:	041c                                    	movi.n	a4, 16
10001395:	0568                                    	l32i.n	a6, a5, 0
10001397:	128367                                    	bany	a3, a6, 100013ad <com_isr_interrupt_enable+0x69>
1000139a:	000286                                    	j	100013a8 <com_isr_interrupt_enable+0x64>

1000139d <com_isr_interrupt_enable+0x59>:
1000139d:	fe4451                                    	l32r	a5, 10000cb0 (26c1dc <_memmap_mem_sram_end+0x2c1dc>)
100013a0:	840c                                    	movi.n	a4, 8
100013a2:	002562                                    	l32i	a6, a5, 0
100013a5:	048367                                    	bany	a3, a6, 100013ad <com_isr_interrupt_enable+0x69>
100013a8:	203630                                    	or	a3, a6, a3
100013ab:	0539                                    	s32i.n	a3, a5, 0
100013ad:	142252                                    	l32i	a5, a2, 80
100013b0:	40c232                                    	addi	a3, a2, 64
100013b3:	158457                                    	bany	a4, a5, 100013cc <com_isr_interrupt_enable+0x88>
100013b6:	1322e2                                    	l32i	a14, a2, 76
100013b9:	fe3f61                                    	l32r	a6, 10000cb8 (26c354 <_memmap_mem_sram_end+0x2c354>)
100013bc:	204540                                    	or	a4, a5, a4
100013bf:	115ec0                                    	slli	a5, a14, 4
100013c2:	50c2f2                                    	addi	a15, a2, 80
100013c5:	556a                                    	add.n	a5, a5, a6
100013c7:	0f49                                    	s32i.n	a4, a15, 0
100013c9:	006542                                    	s32i	a4, a5, 0
100013cc:	03a8                                    	l32i.n	a10, a3, 0
100013ce:	03baa5                                    	call8	10004f78 <xtos_interrupt_enable>
100013d1:	f01d                                    	retw.n

100013d3 <com_isr_interrupt_enable+0x8f>:
	...

100013d4 <com_isr_interrupt_disable>:
100013d4:	004136                                    	entry	a1, 32
100013d7:	cbad32                                    	movi	a3, 0xfffffdcb
100013da:	323a                                    	add.n	a3, a2, a3
100013dc:	0da042                                    	movi	a4, 13
100013df:	0d3437                                    	bltu	a4, a3, 100013f0 <com_isr_interrupt_disable+0x1c>
100013e2:	fe2e21                                    	l32r	a2, 10000c9c (10024280 <direct_irq_config>)
100013e5:	a02320                                    	addx4	a2, a3, a2

100013e8 <com_isr_interrupt_disable+0x14>:
100013e8:	02a8                                    	l32i.n	a10, a2, 0
100013ea:	03bc25                                    	call8	10004fac <xtos_interrupt_disable>
100013ed:	002cc6                                    	j	100014a4 <com_isr_interrupt_disable+0xd0>

100013f0 <com_isr_interrupt_disable+0x1c>:
100013f0:	443520                                    	extui	a3, a2, 5, 5
100013f3:	141c                                    	movi.n	a4, 17
100013f5:	02b437                                    	bgeu	a4, a3, 100013fb <com_isr_interrupt_disable+0x27>
100013f8:	002a06                                    	j	100014a4 <com_isr_interrupt_disable+0xd0>
100013fb:	fe2861                                    	l32r	a6, 10000c9c (10024280 <direct_irq_config>)
100013fe:	a0f330                                    	addx4	a15, a3, a3
10001401:	140c                                    	movi.n	a4, 1
10001403:	401200                                    	ssl	a2
10001406:	415a20                                    	srli	a5, a2, 10
10001409:	fe2b31                                    	l32r	a3, 10000cb8 (26c354 <_memmap_mem_sram_end+0x2c354>)
1000140c:	a02f60                                    	addx4	a2, a15, a6
1000140f:	a14400                                    	sll	a4, a4
10001412:	7f45f6                                    	bgeui	a5, 4, 10001495 <com_isr_interrupt_disable+0xc1>
10001415:	fe2a61                                    	l32r	a6, 10000cc0 (10024188 <__switchjump_table_xp_temp_3_0>)
10001418:	fe2771                                    	l32r	a7, 10000cb4 (26c204 <_memmap_mem_sram_end+0x2c204>)
1000141b:	a05560                                    	addx4	a5, a5, a6
1000141e:	0558                                    	l32i.n	a5, a5, 0
10001420:	076d                                    	mov.n	a6, a7
10001422:	0005a0                                    	jx	a5

10001425 <com_isr_interrupt_disable+0x51>:
	...

10001426 <com_isr_interrupt_disable+0x52>:
10001426:	142252                                    	l32i	a5, a2, 80
10001429:	50c2f2                                    	addi	a15, a2, 80
1000142c:	650457                                    	bnone	a4, a5, 10001495 <com_isr_interrupt_disable+0xc1>
1000142f:	132262                                    	l32i	a6, a2, 76
10001432:	104540                                    	and	a4, a5, a4
10001435:	11e6c0                                    	slli	a14, a6, 4
10001438:	304540                                    	xor	a4, a5, a4
1000143b:	5e3a                                    	add.n	a5, a14, a3
1000143d:	0f49                                    	s32i.n	a4, a15, 0
1000143f:	0549                                    	s32i.n	a4, a5, 0
10001441:	001406                                    	j	10001495 <com_isr_interrupt_disable+0xc1>

10001444 <com_isr_interrupt_disable+0x70>:
10001444:	fe1a61                                    	l32r	a6, 10000cac (26c1b4 <_memmap_mem_sram_end+0x2c1b4>)
10001447:	0658                                    	l32i.n	a5, a6, 0
10001449:	070457                                    	bnone	a4, a5, 10001454 <com_isr_interrupt_disable+0x80>
1000144c:	104540                                    	and	a4, a5, a4
1000144f:	305540                                    	xor	a5, a5, a4
10001452:	0659                                    	s32i.n	a5, a6, 0

10001454 <com_isr_interrupt_disable+0x80>:
10001454:	d5fc                                    	bnez.n	a5, 10001495 <com_isr_interrupt_disable+0xc1>
10001456:	fe1941                                    	l32r	a4, 10000cbc (26c3f4 <_memmap_mem_sram_end+0x2c3f4>)
10001459:	b67c                                    	movi.n	a6, -5
1000145b:	000bc6                                    	j	1000148e <com_isr_interrupt_disable+0xba>

1000145e <com_isr_interrupt_disable+0x8a>:
1000145e:	fe1461                                    	l32r	a6, 10000cb0 (26c1dc <_memmap_mem_sram_end+0x2c1dc>)
10001461:	0658                                    	l32i.n	a5, a6, 0
10001463:	070457                                    	bnone	a4, a5, 1000146e <com_isr_interrupt_disable+0x9a>
10001466:	104540                                    	and	a4, a5, a4
10001469:	305540                                    	xor	a5, a5, a4
1000146c:	0659                                    	s32i.n	a5, a6, 0

1000146e <com_isr_interrupt_disable+0x9a>:
1000146e:	35ec                                    	bnez.n	a5, 10001495 <com_isr_interrupt_disable+0xc1>
10001470:	fe1341                                    	l32r	a4, 10000cbc (26c3f4 <_memmap_mem_sram_end+0x2c3f4>)
10001473:	767c                                    	movi.n	a6, -9
10001475:	000546                                    	j	1000148e <com_isr_interrupt_disable+0xba>

10001478 <com_isr_interrupt_disable+0xa4>:
	...

10001479 <com_isr_interrupt_disable+0xa5>:
10001479:	0758                                    	l32i.n	a5, a7, 0
1000147b:	070457                                    	bnone	a4, a5, 10001486 <com_isr_interrupt_disable+0xb2>
1000147e:	104540                                    	and	a4, a5, a4
10001481:	305540                                    	xor	a5, a5, a4
10001484:	0659                                    	s32i.n	a5, a6, 0

10001486 <com_isr_interrupt_disable+0xb2>:
10001486:	b5cc                                    	bnez.n	a5, 10001495 <com_isr_interrupt_disable+0xc1>
10001488:	fe0d41                                    	l32r	a4, 10000cbc (26c3f4 <_memmap_mem_sram_end+0x2c3f4>)
1000148b:	efaf62                                    	movi	a6, -17
1000148e:	0458                                    	l32i.n	a5, a4, 0
10001490:	105560                                    	and	a5, a5, a6
10001493:	0459                                    	s32i.n	a5, a4, 0
10001495:	132242                                    	l32i	a4, a2, 76
10001498:	40c222                                    	addi	a2, a2, 64
1000149b:	1144c0                                    	slli	a4, a4, 4
1000149e:	343a                                    	add.n	a3, a4, a3
100014a0:	0338                                    	l32i.n	a3, a3, 0
100014a2:	238c                                    	beqz.n	a3, 100014a8 <com_isr_interrupt_disable+0xd4>
100014a4:	f01d                                    	retw.n

100014a6 <com_isr_interrupt_disable+0xd2>:
	...

100014a8 <com_isr_interrupt_disable+0xd4>:
100014a8:	ffcf06                                    	j	100013e8 <com_isr_interrupt_disable+0x14>

100014ab <com_isr_interrupt_disable+0xd7>:
	...

100014ac <com_isr_ext_int>:
100014ac:	004136                                    	entry	a1, 32
100014af:	fe0531                                    	l32r	a3, 10000cc4 (26c6b4 <_memmap_mem_sram_end+0x2c6b4>)
100014b2:	1122c0                                    	slli	a2, a2, 4
100014b5:	223a                                    	add.n	a2, a2, a3
100014b7:	1f0c                                    	movi.n	a15, 1
100014b9:	02f9                                    	s32i.n	a15, a2, 0
100014bb:	f01d                                    	retw.n

100014bd <com_isr_ext_int+0x11>:
100014bd:	000000                                        ...

100014c0 <com_mb_isr_trigger>:
100014c0:	004136                                    	entry	a1, 32
100014c3:	0d82f6                                    	bgeui	a2, 8, 100014d4 <com_mb_isr_trigger+0x14>
100014c6:	fe0041                                    	l32r	a4, 10000cc8 (26c04c <_memmap_mem_sram_end+0x2c04c>)
100014c9:	1122c0                                    	slli	a2, a2, 4
100014cc:	224a                                    	add.n	a2, a2, a4
100014ce:	0239                                    	s32i.n	a3, a2, 0
100014d0:	f01d                                    	retw.n

100014d2 <com_mb_isr_trigger+0x12>:
	...

100014d4 <com_mb_isr_trigger+0x14>:
100014d4:	fdfe41                                    	l32r	a4, 10000ccc (26c0a0 <_memmap_mem_sram_end+0x2c0a0>)
100014d7:	a02240                                    	addx4	a2, a2, a4
100014da:	0239                                    	s32i.n	a3, a2, 0
100014dc:	f01d                                    	retw.n

100014de <com_mb_isr_trigger+0x1e>:
	...

100014e0 <com_mb_isr_clear>:
100014e0:	004136                                    	entry	a1, 32
100014e3:	130c                                    	movi.n	a3, 1
100014e5:	401200                                    	ssl	a2
100014e8:	fdfaf1                                    	l32r	a15, 10000cd0 (26c1a8 <_memmap_mem_sram_end+0x2c1a8>)
100014eb:	a13300                                    	sll	a3, a3
100014ee:	0f39                                    	s32i.n	a3, a15, 0
100014f0:	f01d                                    	retw.n

100014f2 <com_mb_isr_clear+0x12>:
	...

100014f4 <com_unhandled_interrupt>:
100014f4:	004136                                    	entry	a1, 32
100014f7:	28a0a2                                    	movi	a10, 40
100014fa:	20b220                                    	or	a11, a2, a2
100014fd:	005965                                    	call8	10001a94 <com_send_rb_e_IRQ_ERR>
10001500:	02ad                                    	mov.n	a10, a2
10001502:	03aaa5                                    	call8	10004fac <xtos_interrupt_disable>
10001505:	f01d                                    	retw.n

10001507 <com_unhandled_interrupt+0x13>:
	...

10001508 <com_isr_init>:
10001508:	004136                                    	entry	a1, 32
1000150b:	f01d                                    	retw.n

1000150d <com_isr_init+0x5>:
1000150d:	000000                                        ...

10001510 <com_distinct_handler>:
10001510:	004136                                    	entry	a1, 32
10001513:	2238                                    	l32i.n	a3, a2, 8
10001515:	140c                                    	movi.n	a4, 1
10001517:	0378                                    	l32i.n	a7, a3, 0
10001519:	030c                                    	movi.n	a3, 0
1000151b:	e7ac                                    	beqz.n	a7, 1000154d <com_distinct_handler+0x3d>
1000151d:	050c                                    	movi.n	a5, 0
1000151f:	0002c6                                    	j	1000152e <com_distinct_handler+0x1e>

10001522 <com_distinct_handler+0x12>:
	...

10001524 <com_distinct_handler+0x14>:
10001524:	417160                                    	srli	a7, a6, 1
10001527:	551b                                    	addi.n	a5, a5, 1
10001529:	338b                                    	addi.n	a3, a3, 8
1000152b:	1e26b6                                    	bltui	a6, 2, 1000154d <com_distinct_handler+0x3d>
1000152e:	076d                                    	mov.n	a6, a7
10001530:	f06707                                    	bbci	a7, 0, 10001524 <com_distinct_handler+0x14>
10001533:	1278                                    	l32i.n	a7, a2, 4
10001535:	773a                                    	add.n	a7, a7, a3
10001537:	002792                                    	l32i	a9, a7, 0
1000153a:	0127a2                                    	l32i	a10, a7, 4
1000153d:	0009e0                                    	callx8	a9
10001540:	401500                                    	ssl	a5
10001543:	2278                                    	l32i.n	a7, a2, 8
10001545:	a18400                                    	sll	a8, a4
10001548:	0789                                    	s32i.n	a8, a7, 0
1000154a:	fff586                                    	j	10001524 <com_distinct_handler+0x14>

1000154d <com_distinct_handler+0x3d>:
1000154d:	f01d                                    	retw.n

1000154f <com_distinct_handler+0x3f>:
	...

10001550 <com_get_chip_mode>:
10001550:	004136                                    	entry	a1, 32
10001553:	fde021                                    	l32r	a2, 10000cd4 (383c008 <_memmap_mem_sram_end+0x35fc008>)
10001556:	0228                                    	l32i.n	a2, a2, 0
10001558:	042120                                    	extui	a2, a2, 1, 1
1000155b:	f01d                                    	retw.n

1000155d <com_get_chip_mode+0xd>:
1000155d:	000000                                        ...

10001560 <com_bfn_set_clk_sel>:
10001560:	004136                                    	entry	a1, 32
10001563:	b34c                                    	movi.n	a3, 75
10001565:	e1a042                                    	movi	a4, 225
10001568:	0133f0                                    	slli	a3, a3, 17
1000156b:	114400                                    	slli	a4, a4, 16
1000156e:	220b                                    	addi.n	a2, a2, -1
10001570:	fdda51                                    	l32r	a5, 10000cd8 (10025490 <g_bfn_cntl_total>)
10001573:	934320                                    	movnez	a4, a3, a2
10001576:	0549                                    	s32i.n	a4, a5, 0
10001578:	f01d                                    	retw.n

1000157a <com_bfn_set_clk_sel+0x1a>:
	...

1000157c <com_bfn_get_live_time>:
1000157c:	004136                                    	entry	a1, 32
1000157f:	fdd721                                    	l32r	a2, 10000cdc (268c4c <_memmap_mem_sram_end+0x28c4c>)
10001582:	0228                                    	l32i.n	a2, a2, 0
10001584:	f01d                                    	retw.n

10001586 <com_bfn_get_live_time+0xa>:
	...

10001588 <com_bfn_get_live_time_full>:
10001588:	004136                                    	entry	a1, 32
1000158b:	fdd431                                    	l32r	a3, 10000cdc (268c4c <_memmap_mem_sram_end+0x28c4c>)
1000158e:	0328                                    	l32i.n	a2, a3, 0
10001590:	1338                                    	l32i.n	a3, a3, 4
10001592:	f01d                                    	retw.n

10001594 <com_bfn_add_time>:
10001594:	004136                                    	entry	a1, 32
10001597:	f47c                                    	movi.n	a4, -1
10001599:	fdcf61                                    	l32r	a6, 10000cd8 (10025490 <g_bfn_cntl_total>)
1000159c:	414840                                    	srli	a4, a4, 8
1000159f:	f57c                                    	movi.n	a5, -1
100015a1:	015580                                    	slli	a5, a5, 24
100015a4:	108240                                    	and	a8, a2, a4
100015a7:	109340                                    	and	a9, a3, a4
100015aa:	0668                                    	l32i.n	a6, a6, 0
100015ac:	170c                                    	movi.n	a7, 1
100015ae:	10b350                                    	and	a11, a3, a5
100015b1:	898a                                    	add.n	a8, a9, a8
100015b3:	017780                                    	slli	a7, a7, 24
100015b6:	db2a                                    	add.n	a13, a11, a2
100015b8:	0c0c                                    	movi.n	a12, 0
100015ba:	62e860                                    	saltu	a14, a8, a6
100015bd:	7d7a                                    	add.n	a7, a13, a7
100015bf:	83c6e0                                    	moveqz	a12, a6, a14
100015c2:	937de0                                    	movnez	a7, a13, a14
100015c5:	c0f8c0                                    	sub	a15, a8, a12
100015c8:	103750                                    	and	a3, a7, a5
100015cb:	102f40                                    	and	a2, a15, a4
100015ce:	232a                                    	add.n	a2, a3, a2
100015d0:	f01d                                    	retw.n

100015d2 <com_bfn_add_time+0x3e>:
	...

100015d4 <com_bfn_add_time_full>:
100015d4:	004136                                    	entry	a1, 32
100015d7:	f57c                                    	movi.n	a5, -1
100015d9:	fdbf71                                    	l32r	a7, 10000cd8 (10025490 <g_bfn_cntl_total>)
100015dc:	415850                                    	srli	a5, a5, 8
100015df:	f67c                                    	movi.n	a6, -1
100015e1:	016680                                    	slli	a6, a6, 24
100015e4:	10a250                                    	and	a10, a2, a5
100015e7:	10b450                                    	and	a11, a4, a5
100015ea:	0778                                    	l32i.n	a7, a7, 0
100015ec:	180c                                    	movi.n	a8, 1
100015ee:	aaba                                    	add.n	a10, a10, a11
100015f0:	10c460                                    	and	a12, a4, a6
100015f3:	dc2a                                    	add.n	a13, a12, a2
100015f5:	018880                                    	slli	a8, a8, 24
100015f8:	090c                                    	movi.n	a9, 0
100015fa:	62ba70                                    	saltu	a11, a10, a7
100015fd:	624dc0                                    	saltu	a4, a13, a12
10001600:	8d8a                                    	add.n	a8, a13, a8
10001602:	8397b0                                    	moveqz	a9, a7, a11
10001605:	62e8d0                                    	saltu	a14, a8, a13
10001608:	434a                                    	add.n	a4, a3, a4
1000160a:	938db0                                    	movnez	a8, a13, a11
1000160d:	c0fa90                                    	sub	a15, a10, a9
10001610:	34ea                                    	add.n	a3, a4, a14
10001612:	106860                                    	and	a6, a8, a6
10001615:	102f50                                    	and	a2, a15, a5
10001618:	9334b0                                    	movnez	a3, a4, a11
1000161b:	262a                                    	add.n	a2, a6, a2
1000161d:	f01d                                    	retw.n

1000161f <com_bfn_add_time_full+0x4b>:
	...

10001620 <com_bfn_sub_time>:
10001620:	004136                                    	entry	a1, 32
10001623:	f47c                                    	movi.n	a4, -1
10001625:	fdac71                                    	l32r	a7, 10000cd8 (10025490 <g_bfn_cntl_total>)
10001628:	414840                                    	srli	a4, a4, 8
1000162b:	105240                                    	and	a5, a2, a4
1000162e:	106340                                    	and	a6, a3, a4
10001631:	0778                                    	l32i.n	a7, a7, 0
10001633:	625560                                    	saltu	a5, a5, a6
10001636:	ffa0d2                                    	movi	a13, 255
10001639:	75b820                                    	extui	a11, a2, 24, 8
1000163c:	75c830                                    	extui	a12, a3, 24, 8
1000163f:	c0a230                                    	sub	a10, a2, a3
10001642:	837550                                    	moveqz	a7, a5, a5
10001645:	c02bc0                                    	sub	a2, a11, a12
10001648:	83d550                                    	moveqz	a13, a5, a5
1000164b:	22da                                    	add.n	a2, a2, a13
1000164d:	ea7a                                    	add.n	a14, a10, a7
1000164f:	10fe40                                    	and	a15, a14, a4
10001652:	012280                                    	slli	a2, a2, 24
10001655:	2f2a                                    	add.n	a2, a15, a2
10001657:	f01d                                    	retw.n

10001659 <com_bfn_sub_time+0x39>:
10001659:	000000                                        ...

1000165c <get_com_trace_bfn_cpu_offset>:
1000165c:	004136                                    	entry	a1, 32
1000165f:	03ea20                                    	rsr.ccount	a2
10001662:	0052e5                                    	call8	10001b90 <com_timing_get_current_bfn_time>
10001665:	7538a0                                    	extui	a3, a10, 24, 8
10001668:	005265                                    	call8	10001b90 <com_timing_get_current_bfn_time>
1000166b:	f47c                                    	movi.n	a4, -1
1000166d:	b5af52                                    	movi	a5, -75
10001670:	414840                                    	srli	a4, a4, 8
10001673:	0155f0                                    	slli	a5, a5, 17
10001676:	104a40                                    	and	a4, a10, a4
10001679:	823350                                    	mull	a3, a3, a5
1000167c:	c02240                                    	sub	a2, a2, a4
1000167f:	223a                                    	add.n	a2, a2, a3
10001681:	f01d                                    	retw.n

10001683 <get_com_trace_bfn_cpu_offset+0x27>:
	...

10001684 <com_func_ts_trace_buffer>:
10001684:	004136                                    	entry	a1, 32
10001687:	03ea40                                    	rsr.ccount	a4
1000168a:	fd6f51                                    	l32r	a5, 10000c48 (10020000 <com_static_data_init>)
1000168d:	246020                                    	extui	a6, a2, 0, 3
10001690:	0558                                    	l32i.n	a5, a5, 0
10001692:	fd7a71                                    	l32r	a7, 10000c7c (100244b8 <p_system_data>)
10001695:	415550                                    	srli	a5, a5, 5
10001698:	015567                                    	bbc	a5, a6, 1000169d <com_func_ts_trace_buffer+0x19>
1000169b:	f01d                                    	retw.n

1000169d <com_func_ts_trace_buffer+0x19>:
1000169d:	a43030                                    	extui	a3, a3, 0, 11
100016a0:	11e440                                    	slli	a14, a4, 12
100016a3:	012230                                    	slli	a2, a2, 29
100016a6:	0133e0                                    	slli	a3, a3, 18
100016a9:	f4a0f2                                    	movi	a15, 244
100016ac:	0748                                    	l32i.n	a4, a7, 0
100016ae:	232a                                    	add.n	a2, a3, a2
100016b0:	30df32                                    	addmi	a3, a15, 0x3000
100016b3:	416ee0                                    	srli	a6, a14, 14
100016b6:	262a                                    	add.n	a2, a6, a2
100016b8:	343a                                    	add.n	a3, a4, a3
100016ba:	03ea60                                    	rsr.ccount	a6
100016bd:	004d25                                    	call8	10001b90 <com_timing_get_current_bfn_time>
100016c0:	7578a0                                    	extui	a7, a10, 24, 8
100016c3:	004ce5                                    	call8	10001b90 <com_timing_get_current_bfn_time>
100016c6:	b5af82                                    	movi	a8, -75
100016c9:	f57c                                    	movi.n	a5, -1
100016cb:	41e850                                    	srli	a14, a5, 8
100016ce:	fd8451                                    	l32r	a5, 10000ce0 (10025494 <com_trace_bfn_cpu_offset>)
100016d1:	0188f0                                    	slli	a8, a8, 17
100016d4:	109ae0                                    	and	a9, a10, a14
100016d7:	827780                                    	mull	a7, a7, a8
100016da:	c06690                                    	sub	a6, a6, a9
100016dd:	15f8                                    	l32i.n	a15, a5, 4
100016df:	667a                                    	add.n	a6, a6, a7
100016e1:	0569                                    	s32i.n	a6, a5, 0
100016e3:	dfcc                                    	bnez.n	a15, 100016f4 <com_func_ts_trace_buffer+0x70>
100016e5:	02a072                                    	movi	a7, 2
100016e8:	fd7f61                                    	l32r	a6, 10000ce4 (bbba0001 <_memmap_cacheattr_bp_allvalid+0x7775bbbd>)
100016eb:	30d482                                    	addmi	a8, a4, 0x3000
100016ee:	016572                                    	s32i	a7, a5, 4
100016f1:	3d6862                                    	s32i	a6, a8, 244
100016f4:	006f60                                    	rsil	a6, 15
100016f7:	1578                                    	l32i.n	a7, a5, 4
100016f9:	280c                                    	movi.n	a8, 2
100016fb:	ffd792                                    	addmi	a9, a7, 0xffffff00
100016fe:	938790                                    	movnez	a8, a7, a9
10001701:	30d442                                    	addmi	a4, a4, 0x3000
10001704:	f81b                                    	addi.n	a15, a8, 1
10001706:	a03830                                    	addx4	a3, a8, a3
10001709:	3e6482                                    	s32i	a8, a4, 248
1000170c:	15f9                                    	s32i.n	a15, a5, 4
1000170e:	0329                                    	s32i.n	a2, a3, 0
10001710:	13e660                                    	wsr.ps	a6
10001713:	002020                                    	esync
10001716:	f01d                                    	retw.n

10001718 <com_msg_trace_buffer>:
10001718:	004136                                    	entry	a1, 32
1000171b:	fd4b51                                    	l32r	a5, 10000c48 (10020000 <com_static_data_init>)
1000171e:	246020                                    	extui	a6, a2, 0, 3
10001721:	0558                                    	l32i.n	a5, a5, 0
10001723:	f77c                                    	movi.n	a7, -1
10001725:	415550                                    	srli	a5, a5, 5
10001728:	015567                                    	bbc	a5, a6, 1000172d <com_msg_trace_buffer+0x15>
1000172b:	f01d                                    	retw.n

1000172d <com_msg_trace_buffer+0x15>:
1000172d:	fd53f1                                    	l32r	a15, 10000c7c (100244b8 <p_system_data>)
10001730:	a43030                                    	extui	a3, a3, 0, 11
10001733:	415e70                                    	srli	a5, a7, 14
10001736:	f4a062                                    	movi	a6, 244
10001739:	105450                                    	and	a5, a4, a5
1000173c:	012230                                    	slli	a2, a2, 29
1000173f:	0133e0                                    	slli	a3, a3, 18
10001742:	0f48                                    	l32i.n	a4, a15, 0
10001744:	232a                                    	add.n	a2, a3, a2
10001746:	30d662                                    	addmi	a6, a6, 0x3000
10001749:	802250                                    	add	a2, a2, a5
1000174c:	346a                                    	add.n	a3, a4, a6
1000174e:	03ea60                                    	rsr.ccount	a6
10001751:	0043e5                                    	call8	10001b90 <com_timing_get_current_bfn_time>
10001754:	7578a0                                    	extui	a7, a10, 24, 8
10001757:	0043a5                                    	call8	10001b90 <com_timing_get_current_bfn_time>
1000175a:	b5af82                                    	movi	a8, -75
1000175d:	f57c                                    	movi.n	a5, -1
1000175f:	41e850                                    	srli	a14, a5, 8
10001762:	fd5f51                                    	l32r	a5, 10000ce0 (10025494 <com_trace_bfn_cpu_offset>)
10001765:	0188f0                                    	slli	a8, a8, 17
10001768:	109ae0                                    	and	a9, a10, a14
1000176b:	827780                                    	mull	a7, a7, a8
1000176e:	c06690                                    	sub	a6, a6, a9
10001771:	15f8                                    	l32i.n	a15, a5, 4
10001773:	667a                                    	add.n	a6, a6, a7
10001775:	0569                                    	s32i.n	a6, a5, 0
10001777:	dfcc                                    	bnez.n	a15, 10001788 <com_msg_trace_buffer+0x70>
10001779:	02a072                                    	movi	a7, 2
1000177c:	fd5a61                                    	l32r	a6, 10000ce4 (bbba0001 <_memmap_cacheattr_bp_allvalid+0x7775bbbd>)
1000177f:	30d482                                    	addmi	a8, a4, 0x3000
10001782:	016572                                    	s32i	a7, a5, 4
10001785:	3d6862                                    	s32i	a6, a8, 244
10001788:	006f60                                    	rsil	a6, 15
1000178b:	1578                                    	l32i.n	a7, a5, 4
1000178d:	280c                                    	movi.n	a8, 2
1000178f:	ffd792                                    	addmi	a9, a7, 0xffffff00
10001792:	938790                                    	movnez	a8, a7, a9
10001795:	30d442                                    	addmi	a4, a4, 0x3000
10001798:	f81b                                    	addi.n	a15, a8, 1
1000179a:	a03830                                    	addx4	a3, a8, a3
1000179d:	3e6482                                    	s32i	a8, a4, 248
100017a0:	15f9                                    	s32i.n	a15, a5, 4
100017a2:	0329                                    	s32i.n	a2, a3, 0
100017a4:	13e660                                    	wsr.ps	a6
100017a7:	002020                                    	esync
100017aa:	f01d                                    	retw.n

100017ac <com_err_code_trace_buffer>:
100017ac:	004136                                    	entry	a1, 32
100017af:	fd2661                                    	l32r	a6, 10000c48 (10020000 <com_static_data_init>)
100017b2:	247020                                    	extui	a7, a2, 0, 3
100017b5:	0668                                    	l32i.n	a6, a6, 0
100017b7:	fd31f1                                    	l32r	a15, 10000c7c (100244b8 <p_system_data>)
100017ba:	416560                                    	srli	a6, a6, 5
100017bd:	045677                                    	bbc	a6, a7, 100017c5 <com_err_code_trace_buffer+0x19>
100017c0:	f01d                                    	retw.n

100017c2 <com_err_code_trace_buffer+0x16>:
100017c2:	000000                                        ...

100017c5 <com_err_code_trace_buffer+0x19>:
100017c5:	d43030                                    	extui	a3, a3, 0, 14
100017c8:	345050                                    	extui	a5, a5, 0, 4
100017cb:	144040                                    	extui	a4, a4, 0, 2
100017ce:	f4a062                                    	movi	a6, 244
100017d1:	11e430                                    	slli	a14, a4, 13
100017d4:	115570                                    	slli	a5, a5, 9
100017d7:	012230                                    	slli	a2, a2, 29
100017da:	113310                                    	slli	a3, a3, 15
100017dd:	0f48                                    	l32i.n	a4, a15, 0
100017df:	232a                                    	add.n	a2, a3, a2
100017e1:	5e5a                                    	add.n	a5, a14, a5
100017e3:	30d662                                    	addmi	a6, a6, 0x3000
100017e6:	225a                                    	add.n	a2, a2, a5
100017e8:	346a                                    	add.n	a3, a4, a6
100017ea:	03ea60                                    	rsr.ccount	a6
100017ed:	003a25                                    	call8	10001b90 <com_timing_get_current_bfn_time>
100017f0:	7578a0                                    	extui	a7, a10, 24, 8
100017f3:	0039e5                                    	call8	10001b90 <com_timing_get_current_bfn_time>
100017f6:	b5af82                                    	movi	a8, -75
100017f9:	f57c                                    	movi.n	a5, -1
100017fb:	41e850                                    	srli	a14, a5, 8
100017fe:	fd3851                                    	l32r	a5, 10000ce0 (10025494 <com_trace_bfn_cpu_offset>)
10001801:	0188f0                                    	slli	a8, a8, 17
10001804:	109ae0                                    	and	a9, a10, a14
10001807:	827780                                    	mull	a7, a7, a8
1000180a:	c06690                                    	sub	a6, a6, a9
1000180d:	15f8                                    	l32i.n	a15, a5, 4
1000180f:	667a                                    	add.n	a6, a6, a7
10001811:	0569                                    	s32i.n	a6, a5, 0
10001813:	dfcc                                    	bnez.n	a15, 10001824 <com_err_code_trace_buffer+0x78>
10001815:	02a072                                    	movi	a7, 2
10001818:	fd3361                                    	l32r	a6, 10000ce4 (bbba0001 <_memmap_cacheattr_bp_allvalid+0x7775bbbd>)
1000181b:	30d482                                    	addmi	a8, a4, 0x3000
1000181e:	016572                                    	s32i	a7, a5, 4
10001821:	3d6862                                    	s32i	a6, a8, 244
10001824:	006f60                                    	rsil	a6, 15
10001827:	1578                                    	l32i.n	a7, a5, 4
10001829:	280c                                    	movi.n	a8, 2
1000182b:	ffd792                                    	addmi	a9, a7, 0xffffff00
1000182e:	938790                                    	movnez	a8, a7, a9
10001831:	30d442                                    	addmi	a4, a4, 0x3000
10001834:	f81b                                    	addi.n	a15, a8, 1
10001836:	a03830                                    	addx4	a3, a8, a3
10001839:	3e6482                                    	s32i	a8, a4, 248
1000183c:	15f9                                    	s32i.n	a15, a5, 4
1000183e:	0329                                    	s32i.n	a2, a3, 0
10001840:	13e660                                    	wsr.ps	a6
10001843:	002020                                    	esync
10001846:	f01d                                    	retw.n

10001848 <com_debug_trace_buffer>:
10001848:	006136                                    	entry	a1, 48
1000184b:	0a3266                                    	bnei	a2, 3, 10001859 <com_debug_trace_buffer+0x11>
1000184e:	330c                                    	movi.n	a3, 3
10001850:	013340                                    	slli	a3, a3, 28
10001853:	207530                                    	or	a7, a5, a3
10001856:	0005c6                                    	j	10001871 <com_debug_trace_buffer+0x29>

10001859 <com_debug_trace_buffer+0x11>:
10001859:	843030                                    	extui	a3, a3, 0, 9
1000185c:	f45050                                    	extui	a5, a5, 0, 16
1000185f:	017230                                    	slli	a7, a2, 29
10001862:	557a                                    	add.n	a5, a5, a7
10001864:	0133c0                                    	slli	a3, a3, 20
10001867:	34f040                                    	extui	a15, a4, 0, 4
1000186a:	117f00                                    	slli	a7, a15, 16
1000186d:	353a                                    	add.n	a3, a5, a3
1000186f:	737a                                    	add.n	a7, a3, a7
10001871:	fcf531                                    	l32r	a3, 10000c48 (10020000 <com_static_data_init>)
10001874:	150c                                    	movi.n	a5, 1
10001876:	03d8                                    	l32i.n	a13, a3, 0
10001878:	401200                                    	ssl	a2
1000187b:	a1e500                                    	sll	a14, a5
1000187e:	4125d0                                    	srli	a2, a13, 5
10001881:	ffa0f2                                    	movi	a15, 255
10001884:	102e20                                    	and	a2, a14, a2
10001887:	010f27                                    	bnone	a15, a2, 1000188c <com_debug_trace_buffer+0x44>
1000188a:	f01d                                    	retw.n

1000188c <com_debug_trace_buffer+0x44>:
1000188c:	1179                                    	s32i.n	a7, a1, 4
1000188e:	006f20                                    	rsil	a2, 15
10001891:	fcfaf1                                    	l32r	a15, 10000c7c (100244b8 <p_system_data>)
10001894:	f4a032                                    	movi	a3, 244
10001897:	0f78                                    	l32i.n	a7, a15, 0
10001899:	30d332                                    	addmi	a3, a3, 0x3000
1000189c:	3129                                    	s32i.n	a2, a1, 12
1000189e:	273a                                    	add.n	a2, a7, a3
100018a0:	2129                                    	s32i.n	a2, a1, 8
100018a2:	03ea20                                    	rsr.ccount	a2
100018a5:	002ea5                                    	call8	10001b90 <com_timing_get_current_bfn_time>
100018a8:	7538a0                                    	extui	a3, a10, 24, 8
100018ab:	002e65                                    	call8	10001b90 <com_timing_get_current_bfn_time>
100018ae:	f57c                                    	movi.n	a5, -1
100018b0:	415850                                    	srli	a5, a5, 8
100018b3:	b5af82                                    	movi	a8, -75
100018b6:	0188f0                                    	slli	a8, a8, 17
100018b9:	105a50                                    	and	a5, a10, a5
100018bc:	fd09a1                                    	l32r	a10, 10000ce0 (10025494 <com_trace_bfn_cpu_offset>)
100018bf:	828380                                    	mull	a8, a3, a8
100018c2:	c02250                                    	sub	a2, a2, a5
100018c5:	1af8                                    	l32i.n	a15, a10, 4
100018c7:	228a                                    	add.n	a2, a2, a8
100018c9:	0a29                                    	s32i.n	a2, a10, 0
100018cb:	dfcc                                    	bnez.n	a15, 100018dc <com_debug_trace_buffer+0x94>
100018cd:	02a052                                    	movi	a5, 2
100018d0:	30d722                                    	addmi	a2, a7, 0x3000
100018d3:	fd0431                                    	l32r	a3, 10000ce4 (bbba0001 <_memmap_cacheattr_bp_allvalid+0x7775bbbd>)
100018d6:	3d6232                                    	s32i	a3, a2, 244
100018d9:	016a52                                    	s32i	a5, a10, 4
100018dc:	006f20                                    	rsil	a2, 15
100018df:	1a88                                    	l32i.n	a8, a10, 4
100018e1:	230c                                    	movi.n	a3, 2
100018e3:	ffd892                                    	addmi	a9, a8, 0xffffff00
100018e6:	21e8                                    	l32i.n	a14, a1, 8
100018e8:	838390                                    	moveqz	a8, a3, a9
100018eb:	30d772                                    	addmi	a7, a7, 0x3000
100018ee:	d81b                                    	addi.n	a13, a8, 1
100018f0:	3e6782                                    	s32i	a8, a7, 248
100018f3:	a088e0                                    	addx4	a8, a8, a14
100018f6:	11f8                                    	l32i.n	a15, a1, 4
100018f8:	1ad9                                    	s32i.n	a13, a10, 4
100018fa:	08f9                                    	s32i.n	a15, a8, 0
100018fc:	13e620                                    	wsr.ps	a2
100018ff:	002020                                    	esync
10001902:	e4fc                                    	bnez.n	a4, 10001944 <com_debug_trace_buffer+0xfc>
10001904:	3128                                    	l32i.n	a2, a1, 12
10001906:	13e620                                    	wsr.ps	a2
10001909:	002020                                    	esync
1000190c:	f01d                                    	retw.n

1000190e <com_debug_trace_buffer+0xc6>:
1000190e:	000000                                        ...

10001911 <com_debug_trace_buffer+0xc9>:
10001911:	f4a032                                    	movi	a3, 244
10001914:	30d332                                    	addmi	a3, a3, 0x3000
10001917:	323a                                    	add.n	a3, a2, a3
10001919:	006f50                                    	rsil	a5, 15
1000191c:	1a88                                    	l32i.n	a8, a10, 4
1000191e:	270c                                    	movi.n	a7, 2
10001920:	ffd892                                    	addmi	a9, a8, 0xffffff00
10001923:	838790                                    	moveqz	a8, a7, a9
10001926:	30d222                                    	addmi	a2, a2, 0x3000
10001929:	e81b                                    	addi.n	a14, a8, 1
1000192b:	a03830                                    	addx4	a3, a8, a3
1000192e:	11f8                                    	l32i.n	a15, a1, 4
10001930:	3e6282                                    	s32i	a8, a2, 248
10001933:	1ae9                                    	s32i.n	a14, a10, 4
10001935:	03f9                                    	s32i.n	a15, a3, 0
10001937:	13e650                                    	wsr.ps	a5
1000193a:	002020                                    	esync
1000193d:	440b                                    	addi.n	a4, a4, -1
1000193f:	664b                                    	addi.n	a6, a6, 4
10001941:	fbf416                                    	beqz	a4, 10001904 <com_debug_trace_buffer+0xbc>
10001944:	fccef1                                    	l32r	a15, 10000c7c (100244b8 <p_system_data>)
10001947:	0628                                    	l32i.n	a2, a6, 0
10001949:	1129                                    	s32i.n	a2, a1, 4
1000194b:	0f28                                    	l32i.n	a2, a15, 0
1000194d:	03ea50                                    	rsr.ccount	a5
10001950:	0a7d                                    	mov.n	a7, a10
10001952:	0023e5                                    	call8	10001b90 <com_timing_get_current_bfn_time>
10001955:	7538a0                                    	extui	a3, a10, 24, 8
10001958:	002365                                    	call8	10001b90 <com_timing_get_current_bfn_time>
1000195b:	f87c                                    	movi.n	a8, -1
1000195d:	b5af92                                    	movi	a9, -75
10001960:	418880                                    	srli	a8, a8, 8
10001963:	0199f0                                    	slli	a9, a9, 17
10001966:	108a80                                    	and	a8, a10, a8
10001969:	823390                                    	mull	a3, a3, a9
1000196c:	c05580                                    	sub	a5, a5, a8
1000196f:	17f8                                    	l32i.n	a15, a7, 4
10001971:	353a                                    	add.n	a3, a5, a3
10001973:	07ad                                    	mov.n	a10, a7
10001975:	0739                                    	s32i.n	a3, a7, 0
10001977:	f96f56                                    	bnez	a15, 10001911 <com_debug_trace_buffer+0xc9>
1000197a:	250c                                    	movi.n	a5, 2
1000197c:	30d232                                    	addmi	a3, a2, 0x3000
1000197f:	fcd9f1                                    	l32r	a15, 10000ce4 (bbba0001 <_memmap_cacheattr_bp_allvalid+0x7775bbbd>)
10001982:	1a59                                    	s32i.n	a5, a10, 4
10001984:	3d63f2                                    	s32i	a15, a3, 244
10001987:	ffe186                                    	j	10001911 <com_debug_trace_buffer+0xc9>

1000198a <com_debug_trace_buffer+0x142>:
	...

1000198c <com_send_rb_e_INVALID_OPCODE_ERR>:
1000198c:	00e136                                    	entry	a1, 112
1000198f:	24c1a2                                    	addi	a10, a1, 36
10001992:	0b0c                                    	movi.n	a11, 0
10001994:	cc2c                                    	movi.n	a12, 44
10001996:	03e7e5                                    	call8	10005814 <memset>
10001999:	fcd341                                    	l32r	a4, 10000ce8 (1fffe <xthals_release_major+0x1c566>)
1000199c:	fcd451                                    	l32r	a5, 10000cec (ffff0002 <xthals_hw_configid0+0x3ffe6d7c>)
1000199f:	4149                                    	s32i.n	a4, a1, 16
100019a1:	6159                                    	s32i.n	a5, a1, 24
100019a3:	001ee5                                    	call8	10001b90 <com_timing_get_current_bfn_time>
100019a6:	51a9                                    	s32i.n	a10, a1, 20
100019a8:	10c1a2                                    	addi	a10, a1, 16
100019ab:	0b1c                                    	movi.n	a11, 16
100019ad:	7129                                    	s32i.n	a2, a1, 28
100019af:	8139                                    	s32i.n	a3, a1, 32
100019b1:	01f325                                    	call8	100038e4 <com_msg_send_readback>
100019b4:	f01d                                    	retw.n

100019b6 <com_send_rb_e_INVALID_OPCODE_ERR+0x2a>:
	...

100019b8 <com_send_rb_e_MSG_TIMING_ERR>:
100019b8:	00e136                                    	entry	a1, 112
100019bb:	112200                                    	slli	a2, a2, 16
100019be:	080c                                    	movi.n	a8, 0
100019c0:	fccaf1                                    	l32r	a15, 10000ce8 (1fffe <xthals_release_major+0x1c566>)
100019c3:	226b                                    	addi.n	a2, a2, 6
100019c5:	136172                                    	s32i	a7, a1, 76
100019c8:	116182                                    	s32i	a8, a1, 68
100019cb:	106182                                    	s32i	a8, a1, 64
100019ce:	f189                                    	s32i.n	a8, a1, 60
100019d0:	e189                                    	s32i.n	a8, a1, 56
100019d2:	d189                                    	s32i.n	a8, a1, 52
100019d4:	c189                                    	s32i.n	a8, a1, 48
100019d6:	b189                                    	s32i.n	a8, a1, 44
100019d8:	1c2172                                    	l32i	a7, a1, 112
100019db:	0261f2                                    	s32i	a15, a1, 8
100019de:	046122                                    	s32i	a2, a1, 16
100019e1:	001ae5                                    	call8	10001b90 <com_timing_get_current_bfn_time>
100019e4:	132122                                    	l32i	a2, a1, 76
100019e7:	31a9                                    	s32i.n	a10, a1, 12
100019e9:	a18b                                    	addi.n	a10, a1, 8
100019eb:	0b1c                                    	movi.n	a11, 16
100019ed:	5139                                    	s32i.n	a3, a1, 20
100019ef:	6149                                    	s32i.n	a4, a1, 24
100019f1:	7159                                    	s32i.n	a5, a1, 28
100019f3:	8169                                    	s32i.n	a6, a1, 32
100019f5:	9129                                    	s32i.n	a2, a1, 36
100019f7:	a179                                    	s32i.n	a7, a1, 40
100019f9:	01eea5                                    	call8	100038e4 <com_msg_send_readback>
100019fc:	f01d                                    	retw.n

100019fe <com_send_rb_e_MSG_TIMING_ERR+0x46>:
	...

10001a00 <com_send_rb_e_EXCEPTION_ERR>:
10001a00:	010136                                    	entry	a1, 128
10001a03:	112200                                    	slli	a2, a2, 16
10001a06:	080c                                    	movi.n	a8, 0
10001a08:	fcb8a1                                    	l32r	a10, 10000ce8 (1fffe <xthals_release_major+0x1c566>)
10001a0b:	22ab                                    	addi.n	a2, a2, 10
10001a0d:	176172                                    	s32i	a7, a1, 92
10001a10:	166162                                    	s32i	a6, a1, 88
10001a13:	156152                                    	s32i	a5, a1, 84
10001a16:	146142                                    	s32i	a4, a1, 80
10001a19:	136182                                    	s32i	a8, a1, 76
10001a1c:	126182                                    	s32i	a8, a1, 72
10001a1f:	116182                                    	s32i	a8, a1, 68
10001a22:	232142                                    	l32i	a4, a1, 140
10001a25:	222172                                    	l32i	a7, a1, 136
10001a28:	212162                                    	l32i	a6, a1, 132
10001a2b:	202152                                    	l32i	a5, a1, 128
10001a2e:	41a9                                    	s32i.n	a10, a1, 16
10001a30:	6129                                    	s32i.n	a2, a1, 24
10001a32:	0015e5                                    	call8	10001b90 <com_timing_get_current_bfn_time>
10001a35:	142122                                    	l32i	a2, a1, 80
10001a38:	1521c2                                    	l32i	a12, a1, 84
10001a3b:	1621d2                                    	l32i	a13, a1, 88
10001a3e:	1721e2                                    	l32i	a14, a1, 92
10001a41:	af0c                                    	movi.n	a15, 10
10001a43:	51a9                                    	s32i.n	a10, a1, 20
10001a45:	10c1a2                                    	addi	a10, a1, 16
10001a48:	0b1c                                    	movi.n	a11, 16
10001a4a:	7139                                    	s32i.n	a3, a1, 28
10001a4c:	8129                                    	s32i.n	a2, a1, 32
10001a4e:	91c9                                    	s32i.n	a12, a1, 36
10001a50:	a1d9                                    	s32i.n	a13, a1, 40
10001a52:	b1e9                                    	s32i.n	a14, a1, 44
10001a54:	c159                                    	s32i.n	a5, a1, 48
10001a56:	d169                                    	s32i.n	a6, a1, 52
10001a58:	e179                                    	s32i.n	a7, a1, 56
10001a5a:	f149                                    	s32i.n	a4, a1, 60
10001a5c:	1061f2                                    	s32i	a15, a1, 64
10001a5f:	01e865                                    	call8	100038e4 <com_msg_send_readback>
10001a62:	f01d                                    	retw.n

10001a64 <com_send_rb_e_EVENT_HANDLER_ERR>:
10001a64:	00e136                                    	entry	a1, 112
10001a67:	28c1a2                                    	addi	a10, a1, 40
10001a6a:	0b0c                                    	movi.n	a11, 0
10001a6c:	8c2c                                    	movi.n	a12, 40
10001a6e:	03da65                                    	call8	10005814 <memset>
10001a71:	112200                                    	slli	a2, a2, 16
10001a74:	fc9d61                                    	l32r	a6, 10000ce8 (1fffe <xthals_release_major+0x1c566>)
10001a77:	22eb                                    	addi.n	a2, a2, 14
10001a79:	4169                                    	s32i.n	a6, a1, 16
10001a7b:	6129                                    	s32i.n	a2, a1, 24
10001a7d:	001125                                    	call8	10001b90 <com_timing_get_current_bfn_time>
10001a80:	51a9                                    	s32i.n	a10, a1, 20
10001a82:	10c1a2                                    	addi	a10, a1, 16
10001a85:	0b1c                                    	movi.n	a11, 16
10001a87:	7139                                    	s32i.n	a3, a1, 28
10001a89:	8149                                    	s32i.n	a4, a1, 32
10001a8b:	9159                                    	s32i.n	a5, a1, 36
10001a8d:	01e565                                    	call8	100038e4 <com_msg_send_readback>
10001a90:	f01d                                    	retw.n

10001a92 <com_send_rb_e_EVENT_HANDLER_ERR+0x2e>:
	...

10001a94 <com_send_rb_e_IRQ_ERR>:
10001a94:	00e136                                    	entry	a1, 112
10001a97:	20c1a2                                    	addi	a10, a1, 32
10001a9a:	0b0c                                    	movi.n	a11, 0
10001a9c:	0c3c                                    	movi.n	a12, 48
10001a9e:	03d765                                    	call8	10005814 <memset>
10001aa1:	112200                                    	slli	a2, a2, 16
10001aa4:	fc9141                                    	l32r	a4, 10000ce8 (1fffe <xthals_release_major+0x1c566>)
10001aa7:	12c222                                    	addi	a2, a2, 18
10001aaa:	4149                                    	s32i.n	a4, a1, 16
10001aac:	6129                                    	s32i.n	a2, a1, 24
10001aae:	000e25                                    	call8	10001b90 <com_timing_get_current_bfn_time>
10001ab1:	51a9                                    	s32i.n	a10, a1, 20
10001ab3:	10c1a2                                    	addi	a10, a1, 16
10001ab6:	0b1c                                    	movi.n	a11, 16
10001ab8:	7139                                    	s32i.n	a3, a1, 28
10001aba:	01e2a5                                    	call8	100038e4 <com_msg_send_readback>
10001abd:	f01d                                    	retw.n

10001abf <com_send_rb_e_IRQ_ERR+0x2b>:
	...

10001ac0 <com_send_rb_e_FSM_TRANSITION_ERR>:
10001ac0:	00e136                                    	entry	a1, 112
10001ac3:	28c1a2                                    	addi	a10, a1, 40
10001ac6:	0b0c                                    	movi.n	a11, 0
10001ac8:	8c2c                                    	movi.n	a12, 40
10001aca:	03d4a5                                    	call8	10005814 <memset>
10001acd:	112200                                    	slli	a2, a2, 16
10001ad0:	fc8661                                    	l32r	a6, 10000ce8 (1fffe <xthals_release_major+0x1c566>)
10001ad3:	16c222                                    	addi	a2, a2, 22
10001ad6:	4169                                    	s32i.n	a6, a1, 16
10001ad8:	6129                                    	s32i.n	a2, a1, 24
10001ada:	000b65                                    	call8	10001b90 <com_timing_get_current_bfn_time>
10001add:	51a9                                    	s32i.n	a10, a1, 20
10001adf:	10c1a2                                    	addi	a10, a1, 16
10001ae2:	0b1c                                    	movi.n	a11, 16
10001ae4:	7139                                    	s32i.n	a3, a1, 28
10001ae6:	8149                                    	s32i.n	a4, a1, 32
10001ae8:	9159                                    	s32i.n	a5, a1, 36
10001aea:	01dfa5                                    	call8	100038e4 <com_msg_send_readback>
10001aed:	f01d                                    	retw.n

10001aef <com_send_rb_e_FSM_TRANSITION_ERR+0x2f>:
	...

10001af0 <com_send_rb_e_QUAD_FSM_TRANSITION_ERR>:
10001af0:	00e136                                    	entry	a1, 112
10001af3:	2cc1a2                                    	addi	a10, a1, 44
10001af6:	0b0c                                    	movi.n	a11, 0
10001af8:	4c2c                                    	movi.n	a12, 36
10001afa:	03d1a5                                    	call8	10005814 <memset>
10001afd:	112200                                    	slli	a2, a2, 16
10001b00:	fc7a71                                    	l32r	a7, 10000ce8 (1fffe <xthals_release_major+0x1c566>)
10001b03:	1ac222                                    	addi	a2, a2, 26
10001b06:	4179                                    	s32i.n	a7, a1, 16
10001b08:	066122                                    	s32i	a2, a1, 24
10001b0b:	000865                                    	call8	10001b90 <com_timing_get_current_bfn_time>
10001b0e:	51a9                                    	s32i.n	a10, a1, 20
10001b10:	10c1a2                                    	addi	a10, a1, 16
10001b13:	0b1c                                    	movi.n	a11, 16
10001b15:	7139                                    	s32i.n	a3, a1, 28
10001b17:	8149                                    	s32i.n	a4, a1, 32
10001b19:	9159                                    	s32i.n	a5, a1, 36
10001b1b:	a169                                    	s32i.n	a6, a1, 40
10001b1d:	01dc65                                    	call8	100038e4 <com_msg_send_readback>
10001b20:	f01d                                    	retw.n

10001b22 <com_send_rb_e_QUAD_FSM_TRANSITION_ERR+0x32>:
	...

10001b24 <com_send_rb_e_BOOT_ERR>:
10001b24:	00e136                                    	entry	a1, 112
10001b27:	24c1a2                                    	addi	a10, a1, 36
10001b2a:	0b0c                                    	movi.n	a11, 0
10001b2c:	cc2c                                    	movi.n	a12, 44
10001b2e:	03ce65                                    	call8	10005814 <memset>
10001b31:	112200                                    	slli	a2, a2, 16
10001b34:	fc6d51                                    	l32r	a5, 10000ce8 (1fffe <xthals_release_major+0x1c566>)
10001b37:	1ec222                                    	addi	a2, a2, 30
10001b3a:	4159                                    	s32i.n	a5, a1, 16
10001b3c:	066122                                    	s32i	a2, a1, 24
10001b3f:	000525                                    	call8	10001b90 <com_timing_get_current_bfn_time>
10001b42:	51a9                                    	s32i.n	a10, a1, 20
10001b44:	10c1a2                                    	addi	a10, a1, 16
10001b47:	0b1c                                    	movi.n	a11, 16
10001b49:	7139                                    	s32i.n	a3, a1, 28
10001b4b:	8149                                    	s32i.n	a4, a1, 32
10001b4d:	01d965                                    	call8	100038e4 <com_msg_send_readback>
10001b50:	f01d                                    	retw.n

10001b52 <com_send_rb_e_BOOT_ERR+0x2e>:
	...

10001b54 <com_send_rb_e_CONFIG_MSG_ERR>:
10001b54:	00e136                                    	entry	a1, 112
10001b57:	24c1a2                                    	addi	a10, a1, 36
10001b5a:	0b0c                                    	movi.n	a11, 0
10001b5c:	cc2c                                    	movi.n	a12, 44
10001b5e:	03cb65                                    	call8	10005814 <memset>
10001b61:	112200                                    	slli	a2, a2, 16
10001b64:	fc6151                                    	l32r	a5, 10000ce8 (1fffe <xthals_release_major+0x1c566>)
10001b67:	22c222                                    	addi	a2, a2, 34
10001b6a:	4159                                    	s32i.n	a5, a1, 16
10001b6c:	066122                                    	s32i	a2, a1, 24
10001b6f:	000225                                    	call8	10001b90 <com_timing_get_current_bfn_time>
10001b72:	51a9                                    	s32i.n	a10, a1, 20
10001b74:	10c1a2                                    	addi	a10, a1, 16
10001b77:	0b1c                                    	movi.n	a11, 16
10001b79:	7139                                    	s32i.n	a3, a1, 28
10001b7b:	8149                                    	s32i.n	a4, a1, 32
10001b7d:	01d665                                    	call8	100038e4 <com_msg_send_readback>
10001b80:	f01d                                    	retw.n

10001b82 <com_send_rb_e_CONFIG_MSG_ERR+0x2e>:
	...

10001b90 <com_timing_get_current_bfn_time>:
10001b90:	004136                                    	entry	a1, 32
10001b93:	ff9ea5                                    	call8	1000157c <com_bfn_get_live_time>
10001b96:	0a2d                                    	mov.n	a2, a10
10001b98:	f01d                                    	retw.n

10001b9a <com_timing_get_current_bfn_time+0xa>:
	...

10001b9c <com_timing_is_bfn1_earlier_bfn2>:
10001b9c:	004136                                    	entry	a1, 32
10001b9f:	f47c                                    	movi.n	a4, -1
10001ba1:	014480                                    	slli	a4, a4, 24
10001ba4:	10e240                                    	and	a14, a2, a4
10001ba7:	10f340                                    	and	a15, a3, a4
10001baa:	c05230                                    	sub	a5, a2, a3
10001bad:	c02ef0                                    	sub	a2, a14, a15
10001bb0:	653820                                    	extui	a3, a2, 24, 7
10001bb3:	935230                                    	movnez	a5, a2, a3
10001bb6:	052f50                                    	extui	a2, a5, 31, 1
10001bb9:	f01d                                    	retw.n

10001bbb <com_timing_is_bfn1_earlier_bfn2+0x1f>:
	...

10001bbc <com_timing_is_bfn1_earlier_or_equal_bfn2>:
10001bbc:	004136                                    	entry	a1, 32
10001bbf:	f47c                                    	movi.n	a4, -1
10001bc1:	014480                                    	slli	a4, a4, 24
10001bc4:	10d240                                    	and	a13, a2, a4
10001bc7:	10e340                                    	and	a14, a3, a4
10001bca:	c05230                                    	sub	a5, a2, a3
10001bcd:	c02de0                                    	sub	a2, a13, a14
10001bd0:	653820                                    	extui	a3, a2, 24, 7
10001bd3:	1f0c                                    	movi.n	a15, 1
10001bd5:	935230                                    	movnez	a5, a2, a3
10001bd8:	7225f0                                    	salt	a2, a5, a15
10001bdb:	f01d                                    	retw.n

10001bdd <com_timing_is_bfn1_earlier_or_equal_bfn2+0x21>:
10001bdd:	000000                                        ...

10001be0 <com_timing_convert_ticks_to_bfn_epoch>:
10001be0:	004136                                    	entry	a1, 32
10001be3:	b44c                                    	movi.n	a4, 75
10001be5:	553c                                    	movi.n	a5, 53
10001be7:	0144f0                                    	slli	a4, a4, 17
10001bea:	c26340                                    	quou	a6, a3, a4
10001bed:	0155f0                                    	slli	a5, a5, 17
10001bf0:	825650                                    	mull	a5, a6, a5
10001bf3:	f87c                                    	movi.n	a8, -1
10001bf5:	418880                                    	srli	a8, a8, 8
10001bf8:	d53a                                    	add.n	a13, a5, a3
10001bfa:	01e680                                    	slli	a14, a6, 24
10001bfd:	103d80                                    	and	a3, a13, a8
10001c00:	53ea                                    	add.n	a5, a3, a14
10001c02:	107280                                    	and	a7, a2, a8
10001c05:	10f580                                    	and	a15, a5, a8
10001c08:	6f7a                                    	add.n	a6, a15, a7
10001c0a:	752820                                    	extui	a2, a2, 24, 8
10001c0d:	755850                                    	extui	a5, a5, 24, 8
10001c10:	1a3647                                    	bltu	a6, a4, 10001c2e <com_timing_convert_ticks_to_bfn_epoch+0x4e>
10001c13:	b5af62                                    	movi	a6, -75
10001c16:	0166f0                                    	slli	a6, a6, 17
10001c19:	337a                                    	add.n	a3, a3, a7
10001c1b:	336a                                    	add.n	a3, a3, a6
10001c1d:	c24340                                    	quou	a4, a3, a4
10001c20:	826460                                    	mull	a6, a4, a6
10001c23:	224a                                    	add.n	a2, a2, a4
10001c25:	225a                                    	add.n	a2, a2, a5
10001c27:	663a                                    	add.n	a6, a6, a3
10001c29:	221b                                    	addi.n	a2, a2, 1
10001c2b:	000046                                    	j	10001c30 <com_timing_convert_ticks_to_bfn_epoch+0x50>

10001c2e <com_timing_convert_ticks_to_bfn_epoch+0x4e>:
10001c2e:	252a                                    	add.n	a2, a5, a2
10001c30:	012280                                    	slli	a2, a2, 24
10001c33:	202260                                    	or	a2, a2, a6
10001c36:	f01d                                    	retw.n

10001c38 <com_timing_convert_bfn_to_ticks_epoch>:
10001c38:	004136                                    	entry	a1, 32
10001c3b:	f47c                                    	movi.n	a4, -1
10001c3d:	b74c                                    	movi.n	a7, 75
10001c3f:	755830                                    	extui	a5, a3, 24, 8
10001c42:	756820                                    	extui	a6, a2, 24, 8
10001c45:	414840                                    	srli	a4, a4, 8
10001c48:	0177f0                                    	slli	a7, a7, 17
10001c4b:	c08560                                    	sub	a8, a5, a6
10001c4e:	10c340                                    	and	a12, a3, a4
10001c51:	10d240                                    	and	a13, a2, a4
10001c54:	82e870                                    	mull	a14, a8, a7
10001c57:	c04cd0                                    	sub	a4, a12, a13
10001c5a:	cbaff2                                    	movi	a15, -53
10001c5d:	012f70                                    	slli	a2, a15, 25
10001c60:	803e40                                    	add	a3, a14, a4
10001c63:	005896                                    	bltz	a8, 10001c6c <com_timing_convert_bfn_to_ticks_epoch+0x34>
10001c66:	049567                                    	bne	a5, a6, 10001c6e <com_timing_convert_bfn_to_ticks_epoch+0x36>
10001c69:	0014d6                                    	bgez	a4, 10001c6e <com_timing_convert_bfn_to_ticks_epoch+0x36>

10001c6c <com_timing_convert_bfn_to_ticks_epoch+0x34>:
10001c6c:	332a                                    	add.n	a3, a3, a2
10001c6e:	432a                                    	add.n	a4, a3, a2
10001c70:	03ea20                                    	rsr.ccount	a2
10001c73:	060c                                    	movi.n	a6, 0
10001c75:	c05320                                    	sub	a5, a3, a2
10001c78:	c0f420                                    	sub	a15, a4, a2
10001c7b:	727f50                                    	salt	a7, a15, a5
10001c7e:	032d                                    	mov.n	a2, a3
10001c80:	7266f0                                    	salt	a6, a6, a15
10001c83:	933470                                    	movnez	a3, a4, a7
10001c86:	932360                                    	movnez	a2, a3, a6
10001c89:	a32450                                    	movltz	a2, a4, a5
10001c8c:	f01d                                    	retw.n

10001c8e <com_timing_convert_bfn_to_ticks_epoch+0x56>:
	...

10001c90 <com_timing_increment_epoch>:
10001c90:	004136                                    	entry	a1, 32
10001c93:	f37c                                    	movi.n	a3, -1
10001c95:	413830                                    	srli	a3, a3, 8
10001c98:	740c                                    	movi.n	a4, 7
10001c9a:	103230                                    	and	a3, a2, a3
10001c9d:	0144f0                                    	slli	a4, a4, 17
10001ca0:	752820                                    	extui	a2, a2, 24, 8
10001ca3:	233347                                    	bltu	a3, a4, 10001cca <com_timing_increment_epoch+0x3a>
10001ca6:	947c                                    	movi.n	a4, -7
10001ca8:	b54c                                    	movi.n	a5, 75
10001caa:	0144f0                                    	slli	a4, a4, 17
10001cad:	0155f0                                    	slli	a5, a5, 17
10001cb0:	334a                                    	add.n	a3, a3, a4
10001cb2:	b5afd2                                    	movi	a13, -75
10001cb5:	c25350                                    	quou	a5, a3, a5
10001cb8:	014df0                                    	slli	a4, a13, 17
10001cbb:	826540                                    	mull	a6, a5, a4
10001cbe:	e25a                                    	add.n	a14, a2, a5
10001cc0:	b5a1f2                                    	movi	a15, 0x1b5
10001cc3:	4efa                                    	add.n	a4, a14, a15
10001cc5:	263a                                    	add.n	a2, a6, a3
10001cc7:	000346                                    	j	10001cd8 <com_timing_increment_epoch+0x48>

10001cca <com_timing_increment_epoch+0x3a>:
10001cca:	151c                                    	movi.n	a5, 17
10001ccc:	b4a142                                    	movi	a4, 0x1b4
10001ccf:	0155d0                                    	slli	a5, a5, 19
10001cd2:	804240                                    	add	a4, a2, a4
10001cd5:	802350                                    	add	a2, a3, a5
10001cd8:	013480                                    	slli	a3, a4, 24
10001cdb:	202320                                    	or	a2, a3, a2
10001cde:	f01d                                    	retw.n

10001ce0 <com_timing_get_current_epoch>:
10001ce0:	004136                                    	entry	a1, 32
10001ce3:	fc0321                                    	l32r	a2, 10000cf0 (1002549c <g_com_timing_epoch>)
10001ce6:	0228                                    	l32i.n	a2, a2, 0
10001ce8:	f01d                                    	retw.n

10001cea <com_timing_get_current_epoch+0xa>:
	...

10001cec <com_timing_set_current_epoch>:
10001cec:	004136                                    	entry	a1, 32
10001cef:	fc0031                                    	l32r	a3, 10000cf0 (1002549c <g_com_timing_epoch>)
10001cf2:	0329                                    	s32i.n	a2, a3, 0
10001cf4:	f01d                                    	retw.n

10001cf6 <com_timing_set_current_epoch+0xa>:
	...

10001cf8 <com_timing_wait_ns>:
10001cf8:	004136                                    	entry	a1, 32
10001cfb:	03ea30                                    	rsr.ccount	a3
10001cfe:	71a242                                    	movi	a4, 0x271
10001d01:	902220                                    	addx2	a2, a2, a2
10001d04:	a04440                                    	addx4	a4, a4, a4
10001d07:	115260                                    	slli	a5, a2, 10
10001d0a:	c22540                                    	quou	a2, a5, a4
10001d0d:	02b547                                    	bgeu	a5, a4, 10001d13 <com_timing_wait_ns+0x1b>

10001d10 <com_timing_wait_ns+0x18>:
10001d10:	f01d                                    	retw.n

10001d12 <com_timing_wait_ns+0x1a>:
	...

10001d13 <com_timing_wait_ns+0x1b>:
10001d13:	232a                                    	add.n	a2, a3, a2
10001d15:	088176                                    	loop	a1, 10001d21 <com_timing_wait_ns+0x29>
10001d18:	03ea30                                    	rsr.ccount	a3
10001d1b:	c03320                                    	sub	a3, a3, a2
10001d1e:	fee3d6                                    	bgez	a3, 10001d10 <com_timing_wait_ns+0x18>

10001d21 <com_timing_wait_ns+0x29>:
10001d21:	fffcc6                                    	j	10001d18 <com_timing_wait_ns+0x20>

10001d24 <com_fsm_init>:
10001d24:	004136                                    	entry	a1, 32
10001d27:	20a220                                    	or	a10, a2, a2
10001d2a:	01cf65                                    	call8	10003a20 <com_shared_mem_get_fsm_status_block>
10001d2d:	130c                                    	movi.n	a3, 1
10001d2f:	0a39                                    	s32i.n	a3, a10, 0
10001d31:	02ad                                    	mov.n	a10, a2
10001d33:	01cda5                                    	call8	10003a0c <com_shared_mem_get_fsm_quad_status_block>
10001d36:	0a39                                    	s32i.n	a3, a10, 0
10001d38:	20a220                                    	or	a10, a2, a2
10001d3b:	01cd25                                    	call8	10003a0c <com_shared_mem_get_fsm_quad_status_block>
10001d3e:	1a39                                    	s32i.n	a3, a10, 4
10001d40:	02ad                                    	mov.n	a10, a2
10001d42:	01cca5                                    	call8	10003a0c <com_shared_mem_get_fsm_quad_status_block>
10001d45:	2a39                                    	s32i.n	a3, a10, 8
10001d47:	02ad                                    	mov.n	a10, a2
10001d49:	01cc25                                    	call8	10003a0c <com_shared_mem_get_fsm_quad_status_block>
10001d4c:	3a39                                    	s32i.n	a3, a10, 12
10001d4e:	f01d                                    	retw.n

10001d50 <com_fsm_quad_init>:
10001d50:	004136                                    	entry	a1, 32
10001d53:	20a220                                    	or	a10, a2, a2
10001d56:	01cb65                                    	call8	10003a0c <com_shared_mem_get_fsm_quad_status_block>
10001d59:	130c                                    	movi.n	a3, 1
10001d5b:	0a39                                    	s32i.n	a3, a10, 0
10001d5d:	02ad                                    	mov.n	a10, a2
10001d5f:	01cae5                                    	call8	10003a0c <com_shared_mem_get_fsm_quad_status_block>
10001d62:	1a39                                    	s32i.n	a3, a10, 4
10001d64:	02ad                                    	mov.n	a10, a2
10001d66:	01ca65                                    	call8	10003a0c <com_shared_mem_get_fsm_quad_status_block>
10001d69:	2a39                                    	s32i.n	a3, a10, 8
10001d6b:	02ad                                    	mov.n	a10, a2
10001d6d:	01c9e5                                    	call8	10003a0c <com_shared_mem_get_fsm_quad_status_block>
10001d70:	3a39                                    	s32i.n	a3, a10, 12
10001d72:	f01d                                    	retw.n

10001d74 <com_fsm_quad_get_status>:
10001d74:	004136                                    	entry	a1, 32
10001d77:	02ad                                    	mov.n	a10, a2
10001d79:	01c925                                    	call8	10003a0c <com_shared_mem_get_fsm_quad_status_block>
10001d7c:	a023a0                                    	addx4	a2, a3, a10
10001d7f:	0228                                    	l32i.n	a2, a2, 0
10001d81:	f01d                                    	retw.n

10001d83 <com_fsm_quad_get_status+0xf>:
	...

10001d84 <com_fsm_quad_update_status>:
10001d84:	004136                                    	entry	a1, 32
10001d87:	02ad                                    	mov.n	a10, a2
10001d89:	01c825                                    	call8	10003a0c <com_shared_mem_get_fsm_quad_status_block>
10001d8c:	a023a0                                    	addx4	a2, a3, a10
10001d8f:	002232                                    	l32i	a3, a2, 0
10001d92:	021347                                    	beq	a3, a4, 10001d98 <com_fsm_quad_update_status+0x14>
10001d95:	006242                                    	s32i	a4, a2, 0

10001d98 <com_fsm_quad_update_status+0x14>:
10001d98:	0020c0                                    	memw
10001d9b:	f01d                                    	retw.n

10001d9d <com_fsm_quad_update_status+0x19>:
10001d9d:	000000                                        ...

10001da0 <com_fsm_get_status>:
10001da0:	004136                                    	entry	a1, 32
10001da3:	02ad                                    	mov.n	a10, a2
10001da5:	01c7a5                                    	call8	10003a20 <com_shared_mem_get_fsm_status_block>
10001da8:	0a28                                    	l32i.n	a2, a10, 0
10001daa:	f01d                                    	retw.n

10001dac <com_fsm_update_status>:
10001dac:	004136                                    	entry	a1, 32
10001daf:	20a220                                    	or	a10, a2, a2
10001db2:	01c6e5                                    	call8	10003a20 <com_shared_mem_get_fsm_status_block>
10001db5:	0a28                                    	l32i.n	a2, a10, 0
10001db7:	011237                                    	beq	a2, a3, 10001dbc <com_fsm_update_status+0x10>
10001dba:	0a39                                    	s32i.n	a3, a10, 0

10001dbc <com_fsm_update_status+0x10>:
10001dbc:	f01d                                    	retw.n

10001dbe <com_fsm_update_status+0x12>:
	...

10001dc0 <com_fsm_transition_check_quadmask_transition>:
10001dc0:	006136                                    	entry	a1, 48
10001dc3:	1f0c                                    	movi.n	a15, 1
10001dc5:	3169                                    	s32i.n	a6, a1, 12
10001dc7:	026d                                    	mov.n	a6, a2
10001dc9:	1179                                    	s32i.n	a7, a1, 4
10001dcb:	21f9                                    	s32i.n	a15, a1, 8
10001dcd:	b3ac                                    	beqz.n	a3, 10001dfc <com_fsm_transition_check_quadmask_transition+0x3c>
10001dcf:	032d                                    	mov.n	a2, a3
10001dd1:	030c                                    	movi.n	a3, 0
10001dd3:	070c                                    	movi.n	a7, 0
10001dd5:	0001c6                                    	j	10001de0 <com_fsm_transition_check_quadmask_transition+0x20>

10001dd8 <com_fsm_transition_check_quadmask_transition+0x18>:
	...

10001dd9 <com_fsm_transition_check_quadmask_transition+0x19>:
10001dd9:	771b                                    	addi.n	a7, a7, 1
10001ddb:	334b                                    	addi.n	a3, a3, 4
10001ddd:	1b4726                                    	beqi	a7, 4, 10001dfc <com_fsm_transition_check_quadmask_transition+0x3c>
10001de0:	f55277                                    	bbc	a2, a7, 10001dd9 <com_fsm_transition_check_quadmask_transition+0x19>
10001de3:	06ad                                    	mov.n	a10, a6
10001de5:	01c265                                    	call8	10003a0c <com_shared_mem_get_fsm_quad_status_block>
10001de8:	8a3a                                    	add.n	a8, a10, a3
10001dea:	08b8                                    	l32i.n	a11, a8, 0
10001dec:	06ad                                    	mov.n	a10, a6
10001dee:	11c8                                    	l32i.n	a12, a1, 4
10001df0:	07dd                                    	mov.n	a13, a7
10001df2:	000da5                                    	call8	10001ecc <com_fsm_quad_transition>
10001df5:	fe0a56                                    	bnez	a10, 10001dd9 <com_fsm_transition_check_quadmask_transition+0x19>
10001df8:	020c                                    	movi.n	a2, 0
10001dfa:	2129                                    	s32i.n	a2, a1, 8
10001dfc:	2128                                    	l32i.n	a2, a1, 8
10001dfe:	e4ac                                    	beqz.n	a4, 10001e30 <com_fsm_transition_check_quadmask_transition+0x70>
10001e00:	030c                                    	movi.n	a3, 0
10001e02:	020c                                    	movi.n	a2, 0
10001e04:	000206                                    	j	10001e10 <com_fsm_transition_check_quadmask_transition+0x50>

10001e07 <com_fsm_transition_check_quadmask_transition+0x47>:
	...

10001e09 <com_fsm_transition_check_quadmask_transition+0x49>:
10001e09:	221b                                    	addi.n	a2, a2, 1
10001e0b:	334b                                    	addi.n	a3, a3, 4
10001e0d:	1d4226                                    	beqi	a2, 4, 10001e2e <com_fsm_transition_check_quadmask_transition+0x6e>
10001e10:	f55427                                    	bbc	a4, a2, 10001e09 <com_fsm_transition_check_quadmask_transition+0x49>
10001e13:	06ad                                    	mov.n	a10, a6
10001e15:	01bf65                                    	call8	10003a0c <com_shared_mem_get_fsm_quad_status_block>
10001e18:	7a3a                                    	add.n	a7, a10, a3
10001e1a:	07b8                                    	l32i.n	a11, a7, 0
10001e1c:	06ad                                    	mov.n	a10, a6
10001e1e:	11c8                                    	l32i.n	a12, a1, 4
10001e20:	02dd                                    	mov.n	a13, a2
10001e22:	000aa5                                    	call8	10001ecc <com_fsm_quad_transition>
10001e25:	fe0a56                                    	bnez	a10, 10001e09 <com_fsm_transition_check_quadmask_transition+0x49>
10001e28:	020c                                    	movi.n	a2, 0
10001e2a:	000086                                    	j	10001e30 <com_fsm_transition_check_quadmask_transition+0x70>

10001e2d <com_fsm_transition_check_quadmask_transition+0x6d>:
	...

10001e2e <com_fsm_transition_check_quadmask_transition+0x6e>:
10001e2e:	120c                                    	movi.n	a2, 1
10001e30:	65ac                                    	beqz.n	a5, 10001e5a <com_fsm_transition_check_quadmask_transition+0x9a>
10001e32:	030c                                    	movi.n	a3, 0
10001e34:	020c                                    	movi.n	a2, 0
10001e36:	000186                                    	j	10001e40 <com_fsm_transition_check_quadmask_transition+0x80>

10001e39 <com_fsm_transition_check_quadmask_transition+0x79>:
10001e39:	221b                                    	addi.n	a2, a2, 1
10001e3b:	334b                                    	addi.n	a3, a3, 4
10001e3d:	204226                                    	beqi	a2, 4, 10001e61 <com_fsm_transition_check_quadmask_transition+0xa1>
10001e40:	f55527                                    	bbc	a5, a2, 10001e39 <com_fsm_transition_check_quadmask_transition+0x79>
10001e43:	06ad                                    	mov.n	a10, a6
10001e45:	01bc65                                    	call8	10003a0c <com_shared_mem_get_fsm_quad_status_block>
10001e48:	4a3a                                    	add.n	a4, a10, a3
10001e4a:	04b8                                    	l32i.n	a11, a4, 0
10001e4c:	06ad                                    	mov.n	a10, a6
10001e4e:	11c8                                    	l32i.n	a12, a1, 4
10001e50:	02dd                                    	mov.n	a13, a2
10001e52:	0007a5                                    	call8	10001ecc <com_fsm_quad_transition>
10001e55:	fe0a56                                    	bnez	a10, 10001e39 <com_fsm_transition_check_quadmask_transition+0x79>
10001e58:	020c                                    	movi.n	a2, 0
10001e5a:	3158                                    	l32i.n	a5, a1, 12
10001e5c:	85cc                                    	bnez.n	a5, 10001e68 <com_fsm_transition_check_quadmask_transition+0xa8>
10001e5e:	f01d                                    	retw.n

10001e60 <com_fsm_transition_check_quadmask_transition+0xa0>:
	...

10001e61 <com_fsm_transition_check_quadmask_transition+0xa1>:
10001e61:	120c                                    	movi.n	a2, 1
10001e63:	3158                                    	l32i.n	a5, a1, 12
10001e65:	ff5516                                    	beqz	a5, 10001e5e <com_fsm_transition_check_quadmask_transition+0x9e>
10001e68:	030c                                    	movi.n	a3, 0
10001e6a:	020c                                    	movi.n	a2, 0
10001e6c:	000206                                    	j	10001e78 <com_fsm_transition_check_quadmask_transition+0xb8>

10001e6f <com_fsm_transition_check_quadmask_transition+0xaf>:
	...

10001e71 <com_fsm_transition_check_quadmask_transition+0xb1>:
10001e71:	221b                                    	addi.n	a2, a2, 1
10001e73:	334b                                    	addi.n	a3, a3, 4
10001e75:	1b4226                                    	beqi	a2, 4, 10001e94 <com_fsm_transition_check_quadmask_transition+0xd4>
10001e78:	f55527                                    	bbc	a5, a2, 10001e71 <com_fsm_transition_check_quadmask_transition+0xb1>
10001e7b:	06ad                                    	mov.n	a10, a6
10001e7d:	01b8e5                                    	call8	10003a0c <com_shared_mem_get_fsm_quad_status_block>
10001e80:	4a3a                                    	add.n	a4, a10, a3
10001e82:	04b8                                    	l32i.n	a11, a4, 0
10001e84:	06ad                                    	mov.n	a10, a6
10001e86:	11c8                                    	l32i.n	a12, a1, 4
10001e88:	02dd                                    	mov.n	a13, a2
10001e8a:	000425                                    	call8	10001ecc <com_fsm_quad_transition>
10001e8d:	fe0a56                                    	bnez	a10, 10001e71 <com_fsm_transition_check_quadmask_transition+0xb1>
10001e90:	020c                                    	movi.n	a2, 0
10001e92:	f01d                                    	retw.n

10001e94 <com_fsm_transition_check_quadmask_transition+0xd4>:
10001e94:	120c                                    	movi.n	a2, 1
10001e96:	f01d                                    	retw.n

10001e98 <com_fsm_transition_quadmask>:
10001e98:	004136                                    	entry	a1, 32
10001e9b:	060c                                    	movi.n	a6, 0
10001e9d:	050c                                    	movi.n	a5, 0
10001e9f:	000186                                    	j	10001ea9 <com_fsm_transition_quadmask+0x11>

10001ea2 <com_fsm_transition_quadmask+0xa>:
10001ea2:	551b                                    	addi.n	a5, a5, 1
10001ea4:	664b                                    	addi.n	a6, a6, 4
10001ea6:	1e4526                                    	beqi	a5, 4, 10001ec8 <com_fsm_transition_quadmask+0x30>
10001ea9:	f55357                                    	bbc	a3, a5, 10001ea2 <com_fsm_transition_quadmask+0xa>
10001eac:	02ad                                    	mov.n	a10, a2
10001eae:	01b5e5                                    	call8	10003a0c <com_shared_mem_get_fsm_quad_status_block>
10001eb1:	7a6a                                    	add.n	a7, a10, a6
10001eb3:	07b8                                    	l32i.n	a11, a7, 0
10001eb5:	02ad                                    	mov.n	a10, a2
10001eb7:	20c440                                    	or	a12, a4, a4
10001eba:	20d550                                    	or	a13, a5, a5
10001ebd:	0000e5                                    	call8	10001ecc <com_fsm_quad_transition>
10001ec0:	fdea56                                    	bnez	a10, 10001ea2 <com_fsm_transition_quadmask+0xa>
10001ec3:	020c                                    	movi.n	a2, 0
10001ec5:	f01d                                    	retw.n

10001ec7 <com_fsm_transition_quadmask+0x2f>:
	...

10001ec8 <com_fsm_transition_quadmask+0x30>:
10001ec8:	120c                                    	movi.n	a2, 1
10001eca:	f01d                                    	retw.n

10001ecc <com_fsm_quad_transition>:
10001ecc:	004136                                    	entry	a1, 32
10001ecf:	640b                                    	addi.n	a6, a4, -1
10001ed1:	c70c                                    	movi.n	a7, 12
10001ed3:	713767                                    	bltu	a7, a6, 10001f48 <com_fsm_quad_transition+0x7c>
10001ed6:	fb8771                                    	l32r	a7, 10000cf4 (10024198 <__switchjump_table_xp_temp_8_0>)
10001ed9:	fdc382                                    	addi	a8, a3, -3
10001edc:	a06670                                    	addx4	a6, a6, a7
10001edf:	0668                                    	l32i.n	a6, a6, 0
10001ee1:	d0a072                                    	movi	a7, 208
10001ee4:	0006a0                                    	jx	a6

10001ee7 <com_fsm_quad_transition+0x1b>:
10001ee7:	260c                                    	movi.n	a6, 2
10001ee9:	2f2326                                    	beqi	a3, 2, 10001f1c <com_fsm_quad_transition+0x50>
10001eec:	001606                                    	j	10001f48 <com_fsm_quad_transition+0x7c>

10001eef <com_fsm_quad_transition+0x23>:
10001eef:	260c                                    	movi.n	a6, 2
10001ef1:	2758b6                                    	bltui	a8, 5, 10001f1c <com_fsm_quad_transition+0x50>
10001ef4:	001406                                    	j	10001f48 <com_fsm_quad_transition+0x7c>

10001ef7 <com_fsm_quad_transition+0x2b>:
10001ef7:	260c                                    	movi.n	a6, 2
10001ef9:	1f1326                                    	beqi	a3, 1, 10001f1c <com_fsm_quad_transition+0x50>
10001efc:	001206                                    	j	10001f48 <com_fsm_quad_transition+0x7c>

10001eff <com_fsm_quad_transition+0x33>:
10001eff:	360c                                    	movi.n	a6, 3
10001f01:	172326                                    	beqi	a3, 2, 10001f1c <com_fsm_quad_transition+0x50>
10001f04:	001006                                    	j	10001f48 <com_fsm_quad_transition+0x7c>

10001f07 <com_fsm_quad_transition+0x3b>:
10001f07:	fdc362                                    	addi	a6, a3, -3
10001f0a:	d77c                                    	movi.n	a7, -3
10001f0c:	388767                                    	bany	a7, a6, 10001f48 <com_fsm_quad_transition+0x7c>
10001f0f:	460c                                    	movi.n	a6, 4
10001f11:	0001c6                                    	j	10001f1c <com_fsm_quad_transition+0x50>

10001f14 <com_fsm_quad_transition+0x48>:
10001f14:	3083f6                                    	bgeui	a3, 8, 10001f48 <com_fsm_quad_transition+0x7c>
10001f17:	036d                                    	mov.n	a6, a3
10001f19:	2b5737                                    	bbc	a7, a3, 10001f48 <com_fsm_quad_transition+0x7c>

10001f1c <com_fsm_quad_transition+0x50>:
10001f1c:	02ad                                    	mov.n	a10, a2
10001f1e:	01aee5                                    	call8	10003a0c <com_shared_mem_get_fsm_quad_status_block>
10001f21:	a025a0                                    	addx4	a2, a5, a10
10001f24:	0238                                    	l32i.n	a3, a2, 0
10001f26:	021367                                    	beq	a3, a6, 10001f2c <com_fsm_quad_transition+0x60>
10001f29:	006262                                    	s32i	a6, a2, 0
10001f2c:	0020c0                                    	memw
10001f2f:	120c                                    	movi.n	a2, 1
10001f31:	f01d                                    	retw.n

10001f33 <com_fsm_quad_transition+0x67>:
10001f33:	460c                                    	movi.n	a6, 4
10001f35:	e37326                                    	beqi	a3, 7, 10001f1c <com_fsm_quad_transition+0x50>
10001f38:	000306                                    	j	10001f48 <com_fsm_quad_transition+0x7c>

10001f3b <com_fsm_quad_transition+0x6f>:
10001f3b:	560c                                    	movi.n	a6, 5
10001f3d:	db4326                                    	beqi	a3, 4, 10001f1c <com_fsm_quad_transition+0x50>
10001f40:	000106                                    	j	10001f48 <com_fsm_quad_transition+0x7c>

10001f43 <com_fsm_quad_transition+0x77>:
10001f43:	760c                                    	movi.n	a6, 7
10001f45:	d34326                                    	beqi	a3, 4, 10001f1c <com_fsm_quad_transition+0x50>

10001f48 <com_fsm_quad_transition+0x7c>:
10001f48:	da3c                                    	movi.n	a10, 61
10001f4a:	02bd                                    	mov.n	a11, a2
10001f4c:	03cd                                    	mov.n	a12, a3
10001f4e:	04dd                                    	mov.n	a13, a4
10001f50:	05ed                                    	mov.n	a14, a5
10001f52:	ffb9e5                                    	call8	10001af0 <com_send_rb_e_QUAD_FSM_TRANSITION_ERR>
10001f55:	020c                                    	movi.n	a2, 0
10001f57:	f01d                                    	retw.n

10001f59 <com_fsm_quad_transition+0x8d>:
10001f59:	760c                                    	movi.n	a6, 7
10001f5b:	bd6326                                    	beqi	a3, 6, 10001f1c <com_fsm_quad_transition+0x50>
10001f5e:	fff986                                    	j	10001f48 <com_fsm_quad_transition+0x7c>

10001f61 <com_fsm_quad_transition+0x95>:
10001f61:	660c                                    	movi.n	a6, 6
10001f63:	b54326                                    	beqi	a3, 4, 10001f1c <com_fsm_quad_transition+0x50>
10001f66:	fff786                                    	j	10001f48 <com_fsm_quad_transition+0x7c>

10001f69 <com_fsm_quad_transition+0x9d>:
10001f69:	000000                                        ...

10001f6c <com_fsm_transition_run>:
10001f6c:	004136                                    	entry	a1, 32
10001f6f:	02ad                                    	mov.n	a10, a2
10001f71:	023d                                    	mov.n	a3, a2
10001f73:	01aae5                                    	call8	10003a20 <com_shared_mem_get_fsm_status_block>
10001f76:	0a48                                    	l32i.n	a4, a10, 0
10001f78:	120c                                    	movi.n	a2, 1
10001f7a:	1a3426                                    	beqi	a4, 3, 10001f98 <com_fsm_transition_run+0x2c>
10001f7d:	03ad                                    	mov.n	a10, a3
10001f7f:	01aa25                                    	call8	10003a20 <com_shared_mem_get_fsm_status_block>
10001f82:	0ac8                                    	l32i.n	a12, a10, 0
10001f84:	3a3c                                    	movi.n	a10, 51
10001f86:	102c66                                    	bnei	a12, 2, 10001f9a <com_fsm_transition_run+0x2e>
10001f89:	03ad                                    	mov.n	a10, a3
10001f8b:	01a965                                    	call8	10003a20 <com_shared_mem_get_fsm_status_block>
10001f8e:	0a38                                    	l32i.n	a3, a10, 0
10001f90:	340c                                    	movi.n	a4, 3
10001f92:	023326                                    	beqi	a3, 3, 10001f98 <com_fsm_transition_run+0x2c>
10001f95:	006a42                                    	s32i	a4, a10, 0

10001f98 <com_fsm_transition_run+0x2c>:
10001f98:	f01d                                    	retw.n

10001f9a <com_fsm_transition_run+0x2e>:
10001f9a:	5d0c                                    	movi.n	a13, 5
10001f9c:	03bd                                    	mov.n	a11, a3
10001f9e:	ffb225                                    	call8	10001ac0 <com_send_rb_e_FSM_TRANSITION_ERR>
10001fa1:	020c                                    	movi.n	a2, 0
10001fa3:	f01d                                    	retw.n

10001fa5 <com_fsm_transition_run+0x39>:
10001fa5:	000000                                        ...

10001fa8 <com_fsm_transition>:
10001fa8:	004136                                    	entry	a1, 32
10001fab:	540b                                    	addi.n	a5, a4, -1
10001fad:	4495f6                                    	bgeui	a5, 10, 10001ff5 <com_fsm_transition+0x4d>
10001fb0:	fb5261                                    	l32r	a6, 10000cf8 (100241cc <__switchjump_table_xp_temp_10_0>)
10001fb3:	ef7c                                    	movi.n	a15, -2
10001fb5:	a05560                                    	addx4	a5, a5, a6
10001fb8:	0558                                    	l32i.n	a5, a5, 0
10001fba:	1063f0                                    	and	a6, a3, a15
10001fbd:	0005a0                                    	jx	a5

10001fc0 <com_fsm_transition+0x18>:
10001fc0:	250c                                    	movi.n	a5, 2
10001fc2:	2f2366                                    	bnei	a3, 2, 10001ff5 <com_fsm_transition+0x4d>

10001fc5 <com_fsm_transition+0x1d>:
10001fc5:	02ad                                    	mov.n	a10, a2
10001fc7:	01a5a5                                    	call8	10003a20 <com_shared_mem_get_fsm_status_block>
10001fca:	0a38                                    	l32i.n	a3, a10, 0
10001fcc:	120c                                    	movi.n	a2, 1
10001fce:	021357                                    	beq	a3, a5, 10001fd4 <com_fsm_transition+0x2c>
10001fd1:	006a52                                    	s32i	a5, a10, 0
10001fd4:	f01d                                    	retw.n

10001fd6 <com_fsm_transition+0x2e>:
	...

10001fd8 <com_fsm_transition+0x30>:
10001fd8:	250c                                    	movi.n	a5, 2
10001fda:	e71326                                    	beqi	a3, 1, 10001fc5 <com_fsm_transition+0x1d>
10001fdd:	000506                                    	j	10001ff5 <com_fsm_transition+0x4d>

10001fe0 <com_fsm_transition+0x38>:
10001fe0:	035d                                    	mov.n	a5, a3
10001fe2:	df2626                                    	beqi	a6, 2, 10001fc5 <com_fsm_transition+0x1d>
10001fe5:	000306                                    	j	10001ff5 <com_fsm_transition+0x4d>

10001fe8 <com_fsm_transition+0x40>:
10001fe8:	350c                                    	movi.n	a5, 3
10001fea:	d72326                                    	beqi	a3, 2, 10001fc5 <com_fsm_transition+0x1d>
10001fed:	000106                                    	j	10001ff5 <com_fsm_transition+0x4d>

10001ff0 <com_fsm_transition+0x48>:
10001ff0:	250c                                    	movi.n	a5, 2
10001ff2:	cf3326                                    	beqi	a3, 3, 10001fc5 <com_fsm_transition+0x1d>

10001ff5 <com_fsm_transition+0x4d>:
10001ff5:	3a3c                                    	movi.n	a10, 51
10001ff7:	02bd                                    	mov.n	a11, a2
10001ff9:	03cd                                    	mov.n	a12, a3
10001ffb:	04dd                                    	mov.n	a13, a4
10001ffd:	ffac25                                    	call8	10001ac0 <com_send_rb_e_FSM_TRANSITION_ERR>
10002000:	020c                                    	movi.n	a2, 0
10002002:	f01d                                    	retw.n

10002004 <com_fsm_transition+0x5c>:
10002004:	450c                                    	movi.n	a5, 4
10002006:	bb2326                                    	beqi	a3, 2, 10001fc5 <com_fsm_transition+0x1d>
10002009:	fffa06                                    	j	10001ff5 <com_fsm_transition+0x4d>

1000200c <com_fsm_transition+0x64>:
1000200c:	250c                                    	movi.n	a5, 2
1000200e:	b34326                                    	beqi	a3, 4, 10001fc5 <com_fsm_transition+0x1d>
10002011:	fff806                                    	j	10001ff5 <com_fsm_transition+0x4d>

10002014 <com_fsm_transition_off_stop>:
10002014:	004136                                    	entry	a1, 32
10002017:	02ad                                    	mov.n	a10, a2
10002019:	023d                                    	mov.n	a3, a2
1000201b:	019f25                                    	call8	10003a0c <com_shared_mem_get_fsm_quad_status_block>
1000201e:	0a28                                    	l32i.n	a2, a10, 0
10002020:	20a330                                    	or	a10, a3, a3
10002023:	019ea5                                    	call8	10003a0c <com_shared_mem_get_fsm_quad_status_block>
10002026:	1a48                                    	l32i.n	a4, a10, 4
10002028:	03ad                                    	mov.n	a10, a3
1000202a:	019e25                                    	call8	10003a0c <com_shared_mem_get_fsm_quad_status_block>
1000202d:	2a58                                    	l32i.n	a5, a10, 8
1000202f:	03ad                                    	mov.n	a10, a3
10002031:	019da5                                    	call8	10003a0c <com_shared_mem_get_fsm_quad_status_block>
10002034:	620b                                    	addi.n	a6, a2, -1
10002036:	120c                                    	movi.n	a2, 1
10002038:	2a26f6                                    	bgeui	a6, 2, 10002066 <com_fsm_transition_off_stop+0x52>
1000203b:	440b                                    	addi.n	a4, a4, -1
1000203d:	2524f6                                    	bgeui	a4, 2, 10002066 <com_fsm_transition_off_stop+0x52>
10002040:	450b                                    	addi.n	a4, a5, -1
10002042:	2024f6                                    	bgeui	a4, 2, 10002066 <com_fsm_transition_off_stop+0x52>
10002045:	3a48                                    	l32i.n	a4, a10, 12
10002047:	03ad                                    	mov.n	a10, a3
10002049:	440b                                    	addi.n	a4, a4, -1
1000204b:	1724f6                                    	bgeui	a4, 2, 10002066 <com_fsm_transition_off_stop+0x52>
1000204e:	019d25                                    	call8	10003a20 <com_shared_mem_get_fsm_status_block>
10002051:	0ac8                                    	l32i.n	a12, a10, 0
10002053:	3a3c                                    	movi.n	a10, 51
10002055:	103c66                                    	bnei	a12, 3, 10002069 <com_fsm_transition_off_stop+0x55>
10002058:	03ad                                    	mov.n	a10, a3
1000205a:	019c65                                    	call8	10003a20 <com_shared_mem_get_fsm_status_block>
1000205d:	0a38                                    	l32i.n	a3, a10, 0
1000205f:	240c                                    	movi.n	a4, 2
10002061:	012326                                    	beqi	a3, 2, 10002066 <com_fsm_transition_off_stop+0x52>
10002064:	0a49                                    	s32i.n	a4, a10, 0

10002066 <com_fsm_transition_off_stop+0x52>:
10002066:	f01d                                    	retw.n

10002068 <com_fsm_transition_off_stop+0x54>:
	...

10002069 <com_fsm_transition_off_stop+0x55>:
10002069:	6d0c                                    	movi.n	a13, 6
1000206b:	03bd                                    	mov.n	a11, a3
1000206d:	ffa525                                    	call8	10001ac0 <com_send_rb_e_FSM_TRANSITION_ERR>
10002070:	020c                                    	movi.n	a2, 0
10002072:	f01d                                    	retw.n

10002074 <com_fsm_off_mode_check>:
10002074:	004136                                    	entry	a1, 32
10002077:	023d                                    	mov.n	a3, a2
10002079:	1e0c                                    	movi.n	a14, 1
1000207b:	6222e0                                    	saltu	a2, a2, a14
1000207e:	045130                                    	extui	a5, a3, 1, 1
10002081:	11f2d0                                    	slli	a15, a2, 3
10002084:	a40c                                    	movi.n	a4, 10
10002086:	834f50                                    	moveqz	a4, a15, a5
10002089:	820c                                    	movi.n	a2, 8
1000208b:	043030                                    	extui	a3, a3, 0, 1
1000208e:	832430                                    	moveqz	a2, a4, a3
10002091:	f01d                                    	retw.n

10002093 <com_fsm_off_mode_check+0x1f>:
	...

100020a0 <core_fw_mismatch_check>:
100020a0:	004136                                    	entry	a1, 32
100020a3:	03eb20                                    	rsr.prid	a2
100020a6:	142020                                    	extui	a2, a2, 0, 2
100020a9:	041266                                    	bnei	a2, 1, 100020b1 <core_fw_mismatch_check+0x11>
100020ac:	f01d                                    	retw.n

100020ae <core_fw_mismatch_check+0xe>:
100020ae:	000000                                        ...

100020b1 <core_fw_mismatch_check+0x11>:
100020b1:	0190e5                                    	call8	100039c0 <com_shared_mem_wait_for_ready>
100020b4:	1b0c                                    	movi.n	a11, 1
100020b6:	20a220                                    	or	a10, a2, a2
100020b9:	018d65                                    	call8	10003990 <com_shared_mem_set_sys_status>
100020bc:	011256                                    	bnez	a2, 100020d1 <core_fw_mismatch_check+0x31>
100020bf:	03a0a2                                    	movi	a10, 3
100020c2:	019325                                    	call8	100039f4 <com_shared_mem_get_queue_block>
100020c5:	0344a5                                    	call8	10005510 <com_queue_init>
100020c8:	7a4c                                    	movi.n	a10, 71
100020ca:	0b0c                                    	movi.n	a11, 0
100020cc:	1c0c                                    	movi.n	a12, 1
100020ce:	ffa565                                    	call8	10001b24 <com_send_rb_e_BOOT_ERR>
100020d1:	048176                                    	loop	a1, 100020d9 <core_fw_mismatch_check+0x39>
100020d4:	007000                                    	waiti	0
100020d7:	f03d                                    	nop.n

100020d9 <core_fw_mismatch_check+0x39>:
100020d9:	fffdc6                                    	j	100020d4 <core_fw_mismatch_check+0x34>

100020dc <com_get_fw_version>:
100020dc:	004136                                    	entry	a1, 32
100020df:	fb0721                                    	l32r	a2, 10000cfc (10024464 <ver_commit_id>)
100020e2:	3a0c                                    	movi.n	a10, 3
100020e4:	02d8                                    	l32i.n	a13, a2, 0
100020e6:	0b0c                                    	movi.n	a11, 0
100020e8:	0c0c                                    	movi.n	a12, 0
100020ea:	00a0e2                                    	movi	a14, 0
100020ed:	ff75a5                                    	call8	10001848 <com_debug_trace_buffer>
100020f0:	f01d                                    	retw.n

100020f2 <com_get_fw_version+0x16>:
	...

100020f4 <core_sync_up>:
100020f4:	004136                                    	entry	a1, 32
100020f7:	1a0c                                    	movi.n	a10, 1
100020f9:	3b1c                                    	movi.n	a11, 19
100020fb:	361c                                    	movi.n	a6, 19
100020fd:	018925                                    	call8	10003990 <com_shared_mem_set_sys_status>
10002100:	721b                                    	addi.n	a7, a2, 1
10002102:	faff21                                    	l32r	a2, 10000d00 (100021e0 <com_boot_wait_handler>)

10002105 <core_sync_up+0x11>:
10002105:	770b                                    	addi.n	a7, a7, -1
10002107:	043716                                    	beqz	a7, 1000214e <core_sync_up+0x5a>
1000210a:	36a2a2                                    	movi	a10, 0x236
1000210d:	0c0c                                    	movi.n	a12, 0
1000210f:	02bd                                    	mov.n	a11, a2
10002111:	ff15e5                                    	call8	10001270 <com_isr_event>
10002114:	006f40                                    	rsil	a4, 15
10002117:	03ea50                                    	rsr.ccount	a5
1000211a:	1a0c                                    	movi.n	a10, 1
1000211c:	b53a                                    	add.n	a11, a5, a3
1000211e:	038625                                    	call8	10005980 <xthal_set_ccompare>
10002121:	36a2a2                                    	movi	a10, 0x236
10002124:	ff21e5                                    	call8	10001344 <com_isr_interrupt_enable>
10002127:	007000                                    	waiti	0
1000212a:	13e640                                    	wsr.ps	a4
1000212d:	002020                                    	esync
10002130:	0a0c                                    	movi.n	a10, 0
10002132:	0186e5                                    	call8	100039a0 <com_shared_mem_get_sys_status>
10002135:	0a4d                                    	mov.n	a4, a10
10002137:	2a0c                                    	movi.n	a10, 2
10002139:	018665                                    	call8	100039a0 <com_shared_mem_get_sys_status>
1000213c:	0a5d                                    	mov.n	a5, a10
1000213e:	3a0c                                    	movi.n	a10, 3
10002140:	0185e5                                    	call8	100039a0 <com_shared_mem_get_sys_status>
10002143:	be9a67                                    	bne	a10, a6, 10002105 <core_sync_up+0x11>
10002146:	bb9567                                    	bne	a5, a6, 10002105 <core_sync_up+0x11>
10002149:	b89467                                    	bne	a4, a6, 10002105 <core_sync_up+0x11>
1000214c:	f01d                                    	retw.n

1000214e <core_sync_up+0x5a>:
1000214e:	0a0c                                    	movi.n	a10, 0
10002150:	020c                                    	movi.n	a2, 0
10002152:	0184e5                                    	call8	100039a0 <com_shared_mem_get_sys_status>
10002155:	13a032                                    	movi	a3, 19
10002158:	20caa0                                    	or	a12, a10, a10
1000215b:	1b9a37                                    	bne	a10, a3, 1000217a <core_sync_up+0x86>
1000215e:	02a0a2                                    	movi	a10, 2
10002161:	02a022                                    	movi	a2, 2
10002164:	0183a5                                    	call8	100039a0 <com_shared_mem_get_sys_status>
10002167:	0acd                                    	mov.n	a12, a10
10002169:	0d9a37                                    	bne	a10, a3, 1000217a <core_sync_up+0x86>
1000216c:	3a0c                                    	movi.n	a10, 3
1000216e:	320c                                    	movi.n	a2, 3
10002170:	0182e5                                    	call8	100039a0 <com_shared_mem_get_sys_status>
10002173:	331c                                    	movi.n	a3, 19
10002175:	0acd                                    	mov.n	a12, a10
10002177:	061a37                                    	beq	a10, a3, 10002181 <core_sync_up+0x8d>
1000217a:	6a4c                                    	movi.n	a10, 70
1000217c:	02bd                                    	mov.n	a11, a2
1000217e:	ff9a65                                    	call8	10001b24 <com_send_rb_e_BOOT_ERR>
10002181:	048176                                    	loop	a1, 10002189 <core_sync_up+0x95>
10002184:	007000                                    	waiti	0
10002187:	f03d                                    	nop.n

10002189 <core_sync_up+0x95>:
10002189:	fffdc6                                    	j	10002184 <core_sync_up+0x90>

1000218c <dbg_n_trace>:
1000218c:	004136                                    	entry	a1, 32
1000218f:	faae21                                    	l32r	a2, 10000c48 (10020000 <com_static_data_init>)
10002192:	0228                                    	l32i.n	a2, a2, 0
10002194:	24a220                                    	extui	a10, a2, 2, 3
10002197:	fecd25                                    	call8	10000e68 <com_set_print_level>
1000219a:	feec65                                    	call8	10001060 <com_trax_init>
1000219d:	1a0c                                    	movi.n	a10, 1
1000219f:	2b0c                                    	movi.n	a11, 2
100021a1:	017ee5                                    	call8	10003990 <com_shared_mem_set_sys_status>
100021a4:	fef625                                    	call8	10001108 <com_trax_start>
100021a7:	1a0c                                    	movi.n	a10, 1
100021a9:	3b0c                                    	movi.n	a11, 3
100021ab:	017e65                                    	call8	10003990 <com_shared_mem_set_sys_status>
100021ae:	f01d                                    	retw.n

100021b0 <com_boot_init>:
100021b0:	004136                                    	entry	a1, 32
100021b3:	0004a5                                    	call8	100021fc <com_lock_boundary_check_init>
100021b6:	0005a5                                    	call8	10002210 <com_idma_init>
100021b9:	1a0c                                    	movi.n	a10, 1
100021bb:	cb0c                                    	movi.n	a11, 12
100021bd:	017d25                                    	call8	10003990 <com_shared_mem_set_sys_status>
100021c0:	00ac25                                    	call8	10002c84 <com_gpdma_init>
100021c3:	1a0c                                    	movi.n	a10, 1
100021c5:	db0c                                    	movi.n	a11, 13
100021c7:	017ca5                                    	call8	10003990 <com_shared_mem_set_sys_status>
100021ca:	0121a5                                    	call8	100033e4 <com_event_init_events>
100021cd:	1a0c                                    	movi.n	a10, 1
100021cf:	eb0c                                    	movi.n	a11, 14
100021d1:	017be5                                    	call8	10003990 <com_shared_mem_set_sys_status>
100021d4:	0157e5                                    	call8	10003754 <com_msg_timestamp_init>
100021d7:	1a0c                                    	movi.n	a10, 1
100021d9:	0b1c                                    	movi.n	a11, 16
100021db:	017b65                                    	call8	10003990 <com_shared_mem_set_sys_status>
100021de:	f01d                                    	retw.n

100021e0 <com_boot_wait_handler>:
100021e0:	004136                                    	entry	a1, 32
100021e3:	36a2a2                                    	movi	a10, 0x236
100021e6:	ff1ee5                                    	call8	100013d4 <com_isr_interrupt_disable>
100021e9:	1a0c                                    	movi.n	a10, 1
100021eb:	0b0c                                    	movi.n	a11, 0
100021ed:	037925                                    	call8	10005980 <xthal_set_ccompare>
100021f0:	f01d                                    	retw.n

100021f2 <com_boot_wait_handler+0x12>:
	...

100021f4 <com_lock_init>:
100021f4:	004136                                    	entry	a1, 32
100021f7:	f01d                                    	retw.n

100021f9 <com_lock_init+0x5>:
100021f9:	000000                                        ...

100021fc <com_lock_boundary_check_init>:
100021fc:	004136                                    	entry	a1, 32
100021ff:	fa9f21                                    	l32r	a2, 10000c7c (100244b8 <p_system_data>)
10002202:	fac031                                    	l32r	a3, 10000d04 (100254a4 <com_shm_lock_first_addr>)
10002205:	0228                                    	l32i.n	a2, a2, 0
10002207:	0329                                    	s32i.n	a2, a3, 0
10002209:	28c242                                    	addi	a4, a2, 40
1000220c:	1349                                    	s32i.n	a4, a3, 4
1000220e:	f01d                                    	retw.n

10002210 <com_idma_init>:
10002210:	004136                                    	entry	a1, 32
10002213:	fabd21                                    	l32r	a2, 10000d08 (100254ac <g_idma_que_task>)
10002216:	030c                                    	movi.n	a3, 0
10002218:	fabd41                                    	l32r	a4, 10000d0c (110014 <_memmap_mem_srom_end+0xf0014>)
1000221b:	0239                                    	s32i.n	a3, a2, 0
1000221d:	407430                                    	wer	a3, a4
10002220:	fabcb1                                    	l32r	a11, 10000d10 (10002248 <com_idma_done_irq_handler>)
10002223:	39a2a2                                    	movi	a10, 0x239
10002226:	0c0c                                    	movi.n	a12, 0
10002228:	12b9                                    	s32i.n	a11, a2, 4
1000222a:	ff0465                                    	call8	10001270 <com_isr_event>
1000222d:	39a2a2                                    	movi	a10, 0x239
10002230:	ff1125                                    	call8	10001344 <com_isr_interrupt_enable>
10002233:	fab8b1                                    	l32r	a11, 10000d14 (1000226c <com_idma_err_irq_handler>)
10002236:	38a2a2                                    	movi	a10, 0x238
10002239:	0c0c                                    	movi.n	a12, 0
1000223b:	22b9                                    	s32i.n	a11, a2, 8
1000223d:	ff0325                                    	call8	10001270 <com_isr_event>
10002240:	38a2a2                                    	movi	a10, 0x238
10002243:	ff1025                                    	call8	10001344 <com_isr_interrupt_enable>
10002246:	f01d                                    	retw.n

10002248 <com_idma_done_irq_handler>:
10002248:	004136                                    	entry	a1, 32
1000224b:	fab021                                    	l32r	a2, 10000d0c (110014 <_memmap_mem_srom_end+0xf0014>)
1000224e:	030c                                    	movi.n	a3, 0
10002250:	407230                                    	wer	a3, a2
10002253:	faad21                                    	l32r	a2, 10000d08 (100254ac <g_idma_que_task>)
10002256:	fab041                                    	l32r	a4, 10000d18 (10024468 <g_idma_last_err>)
10002259:	0228                                    	l32i.n	a2, a2, 0
1000225b:	0439                                    	s32i.n	a3, a4, 0
1000225d:	728c                                    	beqz.n	a2, 10002268 <com_idma_done_irq_handler+0x20>
1000225f:	0238                                    	l32i.n	a3, a2, 0
10002261:	12a8                                    	l32i.n	a10, a2, 4
10002263:	138c                                    	beqz.n	a3, 10002268 <com_idma_done_irq_handler+0x20>
10002265:	0003e0                                    	callx8	a3

10002268 <com_idma_done_irq_handler+0x20>:
10002268:	f01d                                    	retw.n

1000226a <com_idma_done_irq_handler+0x22>:
	...

1000226c <com_idma_err_irq_handler>:
1000226c:	004136                                    	entry	a1, 32
1000226f:	faab21                                    	l32r	a2, 10000d1c (110040 <_memmap_mem_srom_end+0xf0040>)
10002272:	406220                                    	rer	a2, a2
10002275:	faa831                                    	l32r	a3, 10000d18 (10024468 <g_idma_last_err>)
10002278:	d52220                                    	extui	a2, a2, 18, 14
1000227b:	39a2a2                                    	movi	a10, 0x239
1000227e:	006322                                    	s32i	a2, a3, 0
10002281:	ff1525                                    	call8	100013d4 <com_isr_interrupt_disable>
10002284:	38a2a2                                    	movi	a10, 0x238
10002287:	ff14e5                                    	call8	100013d4 <com_isr_interrupt_disable>
1000228a:	fa9f21                                    	l32r	a2, 10000d08 (100254ac <g_idma_que_task>)
1000228d:	030c                                    	movi.n	a3, 0
1000228f:	fa9f41                                    	l32r	a4, 10000d0c (110014 <_memmap_mem_srom_end+0xf0014>)
10002292:	250c                                    	movi.n	a5, 2
10002294:	0239                                    	s32i.n	a3, a2, 0
10002296:	407450                                    	wer	a5, a4
10002299:	407430                                    	wer	a3, a4
1000229c:	1238                                    	l32i.n	a3, a2, 4
1000229e:	39a2a2                                    	movi	a10, 0x239
100022a1:	138c                                    	beqz.n	a3, 100022a6 <com_idma_err_irq_handler+0x3a>
100022a3:	ff0a25                                    	call8	10001344 <com_isr_interrupt_enable>

100022a6 <com_idma_err_irq_handler+0x3a>:
100022a6:	2228                                    	l32i.n	a2, a2, 8
100022a8:	38a2a2                                    	movi	a10, 0x238
100022ab:	128c                                    	beqz.n	a2, 100022b0 <com_idma_err_irq_handler+0x44>
100022ad:	ff0965                                    	call8	10001344 <com_isr_interrupt_enable>
100022b0:	f01d                                    	retw.n

100022b2 <com_idma_err_irq_handler+0x46>:
	...

100022b4 <com_idma_fill_ctrl>:
100022b4:	004136                                    	entry	a1, 32
100022b7:	33ac                                    	beqz.n	a3, 100022de <com_idma_fill_ctrl+0x2a>
100022b9:	037d                                    	mov.n	a7, a3
100022bb:	243040                                    	extui	a3, a4, 0, 3
100022be:	f9c4f2                                    	addi	a15, a4, -7
100022c1:	081c                                    	movi.n	a8, 16
100022c3:	042c                                    	movi.n	a4, 32
100022c5:	670b                                    	addi.n	a6, a7, -1
100022c7:	9348f0                                    	movnez	a4, a8, a15
100022ca:	01a052                                    	movi	a5, 1
100022cd:	0d8776                                    	loop	a7, 100022de <com_idma_fill_ctrl+0x2a>
100022d0:	627650                                    	saltu	a7, a6, a5
100022d3:	660b                                    	addi.n	a6, a6, -1
100022d5:	017710                                    	slli	a7, a7, 31
100022d8:	773a                                    	add.n	a7, a7, a3
100022da:	0279                                    	s32i.n	a7, a2, 0
100022dc:	224a                                    	add.n	a2, a2, a4

100022de <com_idma_fill_ctrl+0x2a>:
100022de:	f01d                                    	retw.n

100022e0 <com_idma_get_status>:
100022e0:	004136                                    	entry	a1, 32
100022e3:	fa8e21                                    	l32r	a2, 10000d1c (110040 <_memmap_mem_srom_end+0xf0040>)
100022e6:	406220                                    	rer	a2, a2
100022e9:	242020                                    	extui	a2, a2, 0, 3
100022ec:	f01d                                    	retw.n

100022ee <com_idma_get_status+0xe>:
	...

100022f0 <com_idma_get_last_errcode>:
100022f0:	004136                                    	entry	a1, 32
100022f3:	fa8931                                    	l32r	a3, 10000d18 (10024468 <g_idma_last_err>)
100022f6:	040c                                    	movi.n	a4, 0
100022f8:	0328                                    	l32i.n	a2, a3, 0
100022fa:	0349                                    	s32i.n	a4, a3, 0
100022fc:	f01d                                    	retw.n

100022fe <com_idma_get_last_errcode+0xe>:
	...

10002300 <com_idma_wait_done>:
10002300:	006136                                    	entry	a1, 48
10002303:	0f0c                                    	movi.n	a15, 0
10002305:	fa8121                                    	l32r	a2, 10000d0c (110014 <_memmap_mem_srom_end+0xf0014>)
10002308:	31f9                                    	s32i.n	a15, a1, 12
1000230a:	098176                                    	loop	a1, 10002317 <com_idma_wait_done+0x17>

1000230d <com_idma_wait_done+0xd>:
1000230d:	406230                                    	rer	a3, a2
10002310:	3139                                    	s32i.n	a3, a1, 12
10002312:	3138                                    	l32i.n	a3, a1, 12
10002314:	026307                                    	bbci	a3, 0, 1000231a <com_idma_wait_done+0x1a>

10002317 <com_idma_wait_done+0x17>:
10002317:	fffc86                                    	j	1000230d <com_idma_wait_done+0xd>

1000231a <com_idma_wait_done+0x1a>:
1000231a:	fa7f21                                    	l32r	a2, 10000d18 (10024468 <g_idma_last_err>)
1000231d:	0228                                    	l32i.n	a2, a2, 0
1000231f:	f01d                                    	retw.n

10002321 <com_idma_wait_done+0x21>:
10002321:	000000                                        ...

10002324 <com_idma_trans_1d>:
10002324:	006136                                    	entry	a1, 48
10002327:	fa7e61                                    	l32r	a6, 10000d20 (10024030 <g_idma_desc2d>)
1000232a:	080c                                    	movi.n	a8, 0
1000232c:	fa7871                                    	l32r	a7, 10000d0c (110014 <_memmap_mem_srom_end+0xf0014>)
1000232f:	fa7df1                                    	l32r	a15, 10000d24 (80000003 <_memmap_cacheattr_bp_allvalid+0x3bbbbbbf>)
10002332:	6689                                    	s32i.n	a8, a6, 24
10002334:	06f9                                    	s32i.n	a15, a6, 0
10002336:	4689                                    	s32i.n	a8, a6, 16
10002338:	5689                                    	s32i.n	a8, a6, 20
1000233a:	7689                                    	s32i.n	a8, a6, 28
1000233c:	1639                                    	s32i.n	a3, a6, 4
1000233e:	2629                                    	s32i.n	a2, a6, 8
10002340:	3649                                    	s32i.n	a4, a6, 12
10002342:	036182                                    	s32i	a8, a1, 12
10002345:	098176                                    	loop	a1, 10002352 <com_idma_trans_1d+0x2e>

10002348 <com_idma_trans_1d+0x24>:
10002348:	406720                                    	rer	a2, a7
1000234b:	3129                                    	s32i.n	a2, a1, 12
1000234d:	3128                                    	l32i.n	a2, a1, 12
1000234f:	026207                                    	bbci	a2, 0, 10002355 <com_idma_trans_1d+0x31>

10002352 <com_idma_trans_1d+0x2e>:
10002352:	fffc86                                    	j	10002348 <com_idma_trans_1d+0x24>

10002355 <com_idma_trans_1d+0x31>:
10002355:	fa6c41                                    	l32r	a4, 10000d08 (100254ac <g_idma_que_task>)
10002358:	fa7021                                    	l32r	a2, 10000d18 (10024468 <g_idma_last_err>)
1000235b:	fa7331                                    	l32r	a3, 10000d28 (11111111 <__stack+0x10d1111>)
1000235e:	fa7381                                    	l32r	a8, 10000d2c (110008 <_memmap_mem_srom_end+0xf0008>)
10002361:	0239                                    	s32i.n	a3, a2, 0
10002363:	0459                                    	s32i.n	a5, a4, 0
10002365:	407860                                    	wer	a6, a8
10002368:	121c                                    	movi.n	a2, 17
1000236a:	112200                                    	slli	a2, a2, 16
1000236d:	8ca032                                    	movi	a3, 140
10002370:	407230                                    	wer	a3, a2
10002373:	120c                                    	movi.n	a2, 1
10002375:	407720                                    	wer	a2, a7
10002378:	fa6e31                                    	l32r	a3, 10000d30 (110010 <_memmap_mem_srom_end+0xf0010>)
1000237b:	407320                                    	wer	a2, a3
1000237e:	f01d                                    	retw.n

10002380 <com_idma_trans_desc>:
10002380:	006136                                    	entry	a1, 48
10002383:	0f0c                                    	movi.n	a15, 0
10002385:	fa6151                                    	l32r	a5, 10000d0c (110014 <_memmap_mem_srom_end+0xf0014>)
10002388:	31f9                                    	s32i.n	a15, a1, 12
1000238a:	098176                                    	loop	a1, 10002397 <com_idma_trans_desc+0x17>

1000238d <com_idma_trans_desc+0xd>:
1000238d:	406560                                    	rer	a6, a5
10002390:	3169                                    	s32i.n	a6, a1, 12
10002392:	3168                                    	l32i.n	a6, a1, 12
10002394:	026607                                    	bbci	a6, 0, 1000239a <com_idma_trans_desc+0x1a>

10002397 <com_idma_trans_desc+0x17>:
10002397:	fffc86                                    	j	1000238d <com_idma_trans_desc+0xd>

1000239a <com_idma_trans_desc+0x1a>:
1000239a:	fa5b81                                    	l32r	a8, 10000d08 (100254ac <g_idma_que_task>)
1000239d:	fa5e61                                    	l32r	a6, 10000d18 (10024468 <g_idma_last_err>)
100023a0:	fa6271                                    	l32r	a7, 10000d28 (11111111 <__stack+0x10d1111>)
100023a3:	fa6291                                    	l32r	a9, 10000d2c (110008 <_memmap_mem_srom_end+0xf0008>)
100023a6:	0679                                    	s32i.n	a7, a6, 0
100023a8:	0849                                    	s32i.n	a4, a8, 0
100023aa:	407920                                    	wer	a2, a9
100023ad:	121c                                    	movi.n	a2, 17
100023af:	112200                                    	slli	a2, a2, 16
100023b2:	8ca042                                    	movi	a4, 140
100023b5:	407240                                    	wer	a4, a2
100023b8:	120c                                    	movi.n	a2, 1
100023ba:	407520                                    	wer	a2, a5
100023bd:	fa5c21                                    	l32r	a2, 10000d30 (110010 <_memmap_mem_srom_end+0xf0010>)
100023c0:	407230                                    	wer	a3, a2
100023c3:	f01d                                    	retw.n

100023c5 <com_idma_trans_desc+0x45>:
100023c5:	000000                                        ...

100023c8 <com_idma_trans_2d>:
100023c8:	006136                                    	entry	a1, 48
100023cb:	fa5581                                    	l32r	a8, 10000d20 (10024030 <g_idma_desc2d>)
100023ce:	fa59f1                                    	l32r	a15, 10000d34 (80000007 <_memmap_cacheattr_bp_allvalid+0x3bbbbbc3>)
100023d1:	0b0c                                    	movi.n	a11, 0
100023d3:	fa4ea1                                    	l32r	a10, 10000d0c (110014 <_memmap_mem_srom_end+0xf0014>)
100023d6:	c198                                    	l32i.n	a9, a1, 48
100023d8:	78b9                                    	s32i.n	a11, a8, 28
100023da:	08f9                                    	s32i.n	a15, a8, 0
100023dc:	1839                                    	s32i.n	a3, a8, 4
100023de:	2829                                    	s32i.n	a2, a8, 8
100023e0:	3849                                    	s32i.n	a4, a8, 12
100023e2:	6859                                    	s32i.n	a5, a8, 24
100023e4:	4869                                    	s32i.n	a6, a8, 16
100023e6:	5879                                    	s32i.n	a7, a8, 20
100023e8:	31b9                                    	s32i.n	a11, a1, 12
100023ea:	098176                                    	loop	a1, 100023f7 <com_idma_trans_2d+0x2f>

100023ed <com_idma_trans_2d+0x25>:
100023ed:	406a20                                    	rer	a2, a10
100023f0:	3129                                    	s32i.n	a2, a1, 12
100023f2:	3128                                    	l32i.n	a2, a1, 12
100023f4:	026207                                    	bbci	a2, 0, 100023fa <com_idma_trans_2d+0x32>

100023f7 <com_idma_trans_2d+0x2f>:
100023f7:	fffc86                                    	j	100023ed <com_idma_trans_2d+0x25>

100023fa <com_idma_trans_2d+0x32>:
100023fa:	fa4341                                    	l32r	a4, 10000d08 (100254ac <g_idma_que_task>)
100023fd:	fa4621                                    	l32r	a2, 10000d18 (10024468 <g_idma_last_err>)
10002400:	fa4a31                                    	l32r	a3, 10000d28 (11111111 <__stack+0x10d1111>)
10002403:	fa4a51                                    	l32r	a5, 10000d2c (110008 <_memmap_mem_srom_end+0xf0008>)
10002406:	0239                                    	s32i.n	a3, a2, 0
10002408:	0499                                    	s32i.n	a9, a4, 0
1000240a:	407580                                    	wer	a8, a5
1000240d:	121c                                    	movi.n	a2, 17
1000240f:	112200                                    	slli	a2, a2, 16
10002412:	8ca032                                    	movi	a3, 140
10002415:	407230                                    	wer	a3, a2
10002418:	120c                                    	movi.n	a2, 1
1000241a:	407a20                                    	wer	a2, a10
1000241d:	fa4431                                    	l32r	a3, 10000d30 (110010 <_memmap_mem_srom_end+0xf0010>)
10002420:	407320                                    	wer	a2, a3
10002423:	f01d                                    	retw.n

10002425 <com_idma_trans_2d+0x5d>:
10002425:	000000                                        ...

10002428 <com_idma_broadcast>:
10002428:	006136                                    	entry	a1, 48
1000242b:	fa3d81                                    	l32r	a8, 10000d20 (10024030 <g_idma_desc2d>)
1000242e:	0a0c                                    	movi.n	a10, 0
10002430:	fa41f1                                    	l32r	a15, 10000d34 (80000007 <_memmap_cacheattr_bp_allvalid+0x3bbbbbc3>)
10002433:	fa3691                                    	l32r	a9, 10000d0c (110014 <_memmap_mem_srom_end+0xf0014>)
10002436:	78a9                                    	s32i.n	a10, a8, 28
10002438:	08f9                                    	s32i.n	a15, a8, 0
1000243a:	1839                                    	s32i.n	a3, a8, 4
1000243c:	2829                                    	s32i.n	a2, a8, 8
1000243e:	3849                                    	s32i.n	a4, a8, 12
10002440:	6859                                    	s32i.n	a5, a8, 24
10002442:	48a9                                    	s32i.n	a10, a8, 16
10002444:	5869                                    	s32i.n	a6, a8, 20
10002446:	0361a2                                    	s32i	a10, a1, 12
10002449:	098176                                    	loop	a1, 10002456 <com_idma_broadcast+0x2e>

1000244c <com_idma_broadcast+0x24>:
1000244c:	406920                                    	rer	a2, a9
1000244f:	3129                                    	s32i.n	a2, a1, 12
10002451:	3128                                    	l32i.n	a2, a1, 12
10002453:	026207                                    	bbci	a2, 0, 10002459 <com_idma_broadcast+0x31>

10002456 <com_idma_broadcast+0x2e>:
10002456:	fffc86                                    	j	1000244c <com_idma_broadcast+0x24>

10002459 <com_idma_broadcast+0x31>:
10002459:	fa2b41                                    	l32r	a4, 10000d08 (100254ac <g_idma_que_task>)
1000245c:	fa2f21                                    	l32r	a2, 10000d18 (10024468 <g_idma_last_err>)
1000245f:	fa3231                                    	l32r	a3, 10000d28 (11111111 <__stack+0x10d1111>)
10002462:	fa3251                                    	l32r	a5, 10000d2c (110008 <_memmap_mem_srom_end+0xf0008>)
10002465:	0239                                    	s32i.n	a3, a2, 0
10002467:	0479                                    	s32i.n	a7, a4, 0
10002469:	407580                                    	wer	a8, a5
1000246c:	121c                                    	movi.n	a2, 17
1000246e:	112200                                    	slli	a2, a2, 16
10002471:	8ca032                                    	movi	a3, 140
10002474:	407230                                    	wer	a3, a2
10002477:	120c                                    	movi.n	a2, 1
10002479:	407920                                    	wer	a2, a9
1000247c:	fa2d31                                    	l32r	a3, 10000d30 (110010 <_memmap_mem_srom_end+0xf0010>)
1000247f:	407320                                    	wer	a2, a3
10002482:	f01d                                    	retw.n

10002484 <com_idma_memcpy>:
10002484:	006136                                    	entry	a1, 48
10002487:	fa2c51                                    	l32r	a5, 10000d38 (10024050 <g_idma_desc_memcpy>)
1000248a:	360c                                    	movi.n	a6, 3
1000248c:	1539                                    	s32i.n	a3, a5, 4
1000248e:	0f0c                                    	movi.n	a15, 0
10002490:	fa2b31                                    	l32r	a3, 10000d3c (11000c <_memmap_mem_srom_end+0xf000c>)
10002493:	2529                                    	s32i.n	a2, a5, 8
10002495:	ffa022                                    	movi	a2, 255
10002498:	0569                                    	s32i.n	a6, a5, 0
1000249a:	3549                                    	s32i.n	a4, a5, 12
1000249c:	21f9                                    	s32i.n	a15, a1, 8
1000249e:	098176                                    	loop	a1, 100024ab <com_idma_memcpy+0x27>

100024a1 <com_idma_memcpy+0x1d>:
100024a1:	406340                                    	rer	a4, a3
100024a4:	2149                                    	s32i.n	a4, a1, 8
100024a6:	2148                                    	l32i.n	a4, a1, 8
100024a8:	040247                                    	bnone	a2, a4, 100024b0 <com_idma_memcpy+0x2c>

100024ab <com_idma_memcpy+0x27>:
100024ab:	fffc86                                    	j	100024a1 <com_idma_memcpy+0x1d>

100024ae <com_idma_memcpy+0x2a>:
	...

100024b0 <com_idma_memcpy+0x2c>:
100024b0:	fa1f21                                    	l32r	a2, 10000d2c (110008 <_memmap_mem_srom_end+0xf0008>)
100024b3:	407250                                    	wer	a5, a2
100024b6:	121c                                    	movi.n	a2, 17
100024b8:	112200                                    	slli	a2, a2, 16
100024bb:	8ca042                                    	movi	a4, 140
100024be:	407240                                    	wer	a4, a2
100024c1:	fa1221                                    	l32r	a2, 10000d0c (110014 <_memmap_mem_srom_end+0xf0014>)
100024c4:	140c                                    	movi.n	a4, 1
100024c6:	407240                                    	wer	a4, a2
100024c9:	fa1951                                    	l32r	a5, 10000d30 (110010 <_memmap_mem_srom_end+0xf0010>)
100024cc:	407540                                    	wer	a4, a5
100024cf:	0f0c                                    	movi.n	a15, 0
100024d1:	ffa042                                    	movi	a4, 255
100024d4:	31f9                                    	s32i.n	a15, a1, 12
100024d6:	098176                                    	loop	a1, 100024e3 <com_idma_memcpy+0x5f>
100024d9:	406350                                    	rer	a5, a3
100024dc:	3159                                    	s32i.n	a5, a1, 12
100024de:	3158                                    	l32i.n	a5, a1, 12
100024e0:	020457                                    	bnone	a4, a5, 100024e6 <com_idma_memcpy+0x62>

100024e3 <com_idma_memcpy+0x5f>:
100024e3:	fffc86                                    	j	100024d9 <com_idma_memcpy+0x55>

100024e6 <com_idma_memcpy+0x62>:
100024e6:	fa0d31                                    	l32r	a3, 10000d1c (110040 <_memmap_mem_srom_end+0xf0040>)
100024e9:	406340                                    	rer	a4, a3
100024ec:	160c                                    	movi.n	a6, 1
100024ee:	fa0a31                                    	l32r	a3, 10000d18 (10024468 <g_idma_last_err>)
100024f1:	d55240                                    	extui	a5, a4, 18, 14
100024f4:	0166e0                                    	slli	a6, a6, 18
100024f7:	0359                                    	s32i.n	a5, a3, 0
100024f9:	2e3467                                    	bltu	a4, a6, 1000252b <com_idma_memcpy+0xa7>
100024fc:	39a2a2                                    	movi	a10, 0x239
100024ff:	feed65                                    	call8	100013d4 <com_isr_interrupt_disable>
10002502:	38a2a2                                    	movi	a10, 0x238
10002505:	feece5                                    	call8	100013d4 <com_isr_interrupt_disable>
10002508:	fa0041                                    	l32r	a4, 10000d08 (100254ac <g_idma_que_task>)
1000250b:	050c                                    	movi.n	a5, 0
1000250d:	260c                                    	movi.n	a6, 2
1000250f:	0459                                    	s32i.n	a5, a4, 0
10002511:	407260                                    	wer	a6, a2
10002514:	407250                                    	wer	a5, a2
10002517:	1458                                    	l32i.n	a5, a4, 4
10002519:	39a2a2                                    	movi	a10, 0x239
1000251c:	158c                                    	beqz.n	a5, 10002521 <com_idma_memcpy+0x9d>
1000251e:	fee265                                    	call8	10001344 <com_isr_interrupt_enable>
10002521:	2448                                    	l32i.n	a4, a4, 8
10002523:	38a2a2                                    	movi	a10, 0x238
10002526:	148c                                    	beqz.n	a4, 1000252b <com_idma_memcpy+0xa7>
10002528:	fee1a5                                    	call8	10001344 <com_isr_interrupt_enable>
1000252b:	040c                                    	movi.n	a4, 0
1000252d:	407240                                    	wer	a4, a2
10002530:	0328                                    	l32i.n	a2, a3, 0
10002532:	f01d                                    	retw.n

10002534 <com_idma_memcpy+0xb0>:
	...

10002540 <sys_clk_khz_get>:
10002540:	004136                                    	entry	a1, 32
10002543:	0228                                    	l32i.n	a2, a2, 0
10002545:	f9c031                                    	l32r	a3, 10000c48 (10020000 <com_static_data_init>)
10002548:	742020                                    	extui	a2, a2, 0, 8
1000254b:	a02230                                    	addx4	a2, a2, a3
1000254e:	0c0242                                    	l8ui	a4, a2, 12
10002551:	de2c                                    	movi.n	a14, 45
10002553:	ff0c                                    	movi.n	a15, 15
10002555:	113e10                                    	slli	a3, a14, 15
10002558:	112f00                                    	slli	a2, a15, 16
1000255b:	044040                                    	extui	a4, a4, 0, 1
1000255e:	932340                                    	movnez	a2, a3, a4
10002561:	f01d                                    	retw.n

10002563 <sys_clk_khz_get+0x23>:
	...

10002564 <com_vha_nco_cfg>:
10002564:	00a136                                    	entry	a1, 80
10002567:	02f8                                    	l32i.n	a15, a2, 0
10002569:	f9b841                                    	l32r	a4, 10000c4c (10020314 <rx_static_data_init>)
1000256c:	026d                                    	mov.n	a6, a2
1000256e:	2428f0                                    	extui	a2, a15, 8, 3
10002571:	242a                                    	add.n	a2, a4, a2
10002573:	3c0222                                    	l8ui	a2, a2, 60
10002576:	2688                                    	l32i.n	a8, a6, 8
10002578:	02e217                                    	bbsi	a2, 1, 1000257e <com_vha_nco_cfg+0x1a>
1000257b:	009ec6                                    	j	100027fa <com_vha_nco_cfg+0x296>
1000257e:	f9b2d1                                    	l32r	a13, 10000c48 (10020000 <com_static_data_init>)
10002581:	344080                                    	extui	a4, a8, 0, 4
10002584:	a044d0                                    	addx4	a4, a4, a13
10002587:	12c442                                    	addi	a4, a4, 18
1000258a:	ff1442                                    	l16ui	a4, a4, 0x1fe
1000258d:	0658                                    	l32i.n	a5, a6, 0
1000258f:	037d                                    	mov.n	a7, a3
10002591:	745050                                    	extui	a5, a5, 0, 8
10002594:	a035d0                                    	addx4	a3, a5, a13
10002597:	0c0332                                    	l8ui	a3, a3, 12
1000259a:	f90c                                    	movi.n	a9, 15
1000259c:	fa7c                                    	movi.n	a10, -1
1000259e:	de2c                                    	movi.n	a14, 45
100025a0:	41fd40                                    	srli	a15, a4, 13
100025a3:	115e10                                    	slli	a5, a14, 15
100025a6:	119900                                    	slli	a9, a9, 16
100025a9:	043030                                    	extui	a3, a3, 0, 1
100025ac:	41a8a0                                    	srli	a10, a10, 8
100025af:	412580                                    	srli	a2, a8, 5
100025b2:	939530                                    	movnez	a9, a5, a3
100025b5:	41f9                                    	s32i.n	a15, a1, 16
100025b7:	028a27                                    	bany	a10, a2, 100025bd <com_vha_nco_cfg+0x59>
100025ba:	003d86                                    	j	100026b4 <com_vha_nco_cfg+0x150>
100025bd:	1638                                    	l32i.n	a3, a6, 4
100025bf:	1022a0                                    	and	a2, a2, a10
100025c2:	1033a0                                    	and	a3, a3, a10
100025c5:	c0e320                                    	sub	a14, a3, a2
100025c8:	b169                                    	s32i.n	a6, a1, 44
100025ca:	a179                                    	s32i.n	a7, a1, 40
100025cc:	b7f8                                    	l32i.n	a15, a7, 44
100025ce:	60a1e0                                    	abs	a10, a14
100025d1:	71f9                                    	s32i.n	a15, a1, 28
100025d3:	81e9                                    	s32i.n	a14, a1, 32
100025d5:	092d                                    	mov.n	a2, a9
100025d7:	0328a5                                    	call8	10005860 <__floatunsidf>
100025da:	0a3d                                    	mov.n	a3, a10
100025dc:	02ad                                    	mov.n	a10, a2
100025de:	0b5d                                    	mov.n	a5, a11
100025e0:	9129                                    	s32i.n	a2, a1, 36
100025e2:	0327e5                                    	call8	10005860 <__floatunsidf>
100025e5:	0acd                                    	mov.n	a12, a10
100025e7:	0bdd                                    	mov.n	a13, a11
100025e9:	03ad                                    	mov.n	a10, a3
100025eb:	05bd                                    	mov.n	a11, a5
100025ed:	023f25                                    	call8	100049e0 <__divdf3>
100025f0:	0a3d                                    	mov.n	a3, a10
100025f2:	41a8                                    	l32i.n	a10, a1, 16
100025f4:	0b5d                                    	mov.n	a5, a11
100025f6:	0326a5                                    	call8	10005860 <__floatunsidf>
100025f9:	0acd                                    	mov.n	a12, a10
100025fb:	0bdd                                    	mov.n	a13, a11
100025fd:	03ad                                    	mov.n	a10, a3
100025ff:	05bd                                    	mov.n	a11, a5
10002601:	023de5                                    	call8	100049e0 <__divdf3>
10002604:	25a4d2                                    	movi	a13, 0x425
10002607:	01ddc0                                    	slli	a13, a13, 20
1000260a:	0c0c                                    	movi.n	a12, 0
1000260c:	070c                                    	movi.n	a7, 0
1000260e:	01f1e5                                    	call8	1000452c <__muldf3>
10002611:	020c65                                    	call8	100046d8 <__fixunsdfdi>
10002614:	41c8                                    	l32i.n	a12, a1, 16
10002616:	61a9                                    	s32i.n	a10, a1, 24
10002618:	51b9                                    	s32i.n	a11, a1, 20
1000261a:	ecbc                                    	beqz.n	a12, 1000265c <com_vha_nco_cfg+0xf8>
1000261c:	0d0c                                    	movi.n	a13, 0
1000261e:	61a8                                    	l32i.n	a10, a1, 24
10002620:	51b8                                    	l32i.n	a11, a1, 20
10002622:	0421c2                                    	l32i	a12, a1, 16
10002625:	021465                                    	call8	1000476c <__udivdi3>
10002628:	41f8                                    	l32i.n	a15, a1, 16
1000262a:	7128                                    	l32i.n	a2, a1, 28
1000262c:	0a5d                                    	mov.n	a5, a10
1000262e:	0b3d                                    	mov.n	a3, a11
10002630:	6f0b                                    	addi.n	a6, a15, -1
10002632:	c0af42                                    	movi	a4, -64

10002635 <com_vha_nco_cfg+0xd1>:
10002635:	31df60                                    	srai	a13, a6, 31
10002638:	05ad                                    	mov.n	a10, a5
1000263a:	03bd                                    	mov.n	a11, a3
1000263c:	20c660                                    	or	a12, a6, a6
1000263f:	021125                                    	call8	10004750 <__muldi3>
10002642:	41c8                                    	l32i.n	a12, a1, 16
10002644:	0288                                    	l32i.n	a8, a2, 0
10002646:	5490b0                                    	extui	a9, a11, 0, 6
10002649:	108840                                    	and	a8, a8, a4
1000264c:	898a                                    	add.n	a8, a9, a8
1000264e:	771b                                    	addi.n	a7, a7, 1
10002650:	0289                                    	s32i.n	a8, a2, 0
10002652:	8062a2                                    	s32i	a10, a2, 0x200
10002655:	660b                                    	addi.n	a6, a6, -1
10002657:	224b                                    	addi.n	a2, a2, 4
10002659:	d897c7                                    	bne	a7, a12, 10002635 <com_vha_nco_cfg+0xd1>
1000265c:	7168                                    	l32i.n	a6, a1, 28
1000265e:	c0af42                                    	movi	a4, -64
10002661:	04d622                                    	addmi	a2, a6, 0x400
10002664:	0238                                    	l32i.n	a3, a2, 0
10002666:	5158                                    	l32i.n	a5, a1, 20
10002668:	103340                                    	and	a3, a3, a4
1000266b:	545050                                    	extui	a5, a5, 0, 6
1000266e:	335a                                    	add.n	a3, a3, a5
10002670:	0239                                    	s32i.n	a3, a2, 0
10002672:	6138                                    	l32i.n	a3, a1, 24
10002674:	04d662                                    	addmi	a6, a6, 0x400
10002677:	8239                                    	s32i.n	a3, a2, 32
10002679:	401c00                                    	ssl	a12
1000267c:	fb7c                                    	movi.n	a11, -1
1000267e:	fc7c                                    	movi.n	a12, -1
10002680:	202632                                    	l32i	a3, a6, 128
10002683:	11dc00                                    	slli	a13, a12, 16
10002686:	a1eb00                                    	sll	a14, a11
10002689:	ff7c                                    	movi.n	a15, -1
1000268b:	f420e0                                    	extui	a2, a14, 0, 16
1000268e:	1033d0                                    	and	a3, a3, a13
10002691:	f440f0                                    	extui	a4, a15, 0, 16
10002694:	232a                                    	add.n	a2, a3, a2
10002696:	302240                                    	xor	a2, a2, a4
10002699:	81c8                                    	l32i.n	a12, a1, 32
1000269b:	206622                                    	s32i	a2, a6, 128
1000269e:	fa7c                                    	movi.n	a10, -1
100026a0:	180c                                    	movi.n	a8, 1
100026a2:	550c                                    	movi.n	a5, 5
100026a4:	b168                                    	l32i.n	a6, a1, 44
100026a6:	a178                                    	l32i.n	a7, a1, 40
100026a8:	9198                                    	l32i.n	a9, a1, 36
100026aa:	b358c0                                    	movgez	a5, a8, a12
100026ad:	41a8a0                                    	srli	a10, a10, 8
100026b0:	000186                                    	j	100026ba <com_vha_nco_cfg+0x156>

100026b3 <com_vha_nco_cfg+0x14f>:
	...

100026b4 <com_vha_nco_cfg+0x150>:
100026b4:	050c                                    	movi.n	a5, 0
100026b6:	080c                                    	movi.n	a8, 0
100026b8:	0c0c                                    	movi.n	a12, 0
100026ba:	3628                                    	l32i.n	a2, a6, 12
100026bc:	05bd                                    	mov.n	a11, a5
100026be:	028a27                                    	bany	a10, a2, 100026c4 <com_vha_nco_cfg+0x160>
100026c1:	0044c6                                    	j	100027d8 <com_vha_nco_cfg+0x274>
100026c4:	1638                                    	l32i.n	a3, a6, 4
100026c6:	1022a0                                    	and	a2, a2, a10
100026c9:	1033a0                                    	and	a3, a3, a10
100026cc:	a40c                                    	movi.n	a4, 10
100026ce:	c02320                                    	sub	a2, a3, a2
100026d1:	2f0c                                    	movi.n	a15, 2
100026d3:	a3f420                                    	movltz	a15, a4, a2
100026d6:	20bf50                                    	or	a11, a15, a5
100026d9:	02e507                                    	bbsi	a5, 0, 100026df <com_vha_nco_cfg+0x17b>
100026dc:	003e06                                    	j	100027d8 <com_vha_nco_cfg+0x274>
100026df:	60a120                                    	abs	a10, a2
100026e2:	60f1c0                                    	abs	a15, a12
100026e5:	109af7                                    	bne	a10, a15, 100026f9 <com_vha_nco_cfg+0x195>
100026e8:	a21c                                    	movi.n	a2, 26
100026ea:	10cb32                                    	addi	a3, a11, 16
100026ed:	20b520                                    	or	a11, a5, a2
100026f0:	41f250                                    	srli	a15, a5, 2
100026f3:	93b3f0                                    	movnez	a11, a3, a15
100026f6:	003786                                    	j	100027d8 <com_vha_nco_cfg+0x274>

100026f9 <com_vha_nco_cfg+0x195>:
100026f9:	81b9                                    	s32i.n	a11, a1, 32
100026fb:	9189                                    	s32i.n	a8, a1, 36
100026fd:	b169                                    	s32i.n	a6, a1, 44
100026ff:	a179                                    	s32i.n	a7, a1, 40
10002701:	b7f8                                    	l32i.n	a15, a7, 44
10002703:	71f9                                    	s32i.n	a15, a1, 28
10002705:	092d                                    	mov.n	a2, a9
10002707:	0315a5                                    	call8	10005860 <__floatunsidf>
1000270a:	0a3d                                    	mov.n	a3, a10
1000270c:	20a220                                    	or	a10, a2, a2
1000270f:	205bb0                                    	or	a5, a11, a11
10002712:	0314e5                                    	call8	10005860 <__floatunsidf>
10002715:	0acd                                    	mov.n	a12, a10
10002717:	0bdd                                    	mov.n	a13, a11
10002719:	03ad                                    	mov.n	a10, a3
1000271b:	05bd                                    	mov.n	a11, a5
1000271d:	022c25                                    	call8	100049e0 <__divdf3>
10002720:	0a3d                                    	mov.n	a3, a10
10002722:	41a8                                    	l32i.n	a10, a1, 16
10002724:	0b5d                                    	mov.n	a5, a11
10002726:	0313a5                                    	call8	10005860 <__floatunsidf>
10002729:	0acd                                    	mov.n	a12, a10
1000272b:	0bdd                                    	mov.n	a13, a11
1000272d:	03ad                                    	mov.n	a10, a3
1000272f:	05bd                                    	mov.n	a11, a5
10002731:	022ae5                                    	call8	100049e0 <__divdf3>
10002734:	25a4d2                                    	movi	a13, 0x425
10002737:	01ddc0                                    	slli	a13, a13, 20
1000273a:	0c0c                                    	movi.n	a12, 0
1000273c:	060c                                    	movi.n	a6, 0
1000273e:	01dee5                                    	call8	1000452c <__muldf3>
10002741:	01f965                                    	call8	100046d8 <__fixunsdfdi>
10002744:	41c8                                    	l32i.n	a12, a1, 16
10002746:	61a9                                    	s32i.n	a10, a1, 24
10002748:	51b9                                    	s32i.n	a11, a1, 20
1000274a:	040c16                                    	beqz	a12, 1000278e <com_vha_nco_cfg+0x22a>
1000274d:	0d0c                                    	movi.n	a13, 0
1000274f:	61a8                                    	l32i.n	a10, a1, 24
10002751:	51b8                                    	l32i.n	a11, a1, 20
10002753:	41c8                                    	l32i.n	a12, a1, 16
10002755:	020165                                    	call8	1000476c <__udivdi3>
10002758:	41f8                                    	l32i.n	a15, a1, 16
1000275a:	7128                                    	l32i.n	a2, a1, 28
1000275c:	0a3d                                    	mov.n	a3, a10
1000275e:	0b7d                                    	mov.n	a7, a11
10002760:	5f0b                                    	addi.n	a5, a15, -1
10002762:	c0af42                                    	movi	a4, -64
10002765:	31df50                                    	srai	a13, a5, 31
10002768:	03ad                                    	mov.n	a10, a3
1000276a:	07bd                                    	mov.n	a11, a7
1000276c:	20c550                                    	or	a12, a5, a5
1000276f:	01fe25                                    	call8	10004750 <__muldi3>
10002772:	41c8                                    	l32i.n	a12, a1, 16
10002774:	102282                                    	l32i	a8, a2, 64
10002777:	5490b0                                    	extui	a9, a11, 0, 6
1000277a:	108840                                    	and	a8, a8, a4
1000277d:	898a                                    	add.n	a8, a9, a8
1000277f:	661b                                    	addi.n	a6, a6, 1
10002781:	106282                                    	s32i	a8, a2, 64
10002784:	9062a2                                    	s32i	a10, a2, 0x240
10002787:	550b                                    	addi.n	a5, a5, -1
10002789:	224b                                    	addi.n	a2, a2, 4
1000278b:	d696c7                                    	bne	a6, a12, 10002765 <com_vha_nco_cfg+0x201>
1000278e:	71a8                                    	l32i.n	a10, a1, 28
10002790:	5138                                    	l32i.n	a3, a1, 20
10002792:	04da22                                    	addmi	a2, a10, 0x400
10002795:	1258                                    	l32i.n	a5, a2, 4
10002797:	c0af42                                    	movi	a4, -64
1000279a:	543030                                    	extui	a3, a3, 0, 6
1000279d:	104540                                    	and	a4, a5, a4
100027a0:	343a                                    	add.n	a3, a4, a3
100027a2:	1239                                    	s32i.n	a3, a2, 4
100027a4:	6138                                    	l32i.n	a3, a1, 24
100027a6:	401c00                                    	ssl	a12
100027a9:	9239                                    	s32i.n	a3, a2, 36
100027ab:	fb7c                                    	movi.n	a11, -1
100027ad:	fd7c                                    	movi.n	a13, -1
100027af:	212232                                    	l32i	a3, a2, 132
100027b2:	04dac2                                    	addmi	a12, a10, 0x400
100027b5:	114d00                                    	slli	a4, a13, 16
100027b8:	a1eb00                                    	sll	a14, a11
100027bb:	f420e0                                    	extui	a2, a14, 0, 16
100027be:	103340                                    	and	a3, a3, a4
100027c1:	ff7c                                    	movi.n	a15, -1
100027c3:	f440f0                                    	extui	a4, a15, 0, 16
100027c6:	232a                                    	add.n	a2, a3, a2
100027c8:	302240                                    	xor	a2, a2, a4
100027cb:	9188                                    	l32i.n	a8, a1, 36
100027cd:	216c22                                    	s32i	a2, a12, 132
100027d0:	b168                                    	l32i.n	a6, a1, 44
100027d2:	a178                                    	l32i.n	a7, a1, 40
100027d4:	81b8                                    	l32i.n	a11, a1, 32
100027d6:	882b                                    	addi.n	a8, a8, 2
100027d8:	b728                                    	l32i.n	a2, a7, 44
100027da:	c0af42                                    	movi	a4, -64
100027dd:	04d222                                    	addmi	a2, a2, 0x400
100027e0:	2a2232                                    	l32i	a3, a2, 168
100027e3:	f957e1                                    	l32r	a14, 10000d40 (e0ffffff <xthals_hw_configid0+0x20ff6d79>)
100027e6:	103340                                    	and	a3, a3, a4
100027e9:	338a                                    	add.n	a3, a3, a8
100027eb:	2a6232                                    	s32i	a3, a2, 168
100027ee:	3638                                    	l32i.n	a3, a6, 12
100027f0:	01fb80                                    	slli	a15, a11, 24
100027f3:	1023e0                                    	and	a2, a3, a14
100027f6:	22fa                                    	add.n	a2, a2, a15
100027f8:	3629                                    	s32i.n	a2, a6, 12
100027fa:	f01d                                    	retw.n

100027fc <com_vha_mix_cfg>:
100027fc:	004136                                    	entry	a1, 32
100027ff:	a04440                                    	addx4	a4, a4, a4
10002802:	a03430                                    	addx4	a3, a4, a3
10002805:	2338                                    	l32i.n	a3, a3, 8
10002807:	0f0222                                    	l8ui	a2, a2, 15
1000280a:	442020                                    	extui	a2, a2, 0, 5
1000280d:	1329                                    	s32i.n	a2, a3, 4
1000280f:	f01d                                    	retw.n

10002811 <com_vha_mix_cfg+0x15>:
10002811:	000000                                        ...

10002814 <com_sys_swg_cfg>:
10002814:	014136                                    	entry	a1, 160
10002817:	f94b51                                    	l32r	a5, 10000d44 (10024610 <rx_daco>)
1000281a:	f04220                                    	subx8	a4, a2, a2
1000281d:	a04450                                    	addx4	a4, a4, a5
10002820:	e92442                                    	l32i	a4, a4, 0x3a4
10002823:	5149                                    	s32i.n	a4, a1, 20
10002825:	353316                                    	beqz	a3, 10002b7c <com_sys_swg_cfg+0x368>
10002828:	51b8                                    	l32i.n	a11, a1, 20
1000282a:	f907f1                                    	l32r	a15, 10000c48 (10020000 <com_static_data_init>)
1000282d:	40a342                                    	movi	a4, 0x340
10002830:	c0a052                                    	movi	a5, 192
10002833:	c0a262                                    	movi	a6, 0x2c0
10002836:	80a072                                    	movi	a7, 128
10002839:	80a282                                    	movi	a8, 0x280
1000283c:	11c2f0                                    	slli	a12, a2, 1
1000283f:	40a122                                    	movi	a2, 0x140
10002842:	01dba2                                    	addmi	a10, a11, 0x100
10002845:	40a2e2                                    	movi	a14, 0x240
10002848:	d1a9                                    	s32i.n	a10, a1, 52
1000284a:	03dbd2                                    	addmi	a13, a11, 0x300
1000284d:	40cb92                                    	addi	a9, a11, 64
10002850:	02dba2                                    	addmi	a10, a11, 0x200
10002853:	2b2a                                    	add.n	a2, a11, a2
10002855:	4b4a                                    	add.n	a4, a11, a4
10002857:	5b5a                                    	add.n	a5, a11, a5
10002859:	6b6a                                    	add.n	a6, a11, a6
1000285b:	7b7a                                    	add.n	a7, a11, a7
1000285d:	8b8a                                    	add.n	a8, a11, a8
1000285f:	bbea                                    	add.n	a11, a11, a14
10002861:	efcb                                    	addi.n	a14, a15, 12
10002863:	ff7c                                    	movi.n	a15, -1
10002865:	c1d9                                    	s32i.n	a13, a1, 48
10002867:	166192                                    	s32i	a9, a1, 88
1000286a:	146142                                    	s32i	a4, a1, 80
1000286d:	136152                                    	s32i	a5, a1, 76
10002870:	126162                                    	s32i	a6, a1, 72
10002873:	a179                                    	s32i.n	a7, a1, 40
10002875:	9189                                    	s32i.n	a8, a1, 36
10002877:	b1a9                                    	s32i.n	a10, a1, 44
10002879:	0d0c                                    	movi.n	a13, 0
1000287b:	156122                                    	s32i	a2, a1, 84
1000287e:	1161b2                                    	s32i	a11, a1, 68
10002881:	1761e2                                    	s32i	a14, a1, 92
10002884:	240c                                    	movi.n	a4, 2
10002886:	08a452                                    	movi	a5, 0x408
10002889:	00a462                                    	movi	a6, 0x400
1000288c:	f80c                                    	movi.n	a8, 15
1000288e:	4198f0                                    	srli	a9, a15, 8
10002891:	070c                                    	movi.n	a7, 0
10002893:	002dc6                                    	j	1000294e <com_sys_swg_cfg+0x13a>

10002896 <com_sys_swg_cfg+0x82>:
10002896:	5148                                    	l32i.n	a4, a1, 20
10002898:	b178                                    	l32i.n	a7, a1, 44
1000289a:	120c                                    	movi.n	a2, 1
1000289c:	a12200                                    	sll	a2, a2
1000289f:	186122                                    	s32i	a2, a1, 96
100028a2:	ecbc                                    	beqz.n	a12, 100028e4 <com_sys_swg_cfg+0xd0>
100028a4:	0d0c                                    	movi.n	a13, 0
100028a6:	71a8                                    	l32i.n	a10, a1, 28
100028a8:	81b8                                    	l32i.n	a11, a1, 32
100028aa:	61c8                                    	l32i.n	a12, a1, 24
100028ac:	030c                                    	movi.n	a3, 0
100028ae:	01ebe5                                    	call8	1000476c <__udivdi3>
100028b1:	6128                                    	l32i.n	a2, a1, 24
100028b3:	0a5d                                    	mov.n	a5, a10
100028b5:	0b6d                                    	mov.n	a6, a11
100028b7:	220b                                    	addi.n	a2, a2, -1
100028b9:	31df20                                    	srai	a13, a2, 31
100028bc:	05ad                                    	mov.n	a10, a5
100028be:	06bd                                    	mov.n	a11, a6
100028c0:	20c220                                    	or	a12, a2, a2
100028c3:	01e8e5                                    	call8	10004750 <__muldi3>
100028c6:	0488                                    	l32i.n	a8, a4, 0
100028c8:	5490b0                                    	extui	a9, a11, 0, 6
100028cb:	c0afb2                                    	movi	a11, -64
100028ce:	1088b0                                    	and	a8, a8, a11
100028d1:	898a                                    	add.n	a8, a9, a8
100028d3:	0489                                    	s32i.n	a8, a4, 0
100028d5:	07a9                                    	s32i.n	a10, a7, 0
100028d7:	61f8                                    	l32i.n	a15, a1, 24
100028d9:	331b                                    	addi.n	a3, a3, 1
100028db:	220b                                    	addi.n	a2, a2, -1
100028dd:	774b                                    	addi.n	a7, a7, 4
100028df:	444b                                    	addi.n	a4, a4, 4
100028e1:	d493f7                                    	bne	a3, a15, 100028b9 <com_sys_swg_cfg+0xa5>
100028e4:	5128                                    	l32i.n	a2, a1, 20
100028e6:	1d2152                                    	l32i	a5, a1, 116
100028e9:	f97c                                    	movi.n	a9, -1
100028eb:	225a                                    	add.n	a2, a2, a5
100028ed:	0238                                    	l32i.n	a3, a2, 0
100028ef:	1a2142                                    	l32i	a4, a1, 104
100028f2:	1033b0                                    	and	a3, a3, a11
100028f5:	334a                                    	add.n	a3, a3, a4
100028f7:	0239                                    	s32i.n	a3, a2, 0
100028f9:	7138                                    	l32i.n	a3, a1, 28
100028fb:	8239                                    	s32i.n	a3, a2, 32
100028fd:	202232                                    	l32i	a3, a2, 128
10002900:	114900                                    	slli	a4, a9, 16
10002903:	1921a2                                    	l32i	a10, a1, 100
10002906:	103340                                    	and	a3, a3, a4
10002909:	fd7c                                    	movi.n	a13, -1
1000290b:	33aa                                    	add.n	a3, a3, a10
1000290d:	f4e0d0                                    	extui	a14, a13, 0, 16
10002910:	1f21b2                                    	l32i	a11, a1, 124
10002913:	1b2162                                    	l32i	a6, a1, 108
10002916:	3033e0                                    	xor	a3, a3, a14
10002919:	1821f2                                    	l32i	a15, a1, 96
1000291c:	206232                                    	s32i	a3, a2, 128
1000291f:	20cb60                                    	or	a12, a11, a6
10002922:	f97c                                    	movi.n	a9, -1
10002924:	207cf0                                    	or	a7, a12, a15
10002927:	1e21c2                                    	l32i	a12, a1, 120
1000292a:	1021d2                                    	l32i	a13, a1, 64
1000292d:	f148                                    	l32i.n	a4, a1, 60
1000292f:	e168                                    	l32i.n	a6, a1, 56
10002931:	1c21a2                                    	l32i	a10, a1, 112
10002934:	f80c                                    	movi.n	a8, 15
10002936:	419890                                    	srli	a9, a9, 8
10002939:	4134a0                                    	srli	a3, a10, 4
1000293c:	cc1b                                    	addi.n	a12, a12, 1
1000293e:	442b                                    	addi.n	a4, a4, 2
10002940:	dd1b                                    	addi.n	a13, a13, 1
10002942:	08c552                                    	addi	a5, a5, 8
10002945:	04c662                                    	addi	a6, a6, 4
10002948:	02baf6                                    	bgeui	a10, 16, 1000294e <com_sys_swg_cfg+0x13a>
1000294b:	006786                                    	j	10002aed <com_sys_swg_cfg+0x2d9>
1000294e:	03ad                                    	mov.n	a10, a3
10002950:	e50837                                    	bnone	a8, a3, 10002939 <com_sys_swg_cfg+0x125>
10002953:	7420c0                                    	extui	a2, a12, 0, 8
10002956:	f8fb31                                    	l32r	a3, 10000d44 (10024610 <rx_daco>)
10002959:	a02220                                    	addx4	a2, a2, a2
1000295c:	a03230                                    	addx4	a3, a2, a3
1000295f:	5328                                    	l32i.n	a2, a3, 20
10002961:	d40927                                    	bnone	a9, a2, 10002939 <com_sys_swg_cfg+0x125>
10002964:	1e61c2                                    	s32i	a12, a1, 120
10002967:	1c61a2                                    	s32i	a10, a1, 112
1000296a:	e169                                    	s32i.n	a6, a1, 56
1000296c:	1d6152                                    	s32i	a5, a1, 116
1000296f:	f149                                    	s32i.n	a4, a1, 60
10002971:	4328                                    	l32i.n	a2, a3, 16
10002973:	1721a2                                    	l32i	a10, a1, 92
10002976:	742020                                    	extui	a2, a2, 0, 8
10002979:	a022a0                                    	addx4	a2, a2, a10
1000297c:	02b8                                    	l32i.n	a11, a2, 0
1000297e:	4328                                    	l32i.n	a2, a3, 16
10002980:	fc0c                                    	movi.n	a12, 15
10002982:	742020                                    	extui	a2, a2, 0, 8
10002985:	a052a0                                    	addx4	a5, a2, a10
10002988:	0558                                    	l32i.n	a5, a5, 0
1000298a:	5338                                    	l32i.n	a3, a3, 20
1000298c:	df2c                                    	movi.n	a15, 45
1000298e:	10a390                                    	and	a10, a3, a9
10002991:	112c00                                    	slli	a2, a12, 16
10002994:	04e050                                    	extui	a14, a5, 0, 1
10002997:	113f10                                    	slli	a3, a15, 15
1000299a:	1f6172                                    	s32i	a7, a1, 124
1000299d:	3577b0                                    	extui	a7, a11, 23, 4
100029a0:	9323e0                                    	movnez	a2, a3, a14
100029a3:	1061d2                                    	s32i	a13, a1, 64
100029a6:	02eba5                                    	call8	10005860 <__floatunsidf>
100029a9:	0a6d                                    	mov.n	a6, a10
100029ab:	02ad                                    	mov.n	a10, a2
100029ad:	0b5d                                    	mov.n	a5, a11
100029af:	02eb25                                    	call8	10005860 <__floatunsidf>
100029b2:	0acd                                    	mov.n	a12, a10
100029b4:	0bdd                                    	mov.n	a13, a11
100029b6:	06ad                                    	mov.n	a10, a6
100029b8:	20b550                                    	or	a11, a5, a5
100029bb:	020265                                    	call8	100049e0 <__divdf3>
100029be:	0a2d                                    	mov.n	a2, a10
100029c0:	07ad                                    	mov.n	a10, a7
100029c2:	0b5d                                    	mov.n	a5, a11
100029c4:	6179                                    	s32i.n	a7, a1, 24
100029c6:	02e9a5                                    	call8	10005860 <__floatunsidf>
100029c9:	0acd                                    	mov.n	a12, a10
100029cb:	0bdd                                    	mov.n	a13, a11
100029cd:	02ad                                    	mov.n	a10, a2
100029cf:	05bd                                    	mov.n	a11, a5
100029d1:	0200e5                                    	call8	100049e0 <__divdf3>
100029d4:	25a4d2                                    	movi	a13, 0x425
100029d7:	0c0c                                    	movi.n	a12, 0
100029d9:	01ddc0                                    	slli	a13, a13, 20
100029dc:	050c                                    	movi.n	a5, 0
100029de:	01b4e5                                    	call8	1000452c <__muldf3>
100029e1:	01cf65                                    	call8	100046d8 <__fixunsdfdi>
100029e4:	102122                                    	l32i	a2, a1, 64
100029e7:	71a9                                    	s32i.n	a10, a1, 28
100029e9:	401200                                    	ssl	a2
100029ec:	742020                                    	extui	a2, a2, 0, 8
100029ef:	040c                                    	movi.n	a4, 0
100029f1:	81b9                                    	s32i.n	a11, a1, 32
100029f3:	3762f6                                    	bgeui	a2, 6, 10002a2e <com_sys_swg_cfg+0x21a>
100029f6:	f8d431                                    	l32r	a3, 10000d48 (100241f4 <__switchjump_table_xp_temp_3_0>)
100029f9:	152152                                    	l32i	a5, a1, 84
100029fc:	a02230                                    	addx4	a2, a2, a3
100029ff:	0228                                    	l32i.n	a2, a2, 0
10002a01:	142142                                    	l32i	a4, a1, 80
10002a04:	0002a0                                    	jx	a2

10002a07 <com_sys_swg_cfg+0x1f3>:
10002a07:	5158                                    	l32i.n	a5, a1, 20
10002a09:	b148                                    	l32i.n	a4, a1, 44
10002a0b:	0007c6                                    	j	10002a2e <com_sys_swg_cfg+0x21a>

10002a0e <com_sys_swg_cfg+0x1fa>:
10002a0e:	a158                                    	l32i.n	a5, a1, 40
10002a10:	9148                                    	l32i.n	a4, a1, 36
10002a12:	000606                                    	j	10002a2e <com_sys_swg_cfg+0x21a>

10002a15 <com_sys_swg_cfg+0x201>:
10002a15:	d158                                    	l32i.n	a5, a1, 52
10002a17:	c148                                    	l32i.n	a4, a1, 48
10002a19:	000446                                    	j	10002a2e <com_sys_swg_cfg+0x21a>

10002a1c <com_sys_swg_cfg+0x208>:
10002a1c:	162152                                    	l32i	a5, a1, 88
10002a1f:	112142                                    	l32i	a4, a1, 68
10002a22:	000206                                    	j	10002a2e <com_sys_swg_cfg+0x21a>

10002a25 <com_sys_swg_cfg+0x211>:
10002a25:	132152                                    	l32i	a5, a1, 76
10002a28:	122142                                    	l32i	a4, a1, 72
10002a2b:	ffffc6                                    	j	10002a2e <com_sys_swg_cfg+0x21a>

10002a2e <com_sys_swg_cfg+0x21a>:
10002a2e:	120c                                    	movi.n	a2, 1
10002a30:	61c8                                    	l32i.n	a12, a1, 24
10002a32:	a12200                                    	sll	a2, a2
10002a35:	c0afb2                                    	movi	a11, -64
10002a38:	1b6122                                    	s32i	a2, a1, 108
10002a3b:	bcbc                                    	beqz.n	a12, 10002a7a <com_sys_swg_cfg+0x266>
10002a3d:	6c0b                                    	addi.n	a6, a12, -1
10002a3f:	0d0c                                    	movi.n	a13, 0
10002a41:	71a8                                    	l32i.n	a10, a1, 28
10002a43:	81b8                                    	l32i.n	a11, a1, 32
10002a45:	61c8                                    	l32i.n	a12, a1, 24
10002a47:	030c                                    	movi.n	a3, 0
10002a49:	01d225                                    	call8	1000476c <__udivdi3>
10002a4c:	0a7d                                    	mov.n	a7, a10
10002a4e:	0b2d                                    	mov.n	a2, a11
10002a50:	31df60                                    	srai	a13, a6, 31
10002a53:	07ad                                    	mov.n	a10, a7
10002a55:	02bd                                    	mov.n	a11, a2
10002a57:	06cd                                    	mov.n	a12, a6
10002a59:	01cf65                                    	call8	10004750 <__muldi3>
10002a5c:	61c8                                    	l32i.n	a12, a1, 24
10002a5e:	0588                                    	l32i.n	a8, a5, 0
10002a60:	5490b0                                    	extui	a9, a11, 0, 6
10002a63:	c0afb2                                    	movi	a11, -64
10002a66:	1088b0                                    	and	a8, a8, a11
10002a69:	898a                                    	add.n	a8, a9, a8
10002a6b:	331b                                    	addi.n	a3, a3, 1
10002a6d:	0589                                    	s32i.n	a8, a5, 0
10002a6f:	04a9                                    	s32i.n	a10, a4, 0
10002a71:	660b                                    	addi.n	a6, a6, -1
10002a73:	444b                                    	addi.n	a4, a4, 4
10002a75:	554b                                    	addi.n	a5, a5, 4
10002a77:	d593c7                                    	bne	a3, a12, 10002a50 <com_sys_swg_cfg+0x23c>
10002a7a:	5128                                    	l32i.n	a2, a1, 20
10002a7c:	e138                                    	l32i.n	a3, a1, 56
10002a7e:	401c00                                    	ssl	a12
10002a81:	223a                                    	add.n	a2, a2, a3
10002a83:	0238                                    	l32i.n	a3, a2, 0
10002a85:	8148                                    	l32i.n	a4, a1, 32
10002a87:	1033b0                                    	and	a3, a3, a11
10002a8a:	544040                                    	extui	a4, a4, 0, 6
10002a8d:	334a                                    	add.n	a3, a3, a4
10002a8f:	1a6142                                    	s32i	a4, a1, 104
10002a92:	0239                                    	s32i.n	a3, a2, 0
10002a94:	7138                                    	l32i.n	a3, a1, 28
10002a96:	8239                                    	s32i.n	a3, a2, 32
10002a98:	fa7c                                    	movi.n	a10, -1
10002a9a:	a13a00                                    	sll	a3, a10
10002a9d:	2022b2                                    	l32i	a11, a2, 128
10002aa0:	fd7c                                    	movi.n	a13, -1
10002aa2:	f45030                                    	extui	a5, a3, 0, 16
10002aa5:	113d00                                    	slli	a3, a13, 16
10002aa8:	103b30                                    	and	a3, a11, a3
10002aab:	fe7c                                    	movi.n	a14, -1
10002aad:	335a                                    	add.n	a3, a3, a5
10002aaf:	f440e0                                    	extui	a4, a14, 0, 16
10002ab2:	303340                                    	xor	a3, a3, a4
10002ab5:	196152                                    	s32i	a5, a1, 100
10002ab8:	206232                                    	s32i	a3, a2, 128
10002abb:	f128                                    	l32i.n	a2, a1, 60
10002abd:	ffa0f2                                    	movi	a15, 255
10002ac0:	c0afb2                                    	movi	a11, -64
10002ac3:	401200                                    	ssl	a2
10002ac6:	028f27                                    	bany	a15, a2, 10002acc <com_sys_swg_cfg+0x2b8>
10002ac9:	ff7246                                    	j	10002896 <com_sys_swg_cfg+0x82>
10002acc:	742020                                    	extui	a2, a2, 0, 8
10002acf:	c178                                    	l32i.n	a7, a1, 48
10002ad1:	d148                                    	l32i.n	a4, a1, 52
10002ad3:	024266                                    	bnei	a2, 4, 10002ad9 <com_sys_swg_cfg+0x2c5>
10002ad6:	ff7006                                    	j	1000289a <com_sys_swg_cfg+0x86>
10002ad9:	040c                                    	movi.n	a4, 0
10002adb:	070c                                    	movi.n	a7, 0
10002add:	022226                                    	beqi	a2, 2, 10002ae3 <com_sys_swg_cfg+0x2cf>
10002ae0:	ff6d86                                    	j	1000289a <com_sys_swg_cfg+0x86>
10002ae3:	a148                                    	l32i.n	a4, a1, 40
10002ae5:	9178                                    	l32i.n	a7, a1, 36
10002ae7:	ff6bc6                                    	j	1000289a <com_sys_swg_cfg+0x86>

10002aea <com_sys_swg_cfg+0x2d6>:
10002aea:	000000                                        ...

10002aed <com_sys_swg_cfg+0x2d9>:
10002aed:	ffa022                                    	movi	a2, 255
10002af0:	028277                                    	bany	a2, a7, 10002af6 <com_sys_swg_cfg+0x2e2>
10002af3:	002146                                    	j	10002b7c <com_sys_swg_cfg+0x368>
10002af6:	f86121                                    	l32r	a2, 10000c7c (100244b8 <p_system_data>)
10002af9:	578176                                    	loop	a1, 10002b54 <com_sys_swg_cfg+0x340>
10002afc:	0238                                    	l32i.n	a3, a2, 0
10002afe:	28c342                                    	addi	a4, a3, 40
10002b01:	006f30                                    	rsil	a3, 15
10002b04:	f14450                                    	l32ex	a5, a4
10002b07:	758c                                    	beqz.n	a5, 10002b12 <com_sys_swg_cfg+0x2fe>
10002b09:	13e630                                    	wsr.ps	a3
10002b0c:	002020                                    	esync
10002b0f:	000446                                    	j	10002b24 <com_sys_swg_cfg+0x310>

10002b12 <com_sys_swg_cfg+0x2fe>:
10002b12:	150c                                    	movi.n	a5, 1
10002b14:	f15450                                    	s32ex	a5, a4
10002b17:	040c                                    	movi.n	a4, 0
10002b19:	40a040                                    	getex	a4
10002b1c:	13e630                                    	wsr.ps	a3
10002b1f:	002020                                    	esync
10002b22:	14fc                                    	bnez.n	a4, 10002b57 <com_sys_swg_cfg+0x343>
10002b24:	0020f0                                    	nop
10002b27:	0020f0                                    	nop
10002b2a:	0020f0                                    	nop
10002b2d:	0020f0                                    	nop
10002b30:	0020f0                                    	nop
10002b33:	0020f0                                    	nop
10002b36:	0020f0                                    	nop
10002b39:	0020f0                                    	nop
10002b3c:	0020f0                                    	nop
10002b3f:	0020f0                                    	nop
10002b42:	0020f0                                    	nop
10002b45:	0020f0                                    	nop
10002b48:	0020f0                                    	nop
10002b4b:	0020f0                                    	nop
10002b4e:	0020f0                                    	nop
10002b51:	0020f0                                    	nop

10002b54 <com_sys_swg_cfg+0x340>:
10002b54:	ffe906                                    	j	10002afc <com_sys_swg_cfg+0x2e8>

10002b57 <com_sys_swg_cfg+0x343>:
10002b57:	5138                                    	l32i.n	a3, a1, 20
10002b59:	c0af62                                    	movi	a6, -64
10002b5c:	04d332                                    	addmi	a3, a3, 0x400
10002b5f:	2a2342                                    	l32i	a4, a3, 168
10002b62:	2a2352                                    	l32i	a5, a3, 168
10002b65:	204740                                    	or	a4, a7, a4
10002b68:	105560                                    	and	a5, a5, a6
10002b6b:	544040                                    	extui	a4, a4, 0, 6
10002b6e:	454a                                    	add.n	a4, a5, a4
10002b70:	2a6342                                    	s32i	a4, a3, 168
10002b73:	0020c0                                    	memw
10002b76:	0228                                    	l32i.n	a2, a2, 0
10002b78:	030c                                    	movi.n	a3, 0
10002b7a:	a239                                    	s32i.n	a3, a2, 40
10002b7c:	f01d                                    	retw.n

10002b7e <com_sys_swg_cfg+0x36a>:
	...

10002b80 <fb_ant_swg_cfg>:
10002b80:	004136                                    	entry	a1, 32
10002b83:	f01d                                    	retw.n

10002b85 <fb_ant_swg_cfg+0x5>:
	...

10002b90 <com_gpdma_rcs_fill_desc>:
10002b90:	004136                                    	entry	a1, 32
10002b93:	209650                                    	or	a9, a6, a5
10002b96:	8188                                    	l32i.n	a8, a1, 32
10002b98:	149090                                    	extui	a9, a9, 0, 2
10002b9b:	0bb4f6                                    	bgeui	a4, 16, 10002baa <com_gpdma_rcs_fill_desc+0x1a>
10002b9e:	1684f6                                    	bgeui	a4, 8, 10002bb8 <com_gpdma_rcs_fill_desc+0x28>
10002ba1:	2344f6                                    	bgeui	a4, 4, 10002bc8 <com_gpdma_rcs_fill_desc+0x38>
10002ba4:	3024f6                                    	bgeui	a4, 2, 10002bd8 <com_gpdma_rcs_fill_desc+0x48>
10002ba7:	000f46                                    	j	10002be8 <com_gpdma_rcs_fill_desc+0x58>

10002baa <com_gpdma_rcs_fill_desc+0x1a>:
10002baa:	fa0c                                    	movi.n	a10, 15
10002bac:	088a47                                    	bany	a10, a4, 10002bb8 <com_gpdma_rcs_fill_desc+0x28>
10002baf:	59cc                                    	bnez.n	a9, 10002bb8 <com_gpdma_rcs_fill_desc+0x28>
10002bb1:	f86691                                    	l32r	a9, 10000d4c (10024210 <com_gpdma_trw_info>)
10002bb4:	000d86                                    	j	10002bee <com_gpdma_rcs_fill_desc+0x5e>

10002bb7 <com_gpdma_rcs_fill_desc+0x27>:
	...

10002bb8 <com_gpdma_rcs_fill_desc+0x28>:
10002bb8:	7a0c                                    	movi.n	a10, 7
10002bba:	0a8a47                                    	bany	a10, a4, 10002bc8 <com_gpdma_rcs_fill_desc+0x38>
10002bbd:	79cc                                    	bnez.n	a9, 10002bc8 <com_gpdma_rcs_fill_desc+0x38>
10002bbf:	f86391                                    	l32r	a9, 10000d4c (10024210 <com_gpdma_trw_info>)
10002bc2:	998b                                    	addi.n	a9, a9, 8
10002bc4:	000986                                    	j	10002bee <com_gpdma_rcs_fill_desc+0x5e>

10002bc7 <com_gpdma_rcs_fill_desc+0x37>:
	...

10002bc8 <com_gpdma_rcs_fill_desc+0x38>:
10002bc8:	3a0c                                    	movi.n	a10, 3
10002bca:	0a8a47                                    	bany	a10, a4, 10002bd8 <com_gpdma_rcs_fill_desc+0x48>
10002bcd:	79cc                                    	bnez.n	a9, 10002bd8 <com_gpdma_rcs_fill_desc+0x48>
10002bcf:	f85f91                                    	l32r	a9, 10000d4c (10024210 <com_gpdma_trw_info>)
10002bd2:	10c992                                    	addi	a9, a9, 16
10002bd5:	000546                                    	j	10002bee <com_gpdma_rcs_fill_desc+0x5e>

10002bd8 <com_gpdma_rcs_fill_desc+0x48>:
10002bd8:	0ce407                                    	bbsi	a4, 0, 10002be8 <com_gpdma_rcs_fill_desc+0x58>
10002bdb:	99cc                                    	bnez.n	a9, 10002be8 <com_gpdma_rcs_fill_desc+0x58>
10002bdd:	f85b91                                    	l32r	a9, 10000d4c (10024210 <com_gpdma_trw_info>)
10002be0:	18c992                                    	addi	a9, a9, 24
10002be3:	0001c6                                    	j	10002bee <com_gpdma_rcs_fill_desc+0x5e>

10002be6 <com_gpdma_rcs_fill_desc+0x56>:
	...

10002be8 <com_gpdma_rcs_fill_desc+0x58>:
10002be8:	f85991                                    	l32r	a9, 10000d4c (10024210 <com_gpdma_trw_info>)
10002beb:	20c992                                    	addi	a9, a9, 32
10002bee:	da7c                                    	movi.n	a10, -3
10002bf0:	10a8a0                                    	and	a10, a8, a10
10002bf3:	9c4c                                    	movi.n	a12, 73
10002bf5:	9b0c                                    	movi.n	a11, 9
10002bf7:	ee7c                                    	movi.n	a14, -2
10002bf9:	11db70                                    	slli	a13, a11, 9
10002bfc:	0369                                    	s32i.n	a6, a3, 0
10002bfe:	0968                                    	l32i.n	a6, a9, 0
10002c00:	f20b                                    	addi.n	a15, a2, -1
10002c02:	020c                                    	movi.n	a2, 0
10002c04:	11cca0                                    	slli	a12, a12, 6
10002c07:	aa0b                                    	addi.n	a10, a10, -1
10002c09:	93cda0                                    	movnez	a12, a13, a10
10002c0c:	10e8e0                                    	and	a14, a8, a14
10002c0f:	2359                                    	s32i.n	a5, a3, 8
10002c11:	1b0c                                    	movi.n	a11, 1
10002c13:	2d0c                                    	movi.n	a13, 2
10002c15:	c329                                    	s32i.n	a2, a3, 48
10002c17:	fece82                                    	addi	a8, a14, -2
10002c1a:	c24460                                    	quou	a4, a4, a6
10002c1d:	93dbf0                                    	movnez	a13, a11, a15
10002c20:	ff7c                                    	movi.n	a15, -1
10002c22:	fa7c                                    	movi.n	a10, -1
10002c24:	43e8                                    	l32i.n	a14, a3, 16
10002c26:	415af0                                    	srli	a5, a15, 10
10002c29:	440b                                    	addi.n	a4, a4, -1
10002c2b:	016aa0                                    	slli	a6, a10, 22
10002c2e:	104450                                    	and	a4, a4, a5
10002c31:	105e60                                    	and	a5, a14, a6
10002c34:	454a                                    	add.n	a4, a5, a4
10002c36:	1329                                    	s32i.n	a2, a3, 4
10002c38:	3329                                    	s32i.n	a2, a3, 12
10002c3a:	a329                                    	s32i.n	a2, a3, 40
10002c3c:	b329                                    	s32i.n	a2, a3, 44
10002c3e:	d329                                    	s32i.n	a2, a3, 52
10002c40:	11fd20                                    	slli	a15, a13, 14
10002c43:	4349                                    	s32i.n	a4, a3, 16
10002c45:	6288b0                                    	saltu	a8, a8, a11
10002c48:	bcfa                                    	add.n	a11, a12, a15
10002c4a:	19c8                                    	l32i.n	a12, a9, 4
10002c4c:	1188c0                                    	slli	a8, a8, 4
10002c4f:	24f0c0                                    	extui	a15, a12, 0, 3
10002c52:	f83fa1                                    	l32r	a10, 10000d50 (cc050 <_memmap_mem_srom_end+0xac050>)
10002c55:	01ede0                                    	slli	a14, a13, 18
10002c58:	48ba                                    	add.n	a4, a8, a11
10002c5a:	44ea                                    	add.n	a4, a4, a14
10002c5c:	116f80                                    	slli	a6, a15, 8
10002c5f:	115f50                                    	slli	a5, a15, 11
10002c62:	1044a0                                    	and	a4, a4, a10
10002c65:	565a                                    	add.n	a5, a6, a5
10002c67:	445a                                    	add.n	a4, a4, a5
10002c69:	b78c                                    	beqz.n	a7, 10002c78 <com_gpdma_rcs_fill_desc+0xe8>
10002c6b:	f57c                                    	movi.n	a5, -1
10002c6d:	015520                                    	slli	a5, a5, 30
10002c70:	7329                                    	s32i.n	a2, a3, 28
10002c72:	6329                                    	s32i.n	a2, a3, 24
10002c74:	000146                                    	j	10002c7d <com_gpdma_rcs_fill_desc+0xed>

10002c77 <com_gpdma_rcs_fill_desc+0xe7>:
	...

10002c78 <com_gpdma_rcs_fill_desc+0xe8>:
10002c78:	f57c                                    	movi.n	a5, -1
10002c7a:	015510                                    	slli	a5, a5, 31
10002c7d:	8349                                    	s32i.n	a4, a3, 32
10002c7f:	9359                                    	s32i.n	a5, a3, 36
10002c81:	f01d                                    	retw.n

10002c83 <com_gpdma_rcs_fill_desc+0xf3>:
	...

10002c84 <com_gpdma_init>:
10002c84:	004136                                    	entry	a1, 32
10002c87:	f833b1                                    	l32r	a11, 10000d54 (10002c9c <com_gpdma_irq_handler>)
10002c8a:	f833c1                                    	l32r	a12, 10000d58 (10024470 <gpdma_irq_info>)
10002c8d:	45a1a2                                    	movi	a10, 0x145
10002c90:	fe5de5                                    	call8	10001270 <com_isr_event>
10002c93:	45a1a2                                    	movi	a10, 0x145
10002c96:	fe73e5                                    	call8	100013d4 <com_isr_interrupt_disable>
10002c99:	f01d                                    	retw.n

10002c9b <com_gpdma_init+0x17>:
	...

10002c9c <com_gpdma_irq_handler>:
10002c9c:	008136                                    	entry	a1, 64
10002c9f:	f82f31                                    	l32r	a3, 10000d5c (270100 <_memmap_mem_sram_end+0x30100>)
10002ca2:	f82fb1                                    	l32r	a11, 10000d60 (fa3f7fe0 <xthals_hw_configid0+0x3a3eed5a>)
10002ca5:	290c                                    	movi.n	a9, 2
10002ca7:	0a0c                                    	movi.n	a10, 0
10002ca9:	4c0c                                    	movi.n	a12, 4
10002cab:	024d                                    	mov.n	a4, a2
10002cad:	6129                                    	s32i.n	a2, a1, 24
10002caf:	0003c6                                    	j	10002cc2 <com_gpdma_irq_handler+0x26>

10002cb2 <com_gpdma_irq_handler+0x16>:
10002cb2:	000000                                        ...

10002cb5 <com_gpdma_irq_handler+0x19>:
10002cb5:	44a9                                    	s32i.n	a10, a4, 16
10002cb7:	990b                                    	addi.n	a9, a9, -1
10002cb9:	01d332                                    	addmi	a3, a3, 0x100
10002cbc:	18c442                                    	addi	a4, a4, 24
10002cbf:	098916                                    	beqz	a9, 10002d5b <com_gpdma_irq_handler+0xbf>
10002cc2:	44d8                                    	l32i.n	a13, a4, 16
10002cc4:	0468                                    	l32i.n	a6, a4, 0
10002cc6:	222352                                    	l32i	a5, a3, 136
10002cc9:	232372                                    	l32i	a7, a3, 140
10002ccc:	5179                                    	s32i.n	a7, a1, 20
10002cce:	4159                                    	s32i.n	a5, a1, 16
10002cd0:	1458                                    	l32i.n	a5, a4, 4
10002cd2:	e11566                                    	bnei	a5, 1, 10002cb7 <com_gpdma_irq_handler+0x1b>
10002cd5:	5158                                    	l32i.n	a5, a1, 20
10002cd7:	4178                                    	l32i.n	a7, a1, 16
10002cd9:	205750                                    	or	a5, a7, a5
10002cdc:	fd7516                                    	beqz	a5, 10002cb7 <com_gpdma_irq_handler+0x1b>
10002cdf:	4158                                    	l32i.n	a5, a1, 16
10002ce1:	5178                                    	l32i.n	a7, a1, 20
10002ce3:	276372                                    	s32i	a7, a3, 156
10002ce6:	266352                                    	s32i	a5, a3, 152
10002ce9:	2163a2                                    	s32i	a10, a3, 132
10002cec:	2063a2                                    	s32i	a10, a3, 128
10002cef:	51e8                                    	l32i.n	a14, a1, 20
10002cf1:	41f8                                    	l32i.n	a15, a1, 16
10002cf3:	14c9                                    	s32i.n	a12, a4, 4
10002cf5:	1288                                    	l32i.n	a8, a2, 4
10002cf7:	3450e0                                    	extui	a5, a14, 0, 4
10002cfa:	107fb0                                    	and	a7, a15, a11
10002cfd:	3459                                    	s32i.n	a5, a4, 12
10002cff:	2479                                    	s32i.n	a7, a4, 8
10002d01:	1b4866                                    	bnei	a8, 4, 10002d20 <com_gpdma_irq_handler+0x84>
10002d04:	7288                                    	l32i.n	a8, a2, 28
10002d06:	164866                                    	bnei	a8, 4, 10002d20 <com_gpdma_irq_handler+0x84>
10002d09:	45a1a2                                    	movi	a10, 0x145
10002d0c:	092d                                    	mov.n	a2, a9
10002d0e:	71d9                                    	s32i.n	a13, a1, 28
10002d10:	fe6c25                                    	call8	100013d4 <com_isr_interrupt_disable>
10002d13:	029d                                    	mov.n	a9, a2
10002d15:	71d8                                    	l32i.n	a13, a1, 28
10002d17:	f812b1                                    	l32r	a11, 10000d60 (fa3f7fe0 <xthals_hw_configid0+0x3a3eed5a>)
10002d1a:	6128                                    	l32i.n	a2, a1, 24
10002d1c:	4c0c                                    	movi.n	a12, 4
10002d1e:	0a0c                                    	movi.n	a10, 0
10002d20:	1426f6                                    	bgeui	a6, 2, 10002d38 <com_gpdma_irq_handler+0x9c>
10002d23:	f81081                                    	l32r	a8, 10000d64 (10024250 <com_gpdma_e_lock>)
10002d26:	a06680                                    	addx4	a6, a6, a8
10002d29:	0668                                    	l32i.n	a6, a6, 0
10002d2b:	0020c0                                    	memw
10002d2e:	f7d381                                    	l32r	a8, 10000c7c (100244b8 <p_system_data>)
10002d31:	0888                                    	l32i.n	a8, a8, 0
10002d33:	a06680                                    	addx4	a6, a6, a8
10002d36:	06a9                                    	s32i.n	a10, a6, 0
10002d38:	205750                                    	or	a5, a7, a5
10002d3b:	f76556                                    	bnez	a5, 10002cb5 <com_gpdma_irq_handler+0x19>
10002d3e:	f73d16                                    	beqz	a13, 10002cb5 <com_gpdma_irq_handler+0x19>
10002d41:	0d58                                    	l32i.n	a5, a13, 0
10002d43:	f6e516                                    	beqz	a5, 10002cb5 <com_gpdma_irq_handler+0x19>
10002d46:	1da8                                    	l32i.n	a10, a13, 4
10002d48:	092d                                    	mov.n	a2, a9
10002d4a:	0005e0                                    	callx8	a5
10002d4d:	029d                                    	mov.n	a9, a2
10002d4f:	f804b1                                    	l32r	a11, 10000d60 (fa3f7fe0 <xthals_hw_configid0+0x3a3eed5a>)
10002d52:	6128                                    	l32i.n	a2, a1, 24
10002d54:	4c0c                                    	movi.n	a12, 4
10002d56:	0a0c                                    	movi.n	a10, 0
10002d58:	ffd646                                    	j	10002cb5 <com_gpdma_irq_handler+0x19>

10002d5b <com_gpdma_irq_handler+0xbf>:
10002d5b:	f01d                                    	retw.n

10002d5d <com_gpdma_irq_handler+0xc1>:
10002d5d:	000000                                        ...

10002d60 <com_gpdma_rcs_wait>:
10002d60:	006136                                    	entry	a1, 48
10002d63:	0f0c                                    	movi.n	a15, 0
10002d65:	2d0c                                    	movi.n	a13, 2
10002d67:	130c                                    	movi.n	a3, 1
10002d69:	04e020                                    	extui	a14, a2, 0, 1
10002d6c:	f7ff41                                    	l32r	a4, 10000d68 (270018 <_memmap_mem_sram_end+0x30018>)
10002d6f:	f7ff51                                    	l32r	a5, 10000d6c (27001c <_memmap_mem_sram_end+0x3001c>)
10002d72:	933de0                                    	movnez	a3, a13, a14
10002d75:	31f9                                    	s32i.n	a15, a1, 12
10002d77:	21f9                                    	s32i.n	a15, a1, 8
10002d79:	0e8176                                    	loop	a1, 10002d8b <com_gpdma_rcs_wait+0x2b>

10002d7c <com_gpdma_rcs_wait+0x1c>:
10002d7c:	0468                                    	l32i.n	a6, a4, 0
10002d7e:	0578                                    	l32i.n	a7, a5, 0
10002d80:	3179                                    	s32i.n	a7, a1, 12
10002d82:	2169                                    	s32i.n	a6, a1, 8
10002d84:	3168                                    	l32i.n	a6, a1, 12
10002d86:	2168                                    	l32i.n	a6, a1, 8
10002d88:	040367                                    	bnone	a3, a6, 10002d90 <com_gpdma_rcs_wait+0x30>

10002d8b <com_gpdma_rcs_wait+0x2b>:
10002d8b:	fffb46                                    	j	10002d7c <com_gpdma_rcs_wait+0x1c>

10002d8e <com_gpdma_rcs_wait+0x2e>:
	...

10002d90 <com_gpdma_rcs_wait+0x30>:
10002d90:	f7f231                                    	l32r	a3, 10000d58 (10024470 <gpdma_irq_info>)
10002d93:	902220                                    	addx2	a2, a2, a2
10002d96:	b03230                                    	addx8	a3, a2, a3
10002d99:	2328                                    	l32i.n	a2, a3, 8
10002d9b:	3338                                    	l32i.n	a3, a3, 12
10002d9d:	f01d                                    	retw.n

10002d9f <com_gpdma_rcs_wait+0x3f>:
	...

10002da0 <com_gpdma_rcs_get_last_errcode>:
10002da0:	004136                                    	entry	a1, 32
10002da3:	f7ed31                                    	l32r	a3, 10000d58 (10024470 <gpdma_irq_info>)
10002da6:	902220                                    	addx2	a2, a2, a2
10002da9:	b04230                                    	addx8	a4, a2, a3
10002dac:	050c                                    	movi.n	a5, 0
10002dae:	2428                                    	l32i.n	a2, a4, 8
10002db0:	3438                                    	l32i.n	a3, a4, 12
10002db2:	2459                                    	s32i.n	a5, a4, 8
10002db4:	3459                                    	s32i.n	a5, a4, 12
10002db6:	f01d                                    	retw.n

10002db8 <com_gpdma_rcs>:
10002db8:	006136                                    	entry	a1, 48
10002dbb:	207430                                    	or	a7, a4, a3
10002dbe:	039d                                    	mov.n	a9, a3
10002dc0:	147070                                    	extui	a7, a7, 0, 2
10002dc3:	0bb5f6                                    	bgeui	a5, 16, 10002dd2 <com_gpdma_rcs+0x1a>
10002dc6:	1685f6                                    	bgeui	a5, 8, 10002de0 <com_gpdma_rcs+0x28>
10002dc9:	2345f6                                    	bgeui	a5, 4, 10002df0 <com_gpdma_rcs+0x38>
10002dcc:	3025f6                                    	bgeui	a5, 2, 10002e00 <com_gpdma_rcs+0x48>
10002dcf:	000f46                                    	j	10002e10 <com_gpdma_rcs+0x58>

10002dd2 <com_gpdma_rcs+0x1a>:
10002dd2:	f80c                                    	movi.n	a8, 15
10002dd4:	088857                                    	bany	a8, a5, 10002de0 <com_gpdma_rcs+0x28>
10002dd7:	57cc                                    	bnez.n	a7, 10002de0 <com_gpdma_rcs+0x28>
10002dd9:	f7dc71                                    	l32r	a7, 10000d4c (10024210 <com_gpdma_trw_info>)
10002ddc:	000d86                                    	j	10002e16 <com_gpdma_rcs+0x5e>

10002ddf <com_gpdma_rcs+0x27>:
	...

10002de0 <com_gpdma_rcs+0x28>:
10002de0:	780c                                    	movi.n	a8, 7
10002de2:	0a8857                                    	bany	a8, a5, 10002df0 <com_gpdma_rcs+0x38>
10002de5:	77cc                                    	bnez.n	a7, 10002df0 <com_gpdma_rcs+0x38>
10002de7:	f7d971                                    	l32r	a7, 10000d4c (10024210 <com_gpdma_trw_info>)
10002dea:	778b                                    	addi.n	a7, a7, 8
10002dec:	000986                                    	j	10002e16 <com_gpdma_rcs+0x5e>

10002def <com_gpdma_rcs+0x37>:
	...

10002df0 <com_gpdma_rcs+0x38>:
10002df0:	380c                                    	movi.n	a8, 3
10002df2:	0a8857                                    	bany	a8, a5, 10002e00 <com_gpdma_rcs+0x48>
10002df5:	77cc                                    	bnez.n	a7, 10002e00 <com_gpdma_rcs+0x48>
10002df7:	f7d571                                    	l32r	a7, 10000d4c (10024210 <com_gpdma_trw_info>)
10002dfa:	10c772                                    	addi	a7, a7, 16
10002dfd:	000546                                    	j	10002e16 <com_gpdma_rcs+0x5e>

10002e00 <com_gpdma_rcs+0x48>:
10002e00:	0ce507                                    	bbsi	a5, 0, 10002e10 <com_gpdma_rcs+0x58>
10002e03:	97cc                                    	bnez.n	a7, 10002e10 <com_gpdma_rcs+0x58>
10002e05:	f7d171                                    	l32r	a7, 10000d4c (10024210 <com_gpdma_trw_info>)
10002e08:	18c772                                    	addi	a7, a7, 24
10002e0b:	0001c6                                    	j	10002e16 <com_gpdma_rcs+0x5e>

10002e0e <com_gpdma_rcs+0x56>:
	...

10002e10 <com_gpdma_rcs+0x58>:
10002e10:	f7cf71                                    	l32r	a7, 10000d4c (10024210 <com_gpdma_trw_info>)
10002e13:	20c772                                    	addi	a7, a7, 32
10002e16:	07a8                                    	l32i.n	a10, a7, 0
10002e18:	1738                                    	l32i.n	a3, a7, 4
10002e1a:	f7d471                                    	l32r	a7, 10000d6c (27001c <_memmap_mem_sram_end+0x3001c>)
10002e1d:	f7d281                                    	l32r	a8, 10000d68 (270018 <_memmap_mem_sram_end+0x30018>)
10002e20:	6922f6                                    	bgeui	a2, 2, 10002e8d <com_gpdma_rcs+0xd5>
10002e23:	f7d0f1                                    	l32r	a15, 10000d64 (10024250 <com_gpdma_e_lock>)
10002e26:	f795b1                                    	l32r	a11, 10000c7c (100244b8 <p_system_data>)
10002e29:	a0c2f0                                    	addx4	a12, a2, a15
10002e2c:	0cc8                                    	l32i.n	a12, a12, 0
10002e2e:	588176                                    	loop	a1, 10002e8a <com_gpdma_rcs+0xd2>
10002e31:	0bd8                                    	l32i.n	a13, a11, 0
10002e33:	a0ecd0                                    	addx4	a14, a12, a13
10002e36:	006fd0                                    	rsil	a13, 15
10002e39:	f14ef0                                    	l32ex	a15, a14
10002e3c:	7f8c                                    	beqz.n	a15, 10002e47 <com_gpdma_rcs+0x8f>
10002e3e:	13e6d0                                    	wsr.ps	a13
10002e41:	002020                                    	esync
10002e44:	000486                                    	j	10002e5a <com_gpdma_rcs+0xa2>

10002e47 <com_gpdma_rcs+0x8f>:
10002e47:	1f0c                                    	movi.n	a15, 1
10002e49:	f15ef0                                    	s32ex	a15, a14
10002e4c:	0e0c                                    	movi.n	a14, 0
10002e4e:	40a0e0                                    	getex	a14
10002e51:	13e6d0                                    	wsr.ps	a13
10002e54:	002020                                    	esync
10002e57:	057e56                                    	bnez	a14, 10002eb2 <com_gpdma_rcs+0xfa>
10002e5a:	0020f0                                    	nop
10002e5d:	0020f0                                    	nop
10002e60:	0020f0                                    	nop
10002e63:	0020f0                                    	nop
10002e66:	0020f0                                    	nop
10002e69:	0020f0                                    	nop
10002e6c:	0020f0                                    	nop
10002e6f:	0020f0                                    	nop
10002e72:	0020f0                                    	nop
10002e75:	0020f0                                    	nop
10002e78:	0020f0                                    	nop
10002e7b:	0020f0                                    	nop
10002e7e:	0020f0                                    	nop
10002e81:	0020f0                                    	nop
10002e84:	0020f0                                    	nop
10002e87:	0020f0                                    	nop

10002e8a <com_gpdma_rcs+0xd2>:
10002e8a:	ffe8c6                                    	j	10002e31 <com_gpdma_rcs+0x79>

10002e8d <com_gpdma_rcs+0xd5>:
10002e8d:	0d0c                                    	movi.n	a13, 0
10002e8f:	04b020                                    	extui	a11, a2, 0, 1
10002e92:	2e0c                                    	movi.n	a14, 2
10002e94:	1c0c                                    	movi.n	a12, 1
10002e96:	31d9                                    	s32i.n	a13, a1, 12
10002e98:	93ceb0                                    	movnez	a12, a14, a11
10002e9b:	21d9                                    	s32i.n	a13, a1, 8
10002e9d:	0e8176                                    	loop	a1, 10002eaf <com_gpdma_rcs+0xf7>
10002ea0:	08d8                                    	l32i.n	a13, a8, 0
10002ea2:	07e8                                    	l32i.n	a14, a7, 0
10002ea4:	31e9                                    	s32i.n	a14, a1, 12
10002ea6:	21d9                                    	s32i.n	a13, a1, 8
10002ea8:	31d8                                    	l32i.n	a13, a1, 12
10002eaa:	21d8                                    	l32i.n	a13, a1, 8
10002eac:	050cd7                                    	bnone	a12, a13, 10002eb5 <com_gpdma_rcs+0xfd>

10002eaf <com_gpdma_rcs+0xf7>:
10002eaf:	fffb46                                    	j	10002ea0 <com_gpdma_rcs+0xe8>

10002eb2 <com_gpdma_rcs+0xfa>:
10002eb2:	04b020                                    	extui	a11, a2, 0, 1
10002eb5:	c255a0                                    	quou	a5, a5, a10
10002eb8:	f7a8a1                                    	l32r	a10, 10000d58 (10024470 <gpdma_irq_info>)
10002ebb:	90e220                                    	addx2	a14, a2, a2
10002ebe:	01afc2                                    	movi	a12, -255
10002ec1:	b0aea0                                    	addx8	a10, a14, a10
10002ec4:	1e0c                                    	movi.n	a14, 1
10002ec6:	4a69                                    	s32i.n	a6, a10, 16
10002ec8:	f79861                                    	l32r	a6, 10000d28 (11111111 <__stack+0x10d1111>)
10002ecb:	1ae9                                    	s32i.n	a14, a10, 4
10002ecd:	01ccc0                                    	slli	a12, a12, 20
10002ed0:	00a4e2                                    	movi	a14, 0x400
10002ed3:	35dc90                                    	extui	a13, a9, 28, 4
10002ed6:	3a69                                    	s32i.n	a6, a10, 12
10002ed8:	2a69                                    	s32i.n	a6, a10, 8
10002eda:	a50b                                    	addi.n	a10, a5, -1
10002edc:	625e50                                    	saltu	a5, a14, a5
10002edf:	ffa362                                    	movi	a6, 0x3ff
10002ee2:	e9ca                                    	add.n	a14, a9, a12
10002ee4:	c4ca                                    	add.n	a12, a4, a12
10002ee6:	836a50                                    	moveqz	a6, a10, a5
10002ee9:	62ae90                                    	saltu	a10, a14, a9
10002eec:	939ed0                                    	movnez	a9, a14, a13
10002eef:	62ec40                                    	saltu	a14, a12, a4
10002ef2:	5a0b                                    	addi.n	a5, a10, -1
10002ef4:	35fc40                                    	extui	a15, a4, 28, 4
10002ef7:	ae0b                                    	addi.n	a10, a14, -1
10002ef9:	934cf0                                    	movnez	a4, a12, a15
10002efc:	835dd0                                    	moveqz	a5, a13, a13
10002eff:	83aff0                                    	moveqz	a10, a15, a15
10002f02:	0020c0                                    	memw
10002f05:	f79ad1                                    	l32r	a13, 10000d70 (7f801018 <_memmap_cacheattr_bp_allvalid+0x3b3bcbd4>)
10002f08:	01cbf0                                    	slli	a12, a11, 17
10002f0b:	ff1c                                    	movi.n	a15, 31
10002f0d:	ccda                                    	add.n	a12, a12, a13
10002f0f:	f793d1                                    	l32r	a13, 10000d5c (270100 <_memmap_mem_sram_end+0x30100>)
10002f12:	01a1e2                                    	movi	a14, 0x101
10002f15:	401b00                                    	ssl	a11
10002f18:	30fbf0                                    	xor	a15, a11, a15
10002f1b:	11bb80                                    	slli	a11, a11, 8
10002f1e:	a1ee00                                    	sll	a14, a14
10002f21:	400f00                                    	ssr	a15
10002f24:	1f1c                                    	movi.n	a15, 17
10002f26:	bbda                                    	add.n	a11, a11, a13
10002f28:	1d1c                                    	movi.n	a13, 17
10002f2a:	11ff20                                    	slli	a15, a15, 14
10002f2d:	11dd10                                    	slli	a13, a13, 15
10002f30:	220b                                    	addi.n	a2, a2, -1
10002f32:	93df20                                    	movnez	a13, a15, a2
10002f35:	80a0f2                                    	movi	a15, 128
10002f38:	243030                                    	extui	a3, a3, 0, 3
10002f3b:	9120f0                                    	srl	a2, a15
10002f3e:	0020c0                                    	memw
10002f41:	af0c                                    	movi.n	a15, 10
10002f43:	9bc9                                    	s32i.n	a12, a11, 36
10002f45:	8bf9                                    	s32i.n	a15, a11, 32
10002f47:	0020d0                                    	extw
10002f4a:	b03330                                    	addx8	a3, a3, a3
10002f4d:	113380                                    	slli	a3, a3, 8
10002f50:	1ba9                                    	s32i.n	a10, a11, 4
10002f52:	0a0c                                    	movi.n	a10, 0
10002f54:	fc0c                                    	movi.n	a12, 15
10002f56:	f787f1                                    	l32r	a15, 10000d74 (fa3f7fe2 <xthals_hw_configid0+0x3a3eed5c>)
10002f59:	33da                                    	add.n	a3, a3, a13
10002f5b:	0b49                                    	s32i.n	a4, a11, 0
10002f5d:	3b59                                    	s32i.n	a5, a11, 12
10002f5f:	2b99                                    	s32i.n	a9, a11, 8
10002f61:	5ba9                                    	s32i.n	a10, a11, 20
10002f63:	4b69                                    	s32i.n	a6, a11, 16
10002f65:	216bc2                                    	s32i	a12, a11, 132
10002f68:	206bf2                                    	s32i	a15, a11, 128
10002f6b:	6b39                                    	s32i.n	a3, a11, 24
10002f6d:	0020c0                                    	memw
10002f70:	f37c                                    	movi.n	a3, -1
10002f72:	013320                                    	slli	a3, a3, 30
10002f75:	7b39                                    	s32i.n	a3, a11, 28
10002f77:	0020d0                                    	extw
10002f7a:	45a1a2                                    	movi	a10, 0x145
10002f7d:	0729                                    	s32i.n	a2, a7, 0
10002f7f:	08e9                                    	s32i.n	a14, a8, 0
10002f81:	fe3c25                                    	call8	10001344 <com_isr_interrupt_enable>
10002f84:	f01d                                    	retw.n

10002f86 <com_gpdma_rcs+0x1ce>:
	...

10002f88 <com_gpdma_rcs_desc>:
10002f88:	008136                                    	entry	a1, 64
10002f8b:	4159                                    	s32i.n	a5, a1, 16
10002f8d:	7149                                    	s32i.n	a4, a1, 28
10002f8f:	6129                                    	s32i.n	a2, a1, 24
10002f91:	1a0c                                    	movi.n	a10, 1
10002f93:	039d                                    	mov.n	a9, a3
10002f95:	5139                                    	s32i.n	a3, a1, 20
10002f97:	828176                                    	loop	a1, 1000301d <com_gpdma_rcs_desc+0x95>

10002f9a <com_gpdma_rcs_desc+0x12>:
10002f9a:	09cd                                    	mov.n	a12, a9
10002f9c:	01af22                                    	movi	a2, -255
10002f9f:	29e8                                    	l32i.n	a14, a9, 8
10002fa1:	0182c0                                    	slli	a8, a2, 20
10002fa4:	5e8a                                    	add.n	a5, a14, a8
10002fa6:	f87c                                    	movi.n	a8, -1
10002fa8:	39b8                                    	l32i.n	a11, a9, 12
10002faa:	040c                                    	movi.n	a4, 0
10002fac:	418480                                    	srli	a8, a8, 4
10002faf:	6275e0                                    	saltu	a7, a5, a14
10002fb2:	19f8                                    	l32i.n	a15, a9, 4
10002fb4:	0968                                    	l32i.n	a6, a9, 0
10002fb6:	6224b0                                    	saltu	a2, a4, a11
10002fb9:	6238e0                                    	saltu	a3, a8, a14
10002fbc:	9332b0                                    	movnez	a3, a2, a11
10002fbf:	7b7a                                    	add.n	a7, a11, a7
10002fc1:	93e530                                    	movnez	a14, a5, a3
10002fc4:	570b                                    	addi.n	a5, a7, -1
10002fc6:	79d8                                    	l32i.n	a13, a9, 28
10002fc8:	6998                                    	l32i.n	a9, a9, 24
10002fca:	6224f0                                    	saltu	a2, a4, a15
10002fcd:	627860                                    	saltu	a7, a8, a6
10002fd0:	9372f0                                    	movnez	a7, a2, a15
10002fd3:	01af22                                    	movi	a2, -255
10002fd6:	835b30                                    	moveqz	a5, a11, a3
10002fd9:	6234d0                                    	saltu	a3, a4, a13
10002fdc:	624890                                    	saltu	a4, a8, a9
10002fdf:	0182c0                                    	slli	a8, a2, 20
10002fe2:	b68a                                    	add.n	a11, a6, a8
10002fe4:	898a                                    	add.n	a8, a9, a8
10002fe6:	9343d0                                    	movnez	a4, a3, a13
10002fe9:	623b60                                    	saltu	a3, a11, a6
10002fec:	936b70                                    	movnez	a6, a11, a7
10002fef:	62b890                                    	saltu	a11, a8, a9
10002ff2:	3f3a                                    	add.n	a3, a15, a3
10002ff4:	0c69                                    	s32i.n	a6, a12, 0
10002ff6:	6dba                                    	add.n	a6, a13, a11
10002ff8:	330b                                    	addi.n	a3, a3, -1
10002ffa:	660b                                    	addi.n	a6, a6, -1
10002ffc:	2ce9                                    	s32i.n	a14, a12, 8
10002ffe:	9ce8                                    	l32i.n	a14, a12, 36
10003000:	838940                                    	moveqz	a8, a9, a4
10003003:	833f70                                    	moveqz	a3, a15, a7
10003006:	836d40                                    	moveqz	a6, a13, a4
10003009:	6c89                                    	s32i.n	a8, a12, 24
1000300b:	3c59                                    	s32i.n	a5, a12, 12
1000300d:	1c39                                    	s32i.n	a3, a12, 4
1000300f:	7c69                                    	s32i.n	a6, a12, 28
10003011:	0bfee7                                    	bbsi	a14, 30, 10003020 <com_gpdma_rcs_desc+0x98>
10003014:	7128                                    	l32i.n	a2, a1, 28
10003016:	0abd                                    	mov.n	a11, a10
10003018:	aa1b                                    	addi.n	a10, a10, 1
1000301a:	02bb27                                    	bgeu	a11, a2, 10003020 <com_gpdma_rcs_desc+0x98>

1000301d <com_gpdma_rcs_desc+0x95>:
1000301d:	ffde46                                    	j	10002f9a <com_gpdma_rcs_desc+0x12>

10003020 <com_gpdma_rcs_desc+0x98>:
10003020:	6168                                    	l32i.n	a6, a1, 24
10003022:	f75271                                    	l32r	a7, 10000d6c (27001c <_memmap_mem_sram_end+0x3001c>)
10003025:	f75041                                    	l32r	a4, 10000d68 (270018 <_memmap_mem_sram_end+0x30018>)
10003028:	6926f6                                    	bgeui	a6, 2, 10003095 <com_gpdma_rcs_desc+0x10d>
1000302b:	f74e21                                    	l32r	a2, 10000d64 (10024250 <com_gpdma_e_lock>)
1000302e:	f71381                                    	l32r	a8, 10000c7c (100244b8 <p_system_data>)
10003031:	a02620                                    	addx4	a2, a6, a2
10003034:	0298                                    	l32i.n	a9, a2, 0
10003036:	588176                                    	loop	a1, 10003092 <com_gpdma_rcs_desc+0x10a>
10003039:	0828                                    	l32i.n	a2, a8, 0
1000303b:	a0b920                                    	addx4	a11, a9, a2
1000303e:	006fa0                                    	rsil	a10, 15
10003041:	f14b20                                    	l32ex	a2, a11
10003044:	130c                                    	movi.n	a3, 1
10003046:	728c                                    	beqz.n	a2, 10003051 <com_gpdma_rcs_desc+0xc9>
10003048:	13e6a0                                    	wsr.ps	a10
1000304b:	002020                                    	esync
1000304e:	000406                                    	j	10003062 <com_gpdma_rcs_desc+0xda>

10003051 <com_gpdma_rcs_desc+0xc9>:
10003051:	f15b30                                    	s32ex	a3, a11
10003054:	020c                                    	movi.n	a2, 0
10003056:	40a020                                    	getex	a2
10003059:	13e6a0                                    	wsr.ps	a10
1000305c:	002020                                    	esync
1000305f:	057256                                    	bnez	a2, 100030ba <com_gpdma_rcs_desc+0x132>
10003062:	0020f0                                    	nop
10003065:	0020f0                                    	nop
10003068:	0020f0                                    	nop
1000306b:	0020f0                                    	nop
1000306e:	0020f0                                    	nop
10003071:	0020f0                                    	nop
10003074:	0020f0                                    	nop
10003077:	0020f0                                    	nop
1000307a:	0020f0                                    	nop
1000307d:	0020f0                                    	nop
10003080:	0020f0                                    	nop
10003083:	0020f0                                    	nop
10003086:	0020f0                                    	nop
10003089:	0020f0                                    	nop
1000308c:	0020f0                                    	nop
1000308f:	0020f0                                    	nop

10003092 <com_gpdma_rcs_desc+0x10a>:
10003092:	ffe8c6                                    	j	10003039 <com_gpdma_rcs_desc+0xb1>

10003095 <com_gpdma_rcs_desc+0x10d>:
10003095:	020c                                    	movi.n	a2, 0
10003097:	048060                                    	extui	a8, a6, 0, 1
1000309a:	230c                                    	movi.n	a3, 2
1000309c:	190c                                    	movi.n	a9, 1
1000309e:	3129                                    	s32i.n	a2, a1, 12
100030a0:	939380                                    	movnez	a9, a3, a8
100030a3:	2129                                    	s32i.n	a2, a1, 8
100030a5:	0e8176                                    	loop	a1, 100030b7 <com_gpdma_rcs_desc+0x12f>
100030a8:	0428                                    	l32i.n	a2, a4, 0
100030aa:	0738                                    	l32i.n	a3, a7, 0
100030ac:	3139                                    	s32i.n	a3, a1, 12
100030ae:	2129                                    	s32i.n	a2, a1, 8
100030b0:	3128                                    	l32i.n	a2, a1, 12
100030b2:	2128                                    	l32i.n	a2, a1, 8
100030b4:	050927                                    	bnone	a9, a2, 100030bd <com_gpdma_rcs_desc+0x135>

100030b7 <com_gpdma_rcs_desc+0x12f>:
100030b7:	fffb46                                    	j	100030a8 <com_gpdma_rcs_desc+0x120>

100030ba <com_gpdma_rcs_desc+0x132>:
100030ba:	048060                                    	extui	a8, a6, 0, 1
100030bd:	01af22                                    	movi	a2, -255
100030c0:	51a8                                    	l32i.n	a10, a1, 20
100030c2:	0122c0                                    	slli	a2, a2, 20
100030c5:	2a2a                                    	add.n	a2, a10, a2
100030c7:	f724d1                                    	l32r	a13, 10000d58 (10024470 <gpdma_irq_info>)
100030ca:	6252a0                                    	saltu	a5, a2, a10
100030cd:	353ca0                                    	extui	a3, a10, 28, 4
100030d0:	906660                                    	addx2	a6, a6, a6
100030d3:	550b                                    	addi.n	a5, a5, -1
100030d5:	93a230                                    	movnez	a10, a2, a3
100030d8:	4198                                    	l32i.n	a9, a1, 16
100030da:	b026d0                                    	addx8	a2, a6, a13
100030dd:	f712f1                                    	l32r	a15, 10000d28 (11111111 <__stack+0x10d1111>)
100030e0:	1e0c                                    	movi.n	a14, 1
100030e2:	835330                                    	moveqz	a5, a3, a3
100030e5:	4299                                    	s32i.n	a9, a2, 16
100030e7:	12e9                                    	s32i.n	a14, a2, 4
100030e9:	32f9                                    	s32i.n	a15, a2, 12
100030eb:	22f9                                    	s32i.n	a15, a2, 8
100030ed:	0020c0                                    	memw
100030f0:	f91c                                    	movi.n	a9, 31
100030f2:	f71f31                                    	l32r	a3, 10000d70 (7f801018 <_memmap_cacheattr_bp_allvalid+0x3b3bcbd4>)
100030f5:	f719e1                                    	l32r	a14, 10000d5c (270100 <_memmap_mem_sram_end+0x30100>)
100030f8:	0128f0                                    	slli	a2, a8, 17
100030fb:	01a162                                    	movi	a6, 0x101
100030fe:	401800                                    	ssl	a8
10003101:	309890                                    	xor	a9, a8, a9
10003104:	11d880                                    	slli	a13, a8, 8
10003107:	223a                                    	add.n	a2, a2, a3
10003109:	a16600                                    	sll	a6, a6
1000310c:	3dea                                    	add.n	a3, a13, a14
1000310e:	400900                                    	ssr	a9
10003111:	80a0f2                                    	movi	a15, 128
10003114:	f80c                                    	movi.n	a8, 15
10003116:	9329                                    	s32i.n	a2, a3, 36
10003118:	9190f0                                    	srl	a9, a15
1000311b:	8389                                    	s32i.n	a8, a3, 32
1000311d:	0020d0                                    	extw
10003120:	f71521                                    	l32r	a2, 10000d74 (fa3f7fe2 <xthals_hw_configid0+0x3a3eed5c>)
10003123:	b359                                    	s32i.n	a5, a3, 44
10003125:	a3a9                                    	s32i.n	a10, a3, 40
10003127:	216382                                    	s32i	a8, a3, 132
1000312a:	206322                                    	s32i	a2, a3, 128
1000312d:	0020d0                                    	extw
10003130:	45a1a2                                    	movi	a10, 0x145
10003133:	0799                                    	s32i.n	a9, a7, 0
10003135:	0469                                    	s32i.n	a6, a4, 0
10003137:	fe20e5                                    	call8	10001344 <com_isr_interrupt_enable>
1000313a:	f01d                                    	retw.n

1000313c <com_gpdma_rcs_desc+0x1b4>:
1000313c:	00000000                                ....

10003140 <com_event_print_event_scheduler>:
10003140:	004136                                    	entry	a1, 32
10003143:	f01d                                    	retw.n

10003145 <com_event_print_event_scheduler+0x5>:
10003145:	000000                                        ...

10003148 <com_event_pop_next_pending_event>:
10003148:	004136                                    	entry	a1, 32
1000314b:	023d                                    	mov.n	a3, a2
1000314d:	006f40                                    	rsil	a4, 15
10003150:	0228                                    	l32i.n	a2, a2, 0
10003152:	455c                                    	movi.n	a5, 84
10003154:	100226                                    	beqi	a2, -1, 10003168 <com_event_pop_next_pending_event+0x20>
10003157:	f70861                                    	l32r	a6, 10000d78 (100254c0 <event_table>)
1000315a:	825250                                    	mull	a5, a2, a5
1000315d:	4f0c                                    	movi.n	a15, 4
1000315f:	565a                                    	add.n	a5, a6, a5
10003161:	4578                                    	l32i.n	a7, a5, 16
10003163:	25f9                                    	s32i.n	a15, a5, 8
10003165:	006372                                    	s32i	a7, a3, 0

10003168 <com_event_pop_next_pending_event+0x20>:
10003168:	13e640                                    	wsr.ps	a4
1000316b:	002020                                    	esync
1000316e:	f01d                                    	retw.n

10003170 <com_event_schedule_keepalive_event>:
10003170:	004136                                    	entry	a1, 32
10003173:	006f60                                    	rsil	a6, 15
10003176:	f70171                                    	l32r	a7, 10000d7c (100244a0 <event_loop_continue>)
10003179:	455c                                    	movi.n	a5, 84
1000317b:	1748                                    	l32i.n	a4, a7, 4
1000317d:	f6fe81                                    	l32r	a8, 10000d78 (100254c0 <event_table>)
10003180:	240426                                    	beqi	a4, -1, 100031a8 <com_event_schedule_keepalive_event+0x38>
10003183:	825450                                    	mull	a5, a4, a5
10003186:	190c                                    	movi.n	a9, 1
10003188:	585a                                    	add.n	a5, a8, a5
1000318a:	0e0c                                    	movi.n	a14, 0
1000318c:	45f8                                    	l32i.n	a15, a5, 16
1000318e:	fa7c                                    	movi.n	a10, -1
10003190:	2599                                    	s32i.n	a9, a5, 8
10003192:	45a9                                    	s32i.n	a10, a5, 16
10003194:	35e9                                    	s32i.n	a14, a5, 12
10003196:	17f9                                    	s32i.n	a15, a7, 4
10003198:	13e660                                    	wsr.ps	a6
1000319b:	002020                                    	esync
1000319e:	861c                                    	movi.n	a6, 24
100031a0:	15b467                                    	bgeu	a4, a6, 100031b9 <com_event_schedule_keepalive_event+0x49>
100031a3:	000846                                    	j	100031c8 <com_event_schedule_keepalive_event+0x58>

100031a6 <com_event_schedule_keepalive_event+0x36>:
	...

100031a8 <com_event_schedule_keepalive_event+0x38>:
100031a8:	13e660                                    	wsr.ps	a6
100031ab:	002020                                    	esync
100031ae:	fa1c                                    	movi.n	a10, 31
100031b0:	fb7c                                    	movi.n	a11, -1
100031b2:	0c0c                                    	movi.n	a12, 0
100031b4:	0d0c                                    	movi.n	a13, 0
100031b6:	fe8ae5                                    	call8	10001a64 <com_send_rb_e_EVENT_HANDLER_ERR>
100031b9:	ea1c                                    	movi.n	a10, 30
100031bb:	0c0c                                    	movi.n	a12, 0
100031bd:	0d0c                                    	movi.n	a13, 0
100031bf:	20b440                                    	or	a11, a4, a4
100031c2:	00a052                                    	movi	a5, 0
100031c5:	fe89e5                                    	call8	10001a64 <com_send_rb_e_EVENT_HANDLER_ERR>
100031c8:	f6ee61                                    	l32r	a6, 10000d80 (10003270 <keepalive_event_callback>)
100031cb:	0569                                    	s32i.n	a6, a5, 0
100031cd:	fe9c25                                    	call8	10001b90 <com_timing_get_current_bfn_time>
100031d0:	e8a362                                    	movi	a6, 0x3e8
100031d3:	18ac72                                    	movi	a7, 0xfffffc18
100031d6:	c26260                                    	quou	a6, a2, a6
100031d9:	827670                                    	mull	a7, a6, a7
100031dc:	f80c                                    	movi.n	a8, 15
100031de:	772a                                    	add.n	a7, a7, a2
100031e0:	907770                                    	addx2	a7, a7, a7
100031e3:	118800                                    	slli	a8, a8, 16
100031e6:	991c                                    	movi.n	a9, 25
100031e8:	117730                                    	slli	a7, a7, 13
100031eb:	826680                                    	mull	a6, a6, a8
100031ee:	c27790                                    	quou	a7, a7, a9
100031f1:	b76a                                    	add.n	a11, a7, a6
100031f3:	fe3a25                                    	call8	10001594 <com_bfn_add_time>
100031f6:	0abd                                    	mov.n	a11, a10
100031f8:	55a9                                    	s32i.n	a10, a5, 20
100031fa:	04ad                                    	mov.n	a10, a4
100031fc:	6529                                    	s32i.n	a2, a5, 24
100031fe:	076532                                    	s32i	a3, a5, 28
10003201:	000d25                                    	call8	100032d4 <com_event_schedule_event>
10003204:	f01d                                    	retw.n

10003206 <com_event_schedule_keepalive_event+0x96>:
	...

10003208 <com_event_new_event>:
10003208:	004136                                    	entry	a1, 32
1000320b:	006f30                                    	rsil	a3, 15
1000320e:	f6db41                                    	l32r	a4, 10000d7c (100244a0 <event_loop_continue>)
10003211:	455c                                    	movi.n	a5, 84
10003213:	1428                                    	l32i.n	a2, a4, 4
10003215:	f6d861                                    	l32r	a6, 10000d78 (100254c0 <event_table>)
10003218:	1c0226                                    	beqi	a2, -1, 10003238 <com_event_new_event+0x30>
1000321b:	825250                                    	mull	a5, a2, a5
1000321e:	170c                                    	movi.n	a7, 1
10003220:	565a                                    	add.n	a5, a6, a5
10003222:	0e0c                                    	movi.n	a14, 0
10003224:	45f8                                    	l32i.n	a15, a5, 16
10003226:	f87c                                    	movi.n	a8, -1
10003228:	2579                                    	s32i.n	a7, a5, 8
1000322a:	4589                                    	s32i.n	a8, a5, 16
1000322c:	35e9                                    	s32i.n	a14, a5, 12
1000322e:	14f9                                    	s32i.n	a15, a4, 4
10003230:	13e630                                    	wsr.ps	a3
10003233:	002020                                    	esync
10003236:	f01d                                    	retw.n

10003238 <com_event_new_event+0x30>:
10003238:	13e630                                    	wsr.ps	a3
1000323b:	002020                                    	esync
1000323e:	fa1c                                    	movi.n	a10, 31
10003240:	fb7c                                    	movi.n	a11, -1
10003242:	0c0c                                    	movi.n	a12, 0
10003244:	0d0c                                    	movi.n	a13, 0
10003246:	fe81e5                                    	call8	10001a64 <com_send_rb_e_EVENT_HANDLER_ERR>
10003249:	f01d                                    	retw.n

1000324b <com_event_new_event+0x43>:
	...

1000324c <com_event_get_event_p>:
1000324c:	004136                                    	entry	a1, 32
1000324f:	831c                                    	movi.n	a3, 24
10003251:	0f3237                                    	bltu	a2, a3, 10003264 <com_event_get_event_p+0x18>
10003254:	02bd                                    	mov.n	a11, a2
10003256:	ea1c                                    	movi.n	a10, 30
10003258:	0c0c                                    	movi.n	a12, 0
1000325a:	0d0c                                    	movi.n	a13, 0
1000325c:	020c                                    	movi.n	a2, 0
1000325e:	fe8065                                    	call8	10001a64 <com_send_rb_e_EVENT_HANDLER_ERR>
10003261:	f01d                                    	retw.n

10003263 <com_event_get_event_p+0x17>:
	...

10003264 <com_event_get_event_p+0x18>:
10003264:	435c                                    	movi.n	a3, 84
10003266:	822230                                    	mull	a2, a2, a3
10003269:	f6c3f1                                    	l32r	a15, 10000d78 (100254c0 <event_table>)
1000326c:	2f2a                                    	add.n	a2, a15, a2
1000326e:	f01d                                    	retw.n

10003270 <keepalive_event_callback>:
10003270:	004136                                    	entry	a1, 32
10003273:	03ea30                                    	rsr.ccount	a3
10003276:	fe91a5                                    	call8	10001b90 <com_timing_get_current_bfn_time>
10003279:	0248                                    	l32i.n	a4, a2, 0
1000327b:	f57c                                    	movi.n	a5, -1
1000327d:	415850                                    	srli	a5, a5, 8
10003280:	f6c131                                    	l32r	a3, 10000d84 (10025ca0 <keepalive_event_callback.loops>)
10003283:	3064a0                                    	xor	a6, a4, a10
10003286:	263567                                    	bltu	a5, a6, 100032b0 <keepalive_event_callback+0x40>
10003289:	106a50                                    	and	a6, a10, a5
1000328c:	104450                                    	and	a4, a4, a5
1000328f:	33f8                                    	l32i.n	a15, a3, 12
10003291:	c04640                                    	sub	a4, a6, a4
10003294:	01bf47                                    	bgeu	a15, a4, 10003299 <keepalive_event_callback+0x29>
10003297:	3349                                    	s32i.n	a4, a3, 12

10003299 <keepalive_event_callback+0x29>:
10003299:	f6b851                                    	l32r	a5, 10000d7c (100244a0 <event_loop_continue>)
1000329c:	5568                                    	l32i.n	a6, a5, 20
1000329e:	02b467                                    	bgeu	a4, a6, 100032a4 <keepalive_event_callback+0x34>
100032a1:	056542                                    	s32i	a4, a5, 20
100032a4:	2358                                    	l32i.n	a5, a3, 8
100032a6:	1368                                    	l32i.n	a6, a3, 4
100032a8:	454a                                    	add.n	a4, a5, a4
100032aa:	f61b                                    	addi.n	a15, a6, 1
100032ac:	2349                                    	s32i.n	a4, a3, 8
100032ae:	13f9                                    	s32i.n	a15, a3, 4
100032b0:	22b8                                    	l32i.n	a11, a2, 8
100032b2:	0348                                    	l32i.n	a4, a3, 0
100032b4:	db8c                                    	beqz.n	a11, 100032c5 <keepalive_event_callback+0x55>
100032b6:	0b34b7                                    	bltu	a4, a11, 100032c5 <keepalive_event_callback+0x55>
100032b9:	f6b021                                    	l32r	a2, 10000d7c (100244a0 <event_loop_continue>)
100032bc:	050c                                    	movi.n	a5, 0
100032be:	004252                                    	s8i	a5, a2, 0
100032c1:	0001c6                                    	j	100032cc <keepalive_event_callback+0x5c>

100032c4 <keepalive_event_callback+0x54>:
	...

100032c5 <keepalive_event_callback+0x55>:
100032c5:	12a8                                    	l32i.n	a10, a2, 4
100032c7:	ffeaa5                                    	call8	10003170 <com_event_schedule_keepalive_event>
100032ca:	0348                                    	l32i.n	a4, a3, 0
100032cc:	241b                                    	addi.n	a2, a4, 1
100032ce:	0329                                    	s32i.n	a2, a3, 0
100032d0:	f01d                                    	retw.n

100032d2 <keepalive_event_callback+0x62>:
	...

100032d4 <com_event_schedule_event>:
100032d4:	006136                                    	entry	a1, 48
100032d7:	445c                                    	movi.n	a4, 84
100032d9:	f6a751                                    	l32r	a5, 10000d78 (100254c0 <event_table>)
100032dc:	824240                                    	mull	a4, a2, a4
100032df:	0a2c                                    	movi.n	a10, 32
100032e1:	754a                                    	add.n	a7, a5, a4
100032e3:	27c8                                    	l32i.n	a12, a7, 8
100032e5:	1d0c                                    	movi.n	a13, 1
100032e7:	731c66                                    	bnei	a12, 1, 1000335e <com_event_schedule_event+0x8a>
100032ea:	61a1a2                                    	movi	a10, 0x161
100032ed:	fe0e65                                    	call8	100013d4 <com_isr_interrupt_disable>
100032f0:	006f40                                    	rsil	a4, 15
100032f3:	f6a261                                    	l32r	a6, 10000d7c (100244a0 <event_loop_continue>)
100032f6:	455c                                    	movi.n	a5, 84
100032f8:	03ad                                    	mov.n	a10, a3
100032fa:	f87c                                    	movi.n	a8, -1
100032fc:	3149                                    	s32i.n	a4, a1, 12
100032fe:	2648                                    	l32i.n	a4, a6, 8
10003300:	f69ef1                                    	l32r	a15, 10000d78 (100254c0 <event_table>)
10003303:	620426                                    	beqi	a4, -1, 10003369 <com_event_schedule_event+0x95>
10003306:	824450                                    	mull	a4, a4, a5
10003309:	f57c                                    	movi.n	a5, -1
1000330b:	4f4a                                    	add.n	a4, a15, a4
1000330d:	14b8                                    	l32i.n	a11, a4, 4
1000330f:	fe8ae5                                    	call8	10001bbc <com_timing_is_bfn1_earlier_or_equal_bfn2>
10003312:	2688                                    	l32i.n	a8, a6, 8
10003314:	051a56                                    	bnez	a10, 10003369 <com_event_schedule_event+0x95>
10003317:	f47c                                    	movi.n	a4, -1
10003319:	1f0826                                    	beqi	a8, -1, 1000333c <com_event_schedule_event+0x68>
1000331c:	085d                                    	mov.n	a5, a8

1000331e <com_event_schedule_event+0x4a>:
1000331e:	465c                                    	movi.n	a6, 84
10003320:	826860                                    	mull	a6, a8, a6
10003323:	f695f1                                    	l32r	a15, 10000d78 (100254c0 <event_table>)
10003326:	03bd                                    	mov.n	a11, a3
10003328:	6f6a                                    	add.n	a6, a15, a6
1000332a:	16a8                                    	l32i.n	a10, a6, 4
1000332c:	084d                                    	mov.n	a4, a8
1000332e:	fe86e5                                    	call8	10001b9c <com_timing_is_bfn1_earlier_bfn2>
10003331:	7a8c                                    	beqz.n	a10, 1000333c <com_event_schedule_event+0x68>
10003333:	4688                                    	l32i.n	a8, a6, 16
10003335:	045d                                    	mov.n	a5, a4
10003337:	f47c                                    	movi.n	a4, -1
10003339:	e10866                                    	bnei	a8, -1, 1000331e <com_event_schedule_event+0x4a>
1000333c:	4d5c                                    	movi.n	a13, 84
1000333e:	f68ee1                                    	l32r	a14, 10000d78 (100254c0 <event_table>)
10003341:	8255d0                                    	mull	a5, a5, a13
10003344:	8292d0                                    	mull	a9, a2, a13
10003347:	280c                                    	movi.n	a8, 2
10003349:	fe9a                                    	add.n	a15, a14, a9
1000334b:	2789                                    	s32i.n	a8, a7, 8
1000334d:	5e5a                                    	add.n	a5, a14, a5
1000334f:	f68b71                                    	l32r	a7, 10000d7c (100244a0 <event_loop_continue>)
10003352:	4f49                                    	s32i.n	a4, a15, 16
10003354:	1f39                                    	s32i.n	a3, a15, 4
10003356:	0e6d                                    	mov.n	a6, a14
10003358:	10c542                                    	addi	a4, a5, 16
1000335b:	000846                                    	j	10003380 <com_event_schedule_event+0xac>

1000335e <com_event_schedule_event+0x8a>:
1000335e:	02bd                                    	mov.n	a11, a2
10003360:	fe7025                                    	call8	10001a64 <com_send_rb_e_EVENT_HANDLER_ERR>
10003363:	f27c                                    	movi.n	a2, -1
10003365:	f01d                                    	retw.n

10003367 <com_event_schedule_event+0x93>:
	...

10003369 <com_event_schedule_event+0x95>:
10003369:	445c                                    	movi.n	a4, 84
1000336b:	250c                                    	movi.n	a5, 2
1000336d:	82e240                                    	mull	a14, a2, a4
10003370:	f68261                                    	l32r	a6, 10000d78 (100254c0 <event_table>)
10003373:	2759                                    	s32i.n	a5, a7, 8
10003375:	f68171                                    	l32r	a7, 10000d7c (100244a0 <event_loop_continue>)
10003378:	f6ea                                    	add.n	a15, a6, a14
1000337a:	478b                                    	addi.n	a4, a7, 8
1000337c:	4f89                                    	s32i.n	a8, a15, 16
1000337e:	1f39                                    	s32i.n	a3, a15, 4
10003380:	0429                                    	s32i.n	a2, a4, 0
10003382:	002e65                                    	call8	10003668 <com_event_check_scheduled_events>
10003385:	2738                                    	l32i.n	a3, a7, 8
10003387:	445c                                    	movi.n	a4, 84
10003389:	180326                                    	beqi	a3, -1, 100033a5 <com_event_schedule_event+0xd1>
1000338c:	823340                                    	mull	a3, a3, a4
1000338f:	550c                                    	movi.n	a5, 5
10003391:	363a                                    	add.n	a3, a6, a3
10003393:	1338                                    	l32i.n	a3, a3, 4
10003395:	fe7fa5                                    	call8	10001b90 <com_timing_get_current_bfn_time>
10003398:	f67c41                                    	l32r	a4, 10000d88 (268100 <_memmap_mem_sram_end+0x28100>)
1000339b:	61a1a2                                    	movi	a10, 0x161
1000339e:	0439                                    	s32i.n	a3, a4, 0
100033a0:	4459                                    	s32i.n	a5, a4, 16
100033a2:	fdfa25                                    	call8	10001344 <com_isr_interrupt_enable>
100033a5:	4738                                    	l32i.n	a3, a7, 16
100033a7:	1d0326                                    	beqi	a3, -1, 100033c8 <com_event_schedule_event+0xf4>
100033aa:	006f30                                    	rsil	a3, 15
100033ad:	03ea40                                    	rsr.ccount	a4
100033b0:	c8a052                                    	movi	a5, 200
100033b3:	80b450                                    	add	a11, a4, a5
100033b6:	00a0a2                                    	movi	a10, 0
100033b9:	025c65                                    	call8	10005980 <xthal_set_ccompare>
100033bc:	35a2a2                                    	movi	a10, 0x235
100033bf:	fdf865                                    	call8	10001344 <com_isr_interrupt_enable>
100033c2:	13e630                                    	wsr.ps	a3
100033c5:	002020                                    	esync
100033c8:	3138                                    	l32i.n	a3, a1, 12
100033ca:	13e630                                    	wsr.ps	a3
100033cd:	002020                                    	esync
100033d0:	f01d                                    	retw.n

100033d2 <com_event_schedule_event+0xfe>:
	...

100033d4 <com_event_exit_event_loop>:
100033d4:	004136                                    	entry	a1, 32
100033d7:	f66921                                    	l32r	a2, 10000d7c (100244a0 <event_loop_continue>)
100033da:	030c                                    	movi.n	a3, 0
100033dc:	004232                                    	s8i	a3, a2, 0
100033df:	f01d                                    	retw.n

100033e1 <com_event_exit_event_loop+0xd>:
100033e1:	000000                                        ...

100033e4 <com_event_init_events>:
100033e4:	004136                                    	entry	a1, 32
100033e7:	f66451                                    	l32r	a5, 10000d78 (100254c0 <event_table>)
100033ea:	861c                                    	movi.n	a6, 24
100033ec:	020c                                    	movi.n	a2, 0
100033ee:	140c                                    	movi.n	a4, 1
100033f0:	358b                                    	addi.n	a3, a5, 8
100033f2:	088676                                    	loop	a6, 100033fe <com_event_init_events+0x1a>
100033f5:	0329                                    	s32i.n	a2, a3, 0
100033f7:	2349                                    	s32i.n	a4, a3, 8
100033f9:	441b                                    	addi.n	a4, a4, 1
100033fb:	54c332                                    	addi	a3, a3, 84

100033fe <com_event_init_events+0x1a>:
100033fe:	f65f41                                    	l32r	a4, 10000d7c (100244a0 <event_loop_continue>)
10003401:	f37c                                    	movi.n	a3, -1
10003403:	07d522                                    	addmi	a2, a5, 0x700
10003406:	0f0c                                    	movi.n	a15, 0
10003408:	f661b1                                    	l32r	a11, 10000d8c (1000343c <com_event_handle_timer_irq>)
1000340b:	61a1a2                                    	movi	a10, 0x161
1000340e:	0c0c                                    	movi.n	a12, 0
10003410:	276232                                    	s32i	a3, a2, 156
10003413:	14f9                                    	s32i.n	a15, a4, 4
10003415:	2439                                    	s32i.n	a3, a4, 8
10003417:	036432                                    	s32i	a3, a4, 12
1000341a:	046432                                    	s32i	a3, a4, 16
1000341d:	fde525                                    	call8	10001270 <com_isr_event>
10003420:	f65c21                                    	l32r	a2, 10000d90 (26c404 <_memmap_mem_sram_end+0x2c404>)
10003423:	230c                                    	movi.n	a3, 2
10003425:	f65bb1                                    	l32r	a11, 10000d94 (10003490 <com_event_handle_phi_irq>)
10003428:	35a2a2                                    	movi	a10, 0x235
1000342b:	0c0c                                    	movi.n	a12, 0
1000342d:	0239                                    	s32i.n	a3, a2, 0
1000342f:	fde425                                    	call8	10001270 <com_isr_event>
10003432:	35a2a2                                    	movi	a10, 0x235
10003435:	fdf9e5                                    	call8	100013d4 <com_isr_interrupt_disable>
10003438:	f01d                                    	retw.n

1000343a <com_event_init_events+0x56>:
	...

1000343c <com_event_handle_timer_irq>:
1000343c:	004136                                    	entry	a1, 32
1000343f:	f65631                                    	l32r	a3, 10000d98 (268110 <_memmap_mem_sram_end+0x28110>)
10003442:	0328                                    	l32i.n	a2, a3, 0
10003444:	002225                                    	call8	10003668 <com_event_check_scheduled_events>
10003447:	f64d21                                    	l32r	a2, 10000d7c (100244a0 <event_loop_continue>)
1000344a:	455c                                    	movi.n	a5, 84
1000344c:	2248                                    	l32i.n	a4, a2, 8
1000344e:	f64af1                                    	l32r	a15, 10000d78 (100254c0 <event_table>)
10003451:	180426                                    	beqi	a4, -1, 1000346d <com_event_handle_timer_irq+0x31>
10003454:	824450                                    	mull	a4, a4, a5
10003457:	560c                                    	movi.n	a6, 5
10003459:	4f4a                                    	add.n	a4, a15, a4
1000345b:	1448                                    	l32i.n	a4, a4, 4
1000345d:	fe7325                                    	call8	10001b90 <com_timing_get_current_bfn_time>
10003460:	f64a51                                    	l32r	a5, 10000d88 (268100 <_memmap_mem_sram_end+0x28100>)
10003463:	61a1a2                                    	movi	a10, 0x161
10003466:	0549                                    	s32i.n	a4, a5, 0
10003468:	0369                                    	s32i.n	a6, a3, 0
1000346a:	fdeda5                                    	call8	10001344 <com_isr_interrupt_enable>

1000346d <com_event_handle_timer_irq+0x31>:
1000346d:	4228                                    	l32i.n	a2, a2, 16
1000346f:	1b0226                                    	beqi	a2, -1, 1000348e <com_event_handle_timer_irq+0x52>
10003472:	006f20                                    	rsil	a2, 15
10003475:	03ea30                                    	rsr.ccount	a3
10003478:	c8a042                                    	movi	a4, 200
1000347b:	b34a                                    	add.n	a11, a3, a4
1000347d:	0a0c                                    	movi.n	a10, 0
1000347f:	025025                                    	call8	10005980 <xthal_set_ccompare>
10003482:	35a2a2                                    	movi	a10, 0x235
10003485:	fdebe5                                    	call8	10001344 <com_isr_interrupt_enable>
10003488:	13e620                                    	wsr.ps	a2
1000348b:	002020                                    	esync
1000348e:	f01d                                    	retw.n

10003490 <com_event_handle_phi_irq>:
10003490:	004136                                    	entry	a1, 32
10003493:	35a2a2                                    	movi	a10, 0x235
10003496:	fdf3e5                                    	call8	100013d4 <com_isr_interrupt_disable>
10003499:	0a0c                                    	movi.n	a10, 0
1000349b:	0b0c                                    	movi.n	a11, 0
1000349d:	024e25                                    	call8	10005980 <xthal_set_ccompare>
100034a0:	006f20                                    	rsil	a2, 15
100034a3:	f63631                                    	l32r	a3, 10000d7c (100244a0 <event_loop_continue>)
100034a6:	445c                                    	movi.n	a4, 84
100034a8:	4358                                    	l32i.n	a5, a3, 16
100034aa:	f63361                                    	l32r	a6, 10000d78 (100254c0 <event_table>)
100034ad:	600526                                    	beqi	a5, -1, 10003511 <com_event_handle_phi_irq+0x81>
100034b0:	827540                                    	mull	a7, a5, a4
100034b3:	490c                                    	movi.n	a9, 4
100034b5:	767a                                    	add.n	a7, a6, a7
100034b7:	4788                                    	l32i.n	a8, a7, 16
100034b9:	2799                                    	s32i.n	a9, a7, 8
100034bb:	4389                                    	s32i.n	a8, a3, 16
100034bd:	13e620                                    	wsr.ps	a2
100034c0:	002020                                    	esync
100034c3:	721c                                    	movi.n	a2, 23

100034c5 <com_event_handle_phi_irq+0x35>:
100034c5:	827540                                    	mull	a7, a5, a4
100034c8:	767a                                    	add.n	a7, a6, a7
100034ca:	0798                                    	l32i.n	a9, a7, 0
100034cc:	14c7a2                                    	addi	a10, a7, 20
100034cf:	198c                                    	beqz.n	a9, 100034d4 <com_event_handle_phi_irq+0x44>
100034d1:	0009e0                                    	callx8	a9
100034d4:	123257                                    	bltu	a2, a5, 100034ea <com_event_handle_phi_irq+0x5a>
100034d7:	006f80                                    	rsil	a8, 15
100034da:	1398                                    	l32i.n	a9, a3, 4
100034dc:	0f0c                                    	movi.n	a15, 0
100034de:	1359                                    	s32i.n	a5, a3, 4
100034e0:	27f9                                    	s32i.n	a15, a7, 8
100034e2:	4799                                    	s32i.n	a9, a7, 16
100034e4:	13e680                                    	wsr.ps	a8
100034e7:	002020                                    	esync
100034ea:	006f70                                    	rsil	a7, 15
100034ed:	4358                                    	l32i.n	a5, a3, 16
100034ef:	4a0c                                    	movi.n	a10, 4
100034f1:	130526                                    	beqi	a5, -1, 10003508 <com_event_handle_phi_irq+0x78>
100034f4:	828540                                    	mull	a8, a5, a4
100034f7:	868a                                    	add.n	a8, a6, a8
100034f9:	4898                                    	l32i.n	a9, a8, 16
100034fb:	28a9                                    	s32i.n	a10, a8, 8
100034fd:	4399                                    	s32i.n	a9, a3, 16
100034ff:	13e670                                    	wsr.ps	a7
10003502:	002020                                    	esync
10003505:	ffef06                                    	j	100034c5 <com_event_handle_phi_irq+0x35>

10003508 <com_event_handle_phi_irq+0x78>:
10003508:	13e670                                    	wsr.ps	a7
1000350b:	002020                                    	esync
1000350e:	000146                                    	j	10003517 <com_event_handle_phi_irq+0x87>

10003511 <com_event_handle_phi_irq+0x81>:
10003511:	13e620                                    	wsr.ps	a2
10003514:	002020                                    	esync
10003517:	35a2a2                                    	movi	a10, 0x235
1000351a:	fde2a5                                    	call8	10001344 <com_isr_interrupt_enable>
1000351d:	f01d                                    	retw.n

1000351f <com_event_handle_phi_irq+0x8f>:
	...

10003520 <com_event_free_event>:
10003520:	004136                                    	entry	a1, 32
10003523:	023d                                    	mov.n	a3, a2
10003525:	741c                                    	movi.n	a4, 23
10003527:	f27c                                    	movi.n	a2, -1
10003529:	213437                                    	bltu	a4, a3, 1000354e <com_event_free_event+0x2e>
1000352c:	006f20                                    	rsil	a2, 15
1000352f:	445c                                    	movi.n	a4, 84
10003531:	f61261                                    	l32r	a6, 10000d7c (100244a0 <event_loop_continue>)
10003534:	f61151                                    	l32r	a5, 10000d78 (100254c0 <event_table>)
10003537:	824340                                    	mull	a4, a3, a4
1000353a:	16f8                                    	l32i.n	a15, a6, 4
1000353c:	454a                                    	add.n	a4, a5, a4
1000353e:	070c                                    	movi.n	a7, 0
10003540:	1639                                    	s32i.n	a3, a6, 4
10003542:	44f9                                    	s32i.n	a15, a4, 16
10003544:	2479                                    	s32i.n	a7, a4, 8
10003546:	13e620                                    	wsr.ps	a2
10003549:	002020                                    	esync
1000354c:	032d                                    	mov.n	a2, a3

1000354e <com_event_free_event+0x2e>:
1000354e:	f01d                                    	retw.n

10003550 <com_event_execute_immediate_event>:
10003550:	004136                                    	entry	a1, 32
10003553:	445c                                    	movi.n	a4, 84
10003555:	f60831                                    	l32r	a3, 10000d78 (100254c0 <event_table>)
10003558:	824240                                    	mull	a4, a2, a4
1000355b:	0a2c                                    	movi.n	a10, 32
1000355d:	434a                                    	add.n	a4, a3, a4
1000355f:	24c8                                    	l32i.n	a12, a4, 8
10003561:	1d0c                                    	movi.n	a13, 1
10003563:	2f1c66                                    	bnei	a12, 1, 10003596 <com_event_execute_immediate_event+0x46>
10003566:	250c                                    	movi.n	a5, 2
10003568:	2459                                    	s32i.n	a5, a4, 8
1000356a:	006f50                                    	rsil	a5, 15
1000356d:	3468                                    	l32i.n	a6, a4, 12
1000356f:	c90c                                    	movi.n	a9, 12
10003571:	0a1c                                    	movi.n	a10, 16
10003573:	760b                                    	addi.n	a7, a6, -1
10003575:	f60181                                    	l32r	a8, 10000d7c (100244a0 <event_loop_continue>)
10003578:	93a970                                    	movnez	a10, a9, a7
1000357b:	f8aa                                    	add.n	a15, a8, a10
1000357d:	0f68                                    	l32i.n	a6, a15, 0
1000357f:	98cb                                    	addi.n	a9, a8, 12
10003581:	210626                                    	beqi	a6, -1, 100035a6 <com_event_execute_immediate_event+0x56>
10003584:	475c                                    	movi.n	a7, 84
10003586:	098176                                    	loop	a1, 10003593 <com_event_execute_immediate_event+0x43>

10003589 <com_event_execute_immediate_event+0x39>:
10003589:	826670                                    	mull	a6, a6, a7
1000358c:	836a                                    	add.n	a8, a3, a6
1000358e:	4868                                    	l32i.n	a6, a8, 16
10003590:	0c0626                                    	beqi	a6, -1, 100035a0 <com_event_execute_immediate_event+0x50>

10003593 <com_event_execute_immediate_event+0x43>:
10003593:	fffc86                                    	j	10003589 <com_event_execute_immediate_event+0x39>

10003596 <com_event_execute_immediate_event+0x46>:
10003596:	02bd                                    	mov.n	a11, a2
10003598:	fe4ca5                                    	call8	10001a64 <com_send_rb_e_EVENT_HANDLER_ERR>
1000359b:	f27c                                    	movi.n	a2, -1
1000359d:	f01d                                    	retw.n

1000359f <com_event_execute_immediate_event+0x4f>:
	...

100035a0 <com_event_execute_immediate_event+0x50>:
100035a0:	10c862                                    	addi	a6, a8, 16
100035a3:	000146                                    	j	100035ac <com_event_execute_immediate_event+0x5c>

100035a6 <com_event_execute_immediate_event+0x56>:
100035a6:	10c862                                    	addi	a6, a8, 16
100035a9:	936970                                    	movnez	a6, a9, a7
100035ac:	475c                                    	movi.n	a7, 84
100035ae:	827270                                    	mull	a7, a2, a7
100035b1:	380c                                    	movi.n	a8, 3
100035b3:	337a                                    	add.n	a3, a3, a7
100035b5:	ff7c                                    	movi.n	a15, -1
100035b7:	0629                                    	s32i.n	a2, a6, 0
100035b9:	2489                                    	s32i.n	a8, a4, 8
100035bb:	43f9                                    	s32i.n	a15, a3, 16
100035bd:	13e650                                    	wsr.ps	a5
100035c0:	002020                                    	esync
100035c3:	f01d                                    	retw.n

100035c5 <com_event_execute_immediate_event+0x75>:
100035c5:	000000                                        ...

100035c8 <com_event_event_loop>:
100035c8:	008136                                    	entry	a1, 64
100035cb:	f5ec31                                    	l32r	a3, 10000d7c (100244a0 <event_loop_continue>)
100035ce:	120c                                    	movi.n	a2, 1
100035d0:	004322                                    	s8i	a2, a3, 0
100035d3:	fe5be5                                    	call8	10001b90 <com_timing_get_current_bfn_time>
100035d6:	41a9                                    	s32i.n	a10, a1, 16
100035d8:	03ea20                                    	rsr.ccount	a2
100035db:	10c1e2                                    	addi	a14, a1, 16
100035de:	2a0c                                    	movi.n	a10, 2
100035e0:	0b0c                                    	movi.n	a11, 0
100035e2:	2c0c                                    	movi.n	a12, 2
100035e4:	0d0c                                    	movi.n	a13, 0
100035e6:	5129                                    	s32i.n	a2, a1, 20
100035e8:	fe25e5                                    	call8	10001848 <com_debug_trace_buffer>
100035eb:	741c                                    	movi.n	a4, 23
100035ed:	020c                                    	movi.n	a2, 0
100035ef:	000346                                    	j	10003600 <com_event_event_loop+0x38>

100035f2 <com_event_event_loop+0x2a>:
100035f2:	13e670                                    	wsr.ps	a7
100035f5:	002020                                    	esync
100035f8:	000352                                    	l8ui	a5, a3, 0
100035fb:	221b                                    	addi.n	a2, a2, 1
100035fd:	064516                                    	beqz	a5, 10003665 <com_event_event_loop+0x9d>
10003600:	1a0c                                    	movi.n	a10, 1
10003602:	02bd                                    	mov.n	a11, a2
10003604:	003aa5                                    	call8	100039b0 <com_shared_mem_set_cpu_loop_count>
10003607:	006f70                                    	rsil	a7, 15
1000360a:	006f80                                    	rsil	a8, 15
1000360d:	3358                                    	l32i.n	a5, a3, 12
1000360f:	465c                                    	movi.n	a6, 84
10003611:	3e0526                                    	beqi	a5, -1, 10003653 <com_event_event_loop+0x8b>
10003614:	826560                                    	mull	a6, a5, a6
10003617:	f5d891                                    	l32r	a9, 10000d78 (100254c0 <event_table>)
1000361a:	4a0c                                    	movi.n	a10, 4
1000361c:	696a                                    	add.n	a6, a9, a6
1000361e:	4698                                    	l32i.n	a9, a6, 16
10003620:	26a9                                    	s32i.n	a10, a6, 8
10003622:	3399                                    	s32i.n	a9, a3, 12
10003624:	13e680                                    	wsr.ps	a8
10003627:	002020                                    	esync
1000362a:	13e670                                    	wsr.ps	a7
1000362d:	002020                                    	esync
10003630:	0678                                    	l32i.n	a7, a6, 0
10003632:	14c6a2                                    	addi	a10, a6, 20
10003635:	178c                                    	beqz.n	a7, 1000363a <com_event_event_loop+0x72>
10003637:	0007e0                                    	callx8	a7
1000363a:	ba3457                                    	bltu	a4, a5, 100035f8 <com_event_event_loop+0x30>
1000363d:	006f70                                    	rsil	a7, 15
10003640:	1388                                    	l32i.n	a8, a3, 4
10003642:	0f0c                                    	movi.n	a15, 0
10003644:	1359                                    	s32i.n	a5, a3, 4
10003646:	26f9                                    	s32i.n	a15, a6, 8
10003648:	4689                                    	s32i.n	a8, a6, 16
1000364a:	13e670                                    	wsr.ps	a7
1000364d:	002020                                    	esync
10003650:	ffe906                                    	j	100035f8 <com_event_event_loop+0x30>

10003653 <com_event_event_loop+0x8b>:
10003653:	13e680                                    	wsr.ps	a8
10003656:	002020                                    	esync
10003659:	0000e5                                    	call8	10003668 <com_event_check_scheduled_events>
1000365c:	f92a56                                    	bnez	a10, 100035f2 <com_event_event_loop+0x2a>
1000365f:	007000                                    	waiti	0
10003662:	ffe306                                    	j	100035f2 <com_event_event_loop+0x2a>

10003665 <com_event_event_loop+0x9d>:
10003665:	f01d                                    	retw.n

10003667 <com_event_event_loop+0x9f>:
	...

10003668 <com_event_check_scheduled_events>:
10003668:	006136                                    	entry	a1, 48
1000366b:	006f20                                    	rsil	a2, 15
1000366e:	fe5225                                    	call8	10001b90 <com_timing_get_current_bfn_time>
10003671:	58a2b2                                    	movi	a11, 0x258
10003674:	fdf1e5                                    	call8	10001594 <com_bfn_add_time>
10003677:	f5c141                                    	l32r	a4, 10000d7c (100244a0 <event_loop_continue>)
1000367a:	050c                                    	movi.n	a5, 0
1000367c:	2488                                    	l32i.n	a8, a4, 8
1000367e:	e4cb                                    	addi.n	a14, a4, 12
10003680:	020866                                    	bnei	a8, -1, 10003686 <com_event_check_scheduled_events+0x1e>
10003683:	002646                                    	j	10003720 <com_event_check_scheduled_events+0xb8>
10003686:	10c4f2                                    	addi	a15, a4, 16
10003689:	f5bb71                                    	l32r	a7, 10000d78 (100254c0 <event_table>)
1000368c:	0abd                                    	mov.n	a11, a10
1000368e:	050c                                    	movi.n	a5, 0
10003690:	465c                                    	movi.n	a6, 84
10003692:	f37c                                    	movi.n	a3, -1
10003694:	31e9                                    	s32i.n	a14, a1, 12
10003696:	21f9                                    	s32i.n	a15, a1, 8
10003698:	000746                                    	j	100036b9 <com_event_check_scheduled_events+0x51>

1000369b <com_event_check_scheduled_events+0x33>:
1000369b:	fe3ca5                                    	call8	10001a64 <com_send_rb_e_EVENT_HANDLER_ERR>
1000369e:	551b                                    	addi.n	a5, a5, 1
100036a0:	13e620                                    	wsr.ps	a2
100036a3:	002020                                    	esync
100036a6:	006f20                                    	rsil	a2, 15
100036a9:	fe4e65                                    	call8	10001b90 <com_timing_get_current_bfn_time>
100036ac:	58a2b2                                    	movi	a11, 0x258
100036af:	fdee65                                    	call8	10001594 <com_bfn_add_time>
100036b2:	2488                                    	l32i.n	a8, a4, 8
100036b4:	0abd                                    	mov.n	a11, a10
100036b6:	640826                                    	beqi	a8, -1, 1000371e <com_event_check_scheduled_events+0xb6>
100036b9:	828860                                    	mull	a8, a8, a6
100036bc:	878a                                    	add.n	a8, a7, a8
100036be:	18a8                                    	l32i.n	a10, a8, 4
100036c0:	fe4fa5                                    	call8	10001bbc <com_timing_is_bfn1_earlier_or_equal_bfn2>
100036c3:	059a16                                    	beqz	a10, 10003720 <com_event_check_scheduled_events+0xb8>
100036c6:	24b8                                    	l32i.n	a11, a4, 8
100036c8:	0a2c                                    	movi.n	a10, 32
100036ca:	828b60                                    	mull	a8, a11, a6
100036cd:	2d0c                                    	movi.n	a13, 2
100036cf:	878a                                    	add.n	a8, a7, a8
100036d1:	28c8                                    	l32i.n	a12, a8, 8
100036d3:	4898                                    	l32i.n	a9, a8, 16
100036d5:	2499                                    	s32i.n	a9, a4, 8
100036d7:	c02c66                                    	bnei	a12, 2, 1000369b <com_event_check_scheduled_events+0x33>
100036da:	006f90                                    	rsil	a9, 15
100036dd:	38a8                                    	l32i.n	a10, a8, 12
100036df:	0d1c                                    	movi.n	a13, 16
100036e1:	ca0b                                    	addi.n	a12, a10, -1
100036e3:	cf0c                                    	movi.n	a15, 12
100036e5:	93dfc0                                    	movnez	a13, a15, a12
100036e8:	a4da                                    	add.n	a10, a4, a13
100036ea:	0aa8                                    	l32i.n	a10, a10, 0
100036ec:	31d8                                    	l32i.n	a13, a1, 12
100036ee:	150a26                                    	beqi	a10, -1, 10003707 <com_event_check_scheduled_events+0x9f>
100036f1:	098176                                    	loop	a1, 100036fe <com_event_check_scheduled_events+0x96>
100036f4:	82aa60                                    	mull	a10, a10, a6
100036f7:	c7aa                                    	add.n	a12, a7, a10
100036f9:	4ca8                                    	l32i.n	a10, a12, 16
100036fb:	020a26                                    	beqi	a10, -1, 10003701 <com_event_check_scheduled_events+0x99>

100036fe <com_event_check_scheduled_events+0x96>:
100036fe:	fffc86                                    	j	100036f4 <com_event_check_scheduled_events+0x8c>

10003701 <com_event_check_scheduled_events+0x99>:
10003701:	10cca2                                    	addi	a10, a12, 16
10003704:	000106                                    	j	1000370c <com_event_check_scheduled_events+0xa4>

10003707 <com_event_check_scheduled_events+0x9f>:
10003707:	21a8                                    	l32i.n	a10, a1, 8
10003709:	93adc0                                    	movnez	a10, a13, a12
1000370c:	3f0c                                    	movi.n	a15, 3
1000370e:	0ab9                                    	s32i.n	a11, a10, 0
10003710:	28f9                                    	s32i.n	a15, a8, 8
10003712:	4839                                    	s32i.n	a3, a8, 16
10003714:	13e690                                    	wsr.ps	a9
10003717:	002020                                    	esync
1000371a:	ffe006                                    	j	1000369e <com_event_check_scheduled_events+0x36>

1000371d <com_event_check_scheduled_events+0xb5>:
	...

1000371e <com_event_check_scheduled_events+0xb6>:
1000371e:	150c                                    	movi.n	a5, 1
10003720:	13e620                                    	wsr.ps	a2
10003723:	002020                                    	esync
10003726:	020c                                    	movi.n	a2, 0
10003728:	622250                                    	saltu	a2, a2, a5
1000372b:	f01d                                    	retw.n

1000372d <com_event_check_scheduled_events+0xc5>:
1000372d:	000000                                        ...

10003730 <com_msg_get_opcode>:
10003730:	004136                                    	entry	a1, 32
10003733:	001222                                    	l16ui	a2, a2, 0
10003736:	f01d                                    	retw.n

10003738 <com_msg_init_handler>:
10003738:	004136                                    	entry	a1, 32
1000373b:	098176                                    	loop	a1, 10003748 <com_msg_init_handler+0x10>

1000373e <com_msg_init_handler+0x6>:
1000373e:	2348                                    	l32i.n	a4, a3, 8
10003740:	091427                                    	beq	a4, a2, 1000374d <com_msg_init_handler+0x15>
10003743:	18c332                                    	addi	a3, a3, 24
10003746:	148c                                    	beqz.n	a4, 1000374b <com_msg_init_handler+0x13>

10003748 <com_msg_init_handler+0x10>:
10003748:	fffc86                                    	j	1000373e <com_msg_init_handler+0x6>

1000374b <com_msg_init_handler+0x13>:
1000374b:	030c                                    	movi.n	a3, 0
1000374d:	032d                                    	mov.n	a2, a3
1000374f:	f01d                                    	retw.n

10003751 <com_msg_init_handler+0x19>:
10003751:	000000                                        ...

10003754 <com_msg_timestamp_init>:
10003754:	004136                                    	entry	a1, 32
10003757:	f591a1                                    	l32r	a10, 10000d9c (10025cb0 <ref_timestamps>)
1000375a:	0b0c                                    	movi.n	a11, 0
1000375c:	0c4c                                    	movi.n	a12, 64
1000375e:	020b65                                    	call8	10005814 <memset>
10003761:	f01d                                    	retw.n

10003763 <com_msg_timestamp_init+0xf>:
	...

10003764 <com_msg_ref_timestamp_set>:
10003764:	004136                                    	entry	a1, 32
10003767:	f58d41                                    	l32r	a4, 10000d9c (10025cb0 <ref_timestamps>)
1000376a:	a02240                                    	addx4	a2, a2, a4
1000376d:	0239                                    	s32i.n	a3, a2, 0
1000376f:	f01d                                    	retw.n

10003771 <com_msg_ref_timestamp_set+0xd>:
10003771:	000000                                        ...

10003774 <com_msg_check_lead_time>:
10003774:	006136                                    	entry	a1, 48
10003777:	026d                                    	mov.n	a6, a2
10003779:	fe4165                                    	call8	10001b90 <com_timing_get_current_bfn_time>
1000377c:	c022a0                                    	sub	a2, a2, a10
1000377f:	0a5d                                    	mov.n	a5, a10
10003781:	f587b1                                    	l32r	a11, 10000da0 (493e0000 <_memmap_cacheattr_bp_allvalid+0x4f9bbbc>)
10003784:	02ad                                    	mov.n	a10, a2
10003786:	fe4165                                    	call8	10001b9c <com_timing_is_bfn1_earlier_bfn2>
10003789:	fa9c                                    	beqz.n	a10, 100037ac <com_msg_check_lead_time+0x38>
1000378b:	44b8                                    	l32i.n	a11, a4, 16
1000378d:	02ad                                    	mov.n	a10, a2
1000378f:	fe40e5                                    	call8	10001b9c <com_timing_is_bfn1_earlier_bfn2>
10003792:	1abc                                    	beqz.n	a10, 100037c7 <com_msg_check_lead_time+0x53>
10003794:	44f8                                    	l32i.n	a15, a4, 16
10003796:	24b8                                    	l32i.n	a11, a4, 8
10003798:	c032f0                                    	sub	a3, a2, a15
1000379b:	ba0c                                    	movi.n	a10, 11
1000379d:	05cd                                    	mov.n	a12, a5
1000379f:	06dd                                    	mov.n	a13, a6
100037a1:	02ed                                    	mov.n	a14, a2
100037a3:	0139                                    	s32i.n	a3, a1, 0
100037a5:	fe2125                                    	call8	100019b8 <com_send_rb_e_MSG_TIMING_ERR>
100037a8:	021c                                    	movi.n	a2, 16
100037aa:	f01d                                    	retw.n

100037ac <com_msg_check_lead_time+0x38>:
100037ac:	f57e31                                    	l32r	a3, 10000da4 (b6c20000 <_memmap_cacheattr_bp_allvalid+0x727dbbbc>)
100037af:	24b8                                    	l32i.n	a11, a4, 8
100037b1:	323a                                    	add.n	a3, a2, a3
100037b3:	f57bf1                                    	l32r	a15, 10000da0 (493e0000 <_memmap_cacheattr_bp_allvalid+0x4f9bbbc>)
100037b6:	aa0c                                    	movi.n	a10, 10
100037b8:	05cd                                    	mov.n	a12, a5
100037ba:	06dd                                    	mov.n	a13, a6
100037bc:	02ed                                    	mov.n	a14, a2
100037be:	0139                                    	s32i.n	a3, a1, 0
100037c0:	fe1f65                                    	call8	100019b8 <com_send_rb_e_MSG_TIMING_ERR>
100037c3:	420c                                    	movi.n	a2, 4
100037c5:	f01d                                    	retw.n

100037c7 <com_msg_check_lead_time+0x53>:
100037c7:	29ac42                                    	movi	a4, 0xfffffc29
100037ca:	b34a                                    	add.n	a11, a3, a4
100037cc:	02ad                                    	mov.n	a10, a2
100037ce:	fe3ce5                                    	call8	10001b9c <com_timing_is_bfn1_earlier_bfn2>
100037d1:	a20c                                    	movi.n	a2, 10
100037d3:	7adc                                    	bnez.n	a10, 100037ee <com_msg_check_lead_time+0x7a>
100037d5:	c02630                                    	sub	a2, a6, a3
100037d8:	fe3b65                                    	call8	10001b90 <com_timing_get_current_bfn_time>
100037db:	d7a332                                    	movi	a3, 0x3d7
100037de:	1133e0                                    	slli	a3, a3, 2
100037e1:	ba3a                                    	add.n	a11, a10, a3
100037e3:	02ad                                    	mov.n	a10, a2
100037e5:	fe3b65                                    	call8	10001b9c <com_timing_is_bfn1_earlier_bfn2>
100037e8:	220c                                    	movi.n	a2, 2
100037ea:	0acc                                    	bnez.n	a10, 100037ee <com_msg_check_lead_time+0x7a>
100037ec:	120c                                    	movi.n	a2, 1
100037ee:	f01d                                    	retw.n

100037f0 <com_msg_schedule_macro>:
100037f0:	006136                                    	entry	a1, 48
100037f3:	025d                                    	mov.n	a5, a2
100037f5:	0228                                    	l32i.n	a2, a2, 0
100037f7:	f4a020                                    	extui	a10, a2, 0, 16
100037fa:	098176                                    	loop	a1, 10003807 <com_msg_schedule_macro+0x17>

100037fd <com_msg_schedule_macro+0xd>:
100037fd:	2368                                    	l32i.n	a6, a3, 8
100037ff:	0716a7                                    	beq	a6, a10, 1000380a <com_msg_schedule_macro+0x1a>
10003802:	18c332                                    	addi	a3, a3, 24
10003805:	06bc                                    	beqz.n	a6, 10003839 <com_msg_schedule_macro+0x49>

10003807 <com_msg_schedule_macro+0x17>:
10003807:	fffc86                                    	j	100037fd <com_msg_schedule_macro+0xd>

1000380a <com_msg_schedule_macro+0x1a>:
1000380a:	1348                                    	l32i.n	a4, a3, 4
1000380c:	05ad                                    	mov.n	a10, a5
1000380e:	348c                                    	beqz.n	a4, 10003815 <com_msg_schedule_macro+0x25>
10003810:	0004e0                                    	callx8	a4
10003813:	0528                                    	l32i.n	a2, a5, 0
10003815:	340c                                    	movi.n	a4, 3
10003817:	114400                                    	slli	a4, a4, 16
1000381a:	160c                                    	movi.n	a6, 1
1000381c:	116600                                    	slli	a6, a6, 16
1000381f:	104240                                    	and	a4, a2, a4
10003822:	1c9467                                    	bne	a4, a6, 10003842 <com_msg_schedule_macro+0x52>
10003825:	f55d41                                    	l32r	a4, 10000d9c (10025cb0 <ref_timestamps>)
10003828:	352220                                    	extui	a2, a2, 18, 4
1000382b:	a02240                                    	addx4	a2, a2, a4
1000382e:	15f8                                    	l32i.n	a15, a5, 4
10003830:	0228                                    	l32i.n	a2, a2, 0
10003832:	42fa                                    	add.n	a4, a2, a15
10003834:	1549                                    	s32i.n	a4, a5, 4
10003836:	000286                                    	j	10003844 <com_msg_schedule_macro+0x54>

10003839 <com_msg_schedule_macro+0x49>:
10003839:	04bd                                    	mov.n	a11, a4
1000383b:	fe1525                                    	call8	1000198c <com_send_rb_e_INVALID_OPCODE_ERR>
1000383e:	020c                                    	movi.n	a2, 0
10003840:	f01d                                    	retw.n

10003842 <com_msg_schedule_macro+0x52>:
10003842:	1548                                    	l32i.n	a4, a5, 4
10003844:	4328                                    	l32i.n	a2, a3, 16
10003846:	3368                                    	l32i.n	a6, a3, 12
10003848:	006f70                                    	rsil	a7, 15
1000384b:	140382                                    	l8ui	a8, a3, 20
1000384e:	390c                                    	movi.n	a9, 3
10003850:	f89c                                    	beqz.n	a8, 10003873 <com_msg_schedule_macro+0x83>
10003852:	020582                                    	l8ui	a8, a5, 2
10003855:	662a                                    	add.n	a6, a6, a2
10003857:	290987                                    	bnone	a9, a8, 10003884 <com_msg_schedule_macro+0x94>
1000385a:	04ad                                    	mov.n	a10, a4
1000385c:	06bd                                    	mov.n	a11, a6
1000385e:	03cd                                    	mov.n	a12, a3
10003860:	fff125                                    	call8	10003774 <com_msg_check_lead_time>
10003863:	0a2d                                    	mov.n	a2, a10
10003865:	48ea07                                    	bbsi	a10, 0, 100038b1 <com_msg_schedule_macro+0xc1>
10003868:	1ae217                                    	bbsi	a2, 1, 10003886 <com_msg_schedule_macro+0x96>
1000386b:	13e670                                    	wsr.ps	a7
1000386e:	002020                                    	esync
10003871:	f01d                                    	retw.n

10003873 <com_msg_schedule_macro+0x83>:
10003873:	0328                                    	l32i.n	a2, a3, 0
10003875:	05ad                                    	mov.n	a10, a5
10003877:	0002e0                                    	callx8	a2
1000387a:	020c                                    	movi.n	a2, 0
1000387c:	13e670                                    	wsr.ps	a7
1000387f:	002020                                    	esync
10003882:	f01d                                    	retw.n

10003884 <com_msg_schedule_macro+0x94>:
10003884:	220c                                    	movi.n	a2, 2
10003886:	0368                                    	l32i.n	a6, a3, 0
10003888:	ff97e5                                    	call8	10003208 <com_event_new_event>
1000388b:	0a3d                                    	mov.n	a3, a10
1000388d:	ff9be5                                    	call8	1000324c <com_event_get_event_p>
10003890:	0a4d                                    	mov.n	a4, a10
10003892:	0a69                                    	s32i.n	a6, a10, 0
10003894:	14caa2                                    	addi	a10, a10, 20
10003897:	0c4c                                    	movi.n	a12, 64
10003899:	05bd                                    	mov.n	a11, a5
1000389b:	01e4e5                                    	call8	100056e8 <memcpy>
1000389e:	050c                                    	movi.n	a5, 0
100038a0:	03ad                                    	mov.n	a10, a3
100038a2:	3459                                    	s32i.n	a5, a4, 12
100038a4:	ffcaa5                                    	call8	10003550 <com_event_execute_immediate_event>
100038a7:	13e670                                    	wsr.ps	a7
100038aa:	002020                                    	esync
100038ad:	f01d                                    	retw.n

100038af <com_msg_schedule_macro+0xbf>:
	...

100038b1 <com_msg_schedule_macro+0xc1>:
100038b1:	c0f460                                    	sub	a15, a4, a6
100038b4:	31f9                                    	s32i.n	a15, a1, 12
100038b6:	0348                                    	l32i.n	a4, a3, 0
100038b8:	ff94e5                                    	call8	10003208 <com_event_new_event>
100038bb:	0a3d                                    	mov.n	a3, a10
100038bd:	ff98e5                                    	call8	1000324c <com_event_get_event_p>
100038c0:	0a6d                                    	mov.n	a6, a10
100038c2:	0a49                                    	s32i.n	a4, a10, 0
100038c4:	14caa2                                    	addi	a10, a10, 20
100038c7:	0c4c                                    	movi.n	a12, 64
100038c9:	05bd                                    	mov.n	a11, a5
100038cb:	01e1e5                                    	call8	100056e8 <memcpy>
100038ce:	040c                                    	movi.n	a4, 0
100038d0:	03ad                                    	mov.n	a10, a3
100038d2:	31b8                                    	l32i.n	a11, a1, 12
100038d4:	3649                                    	s32i.n	a4, a6, 12
100038d6:	ff9fe5                                    	call8	100032d4 <com_event_schedule_event>
100038d9:	13e670                                    	wsr.ps	a7
100038dc:	002020                                    	esync
100038df:	f01d                                    	retw.n

100038e1 <com_msg_schedule_macro+0xf1>:
100038e1:	000000                                        ...

100038e4 <com_msg_send_readback>:
100038e4:	004136                                    	entry	a1, 32
100038e7:	3a0c                                    	movi.n	a10, 3
100038e9:	0010a5                                    	call8	100039f4 <com_shared_mem_get_queue_block>
100038ec:	f4e441                                    	l32r	a4, 10000c7c (100244b8 <p_system_data>)
100038ef:	548176                                    	loop	a1, 10003947 <com_msg_send_readback+0x63>

100038f2 <com_msg_send_readback+0xe>:
100038f2:	0468                                    	l32i.n	a6, a4, 0
100038f4:	006f50                                    	rsil	a5, 15
100038f7:	f14670                                    	l32ex	a7, a6
100038fa:	778c                                    	beqz.n	a7, 10003905 <com_msg_send_readback+0x21>
100038fc:	13e650                                    	wsr.ps	a5
100038ff:	002020                                    	esync
10003902:	000446                                    	j	10003917 <com_msg_send_readback+0x33>

10003905 <com_msg_send_readback+0x21>:
10003905:	170c                                    	movi.n	a7, 1
10003907:	f15670                                    	s32ex	a7, a6
1000390a:	060c                                    	movi.n	a6, 0
1000390c:	40a060                                    	getex	a6
1000390f:	13e650                                    	wsr.ps	a5
10003912:	002020                                    	esync
10003915:	16fc                                    	bnez.n	a6, 1000394a <com_msg_send_readback+0x66>
10003917:	0020f0                                    	nop
1000391a:	0020f0                                    	nop
1000391d:	0020f0                                    	nop
10003920:	0020f0                                    	nop
10003923:	0020f0                                    	nop
10003926:	0020f0                                    	nop
10003929:	0020f0                                    	nop
1000392c:	0020f0                                    	nop
1000392f:	0020f0                                    	nop
10003932:	0020f0                                    	nop
10003935:	0020f0                                    	nop
10003938:	0020f0                                    	nop
1000393b:	0020f0                                    	nop
1000393e:	0020f0                                    	nop
10003941:	0020f0                                    	nop
10003944:	0020f0                                    	nop

10003947 <com_msg_send_readback+0x63>:
10003947:	ffe9c6                                    	j	100038f2 <com_msg_send_readback+0xe>

1000394a <com_msg_send_readback+0x66>:
1000394a:	02bd                                    	mov.n	a11, a2
1000394c:	03cd                                    	mov.n	a12, a3
1000394e:	01be65                                    	call8	10005534 <com_queue_insert>
10003951:	0020c0                                    	memw
10003954:	0428                                    	l32i.n	a2, a4, 0
10003956:	030c                                    	movi.n	a3, 0
10003958:	f514b1                                    	l32r	a11, 10000da8 (beef <xthals_release_major+0x8457>)
1000395b:	5a0c                                    	movi.n	a10, 5
1000395d:	0239                                    	s32i.n	a3, a2, 0
1000395f:	fdb625                                    	call8	100014c0 <com_mb_isr_trigger>
10003962:	f01d                                    	retw.n

10003964 <com_msg_init_mb_irq>:
10003964:	004136                                    	entry	a1, 32
10003967:	a39c                                    	beqz.n	a3, 10003985 <com_msg_init_mb_irq+0x21>
10003969:	a0a152                                    	movi	a5, 0x1a0

1000396c <com_msg_init_mb_irq+0x8>:
1000396c:	0248                                    	l32i.n	a4, a2, 0
1000396e:	12b8                                    	l32i.n	a11, a2, 4
10003970:	445a                                    	add.n	a4, a4, a5
10003972:	0c0c                                    	movi.n	a12, 0
10003974:	04ad                                    	mov.n	a10, a4
10003976:	fd8fa5                                    	call8	10001270 <com_isr_event>
10003979:	04ad                                    	mov.n	a10, a4
1000397b:	fd9ca5                                    	call8	10001344 <com_isr_interrupt_enable>
1000397e:	330b                                    	addi.n	a3, a3, -1
10003980:	228b                                    	addi.n	a2, a2, 8
10003982:	fe6356                                    	bnez	a3, 1000396c <com_msg_init_mb_irq+0x8>
10003985:	f01d                                    	retw.n

10003987 <com_msg_init_mb_irq+0x23>:
	...

10003990 <com_shared_mem_set_sys_status>:
10003990:	004136                                    	entry	a1, 32
10003993:	f4ba41                                    	l32r	a4, 10000c7c (100244b8 <p_system_data>)
10003996:	0448                                    	l32i.n	a4, a4, 0
10003998:	b02240                                    	addx8	a2, a2, a4
1000399b:	b239                                    	s32i.n	a3, a2, 44
1000399d:	f01d                                    	retw.n

1000399f <com_shared_mem_set_sys_status+0xf>:
	...

100039a0 <com_shared_mem_get_sys_status>:
100039a0:	004136                                    	entry	a1, 32
100039a3:	f4b631                                    	l32r	a3, 10000c7c (100244b8 <p_system_data>)
100039a6:	0338                                    	l32i.n	a3, a3, 0
100039a8:	b02230                                    	addx8	a2, a2, a3
100039ab:	b228                                    	l32i.n	a2, a2, 44
100039ad:	f01d                                    	retw.n

100039af <com_shared_mem_get_sys_status+0xf>:
	...

100039b0 <com_shared_mem_set_cpu_loop_count>:
100039b0:	004136                                    	entry	a1, 32
100039b3:	f4b241                                    	l32r	a4, 10000c7c (100244b8 <p_system_data>)
100039b6:	0448                                    	l32i.n	a4, a4, 0
100039b8:	b02240                                    	addx8	a2, a2, a4
100039bb:	c239                                    	s32i.n	a3, a2, 48
100039bd:	f01d                                    	retw.n

100039bf <com_shared_mem_set_cpu_loop_count+0xf>:
	...

100039c0 <com_shared_mem_wait_for_ready>:
100039c0:	006136                                    	entry	a1, 48
100039c3:	f4fa31                                    	l32r	a3, 10000dac (26c0f0 <_memmap_mem_sram_end+0x2c0f0>)
100039c6:	f4a122                                    	movi	a2, 0x1f4
100039c9:	048276                                    	loop	a2, 100039d1 <com_shared_mem_wait_for_ready+0x11>
100039cc:	0328                                    	l32i.n	a2, a3, 0
100039ce:	0022d6                                    	bgez	a2, 100039d4 <com_shared_mem_wait_for_ready+0x14>

100039d1 <com_shared_mem_wait_for_ready+0x11>:
100039d1:	000506                                    	j	100039e9 <com_shared_mem_wait_for_ready+0x29>

100039d4 <com_shared_mem_wait_for_ready+0x14>:
100039d4:	f4f731                                    	l32r	a3, 10000db0 (26c004 <_memmap_mem_sram_end+0x2c004>)
100039d7:	ffad52                                    	movi	a5, 0xfffffdff
100039da:	0348                                    	l32i.n	a4, a3, 0
100039dc:	3149                                    	s32i.n	a4, a1, 12
100039de:	3148                                    	l32i.n	a4, a1, 12
100039e0:	104450                                    	and	a4, a4, a5
100039e3:	3149                                    	s32i.n	a4, a1, 12
100039e5:	3148                                    	l32i.n	a4, a1, 12
100039e7:	0349                                    	s32i.n	a4, a3, 0
100039e9:	f37c                                    	movi.n	a3, -1
100039eb:	302230                                    	xor	a2, a2, a3
100039ee:	052f20                                    	extui	a2, a2, 31, 1
100039f1:	f01d                                    	retw.n

100039f3 <com_shared_mem_wait_for_ready+0x33>:
	...

100039f4 <com_shared_mem_get_queue_block>:
100039f4:	004136                                    	entry	a1, 32
100039f7:	f4a131                                    	l32r	a3, 10000c7c (100244b8 <p_system_data>)
100039fa:	50a442                                    	movi	a4, 0x450
100039fd:	0338                                    	l32i.n	a3, a3, 0
100039ff:	822240                                    	mull	a2, a2, a4
10003a02:	232a                                    	add.n	a2, a3, a2
10003a04:	74c222                                    	addi	a2, a2, 116
10003a07:	f01d                                    	retw.n

10003a09 <com_shared_mem_get_queue_block+0x15>:
10003a09:	000000                                        ...

10003a0c <com_shared_mem_get_fsm_quad_status_block>:
10003a0c:	004136                                    	entry	a1, 32
10003a0f:	f49b31                                    	l32r	a3, 10000c7c (100244b8 <p_system_data>)
10003a12:	1122c0                                    	slli	a2, a2, 4
10003a15:	0338                                    	l32i.n	a3, a3, 0
10003a17:	232a                                    	add.n	a2, a3, a2
10003a19:	54c222                                    	addi	a2, a2, 84
10003a1c:	f01d                                    	retw.n

10003a1e <com_shared_mem_get_fsm_quad_status_block+0x12>:
	...

10003a20 <com_shared_mem_get_fsm_status_block>:
10003a20:	004136                                    	entry	a1, 32
10003a23:	f49631                                    	l32r	a3, 10000c7c (100244b8 <p_system_data>)
10003a26:	0338                                    	l32i.n	a3, a3, 0
10003a28:	a02230                                    	addx4	a2, a2, a3
10003a2b:	4cc222                                    	addi	a2, a2, 76
10003a2e:	f01d                                    	retw.n

10003a30 <ul_spi_on_handler>:
10003a30:	00e136                                    	entry	a1, 112
10003a33:	00a0a2                                    	movi	a10, 0
10003a36:	49a0b2                                    	movi	a11, 73
10003a39:	fdc4a5                                    	call8	10001684 <com_func_ts_trace_buffer>
10003a3c:	1238                                    	l32i.n	a3, a2, 4
10003a3e:	0228                                    	l32i.n	a2, a2, 0
10003a40:	1a0c                                    	movi.n	a10, 1
10003a42:	35b620                                    	extui	a11, a2, 22, 4
10003a45:	0c0c                                    	movi.n	a12, 0
10003a47:	0d0c                                    	movi.n	a13, 0
10003a49:	0e0c                                    	movi.n	a14, 0
10003a4b:	5f0c                                    	movi.n	a15, 5
10003a4d:	fe3725                                    	call8	10001dc0 <com_fsm_transition_check_quadmask_transition>
10003a50:	05ca16                                    	beqz	a10, 10003ab0 <ul_spi_on_handler+0x80>
10003a53:	3272a7                                    	bbci	a2, 26, 10003a89 <ul_spi_on_handler+0x59>
10003a56:	020c                                    	movi.n	a2, 0
10003a58:	e41c                                    	movi.n	a4, 30
10003a5a:	cf7c                                    	movi.n	a15, -4
10003a5c:	5129                                    	s32i.n	a2, a1, 20
10003a5e:	451c                                    	movi.n	a5, 20
10003a60:	7149                                    	s32i.n	a4, a1, 28
10003a62:	f440f0                                    	extui	a4, a15, 0, 16
10003a65:	10c1a2                                    	addi	a10, a1, 16
10003a68:	eb0c                                    	movi.n	a11, 14
10003a6a:	4149                                    	s32i.n	a4, a1, 16
10003a6c:	6159                                    	s32i.n	a5, a1, 24
10003a6e:	116122                                    	s32i	a2, a1, 68
10003a71:	f129                                    	s32i.n	a2, a1, 60
10003a73:	d129                                    	s32i.n	a2, a1, 52
10003a75:	b129                                    	s32i.n	a2, a1, 44
10003a77:	9129                                    	s32i.n	a2, a1, 36
10003a79:	106122                                    	s32i	a2, a1, 64
10003a7c:	e129                                    	s32i.n	a2, a1, 56
10003a7e:	c129                                    	s32i.n	a2, a1, 48
10003a80:	0a6122                                    	s32i	a2, a1, 40
10003a83:	086122                                    	s32i	a2, a1, 32
10003a86:	ffe5e5                                    	call8	100038e4 <com_msg_send_readback>

10003a89 <ul_spi_on_handler+0x59>:
10003a89:	f49521                                    	l32r	a2, 10000ce0 (10025494 <com_trace_bfn_cpu_offset>)
10003a8c:	f47c                                    	movi.n	a4, -1
10003a8e:	414440                                    	srli	a4, a4, 4
10003a91:	0228                                    	l32i.n	a2, a2, 0
10003a93:	103340                                    	and	a3, a3, a4
10003a96:	223a                                    	add.n	a2, a2, a3
10003a98:	10c1e2                                    	addi	a14, a1, 16
10003a9b:	6a0c                                    	movi.n	a10, 6
10003a9d:	9b4c                                    	movi.n	a11, 73
10003a9f:	1c0c                                    	movi.n	a12, 1
10003aa1:	9d4c                                    	movi.n	a13, 73
10003aa3:	046122                                    	s32i	a2, a1, 16
10003aa6:	fdda25                                    	call8	10001848 <com_debug_trace_buffer>
10003aa9:	1a0c                                    	movi.n	a10, 1
10003aab:	9b4c                                    	movi.n	a11, 73
10003aad:	fdbd65                                    	call8	10001684 <com_func_ts_trace_buffer>
10003ab0:	f01d                                    	retw.n

10003ab2 <ul_spi_on_handler+0x82>:
	...

10003ab4 <ul_spi_off_handler>:
10003ab4:	006136                                    	entry	a1, 48
10003ab7:	00a0a2                                    	movi	a10, 0
10003aba:	4aa0b2                                    	movi	a11, 74
10003abd:	fdbc65                                    	call8	10001684 <com_func_ts_trace_buffer>
10003ac0:	1238                                    	l32i.n	a3, a2, 4
10003ac2:	0228                                    	l32i.n	a2, a2, 0
10003ac4:	15aa20                                    	extui	a10, a2, 26, 2
10003ac7:	fe5ae5                                    	call8	10002074 <com_fsm_off_mode_check>
10003aca:	0afd                                    	mov.n	a15, a10
10003acc:	35b620                                    	extui	a11, a2, 22, 4
10003acf:	1a0c                                    	movi.n	a10, 1
10003ad1:	0c0c                                    	movi.n	a12, 0
10003ad3:	0d0c                                    	movi.n	a13, 0
10003ad5:	0e0c                                    	movi.n	a14, 0
10003ad7:	fe2ea5                                    	call8	10001dc0 <com_fsm_transition_check_quadmask_transition>
10003ada:	aaac                                    	beqz.n	a10, 10003b08 <ul_spi_off_handler+0x54>
10003adc:	1a0c                                    	movi.n	a10, 1
10003ade:	fe5365                                    	call8	10002014 <com_fsm_transition_off_stop>
10003ae1:	3aac                                    	beqz.n	a10, 10003b08 <ul_spi_off_handler+0x54>
10003ae3:	f47f21                                    	l32r	a2, 10000ce0 (10025494 <com_trace_bfn_cpu_offset>)
10003ae6:	f47c                                    	movi.n	a4, -1
10003ae8:	414440                                    	srli	a4, a4, 4
10003aeb:	0228                                    	l32i.n	a2, a2, 0
10003aed:	103340                                    	and	a3, a3, a4
10003af0:	223a                                    	add.n	a2, a2, a3
10003af2:	e1cb                                    	addi.n	a14, a1, 12
10003af4:	6a0c                                    	movi.n	a10, 6
10003af6:	ab4c                                    	movi.n	a11, 74
10003af8:	1c0c                                    	movi.n	a12, 1
10003afa:	ad4c                                    	movi.n	a13, 74
10003afc:	3129                                    	s32i.n	a2, a1, 12
10003afe:	fdd4a5                                    	call8	10001848 <com_debug_trace_buffer>
10003b01:	1a0c                                    	movi.n	a10, 1
10003b03:	ab4c                                    	movi.n	a11, 74
10003b05:	fdb7e5                                    	call8	10001684 <com_func_ts_trace_buffer>

10003b08 <ul_spi_off_handler+0x54>:
10003b08:	f01d                                    	retw.n

10003b0a <ul_spi_off_handler+0x56>:
	...

10003b0c <ul_on_handler>:
10003b0c:	00e136                                    	entry	a1, 112
10003b0f:	00a0a2                                    	movi	a10, 0
10003b12:	41a0b2                                    	movi	a11, 65
10003b15:	fdb6e5                                    	call8	10001684 <com_func_ts_trace_buffer>
10003b18:	0248                                    	l32i.n	a4, a2, 0
10003b1a:	28af62                                    	movi	a6, -216
10003b1d:	2258                                    	l32i.n	a5, a2, 8
10003b1f:	f46060                                    	extui	a6, a6, 0, 16
10003b22:	f47040                                    	extui	a7, a4, 0, 16
10003b25:	580c                                    	movi.n	a8, 5
10003b27:	c06760                                    	sub	a6, a7, a6
10003b2a:	7f0c                                    	movi.n	a15, 7
10003b2c:	93f860                                    	movnez	a15, a8, a6
10003b2f:	35ec50                                    	extui	a14, a5, 28, 4
10003b32:	35b050                                    	extui	a11, a5, 16, 4
10003b35:	35c450                                    	extui	a12, a5, 20, 4
10003b38:	35d850                                    	extui	a13, a5, 24, 4
10003b3b:	1a0c                                    	movi.n	a10, 1
10003b3d:	012232                                    	l32i	a3, a2, 4
10003b40:	032222                                    	l32i	a2, a2, 12
10003b43:	fe27e5                                    	call8	10001dc0 <com_fsm_transition_check_quadmask_transition>
10003b46:	076a16                                    	beqz	a10, 10003bc0 <ul_on_handler+0xb4>
10003b49:	547467                                    	bbci	a4, 22, 10003ba1 <ul_on_handler+0x95>
10003b4c:	c57c                                    	movi.n	a5, -4
10003b4e:	016280                                    	slli	a6, a2, 24
10003b51:	11d200                                    	slli	a13, a2, 16
10003b54:	316f60                                    	srai	a6, a6, 31
10003b57:	040c                                    	movi.n	a4, 0
10003b59:	f45050                                    	extui	a5, a5, 0, 16
10003b5c:	31efd0                                    	srai	a14, a13, 31
10003b5f:	5149                                    	s32i.n	a4, a1, 20
10003b61:	4159                                    	s32i.n	a5, a1, 16
10003b63:	747020                                    	extui	a7, a2, 0, 8
10003b66:	fc7c                                    	movi.n	a12, -1
10003b68:	116680                                    	slli	a6, a6, 8
10003b6b:	116142                                    	s32i	a4, a1, 68
10003b6e:	f149                                    	s32i.n	a4, a1, 60
10003b70:	d149                                    	s32i.n	a4, a1, 52
10003b72:	b149                                    	s32i.n	a4, a1, 44
10003b74:	9149                                    	s32i.n	a4, a1, 36
10003b76:	106142                                    	s32i	a4, a1, 64
10003b79:	e149                                    	s32i.n	a4, a1, 56
10003b7b:	c149                                    	s32i.n	a4, a1, 48
10003b7d:	a149                                    	s32i.n	a4, a1, 40
10003b7f:	8149                                    	s32i.n	a4, a1, 32
10003b81:	7528d0                                    	extui	a2, a13, 24, 8
10003b84:	114e80                                    	slli	a4, a14, 8
10003b87:	4158c0                                    	srli	a5, a12, 8
10003b8a:	242a                                    	add.n	a2, a4, a2
10003b8c:	f76a                                    	add.n	a15, a7, a6
10003b8e:	102250                                    	and	a2, a2, a5
10003b91:	104f50                                    	and	a4, a15, a5
10003b94:	10c1a2                                    	addi	a10, a1, 16
10003b97:	eb0c                                    	movi.n	a11, 14
10003b99:	7129                                    	s32i.n	a2, a1, 28
10003b9b:	066142                                    	s32i	a4, a1, 24
10003b9e:	ffd465                                    	call8	100038e4 <com_msg_send_readback>

10003ba1 <ul_on_handler+0x95>:
10003ba1:	f44f21                                    	l32r	a2, 10000ce0 (10025494 <com_trace_bfn_cpu_offset>)
10003ba4:	10c1e2                                    	addi	a14, a1, 16
10003ba7:	0228                                    	l32i.n	a2, a2, 0
10003ba9:	6a0c                                    	movi.n	a10, 6
10003bab:	223a                                    	add.n	a2, a2, a3
10003bad:	1b4c                                    	movi.n	a11, 65
10003baf:	1c0c                                    	movi.n	a12, 1
10003bb1:	1d4c                                    	movi.n	a13, 65
10003bb3:	046122                                    	s32i	a2, a1, 16
10003bb6:	fdc925                                    	call8	10001848 <com_debug_trace_buffer>
10003bb9:	1a0c                                    	movi.n	a10, 1
10003bbb:	1b4c                                    	movi.n	a11, 65
10003bbd:	fdac65                                    	call8	10001684 <com_func_ts_trace_buffer>
10003bc0:	f01d                                    	retw.n

10003bc2 <ul_on_handler+0xb6>:
	...

10003bc4 <ul_update_control_handler>:
10003bc4:	00e136                                    	entry	a1, 112
10003bc7:	0a0c                                    	movi.n	a10, 0
10003bc9:	4b4c                                    	movi.n	a11, 68
10003bcb:	fdaba5                                    	call8	10001684 <com_func_ts_trace_buffer>
10003bce:	2258                                    	l32i.n	a5, a2, 8
10003bd0:	1a0c                                    	movi.n	a10, 1
10003bd2:	35ec50                                    	extui	a14, a5, 28, 4
10003bd5:	35b050                                    	extui	a11, a5, 16, 4
10003bd8:	35c450                                    	extui	a12, a5, 20, 4
10003bdb:	35d850                                    	extui	a13, a5, 24, 4
10003bde:	6f0c                                    	movi.n	a15, 6
10003be0:	0248                                    	l32i.n	a4, a2, 0
10003be2:	1238                                    	l32i.n	a3, a2, 4
10003be4:	3228                                    	l32i.n	a2, a2, 12
10003be6:	fe1da5                                    	call8	10001dc0 <com_fsm_transition_check_quadmask_transition>
10003be9:	077a16                                    	beqz	a10, 10003c64 <ul_update_control_handler+0xa0>
10003bec:	557467                                    	bbci	a4, 22, 10003c45 <ul_update_control_handler+0x81>
10003bef:	c57c                                    	movi.n	a5, -4
10003bf1:	016280                                    	slli	a6, a2, 24
10003bf4:	11d200                                    	slli	a13, a2, 16
10003bf7:	316f60                                    	srai	a6, a6, 31
10003bfa:	040c                                    	movi.n	a4, 0
10003bfc:	f45050                                    	extui	a5, a5, 0, 16
10003bff:	31efd0                                    	srai	a14, a13, 31
10003c02:	5149                                    	s32i.n	a4, a1, 20
10003c04:	4159                                    	s32i.n	a5, a1, 16
10003c06:	747020                                    	extui	a7, a2, 0, 8
10003c09:	fc7c                                    	movi.n	a12, -1
10003c0b:	116680                                    	slli	a6, a6, 8
10003c0e:	116142                                    	s32i	a4, a1, 68
10003c11:	f149                                    	s32i.n	a4, a1, 60
10003c13:	d149                                    	s32i.n	a4, a1, 52
10003c15:	b149                                    	s32i.n	a4, a1, 44
10003c17:	9149                                    	s32i.n	a4, a1, 36
10003c19:	106142                                    	s32i	a4, a1, 64
10003c1c:	e149                                    	s32i.n	a4, a1, 56
10003c1e:	c149                                    	s32i.n	a4, a1, 48
10003c20:	a149                                    	s32i.n	a4, a1, 40
10003c22:	8149                                    	s32i.n	a4, a1, 32
10003c24:	7528d0                                    	extui	a2, a13, 24, 8
10003c27:	114e80                                    	slli	a4, a14, 8
10003c2a:	4158c0                                    	srli	a5, a12, 8
10003c2d:	242a                                    	add.n	a2, a4, a2
10003c2f:	f76a                                    	add.n	a15, a7, a6
10003c31:	102250                                    	and	a2, a2, a5
10003c34:	104f50                                    	and	a4, a15, a5
10003c37:	10c1a2                                    	addi	a10, a1, 16
10003c3a:	eb0c                                    	movi.n	a11, 14
10003c3c:	076122                                    	s32i	a2, a1, 28
10003c3f:	066142                                    	s32i	a4, a1, 24
10003c42:	ffca25                                    	call8	100038e4 <com_msg_send_readback>

10003c45 <ul_update_control_handler+0x81>:
10003c45:	f42621                                    	l32r	a2, 10000ce0 (10025494 <com_trace_bfn_cpu_offset>)
10003c48:	10c1e2                                    	addi	a14, a1, 16
10003c4b:	0228                                    	l32i.n	a2, a2, 0
10003c4d:	6a0c                                    	movi.n	a10, 6
10003c4f:	223a                                    	add.n	a2, a2, a3
10003c51:	4b4c                                    	movi.n	a11, 68
10003c53:	1c0c                                    	movi.n	a12, 1
10003c55:	4d4c                                    	movi.n	a13, 68
10003c57:	046122                                    	s32i	a2, a1, 16
10003c5a:	fdbee5                                    	call8	10001848 <com_debug_trace_buffer>
10003c5d:	1a0c                                    	movi.n	a10, 1
10003c5f:	4b4c                                    	movi.n	a11, 68
10003c61:	fda225                                    	call8	10001684 <com_func_ts_trace_buffer>
10003c64:	f01d                                    	retw.n

10003c66 <ul_update_control_handler+0xa2>:
	...

10003c68 <ul_off_handler>:
10003c68:	006136                                    	entry	a1, 48
10003c6b:	00a0a2                                    	movi	a10, 0
10003c6e:	42a0b2                                    	movi	a11, 66
10003c71:	fda125                                    	call8	10001684 <com_func_ts_trace_buffer>
10003c74:	001242                                    	l16ui	a4, a2, 0
10003c77:	1238                                    	l32i.n	a3, a2, 4
10003c79:	022222                                    	l32i	a2, a2, 8
10003c7c:	2aaf52                                    	movi	a5, -214
10003c7f:	14a020                                    	extui	a10, a2, 0, 2
10003c82:	fe3f25                                    	call8	10002074 <com_fsm_off_mode_check>
10003c85:	f45050                                    	extui	a5, a5, 0, 16
10003c88:	c04450                                    	sub	a4, a4, a5
10003c8b:	9f0c                                    	movi.n	a15, 9
10003c8d:	93fa40                                    	movnez	a15, a10, a4
10003c90:	35ec20                                    	extui	a14, a2, 28, 4
10003c93:	35b020                                    	extui	a11, a2, 16, 4
10003c96:	35c420                                    	extui	a12, a2, 20, 4
10003c99:	35d820                                    	extui	a13, a2, 24, 4
10003c9c:	01a0a2                                    	movi	a10, 1
10003c9f:	fe1225                                    	call8	10001dc0 <com_fsm_transition_check_quadmask_transition>
10003ca2:	2aac                                    	beqz.n	a10, 10003cc8 <ul_off_handler+0x60>
10003ca4:	1a0c                                    	movi.n	a10, 1
10003ca6:	fe36e5                                    	call8	10002014 <com_fsm_transition_off_stop>
10003ca9:	ba9c                                    	beqz.n	a10, 10003cc8 <ul_off_handler+0x60>
10003cab:	f40d21                                    	l32r	a2, 10000ce0 (10025494 <com_trace_bfn_cpu_offset>)
10003cae:	e1cb                                    	addi.n	a14, a1, 12
10003cb0:	0228                                    	l32i.n	a2, a2, 0
10003cb2:	6a0c                                    	movi.n	a10, 6
10003cb4:	223a                                    	add.n	a2, a2, a3
10003cb6:	2b4c                                    	movi.n	a11, 66
10003cb8:	1c0c                                    	movi.n	a12, 1
10003cba:	2d4c                                    	movi.n	a13, 66
10003cbc:	3129                                    	s32i.n	a2, a1, 12
10003cbe:	fdb8a5                                    	call8	10001848 <com_debug_trace_buffer>
10003cc1:	1a0c                                    	movi.n	a10, 1
10003cc3:	2b4c                                    	movi.n	a11, 66
10003cc5:	fd9be5                                    	call8	10001684 <com_func_ts_trace_buffer>

10003cc8 <ul_off_handler+0x60>:
10003cc8:	f01d                                    	retw.n

10003cca <ul_off_handler+0x62>:
	...

10003ccc <ul_config_ant_grp_handler>:
10003ccc:	008136                                    	entry	a1, 64
10003ccf:	0a0c                                    	movi.n	a10, 0
10003cd1:	3b4c                                    	movi.n	a11, 67
10003cd3:	050c                                    	movi.n	a5, 0
10003cd5:	fd9ae5                                    	call8	10001684 <com_func_ts_trace_buffer>
10003cd8:	3238                                    	l32i.n	a3, a2, 12
10003cda:	12b8                                    	l32i.n	a11, a2, 4
10003cdc:	62c8                                    	l32i.n	a12, a2, 24
10003cde:	52d8                                    	l32i.n	a13, a2, 20
10003ce0:	42e8                                    	l32i.n	a14, a2, 16
10003ce2:	22f8                                    	l32i.n	a15, a2, 8
10003ce4:	0248                                    	l32i.n	a4, a2, 0
10003ce6:	61b9                                    	s32i.n	a11, a1, 24
10003ce8:	71c9                                    	s32i.n	a12, a1, 28
10003cea:	31d9                                    	s32i.n	a13, a1, 12
10003cec:	41e9                                    	s32i.n	a14, a1, 16
10003cee:	51f9                                    	s32i.n	a15, a1, 20
10003cf0:	f60c                                    	movi.n	a6, 15
10003cf2:	020c                                    	movi.n	a2, 0
10003cf4:	f47030                                    	extui	a7, a3, 0, 16
10003cf7:	000186                                    	j	10003d01 <ul_config_ant_grp_handler+0x35>

10003cfa <ul_config_ant_grp_handler+0x2e>:
10003cfa:	221b                                    	addi.n	a2, a2, 1
10003cfc:	554b                                    	addi.n	a5, a5, 4
10003cfe:	204226                                    	beqi	a2, 4, 10003d22 <ul_config_ant_grp_handler+0x56>
10003d01:	400500                                    	ssr	a5
10003d04:	918070                                    	srl	a8, a7
10003d07:	ef0687                                    	bnone	a6, a8, 10003cfa <ul_config_ant_grp_handler+0x2e>
10003d0a:	1a0c                                    	movi.n	a10, 1
10003d0c:	20b220                                    	or	a11, a2, a2
10003d0f:	fe0665                                    	call8	10001d74 <com_fsm_quad_get_status>
10003d12:	0abd                                    	mov.n	a11, a10
10003d14:	1a0c                                    	movi.n	a10, 1
10003d16:	1c0c                                    	movi.n	a12, 1
10003d18:	02dd                                    	mov.n	a13, a2
10003d1a:	fe1b25                                    	call8	10001ecc <com_fsm_quad_transition>
10003d1d:	fd9a56                                    	bnez	a10, 10003cfa <ul_config_ant_grp_handler+0x2e>
10003d20:	f01d                                    	retw.n

10003d22 <ul_config_ant_grp_handler+0x56>:
10003d22:	1a0c                                    	movi.n	a10, 1
10003d24:	fe07a5                                    	call8	10001da0 <com_fsm_get_status>
10003d27:	0abd                                    	mov.n	a11, a10
10003d29:	1a0c                                    	movi.n	a10, 1
10003d2b:	2c0c                                    	movi.n	a12, 2
10003d2d:	fe27a5                                    	call8	10001fa8 <com_fsm_transition>
10003d30:	feca16                                    	beqz	a10, 10003d20 <ul_config_ant_grp_handler+0x54>
10003d33:	ff4d65                                    	call8	10003208 <com_event_new_event>
10003d36:	202aa0                                    	or	a2, a10, a10
10003d39:	ff5125                                    	call8	1000324c <com_event_get_event_p>
10003d3c:	f41e51                                    	l32r	a5, 10000db4 (10003e9c <rx_cfg_msg_handler>)
10003d3f:	61b8                                    	l32i.n	a11, a1, 24
10003d41:	31c8                                    	l32i.n	a12, a1, 12
10003d43:	41d8                                    	l32i.n	a13, a1, 16
10003d45:	51e8                                    	l32i.n	a14, a1, 20
10003d47:	71f8                                    	l32i.n	a15, a1, 28
10003d49:	0a59                                    	s32i.n	a5, a10, 0
10003d4b:	5a49                                    	s32i.n	a4, a10, 20
10003d4d:	6ab9                                    	s32i.n	a11, a10, 24
10003d4f:	aac9                                    	s32i.n	a12, a10, 40
10003d51:	9ad9                                    	s32i.n	a13, a10, 36
10003d53:	8a39                                    	s32i.n	a3, a10, 32
10003d55:	7ae9                                    	s32i.n	a14, a10, 28
10003d57:	baf9                                    	s32i.n	a15, a10, 44
10003d59:	02ad                                    	mov.n	a10, a2
10003d5b:	ff7f65                                    	call8	10003550 <com_event_execute_immediate_event>
10003d5e:	1a0c                                    	movi.n	a10, 1
10003d60:	3b4c                                    	movi.n	a11, 67
10003d62:	fd9225                                    	call8	10001684 <com_func_ts_trace_buffer>
10003d65:	f01d                                    	retw.n

10003d67 <ul_config_ant_grp_handler+0x9b>:
	...

10003d68 <ul_warmup_handler>:
10003d68:	004136                                    	entry	a1, 32
10003d6b:	0a0c                                    	movi.n	a10, 0
10003d6d:	7b4c                                    	movi.n	a11, 71
10003d6f:	00a032                                    	movi	a3, 0
10003d72:	fd9125                                    	call8	10001684 <com_func_ts_trace_buffer>
10003d75:	1a0c                                    	movi.n	a10, 1
10003d77:	2228                                    	l32i.n	a2, a2, 8
10003d79:	fe1f25                                    	call8	10001f6c <com_fsm_transition_run>
10003d7c:	34b020                                    	extui	a11, a2, 0, 4
10003d7f:	1a0c                                    	movi.n	a10, 1
10003d81:	4c0c                                    	movi.n	a12, 4
10003d83:	744020                                    	extui	a4, a2, 0, 8
10003d86:	fe1125                                    	call8	10001e98 <com_fsm_transition_quadmask>
10003d89:	0bb4f6                                    	bgeui	a4, 16, 10003d98 <ul_warmup_handler+0x30>

10003d8c <ul_warmup_handler+0x24>:
10003d8c:	1a0c                                    	movi.n	a10, 1
10003d8e:	47a0b2                                    	movi	a11, 71
10003d91:	fd8f25                                    	call8	10001684 <com_func_ts_trace_buffer>
10003d94:	f01d                                    	retw.n

10003d96 <ul_warmup_handler+0x2e>:
	...

10003d98 <ul_warmup_handler+0x30>:
10003d98:	f3eb71                                    	l32r	a7, 10000d44 (10024610 <rx_daco>)
10003d9b:	f0a042                                    	movi	a4, 240
10003d9e:	00a762                                    	movi	a6, 0x700
10003da1:	106260                                    	and	a6, a2, a6
10003da4:	104240                                    	and	a4, a2, a4
10003da7:	061722                                    	l16ui	a2, a7, 12
10003daa:	f50c                                    	movi.n	a5, 15
10003dac:	418440                                    	srli	a8, a4, 4
10003daf:	116680                                    	slli	a6, a6, 8
10003db2:	10c772                                    	addi	a7, a7, 16
10003db5:	000346                                    	j	10003dc6 <ul_warmup_handler+0x5e>

10003db8 <ul_warmup_handler+0x50>:
10003db8:	412420                                    	srli	a2, a2, 4
10003dbb:	418140                                    	srli	a8, a4, 1
10003dbe:	331b                                    	addi.n	a3, a3, 1
10003dc0:	14c772                                    	addi	a7, a7, 20
10003dc3:	c524b6                                    	bltui	a4, 2, 10003d8c <ul_warmup_handler+0x24>
10003dc6:	0748                                    	l32i.n	a4, a7, 0
10003dc8:	f3fc91                                    	l32r	a9, 10000db8 (fff8ffff <xthals_hw_configid0+0x3ff86d79>)
10003dcb:	34b020                                    	extui	a11, a2, 0, 4
10003dce:	10f490                                    	and	a15, a4, a9
10003dd1:	209f60                                    	or	a9, a15, a6
10003dd4:	084d                                    	mov.n	a4, a8
10003dd6:	0799                                    	s32i.n	a9, a7, 0
10003dd8:	dc0527                                    	bnone	a5, a2, 10003db8 <ul_warmup_handler+0x50>
10003ddb:	74a030                                    	extui	a10, a3, 0, 8
10003dde:	0058a5                                    	call8	10004368 <rx_v2d_en>
10003de1:	fff4c6                                    	j	10003db8 <ul_warmup_handler+0x50>

10003de4 <rm_fbr_cfg_handler>:
10003de4:	004136                                    	entry	a1, 32
10003de7:	3238                                    	l32i.n	a3, a2, 12
10003de9:	f40c                                    	movi.n	a4, 15
10003deb:	280437                                    	bnone	a4, a3, 10003e17 <rm_fbr_cfg_handler+0x33>
10003dee:	f3d541                                    	l32r	a4, 10000d44 (10024610 <rx_daco>)
10003df1:	345030                                    	extui	a5, a3, 0, 4
10003df4:	68c432                                    	addi	a3, a4, 104
10003df7:	198176                                    	loop	a1, 10003e14 <rm_fbr_cfg_handler+0x30>

10003dfa <rm_fbr_cfg_handler+0x16>:
10003dfa:	054d                                    	mov.n	a4, a5
10003dfc:	0b6507                                    	bbci	a5, 0, 10003e0b <rm_fbr_cfg_handler+0x27>
10003dff:	2258                                    	l32i.n	a5, a2, 8
10003e01:	415850                                    	srli	a5, a5, 8
10003e04:	0359                                    	s32i.n	a5, a3, 0
10003e06:	080252                                    	l8ui	a5, a2, 8
10003e09:	1359                                    	s32i.n	a5, a3, 4
10003e0b:	415140                                    	srli	a5, a4, 1
10003e0e:	10c332                                    	addi	a3, a3, 16
10003e11:	0224b6                                    	bltui	a4, 2, 10003e17 <rm_fbr_cfg_handler+0x33>

10003e14 <rm_fbr_cfg_handler+0x30>:
10003e14:	fff886                                    	j	10003dfa <rm_fbr_cfg_handler+0x16>

10003e17 <rm_fbr_cfg_handler+0x33>:
10003e17:	f01d                                    	retw.n

10003e19 <rm_fbr_cfg_handler+0x35>:
10003e19:	000000                                        ...

10003e1c <rx_spi_gain_msg_handler_irq>:
10003e1c:	004136                                    	entry	a1, 32
10003e1f:	0a0c                                    	movi.n	a10, 0
10003e21:	cb4c                                    	movi.n	a11, 76
10003e23:	fd8625                                    	call8	10001684 <com_func_ts_trace_buffer>
10003e26:	7a0c                                    	movi.n	a10, 7
10003e28:	fd6b65                                    	call8	100014e0 <com_mb_isr_clear>
10003e2b:	1a0c                                    	movi.n	a10, 1
10003e2d:	cb4c                                    	movi.n	a11, 76
10003e2f:	fd8565                                    	call8	10001684 <com_func_ts_trace_buffer>
10003e32:	f01d                                    	retw.n

10003e34 <rx_rm_handler_irq>:
10003e34:	00e136                                    	entry	a1, 112
10003e37:	0a0c                                    	movi.n	a10, 0
10003e39:	eb5c                                    	movi.n	a11, 94
10003e3b:	020c                                    	movi.n	a2, 0
10003e3d:	fd8465                                    	call8	10001684 <com_func_ts_trace_buffer>
10003e40:	9a0c                                    	movi.n	a10, 9
10003e42:	fd69e5                                    	call8	100014e0 <com_mb_isr_clear>
10003e45:	5a0c                                    	movi.n	a10, 5
10003e47:	3129                                    	s32i.n	a2, a1, 12
10003e49:	ffbaa5                                    	call8	100039f4 <com_shared_mem_get_queue_block>
10003e4c:	10c1b2                                    	addi	a11, a1, 16
10003e4f:	c1cb                                    	addi.n	a12, a1, 12
10003e51:	0a2d                                    	mov.n	a2, a10
10003e53:	017765                                    	call8	100055c8 <com_queue_read>
10003e56:	082a66                                    	bnei	a10, 2, 10003e62 <rx_rm_handler_irq+0x2e>

10003e59 <rx_rm_handler_irq+0x25>:
10003e59:	1a0c                                    	movi.n	a10, 1
10003e5b:	eb5c                                    	movi.n	a11, 94
10003e5d:	fd8265                                    	call8	10001684 <com_func_ts_trace_buffer>
10003e60:	f01d                                    	retw.n

10003e62 <rx_rm_handler_irq+0x2e>:
10003e62:	f3d641                                    	l32r	a4, 10000dbc (100244c0 <rx_hdlr_lut>)
10003e65:	10c132                                    	addi	a3, a1, 16
10003e68:	51cb                                    	addi.n	a5, a1, 12
10003e6a:	000486                                    	j	10003e80 <rx_rm_handler_irq+0x4c>

10003e6d <rx_rm_handler_irq+0x39>:
10003e6d:	5b0c                                    	movi.n	a11, 5
10003e6f:	06ad                                    	mov.n	a10, a6
10003e71:	fdb1a5                                    	call8	1000198c <com_send_rb_e_INVALID_OPCODE_ERR>
10003e74:	02ad                                    	mov.n	a10, a2
10003e76:	03bd                                    	mov.n	a11, a3
10003e78:	05cd                                    	mov.n	a12, a5
10003e7a:	0174e5                                    	call8	100055c8 <com_queue_read>
10003e7d:	d82a26                                    	beqi	a10, 2, 10003e59 <rx_rm_handler_irq+0x25>
10003e80:	03ad                                    	mov.n	a10, a3
10003e82:	ff8ae5                                    	call8	10003730 <com_msg_get_opcode>
10003e85:	04bd                                    	mov.n	a11, a4
10003e87:	0a6d                                    	mov.n	a6, a10
10003e89:	ff8ae5                                    	call8	10003738 <com_msg_init_handler>
10003e8c:	fdda16                                    	beqz	a10, 10003e6d <rx_rm_handler_irq+0x39>
10003e8f:	0a68                                    	l32i.n	a6, a10, 0
10003e91:	03ad                                    	mov.n	a10, a3
10003e93:	0006e0                                    	callx8	a6
10003e96:	fff686                                    	j	10003e74 <rx_rm_handler_irq+0x40>

10003e99 <rx_rm_handler_irq+0x65>:
10003e99:	000000                                        ...

10003e9c <rx_cfg_msg_handler>:
10003e9c:	010136                                    	entry	a1, 128
10003e9f:	f3a931                                    	l32r	a3, 10000d44 (10024610 <rx_daco>)
10003ea2:	3248                                    	l32i.n	a4, a2, 12
10003ea4:	061352                                    	l16ui	a5, a3, 12
10003ea7:	060c                                    	movi.n	a6, 0
10003ea9:	176162                                    	s32i	a6, a1, 92
10003eac:	166162                                    	s32i	a6, a1, 88
10003eaf:	156162                                    	s32i	a6, a1, 84
10003eb2:	146162                                    	s32i	a6, a1, 80
10003eb5:	020457                                    	bnone	a4, a5, 10003ebb <rx_cfg_msg_handler+0x1f>

10003eb8 <rx_cfg_msg_handler+0x1c>:
10003eb8:	f01d                                    	retw.n

10003eba <rx_cfg_msg_handler+0x1e>:
	...

10003ebb <rx_cfg_msg_handler+0x1f>:
10003ebb:	000362                                    	l8ui	a6, a3, 0
10003ebe:	205540                                    	or	a5, a5, a4
10003ec1:	065352                                    	s16i	a5, a3, 12
10003ec4:	669c                                    	beqz.n	a6, 10003ede <rx_cfg_msg_handler+0x42>
10003ec6:	2258                                    	l32i.n	a5, a2, 8
10003ec8:	f36061                                    	l32r	a6, 10000c48 (10020000 <com_static_data_init>)
10003ecb:	755850                                    	extui	a5, a5, 24, 8
10003ece:	a05560                                    	addx4	a5, a5, a6
10003ed1:	3558                                    	l32i.n	a5, a5, 12
10003ed3:	04a050                                    	extui	a10, a5, 0, 1
10003ed6:	fd68a5                                    	call8	10001560 <com_bfn_set_clk_sel>
10003ed9:	050c                                    	movi.n	a5, 0
10003edb:	004352                                    	s8i	a5, a3, 0
10003ede:	f57c                                    	movi.n	a5, -1
10003ee0:	f45050                                    	extui	a5, a5, 0, 16
10003ee3:	028547                                    	bany	a5, a4, 10003ee9 <rx_cfg_msg_handler+0x4d>
10003ee6:	002286                                    	j	10003f74 <rx_cfg_msg_handler+0xd8>
10003ee9:	f97c                                    	movi.n	a9, -1
10003eeb:	f3b5b1                                    	l32r	a11, 10000dc0 (1fffffe0 <__stack+0xffbffe0>)
10003eee:	f3b5c1                                    	l32r	a12, 10000dc4 (e000001f <xthals_hw_configid0+0x1fff6d99>)
10003ef1:	10c352                                    	addi	a5, a3, 16
10003ef4:	060c                                    	movi.n	a6, 0
10003ef6:	50c172                                    	addi	a7, a1, 80
10003ef9:	0fa082                                    	movi	a8, 15
10003efc:	419890                                    	srli	a9, a9, 8
10003eff:	f0a0a2                                    	movi	a10, 240
10003f02:	01a0d2                                    	movi	a13, 1
10003f05:	688176                                    	loop	a1, 10003f71 <rx_cfg_msg_handler+0xd5>
10003f08:	550847                                    	bnone	a8, a4, 10003f61 <rx_cfg_msg_handler+0xc5>
10003f0b:	0b02e2                                    	l8ui	a14, a2, 11
10003f0e:	0045e2                                    	s8i	a14, a5, 0
10003f11:	22e8                                    	l32i.n	a14, a2, 8
10003f13:	0705f2                                    	l8ui	a15, a5, 7
10003f16:	10ee90                                    	and	a14, a14, a9
10003f19:	01ff80                                    	slli	a15, a15, 24
10003f1c:	ffea                                    	add.n	a15, a15, a14
10003f1e:	15f9                                    	s32i.n	a15, a5, 4
10003f20:	1005e2                                    	l8ui	a14, a5, 16
10003f23:	62f8                                    	l32i.n	a15, a2, 24
10003f25:	10eea0                                    	and	a14, a14, a10
10003f28:	35f9f0                                    	extui	a15, a15, 25, 4
10003f2b:	efea                                    	add.n	a14, a15, a14
10003f2d:	1045e2                                    	s8i	a14, a5, 16
10003f30:	52e8                                    	l32i.n	a14, a2, 20
10003f32:	25f8                                    	l32i.n	a15, a5, 8
10003f34:	11eeb0                                    	slli	a14, a14, 5
10003f37:	10ffc0                                    	and	a15, a15, a12
10003f3a:	10eeb0                                    	and	a14, a14, a11
10003f3d:	eefa                                    	add.n	a14, a14, a15
10003f3f:	25e9                                    	s32i.n	a14, a5, 8
10003f41:	62e8                                    	l32i.n	a14, a2, 24
10003f43:	0f05f2                                    	l8ui	a15, a5, 15
10003f46:	10ee90                                    	and	a14, a14, a9
10003f49:	01ff80                                    	slli	a15, a15, 24
10003f4c:	eefa                                    	add.n	a14, a14, a15
10003f4e:	35e9                                    	s32i.n	a14, a5, 12
10003f50:	401600                                    	ssl	a6
10003f53:	0e03e2                                    	l8ui	a14, a3, 14
10003f56:	a1fd00                                    	sll	a15, a13
10003f59:	20eef0                                    	or	a14, a14, a15
10003f5c:	07d9                                    	s32i.n	a13, a7, 0
10003f5e:	0e43e2                                    	s8i	a14, a3, 14
10003f61:	f4e040                                    	extui	a14, a4, 0, 16
10003f64:	661b                                    	addi.n	a6, a6, 1
10003f66:	774b                                    	addi.n	a7, a7, 4
10003f68:	14c552                                    	addi	a5, a5, 20
10003f6b:	4144e0                                    	srli	a4, a14, 4
10003f6e:	02beb6                                    	bltui	a14, 16, 10003f74 <rx_cfg_msg_handler+0xd8>

10003f71 <rx_cfg_msg_handler+0xd5>:
10003f71:	ffe4c6                                    	j	10003f08 <rx_cfg_msg_handler+0x6c>

10003f74 <rx_cfg_msg_handler+0xd8>:
10003f74:	0612a2                                    	l16ui	a10, a2, 12
10003f77:	0019a5                                    	call8	10004110 <rx_lineup_cfg>
10003f7a:	020222                                    	l8ui	a2, a2, 2
10003f7d:	02e267                                    	bbsi	a2, 6, 10003f83 <rx_cfg_msg_handler+0xe7>
10003f80:	ffcd06                                    	j	10003eb8 <rx_cfg_msg_handler+0x1c>
10003f83:	fdc0e5                                    	call8	10001b90 <com_timing_get_current_bfn_time>
10003f86:	142122                                    	l32i	a2, a1, 80
10003f89:	152132                                    	l32i	a3, a1, 84
10003f8c:	162142                                    	l32i	a4, a1, 88
10003f8f:	172152                                    	l32i	a5, a1, 92
10003f92:	042020                                    	extui	a2, a2, 0, 1
10003f95:	043030                                    	extui	a3, a3, 0, 1
10003f98:	044040                                    	extui	a4, a4, 0, 1
10003f9b:	045050                                    	extui	a5, a5, 0, 1
10003f9e:	1122f0                                    	slli	a2, a2, 1
10003fa1:	1133e0                                    	slli	a3, a3, 2
10003fa4:	1144d0                                    	slli	a4, a4, 3
10003fa7:	1155c0                                    	slli	a5, a5, 4
10003faa:	223a                                    	add.n	a2, a2, a3
10003fac:	e45a                                    	add.n	a14, a4, a5
10003fae:	22ea                                    	add.n	a2, a2, a14
10003fb0:	f386f1                                    	l32r	a15, 10000dc8 (1ffec <xthals_release_major+0x1c554>)
10003fb3:	51a9                                    	s32i.n	a10, a1, 20
10003fb5:	221b                                    	addi.n	a2, a2, 1
10003fb7:	10c1a2                                    	addi	a10, a1, 16
10003fba:	3b0c                                    	movi.n	a11, 3
10003fbc:	41f9                                    	s32i.n	a15, a1, 16
10003fbe:	6129                                    	s32i.n	a2, a1, 24
10003fc0:	ff9225                                    	call8	100038e4 <com_msg_send_readback>
10003fc3:	f01d                                    	retw.n

10003fc5 <rx_cfg_msg_handler+0x129>:
10003fc5:	000000                                        ...

10003fc8 <ul_set_time_ref_handler>:
10003fc8:	004136                                    	entry	a1, 32
10003fcb:	0228                                    	l32i.n	a2, a2, 0
10003fcd:	fdbc25                                    	call8	10001b90 <com_timing_get_current_bfn_time>
10003fd0:	0abd                                    	mov.n	a11, a10
10003fd2:	35a220                                    	extui	a10, a2, 18, 4
10003fd5:	ff78e5                                    	call8	10003764 <com_msg_ref_timestamp_set>
10003fd8:	f01d                                    	retw.n

10003fda <ul_set_time_ref_handler+0x12>:
	...

10003fdc <rx_adc_cal_isr_initialize>:
10003fdc:	004136                                    	entry	a1, 32
10003fdf:	f37b21                                    	l32r	a2, 10000dcc (10004024 <rx_adc_cal_handler>)
10003fe2:	68a0a2                                    	movi	a10, 104
10003fe5:	0c0c                                    	movi.n	a12, 0
10003fe7:	02bd                                    	mov.n	a11, a2
10003fe9:	fd2865                                    	call8	10001270 <com_isr_event>
10003fec:	68a0a2                                    	movi	a10, 104
10003fef:	fd3565                                    	call8	10001344 <com_isr_interrupt_enable>
10003ff2:	69a0a2                                    	movi	a10, 105
10003ff5:	1c0c                                    	movi.n	a12, 1
10003ff7:	02bd                                    	mov.n	a11, a2
10003ff9:	fd2765                                    	call8	10001270 <com_isr_event>
10003ffc:	69a0a2                                    	movi	a10, 105
10003fff:	fd3465                                    	call8	10001344 <com_isr_interrupt_enable>
10004002:	78a0a2                                    	movi	a10, 120
10004005:	2c0c                                    	movi.n	a12, 2
10004007:	02bd                                    	mov.n	a11, a2
10004009:	fd2665                                    	call8	10001270 <com_isr_event>
1000400c:	78a0a2                                    	movi	a10, 120
1000400f:	fd3365                                    	call8	10001344 <com_isr_interrupt_enable>
10004012:	79a0a2                                    	movi	a10, 121
10004015:	3c0c                                    	movi.n	a12, 3
10004017:	02bd                                    	mov.n	a11, a2
10004019:	fd2565                                    	call8	10001270 <com_isr_event>
1000401c:	79a0a2                                    	movi	a10, 121
1000401f:	fd3265                                    	call8	10001344 <com_isr_interrupt_enable>
10004022:	f01d                                    	retw.n

10004024 <rx_adc_cal_handler>:
10004024:	004136                                    	entry	a1, 32
10004027:	f36a31                                    	l32r	a3, 10000dd0 (10024240 <p_adc_cpu>)
1000402a:	041c                                    	movi.n	a4, 16
1000402c:	a03230                                    	addx4	a3, a2, a3
1000402f:	0338                                    	l32i.n	a3, a3, 0
10004031:	6358                                    	l32i.n	a5, a3, 24
10004033:	206342                                    	s32i	a4, a3, 128
10004036:	006596                                    	bltz	a5, 10004040 <rx_adc_cal_handler+0x1c>
10004039:	0020c0                                    	memw
1000403c:	f01d                                    	retw.n

1000403e <rx_adc_cal_handler+0x1a>:
	...

10004040 <rx_adc_cal_handler+0x1c>:
10004040:	006f40                                    	rsil	a4, 15
10004043:	f34051                                    	l32r	a5, 10000d44 (10024610 <rx_daco>)
10004046:	1122c0                                    	slli	a2, a2, 4
10004049:	252a                                    	add.n	a2, a5, a2
1000404b:	2f0c                                    	movi.n	a15, 2
1000404d:	1862f2                                    	s32i	a15, a2, 96
10004050:	13e640                                    	wsr.ps	a4
10004053:	002020                                    	esync
10004056:	120c                                    	movi.n	a2, 1
10004058:	8329                                    	s32i.n	a2, a3, 32
1000405a:	0020c0                                    	memw
1000405d:	f01d                                    	retw.n

1000405f <rx_adc_cal_handler+0x3b>:
	...

10004060 <boot_ana>:
10004060:	004136                                    	entry	a1, 32
10004063:	f35b31                                    	l32r	a3, 10000dd0 (10024240 <p_adc_cpu>)
10004066:	f33741                                    	l32r	a4, 10000d44 (10024610 <rx_daco>)
10004069:	a0d230                                    	addx4	a13, a2, a3
1000406c:	1152c0                                    	slli	a5, a2, 4
1000406f:	0d28                                    	l32i.n	a2, a13, 0
10004071:	1e0c                                    	movi.n	a14, 1
10004073:	445a                                    	add.n	a4, a4, a5
10004075:	0f0c                                    	movi.n	a15, 0
10004077:	1864e2                                    	s32i	a14, a4, 96
1000407a:	12f9                                    	s32i.n	a15, a2, 4
1000407c:	f01d                                    	retw.n

1000407e <boot_ana+0x1e>:
	...

10004080 <main>:
10004080:	004136                                    	entry	a1, 32
10004083:	fe01e5                                    	call8	100020a0 <core_fw_mismatch_check>
10004086:	fe1065                                    	call8	1000218c <dbg_n_trace>
10004089:	5a0c                                    	movi.n	a10, 5
1000408b:	ff96a5                                    	call8	100039f4 <com_shared_mem_get_queue_block>
1000408e:	014825                                    	call8	10005510 <com_queue_init>
10004091:	1a0c                                    	movi.n	a10, 1
10004093:	07a0b2                                    	movi	a11, 7
10004096:	ff8fa5                                    	call8	10003990 <com_shared_mem_set_sys_status>
10004099:	006f20                                    	rsil	a2, 15
1000409c:	1a0c                                    	movi.n	a10, 1
1000409e:	09a0b2                                    	movi	a11, 9
100040a1:	ff8ee5                                    	call8	10003990 <com_shared_mem_set_sys_status>
100040a4:	fe10a5                                    	call8	100021b0 <com_boot_init>
100040a7:	f34ba1                                    	l32r	a10, 10000dd4 (10024600 <rx_msg_irq_hdlr_map>)
100040aa:	02a0b2                                    	movi	a11, 2
100040ad:	ff8b65                                    	call8	10003964 <com_msg_init_mb_irq>
100040b0:	1a0c                                    	movi.n	a10, 1
100040b2:	0fa0b2                                    	movi	a11, 15
100040b5:	ff8da5                                    	call8	10003990 <com_shared_mem_set_sys_status>
100040b8:	1a0c                                    	movi.n	a10, 1
100040ba:	fdc6a5                                    	call8	10001d24 <com_fsm_init>
100040bd:	1a0c                                    	movi.n	a10, 1
100040bf:	6b0c                                    	movi.n	a11, 6
100040c1:	ff8ce5                                    	call8	10003990 <com_shared_mem_set_sys_status>
100040c4:	006020                                    	rsil	a2, 0
100040c7:	01a0a2                                    	movi	a10, 1
100040ca:	0aa0b2                                    	movi	a11, 10
100040cd:	ff8c25                                    	call8	10003990 <com_shared_mem_set_sys_status>
100040d0:	fff0a5                                    	call8	10003fdc <rx_adc_cal_isr_initialize>
100040d3:	f2dd21                                    	l32r	a2, 10000c48 (10020000 <com_static_data_init>)
100040d6:	e8a332                                    	movi	a3, 0x3e8
100040d9:	002222                                    	l32i	a2, a2, 0
100040dc:	a44d20                                    	extui	a4, a2, 13, 11
100040df:	75a820                                    	extui	a10, a2, 24, 8
100040e2:	d1b430                                    	mul16s	a11, a4, a3
100040e5:	fe00e5                                    	call8	100020f4 <core_sync_up>
100040e8:	01a0a2                                    	movi	a10, 1
100040eb:	fdcb65                                    	call8	10001da0 <com_fsm_get_status>
100040ee:	0abd                                    	mov.n	a11, a10
100040f0:	01a0a2                                    	movi	a10, 1
100040f3:	01a0c2                                    	movi	a12, 1
100040f6:	fdeb25                                    	call8	10001fa8 <com_fsm_transition>
100040f9:	ff4ce5                                    	call8	100035c8 <com_event_event_loop>
100040fc:	01a0a2                                    	movi	a10, 1
100040ff:	14a0b2                                    	movi	a11, 20
10004102:	ff88e5                                    	call8	10003990 <com_shared_mem_set_sys_status>
10004105:	048176                                    	loop	a1, 1000410d <main+0x8d>

10004108 <main+0x88>:
10004108:	007000                                    	waiti	0
1000410b:	f03d                                    	nop.n

1000410d <main+0x8d>:
1000410d:	fffdc6                                    	j	10004108 <main+0x88>

10004110 <rx_lineup_cfg>:
10004110:	00c136                                    	entry	a1, 96
10004113:	10d216                                    	beqz	a2, 10004224 <rx_lineup_cfg+0x114>
10004116:	f30b51                                    	l32r	a5, 10000d44 (10024610 <rx_daco>)
10004119:	68a432                                    	movi	a3, 0x468
1000411c:	c8a342                                    	movi	a4, 0x3c8
1000411f:	060c                                    	movi.n	a6, 0
10004121:	0e0c                                    	movi.n	a14, 0
10004123:	353a                                    	add.n	a3, a5, a3
10004125:	f54a                                    	add.n	a15, a5, a4
10004127:	7169                                    	s32i.n	a6, a1, 28
10004129:	41e9                                    	s32i.n	a14, a1, 16
1000412b:	6139                                    	s32i.n	a3, a1, 24
1000412d:	51f9                                    	s32i.n	a15, a1, 20
1000412f:	000986                                    	j	10004159 <rx_lineup_cfg+0x49>

10004132 <rx_lineup_cfg+0x22>:
10004132:	4138                                    	l32i.n	a3, a1, 16
10004134:	51e8                                    	l32i.n	a14, a1, 20
10004136:	331b                                    	addi.n	a3, a3, 1
10004138:	6148                                    	l32i.n	a4, a1, 24
1000413a:	71f8                                    	l32i.n	a15, a1, 28
1000413c:	9158                                    	l32i.n	a5, a1, 36
1000413e:	4139                                    	s32i.n	a3, a1, 16
10004140:	c0a0d2                                    	movi	a13, 192
10004143:	50ce32                                    	addi	a3, a14, 80
10004146:	44da                                    	add.n	a4, a4, a13
10004148:	5139                                    	s32i.n	a3, a1, 20
1000414a:	3f4b                                    	addi.n	a3, a15, 4
1000414c:	412850                                    	srli	a2, a5, 8
1000414f:	6149                                    	s32i.n	a4, a1, 24
10004151:	7139                                    	s32i.n	a3, a1, 28
10004153:	02f5f6                                    	bgeui	a5, 0x100, 10004159 <rx_lineup_cfg+0x49>
10004156:	003286                                    	j	10004224 <rx_lineup_cfg+0x114>
10004159:	ffa0f2                                    	movi	a15, 255
1000415c:	9129                                    	s32i.n	a2, a1, 36
1000415e:	d00f27                                    	bnone	a15, a2, 10004132 <rx_lineup_cfg+0x22>
10004161:	9128                                    	l32i.n	a2, a1, 36
10004163:	4138                                    	l32i.n	a3, a1, 16
10004165:	742020                                    	extui	a2, a2, 0, 8
10004168:	20a330                                    	or	a10, a3, a3
1000416b:	20b220                                    	or	a11, a2, a2
1000416e:	fea125                                    	call8	10002b80 <fb_ant_swg_cfg>
10004171:	03ad                                    	mov.n	a10, a3
10004173:	02bd                                    	mov.n	a11, a2
10004175:	fe69e5                                    	call8	10002814 <com_sys_swg_cfg>
10004178:	7158                                    	l32i.n	a5, a1, 28
1000417a:	5148                                    	l32i.n	a4, a1, 20
1000417c:	6168                                    	l32i.n	a6, a1, 24
1000417e:	1133f0                                    	slli	a3, a3, 1
10004181:	0008c6                                    	j	100041a8 <rx_lineup_cfg+0x98>

10004184 <rx_lineup_cfg+0x74>:
10004184:	f138                                    	l32i.n	a3, a1, 60
10004186:	41a8                                    	l32i.n	a10, a1, 16
10004188:	04b030                                    	extui	a11, a3, 0, 1
1000418b:	0009e5                                    	call8	10004228 <rx_gain_fbsys_cfg>
1000418e:	e158                                    	l32i.n	a5, a1, 56
10004190:	d148                                    	l32i.n	a4, a1, 52
10004192:	0c2162                                    	l32i	a6, a1, 48
10004195:	0b2172                                    	l32i	a7, a1, 44
10004198:	412470                                    	srli	a2, a7, 4
1000419b:	331b                                    	addi.n	a3, a3, 1
1000419d:	60c662                                    	addi	a6, a6, 96
100041a0:	28c442                                    	addi	a4, a4, 40
100041a3:	552b                                    	addi.n	a5, a5, 2
100041a5:	89b7b6                                    	bltui	a7, 16, 10004132 <rx_lineup_cfg+0x22>
100041a8:	027d                                    	mov.n	a7, a2
100041aa:	ff0c                                    	movi.n	a15, 15
100041ac:	e80f27                                    	bnone	a15, a2, 10004198 <rx_lineup_cfg+0x88>
100041af:	f139                                    	s32i.n	a3, a1, 60
100041b1:	b179                                    	s32i.n	a7, a1, 44
100041b3:	342070                                    	extui	a2, a7, 0, 4
100041b6:	043d                                    	mov.n	a3, a4
100041b8:	d149                                    	s32i.n	a4, a1, 52
100041ba:	c169                                    	s32i.n	a6, a1, 48
100041bc:	8169                                    	s32i.n	a6, a1, 32
100041be:	e159                                    	s32i.n	a5, a1, 56
100041c0:	000506                                    	j	100041d8 <rx_lineup_cfg+0xc8>

100041c3 <rx_lineup_cfg+0xb3>:
	...

100041c4 <rx_lineup_cfg+0xb4>:
100041c4:	8148                                    	l32i.n	a4, a1, 32
100041c6:	a168                                    	l32i.n	a6, a1, 40
100041c8:	30c442                                    	addi	a4, a4, 48
100041cb:	412260                                    	srli	a2, a6, 2
100041ce:	551b                                    	addi.n	a5, a5, 1
100041d0:	14c332                                    	addi	a3, a3, 20
100041d3:	8149                                    	s32i.n	a4, a1, 32
100041d5:	ab46b6                                    	bltui	a6, 4, 10004184 <rx_lineup_cfg+0x74>
100041d8:	3f0c                                    	movi.n	a15, 3
100041da:	a129                                    	s32i.n	a2, a1, 40
100041dc:	e40f27                                    	bnone	a15, a2, 100041c4 <rx_lineup_cfg+0xb4>
100041df:	042050                                    	extui	a2, a5, 0, 1
100041e2:	f2d841                                    	l32r	a4, 10000d44 (10024610 <rx_daco>)
100041e5:	a02220                                    	addx4	a2, a2, a2
100041e8:	a02240                                    	addx4	a2, a2, a4
100041eb:	a1f8                                    	l32i.n	a15, a1, 40
100041ed:	10c262                                    	addi	a6, a2, 16
100041f0:	06ad                                    	mov.n	a10, a6
100041f2:	81b8                                    	l32i.n	a11, a1, 32
100041f4:	1470f0                                    	extui	a7, a15, 0, 2
100041f7:	fe36e5                                    	call8	10002564 <com_vha_nco_cfg>
100041fa:	020c                                    	movi.n	a2, 0
100041fc:	000206                                    	j	10004208 <rx_lineup_cfg+0xf8>

100041ff <rx_lineup_cfg+0xef>:
	...

10004200 <rx_lineup_cfg+0xf0>:
10004200:	417140                                    	srli	a7, a4, 1
10004203:	221b                                    	addi.n	a2, a2, 1
10004205:	bb24b6                                    	bltui	a4, 2, 100041c4 <rx_lineup_cfg+0xb4>
10004208:	074d                                    	mov.n	a4, a7
1000420a:	f26707                                    	bbci	a7, 0, 10004200 <rx_lineup_cfg+0xf0>
1000420d:	05ad                                    	mov.n	a10, a5
1000420f:	02bd                                    	mov.n	a11, a2
10004211:	000365                                    	call8	10004248 <rx_gain_trxsys_cfg>
10004214:	74c020                                    	extui	a12, a2, 0, 8
10004217:	20a660                                    	or	a10, a6, a6
1000421a:	20b330                                    	or	a11, a3, a3
1000421d:	000625                                    	call8	10004280 <rx_v2d_cfg_seq>
10004220:	fff706                                    	j	10004200 <rx_lineup_cfg+0xf0>

10004223 <rx_lineup_cfg+0x113>:
	...

10004224 <rx_lineup_cfg+0x114>:
10004224:	f01d                                    	retw.n

10004226 <rx_lineup_cfg+0x116>:
	...

10004228 <rx_gain_fbsys_cfg>:
10004228:	004136                                    	entry	a1, 32
1000422b:	f2c641                                    	l32r	a4, 10000d44 (10024610 <rx_daco>)
1000422e:	f02220                                    	subx8	a2, a2, a2
10004231:	a02240                                    	addx4	a2, a2, a4
10004234:	b02320                                    	addx8	a2, a3, a2
10004237:	f285d1                                    	l32r	a13, 10000c4c (10020314 <rx_static_data_init>)
1000423a:	e42222                                    	l32i	a2, a2, 0x390
1000423d:	ede8                                    	l32i.n	a14, a13, 56
1000423f:	0f0c                                    	movi.n	a15, 0
10004241:	02e9                                    	s32i.n	a14, a2, 0
10004243:	42f9                                    	s32i.n	a15, a2, 16
10004245:	f01d                                    	retw.n

10004247 <rx_gain_fbsys_cfg+0x1f>:
	...

10004248 <rx_gain_trxsys_cfg>:
10004248:	004136                                    	entry	a1, 32
1000424b:	f2be41                                    	l32r	a4, 10000d44 (10024610 <rx_daco>)
1000424e:	902220                                    	addx2	a2, a2, a2
10004251:	b02240                                    	addx8	a2, a2, a4
10004254:	b02320                                    	addx8	a2, a3, a2
10004257:	f27dd1                                    	l32r	a13, 10000c4c (10020314 <rx_static_data_init>)
1000425a:	902222                                    	l32i	a2, a2, 0x240
1000425d:	ede8                                    	l32i.n	a14, a13, 56
1000425f:	0f0c                                    	movi.n	a15, 0
10004261:	02e9                                    	s32i.n	a14, a2, 0
10004263:	42f9                                    	s32i.n	a15, a2, 16
10004265:	f01d                                    	retw.n

10004267 <rx_gain_trxsys_cfg+0x1f>:
	...

10004268 <rx_daco_clear>:
10004268:	004136                                    	entry	a1, 32
1000426b:	f2b621                                    	l32r	a2, 10000d44 (10024610 <rx_daco>)
1000426e:	130c                                    	movi.n	a3, 1
10004270:	a24b                                    	addi.n	a10, a2, 4
10004272:	0b0c                                    	movi.n	a11, 0
10004274:	aca0c2                                    	movi	a12, 172
10004277:	004232                                    	s8i	a3, a2, 0
1000427a:	0159a5                                    	call8	10005814 <memset>
1000427d:	f01d                                    	retw.n

1000427f <rx_daco_clear+0x17>:
	...

10004280 <rx_v2d_cfg_seq>:
10004280:	004136                                    	entry	a1, 32
10004283:	100262                                    	l8ui	a6, a2, 16
10004286:	f27051                                    	l32r	a5, 10000c48 (10020000 <com_static_data_init>)
10004289:	346060                                    	extui	a6, a6, 0, 4
1000428c:	a06650                                    	addx4	a6, a6, a5
1000428f:	02d662                                    	addmi	a6, a6, 0x200
10004292:	561662                                    	l16ui	a6, a6, 172
10004295:	000272                                    	l8ui	a7, a2, 0
10004298:	f279b1                                    	l32r	a11, 10000c7c (100244b8 <p_system_data>)
1000429b:	412f60                                    	srli	a2, a6, 15
1000429e:	418c60                                    	srli	a8, a6, 12
100042a1:	578176                                    	loop	a1, 100042fc <rx_v2d_cfg_seq+0x7c>

100042a4 <rx_v2d_cfg_seq+0x24>:
100042a4:	0b68                                    	l32i.n	a6, a11, 0
100042a6:	28c692                                    	addi	a9, a6, 40
100042a9:	006f60                                    	rsil	a6, 15
100042ac:	f149a0                                    	l32ex	a10, a9
100042af:	7a8c                                    	beqz.n	a10, 100042ba <rx_v2d_cfg_seq+0x3a>
100042b1:	13e660                                    	wsr.ps	a6
100042b4:	002020                                    	esync
100042b7:	000446                                    	j	100042cc <rx_v2d_cfg_seq+0x4c>

100042ba <rx_v2d_cfg_seq+0x3a>:
100042ba:	1a0c                                    	movi.n	a10, 1
100042bc:	f159a0                                    	s32ex	a10, a9
100042bf:	090c                                    	movi.n	a9, 0
100042c1:	40a090                                    	getex	a9
100042c4:	13e660                                    	wsr.ps	a6
100042c7:	002020                                    	esync
100042ca:	29fc                                    	bnez.n	a9, 10004300 <rx_v2d_cfg_seq+0x80>
100042cc:	0020f0                                    	nop
100042cf:	0020f0                                    	nop
100042d2:	0020f0                                    	nop
100042d5:	0020f0                                    	nop
100042d8:	0020f0                                    	nop
100042db:	0020f0                                    	nop
100042de:	0020f0                                    	nop
100042e1:	0020f0                                    	nop
100042e4:	0020f0                                    	nop
100042e7:	0020f0                                    	nop
100042ea:	0020f0                                    	nop
100042ed:	0020f0                                    	nop
100042f0:	0020f0                                    	nop
100042f3:	0020f0                                    	nop
100042f6:	0020f0                                    	nop
100042f9:	0020f0                                    	nop

100042fc <rx_v2d_cfg_seq+0x7c>:
100042fc:	ffe906                                    	j	100042a4 <rx_v2d_cfg_seq+0x24>

100042ff <rx_v2d_cfg_seq+0x7f>:
	...

10004300 <rx_v2d_cfg_seq+0x80>:
10004300:	790c                                    	movi.n	a9, 7
10004302:	b06430                                    	addx8	a6, a4, a3
10004305:	440987                                    	bnone	a9, a8, 1000434d <rx_v2d_cfg_seq+0xcd>
10004308:	902220                                    	addx2	a2, a2, a2
1000430b:	11d2c0                                    	slli	a13, a2, 4
1000430e:	ff7c                                    	movi.n	a15, -1
10004310:	a0c750                                    	addx4	a12, a7, a5
10004313:	249080                                    	extui	a9, a8, 0, 3
10004316:	e5da                                    	add.n	a14, a5, a13
10004318:	018f10                                    	slli	a8, a15, 31
1000431b:	f2af41                                    	l32r	a4, 10000dd8 (7ffffc00 <_memmap_cacheattr_bp_allvalid+0x3bbbb7bc>)
1000431e:	70a072                                    	movi	a7, 112
10004321:	0c2d                                    	mov.n	a2, a12
10004323:	0e3d                                    	mov.n	a3, a14
10004325:	085d                                    	mov.n	a5, a8
10004327:	228976                                    	loop	a9, 1000434d <rx_v2d_cfg_seq+0xcd>
1000432a:	1688                                    	l32i.n	a8, a6, 4
1000432c:	3298                                    	l32i.n	a9, a2, 12
1000432e:	887a                                    	add.n	a8, a8, a7
10004330:	449690                                    	extui	a9, a9, 6, 5
10004333:	0888                                    	l32i.n	a8, a8, 0
10004335:	a09930                                    	addx4	a9, a9, a3
10004338:	108840                                    	and	a8, a8, a4
1000433b:	885a                                    	add.n	a8, a8, a5
1000433d:	ad29a2                                    	l32i	a10, a9, 0x2b4
10004340:	1698                                    	l32i.n	a9, a6, 4
10004342:	94a0a0                                    	extui	a10, a10, 0, 10
10004345:	997a                                    	add.n	a9, a9, a7
10004347:	774b                                    	addi.n	a7, a7, 4
10004349:	8a8a                                    	add.n	a8, a10, a8
1000434b:	0989                                    	s32i.n	a8, a9, 0
1000434d:	1628                                    	l32i.n	a2, a6, 4
1000434f:	00af32                                    	movi	a3, 0xffffff00
10004352:	192222                                    	l32i	a2, a2, 100
10004355:	1648                                    	l32i.n	a4, a6, 4
10004357:	102230                                    	and	a2, a2, a3
1000435a:	196422                                    	s32i	a2, a4, 100
1000435d:	0020c0                                    	memw
10004360:	0b28                                    	l32i.n	a2, a11, 0
10004362:	030c                                    	movi.n	a3, 0
10004364:	a239                                    	s32i.n	a3, a2, 40
10004366:	f01d                                    	retw.n

10004368 <rx_v2d_en>:
10004368:	004136                                    	entry	a1, 32
1000436b:	0b4316                                    	beqz	a3, 10004423 <rx_v2d_en+0xbb>
1000436e:	f27541                                    	l32r	a4, 10000d44 (10024610 <rx_daco>)
10004371:	f24261                                    	l32r	a6, 10000c7c (100244b8 <p_system_data>)
10004374:	1122f0                                    	slli	a2, a2, 1
10004377:	350c                                    	movi.n	a5, 3
10004379:	170c                                    	movi.n	a7, 1
1000437b:	080c                                    	movi.n	a8, 0
1000437d:	000286                                    	j	1000438b <rx_v2d_en+0x23>

10004380 <rx_v2d_en+0x18>:
10004380:	413290                                    	srli	a3, a9, 2
10004383:	221b                                    	addi.n	a2, a2, 1
10004385:	0249f6                                    	bgeui	a9, 4, 1000438b <rx_v2d_en+0x23>
10004388:	0025c6                                    	j	10004423 <rx_v2d_en+0xbb>
1000438b:	039d                                    	mov.n	a9, a3
1000438d:	ef0537                                    	bnone	a5, a3, 10004380 <rx_v2d_en+0x18>
10004390:	743020                                    	extui	a3, a2, 0, 8
10004393:	a03330                                    	addx4	a3, a3, a3
10004396:	14b090                                    	extui	a11, a9, 0, 2
10004399:	a03340                                    	addx4	a3, a3, a4
1000439c:	000786                                    	j	100043be <rx_v2d_en+0x56>

1000439f <rx_v2d_en+0x37>:
	...

100043a0 <rx_v2d_en+0x38>:
100043a0:	f323b2                                    	l32i	a11, a3, 0x3cc
100043a3:	182bb2                                    	l32i	a11, a11, 96
100043a6:	f323c2                                    	l32i	a12, a3, 0x3cc
100043a9:	20bb70                                    	or	a11, a11, a7
100043ac:	186cb2                                    	s32i	a11, a12, 96
100043af:	0020c0                                    	memw
100043b2:	06b8                                    	l32i.n	a11, a6, 0
100043b4:	ab89                                    	s32i.n	a8, a11, 40
100043b6:	41b1a0                                    	srli	a11, a10, 1
100043b9:	338b                                    	addi.n	a3, a3, 8
100043bb:	c12ab6                                    	bltui	a10, 2, 10004380 <rx_v2d_en+0x18>
100043be:	0bad                                    	mov.n	a10, a11
100043c0:	f26b07                                    	bbci	a11, 0, 100043b6 <rx_v2d_en+0x4e>
100043c3:	598176                                    	loop	a1, 10004420 <rx_v2d_en+0xb8>
100043c6:	06b8                                    	l32i.n	a11, a6, 0
100043c8:	28cbc2                                    	addi	a12, a11, 40
100043cb:	006fb0                                    	rsil	a11, 15
100043ce:	f14cd0                                    	l32ex	a13, a12
100043d1:	8d8c                                    	beqz.n	a13, 100043dd <rx_v2d_en+0x75>
100043d3:	13e6b0                                    	wsr.ps	a11
100043d6:	002020                                    	esync
100043d9:	0004c6                                    	j	100043f0 <rx_v2d_en+0x88>

100043dc <rx_v2d_en+0x74>:
	...

100043dd <rx_v2d_en+0x75>:
100043dd:	1d0c                                    	movi.n	a13, 1
100043df:	f15cd0                                    	s32ex	a13, a12
100043e2:	0c0c                                    	movi.n	a12, 0
100043e4:	40a0c0                                    	getex	a12
100043e7:	13e6b0                                    	wsr.ps	a11
100043ea:	002020                                    	esync
100043ed:	fafc56                                    	bnez	a12, 100043a0 <rx_v2d_en+0x38>
100043f0:	0020f0                                    	nop
100043f3:	0020f0                                    	nop
100043f6:	0020f0                                    	nop
100043f9:	0020f0                                    	nop
100043fc:	0020f0                                    	nop
100043ff:	0020f0                                    	nop
10004402:	0020f0                                    	nop
10004405:	0020f0                                    	nop
10004408:	0020f0                                    	nop
1000440b:	0020f0                                    	nop
1000440e:	0020f0                                    	nop
10004411:	0020f0                                    	nop
10004414:	0020f0                                    	nop
10004417:	0020f0                                    	nop
1000441a:	0020f0                                    	nop
1000441d:	0020f0                                    	nop

10004420 <rx_v2d_en+0xb8>:
10004420:	ffe886                                    	j	100043c6 <rx_v2d_en+0x5e>

10004423 <rx_v2d_en+0xbb>:
10004423:	f01d                                    	retw.n

10004425 <rx_v2d_en+0xbd>:
10004425:	000000                                        ...

10004428 <xtos_unhandled_interrupt>:
10004428:	1003f000 c0de5afe                       .....Z..

10004430 <__reset_hook>:
10004430:	f26b21                                    	l32r	a2, 10000ddc (10004428 <xtos_unhandled_interrupt>)
10004433:	f1ff31                                    	l32r	a3, 10000c30 (10040000 <__stack>)
10004436:	fcc332                                    	addi	a3, a3, -4
10004439:	1248                                    	l32i.n	a4, a2, 4
1000443b:	0228                                    	l32i.n	a2, a2, 0

1000443d <__reset_hook+0xd>:
1000443d:	0349                                    	s32i.n	a4, a3, 0
1000443f:	fcc332                                    	addi	a3, a3, -4
10004442:	f7b327                                    	bgeu	a3, a2, 1000443d <__reset_hook+0xd>
10004445:	f00d                                    	ret.n

10004447 <__reset_hook+0x17>:
	...

10004448 <__muldf3_aux>:
10004448:	1133f0                                    	slli	a3, a3, 1
1000444b:	413130                                    	srli	a3, a3, 1
1000444e:	20a320                                    	or	a10, a3, a2
10004451:	084a16                                    	beqz	a10, 100044d9 <__muldf3_aux+0x91>
10004454:	539c                                    	beqz.n	a3, 1000446d <__muldf3_aux+0x25>
10004456:	40f3a0                                    	nsau	a10, a3
10004459:	f5caa2                                    	addi	a10, a10, -11
1000445c:	401a00                                    	ssl	a10
1000445f:	813320                                    	src	a3, a3, a2
10004462:	a12200                                    	sll	a2, a2
10004465:	180c                                    	movi.n	a8, 1
10004467:	c088a0                                    	sub	a8, a8, a10
1000446a:	003586                                    	j	10004544 <__muldf3+0x18>

1000446d <__muldf3_aux+0x25>:
1000446d:	40f2a0                                    	nsau	a10, a2
10004470:	f5caa2                                    	addi	a10, a10, -11
10004473:	186c                                    	movi.n	a8, -31
10004475:	c088a0                                    	sub	a8, a8, a10
10004478:	401a00                                    	ssl	a10
1000447b:	009a96                                    	bltz	a10, 10004488 <__muldf3_aux+0x40>
1000447e:	a13200                                    	sll	a3, a2
10004481:	020c                                    	movi.n	a2, 0
10004483:	002f46                                    	j	10004544 <__muldf3+0x18>

10004486 <__muldf3_aux+0x3e>:
	...

10004488 <__muldf3_aux+0x40>:
10004488:	913020                                    	srl	a3, a2
1000448b:	a12200                                    	sll	a2, a2
1000448e:	002c86                                    	j	10004544 <__muldf3+0x18>

10004491 <__muldf3_aux+0x49>:
10004491:	1155f0                                    	slli	a5, a5, 1
10004494:	415150                                    	srli	a5, a5, 1
10004497:	20a540                                    	or	a10, a5, a4
1000449a:	babc                                    	beqz.n	a10, 100044d9 <__muldf3_aux+0x91>
1000449c:	559c                                    	beqz.n	a5, 100044b5 <__muldf3_aux+0x6d>
1000449e:	40f5a0                                    	nsau	a10, a5
100044a1:	f5caa2                                    	addi	a10, a10, -11
100044a4:	401a00                                    	ssl	a10
100044a7:	815540                                    	src	a5, a5, a4
100044aa:	a14400                                    	sll	a4, a4
100044ad:	190c                                    	movi.n	a9, 1
100044af:	c099a0                                    	sub	a9, a9, a10
100044b2:	002446                                    	j	10004547 <__muldf3+0x1b>

100044b5 <__muldf3_aux+0x6d>:
100044b5:	40f4a0                                    	nsau	a10, a4
100044b8:	f5caa2                                    	addi	a10, a10, -11
100044bb:	196c                                    	movi.n	a9, -31
100044bd:	c099a0                                    	sub	a9, a9, a10
100044c0:	401a00                                    	ssl	a10
100044c3:	009a96                                    	bltz	a10, 100044d0 <__muldf3_aux+0x88>
100044c6:	a15400                                    	sll	a5, a4
100044c9:	040c                                    	movi.n	a4, 0
100044cb:	001e06                                    	j	10004547 <__muldf3+0x1b>

100044ce <__muldf3_aux+0x86>:
	...

100044d0 <__muldf3_aux+0x88>:
100044d0:	915040                                    	srl	a5, a4
100044d3:	a14400                                    	sll	a4, a4
100044d6:	001b46                                    	j	10004547 <__muldf3+0x1b>

100044d9 <__muldf3_aux+0x91>:
100044d9:	053f70                                    	extui	a3, a7, 31, 1
100044dc:	013310                                    	slli	a3, a3, 31
100044df:	020c                                    	movi.n	a2, 0
100044e1:	006446                                    	j	10004676 <__muldf3+0x14a>

100044e4 <__muldf3_aux+0x9c>:
	...

100044e6 <__muldf3_aux+0x9e>:
100044e6:	34cc                                    	bnez.n	a4, 100044ed <__muldf3_aux+0xa5>
100044e8:	1185f0                                    	slli	a8, a5, 1
100044eb:	18bc                                    	beqz.n	a8, 10004520 <__muldf3_aux+0xd8>
100044ed:	0bc567                                    	bnall	a5, a6, 100044fc <__muldf3_aux+0xb4>
100044f0:	118540                                    	slli	a8, a5, 12
100044f3:	208840                                    	or	a8, a8, a4
100044f6:	288c                                    	beqz.n	a8, 100044fc <__muldf3_aux+0xb4>
100044f8:	053d                                    	mov.n	a3, a5
100044fa:	042d                                    	mov.n	a2, a4
100044fc:	118340                                    	slli	a8, a3, 12
100044ff:	208820                                    	or	a8, a8, a2
10004502:	a8dc                                    	bnez.n	a8, 10004520 <__muldf3_aux+0xd8>
10004504:	057f70                                    	extui	a7, a7, 31, 1
10004507:	1133f0                                    	slli	a3, a3, 1
1000450a:	404100                                    	ssai	1
1000450d:	813730                                    	src	a3, a7, a3
10004510:	005886                                    	j	10004676 <__muldf3+0x14a>

10004513 <__muldf3_aux+0xcb>:
	...

10004515 <__muldf3_aux+0xcd>:
10004515:	fdf256                                    	bnez	a2, 100044f8 <__muldf3_aux+0xb0>
10004518:	1183f0                                    	slli	a8, a3, 1
1000451b:	fd9856                                    	bnez	a8, 100044f8 <__muldf3_aux+0xb0>
1000451e:	053d                                    	mov.n	a3, a5
10004520:	f23041                                    	l32r	a4, 10000de0 (80000 <_memmap_mem_srom_end+0x60000>)
10004523:	203340                                    	or	a3, a3, a4
10004526:	005306                                    	j	10004676 <__muldf3+0x14a>

10004529 <__muldf3_aux+0xe1>:
10004529:	000000                                        ...

1000452c <__muldf3>:
1000452c:	004136                                    	entry	a1, 32
1000452f:	f22d61                                    	l32r	a6, 10000de4 (7ff00000 <_memmap_cacheattr_bp_allvalid+0x3babbbbc>)
10004532:	307350                                    	xor	a7, a3, a5
10004535:	ad4367                                    	ball	a3, a6, 100044e6 <__muldf3_aux+0x9e>
10004538:	d94567                                    	ball	a5, a6, 10004515 <__muldf3_aux+0xcd>
1000453b:	a58430                                    	extui	a8, a3, 20, 11
1000453e:	a59450                                    	extui	a9, a5, 20, 11
10004541:	f03816                                    	beqz	a8, 10004448 <__muldf3_aux>

10004544 <__muldf3+0x18>:
10004544:	f49916                                    	beqz	a9, 10004491 <__muldf3_aux+0x49>
10004547:	889a                                    	add.n	a8, a8, a9
10004549:	f227a1                                    	l32r	a10, 10000de8 (1fffff <_memmap_mem_srom_end+0x1dffff>)
1000454c:	203360                                    	or	a3, a3, a6
1000454f:	1033a0                                    	and	a3, a3, a10
10004552:	205560                                    	or	a5, a5, a6
10004555:	1055a0                                    	and	a5, a5, a10
10004558:	1179                                    	s32i.n	a7, a1, 4
1000455a:	f5c020                                    	extui	a12, a2, 16, 16
1000455d:	f5d040                                    	extui	a13, a4, 16, 16
10004560:	f5e030                                    	extui	a14, a3, 16, 16
10004563:	f5f050                                    	extui	a15, a5, 16, 16
10004566:	c1a2d0                                    	mul16u	a10, a2, a13
10004569:	c1bc40                                    	mul16u	a11, a12, a4
1000456c:	090c                                    	movi.n	a9, 0
1000456e:	aaba                                    	add.n	a10, a10, a11
10004570:	01bab7                                    	bgeu	a10, a11, 10004575 <__muldf3+0x49>
10004573:	991b                                    	addi.n	a9, a9, 1
10004575:	404010                                    	ssai	16
10004578:	8169a0                                    	src	a6, a9, a10
1000457b:	c1b240                                    	mul16u	a11, a2, a4
1000457e:	a1aa00                                    	sll	a10, a10
10004581:	aaba                                    	add.n	a10, a10, a11
10004583:	02bab7                                    	bgeu	a10, a11, 10004589 <__muldf3+0x5d>
10004586:	01c662                                    	addi	a6, a6, 1
10004589:	c1b250                                    	mul16u	a11, a2, a5
1000458c:	090c                                    	movi.n	a9, 0
1000458e:	66ba                                    	add.n	a6, a6, a11
10004590:	01b6b7                                    	bgeu	a6, a11, 10004595 <__muldf3+0x69>
10004593:	991b                                    	addi.n	a9, a9, 1
10004595:	c1bcd0                                    	mul16u	a11, a12, a13
10004598:	8066b0                                    	add	a6, a6, a11
1000459b:	01b6b7                                    	bgeu	a6, a11, 100045a0 <__muldf3+0x74>
1000459e:	991b                                    	addi.n	a9, a9, 1
100045a0:	c1b340                                    	mul16u	a11, a3, a4
100045a3:	66ba                                    	add.n	a6, a6, a11
100045a5:	01b6b7                                    	bgeu	a6, a11, 100045aa <__muldf3+0x7e>
100045a8:	991b                                    	addi.n	a9, a9, 1
100045aa:	3a8c                                    	beqz.n	a10, 100045b1 <__muldf3+0x85>
100045ac:	1b0c                                    	movi.n	a11, 1
100045ae:	2066b0                                    	or	a6, a6, a11
100045b1:	c172f0                                    	mul16u	a7, a2, a15
100045b4:	c1be40                                    	mul16u	a11, a14, a4
100045b7:	0a0c                                    	movi.n	a10, 0
100045b9:	bb7a                                    	add.n	a11, a11, a7
100045bb:	02bb77                                    	bgeu	a11, a7, 100045c1 <__muldf3+0x95>
100045be:	01caa2                                    	addi	a10, a10, 1
100045c1:	c17c50                                    	mul16u	a7, a12, a5
100045c4:	80bb70                                    	add	a11, a11, a7
100045c7:	01bb77                                    	bgeu	a11, a7, 100045cc <__muldf3+0xa0>
100045ca:	aa1b                                    	addi.n	a10, a10, 1
100045cc:	c173d0                                    	mul16u	a7, a3, a13
100045cf:	0020f0                                    	nop
100045d2:	bb7a                                    	add.n	a11, a11, a7
100045d4:	01bb77                                    	bgeu	a11, a7, 100045d9 <__muldf3+0xad>
100045d7:	aa1b                                    	addi.n	a10, a10, 1
100045d9:	81aab0                                    	src	a10, a10, a11
100045dc:	aa9a                                    	add.n	a10, a10, a9
100045de:	a1bb00                                    	sll	a11, a11
100045e1:	66ba                                    	add.n	a6, a6, a11
100045e3:	02b6b7                                    	bgeu	a6, a11, 100045e9 <__muldf3+0xbd>
100045e6:	01caa2                                    	addi	a10, a10, 1
100045e9:	c12cf0                                    	mul16u	a2, a12, a15
100045ec:	090c                                    	movi.n	a9, 0
100045ee:	22aa                                    	add.n	a2, a2, a10
100045f0:	01b2a7                                    	bgeu	a2, a10, 100045f5 <__muldf3+0xc9>
100045f3:	991b                                    	addi.n	a9, a9, 1
100045f5:	c1a350                                    	mul16u	a10, a3, a5
100045f8:	8022a0                                    	add	a2, a2, a10
100045fb:	02b2a7                                    	bgeu	a2, a10, 10004601 <__muldf3+0xd5>
100045fe:	01c992                                    	addi	a9, a9, 1
10004601:	c1aed0                                    	mul16u	a10, a14, a13
10004604:	0020f0                                    	nop
10004607:	8022a0                                    	add	a2, a2, a10
1000460a:	02b2a7                                    	bgeu	a2, a10, 10004610 <__muldf3+0xe4>
1000460d:	01c992                                    	addi	a9, a9, 1
10004610:	c1b3f0                                    	mul16u	a11, a3, a15
10004613:	c17e50                                    	mul16u	a7, a14, a5
10004616:	0a0c                                    	movi.n	a10, 0
10004618:	80bb70                                    	add	a11, a11, a7
1000461b:	02bb77                                    	bgeu	a11, a7, 10004621 <__muldf3+0xf5>
1000461e:	01caa2                                    	addi	a10, a10, 1
10004621:	81aab0                                    	src	a10, a10, a11
10004624:	aa9a                                    	add.n	a10, a10, a9
10004626:	a1bb00                                    	sll	a11, a11
10004629:	22ba                                    	add.n	a2, a2, a11
1000462b:	02b2b7                                    	bgeu	a2, a11, 10004631 <__muldf3+0x105>
1000462e:	01caa2                                    	addi	a10, a10, 1
10004631:	c13ef0                                    	mul16u	a3, a14, a15
10004634:	1178                                    	l32i.n	a7, a1, 4
10004636:	33aa                                    	add.n	a3, a3, a10
10004638:	415930                                    	srli	a5, a3, 9
1000463b:	b40c                                    	movi.n	a4, 11
1000463d:	35cc                                    	bnez.n	a5, 10004644 <__muldf3+0x118>
1000463f:	441b                                    	addi.n	a4, a4, 1
10004641:	ffc882                                    	addi	a8, a8, -1
10004644:	401400                                    	ssl	a4
10004647:	813320                                    	src	a3, a3, a2
1000464a:	812260                                    	src	a2, a2, a6
1000464d:	a16600                                    	sll	a6, a6
10004650:	ffa342                                    	movi	a4, 0x3ff
10004653:	c08840                                    	sub	a8, a8, a4
10004656:	1144f0                                    	slli	a4, a4, 1
10004659:	2bb847                                    	bgeu	a8, a4, 10004688 <__muldf3+0x15c>
1000465c:	0086d6                                    	bgez	a6, 10004668 <__muldf3+0x13c>
1000465f:	221b                                    	addi.n	a2, a2, 1
10004661:	c29c                                    	beqz.n	a2, 10004681 <__muldf3+0x155>
10004663:	1166f0                                    	slli	a6, a6, 1
10004666:	e68c                                    	beqz.n	a6, 10004678 <__muldf3+0x14c>
10004668:	0188c0                                    	slli	a8, a8, 20
1000466b:	338a                                    	add.n	a3, a3, a8
1000466d:	057f70                                    	extui	a7, a7, 31, 1
10004670:	017710                                    	slli	a7, a7, 31
10004673:	203370                                    	or	a3, a3, a7
10004676:	f01d                                    	retw.n

10004678 <__muldf3+0x14c>:
10004678:	412120                                    	srli	a2, a2, 1
1000467b:	1122f0                                    	slli	a2, a2, 1
1000467e:	fff986                                    	j	10004668 <__muldf3+0x13c>

10004681 <__muldf3+0x155>:
10004681:	331b                                    	addi.n	a3, a3, 1
10004683:	fff846                                    	j	10004668 <__muldf3+0x13c>

10004686 <__muldf3+0x15a>:
	...

10004688 <__muldf3+0x15c>:
10004688:	009896                                    	bltz	a8, 10004695 <__muldf3+0x169>
1000468b:	841b                                    	addi.n	a8, a4, 1
1000468d:	0138c0                                    	slli	a3, a8, 20
10004690:	020c                                    	movi.n	a2, 0
10004692:	fff5c6                                    	j	1000466d <__muldf3+0x141>

10004695 <__muldf3+0x169>:
10004695:	608080                                    	neg	a8, a8
10004698:	069d                                    	mov.n	a9, a6
1000469a:	400800                                    	ssr	a8
1000469d:	0bc8f6                                    	bgeui	a8, 32, 100046ac <__muldf3+0x180>
100046a0:	a16200                                    	sll	a6, a2
100046a3:	812320                                    	src	a2, a3, a2
100046a6:	913030                                    	srl	a3, a3
100046a9:	000406                                    	j	100046bd <__muldf3+0x191>

100046ac <__muldf3+0x180>:
100046ac:	1cd8f6                                    	bgeui	a8, 64, 100046cc <__muldf3+0x1a0>
100046af:	a1a200                                    	sll	a10, a2
100046b2:	816320                                    	src	a6, a3, a2
100046b5:	912030                                    	srl	a2, a3
100046b8:	030c                                    	movi.n	a3, 0
100046ba:	2099a0                                    	or	a9, a9, a10
100046bd:	080c                                    	movi.n	a8, 0
100046bf:	f99916                                    	beqz	a9, 1000465c <__muldf3+0x130>
100046c2:	190c                                    	movi.n	a9, 1
100046c4:	206690                                    	or	a6, a6, a9
100046c7:	ffe446                                    	j	1000465c <__muldf3+0x130>

100046ca <__muldf3+0x19e>:
	...

100046cc <__muldf3+0x1a0>:
100046cc:	053f70                                    	extui	a3, a7, 31, 1
100046cf:	013310                                    	slli	a3, a3, 31
100046d2:	020c                                    	movi.n	a2, 0
100046d4:	ffe786                                    	j	10004676 <__muldf3+0x14a>

100046d7 <__muldf3+0x1ab>:
	...

100046d8 <__fixunsdfdi>:
100046d8:	002136                                    	entry	a1, 16
100046db:	f1c261                                    	l32r	a6, 10000de4 (7ff00000 <_memmap_cacheattr_bp_allvalid+0x3babbbbc>)
100046de:	434367                                    	ball	a3, a6, 10004725 <__fixunsdfdi+0x4d>
100046e1:	a54430                                    	extui	a4, a3, 20, 11
100046e4:	955460                                    	extui	a5, a6, 20, 10
100046e7:	c04450                                    	sub	a4, a4, a5
100046ea:	47d4e6                                    	bgei	a4, 64, 10004735 <__fixunsdfdi+0x5d>
100046ed:	04f496                                    	bltz	a4, 10004740 <__fixunsdfdi+0x68>
100046f0:	207360                                    	or	a7, a3, a6
100046f3:	404510                                    	ssai	21
100046f6:	813720                                    	src	a3, a7, a2
100046f9:	a12200                                    	sll	a2, a2
100046fc:	441b                                    	addi.n	a4, a4, 1
100046fe:	46d426                                    	beqi	a4, 64, 10004748 <__fixunsdfdi+0x70>
10004701:	401400                                    	ssl	a4
10004704:	14c4e6                                    	bgei	a4, 32, 1000471c <__fixunsdfdi+0x44>
10004707:	912030                                    	srl	a2, a3
1000470a:	030c                                    	movi.n	a3, 0

1000470c <__fixunsdfdi+0x34>:
1000470c:	0097d6                                    	bgez	a7, 10004719 <__fixunsdfdi+0x41>
1000470f:	602020                                    	neg	a2, a2
10004712:	603030                                    	neg	a3, a3
10004715:	028c                                    	beqz.n	a2, 10004719 <__fixunsdfdi+0x41>
10004717:	330b                                    	addi.n	a3, a3, -1
10004719:	f01d                                    	retw.n

1000471b <__fixunsdfdi+0x43>:
	...

1000471c <__fixunsdfdi+0x44>:
1000471c:	812320                                    	src	a2, a3, a2
1000471f:	913030                                    	srl	a3, a3
10004722:	fff986                                    	j	1000470c <__fixunsdfdi+0x34>

10004725 <__fixunsdfdi+0x4d>:
10004725:	114340                                    	slli	a4, a3, 12
10004728:	204420                                    	or	a4, a4, a2
1000472b:	648c                                    	beqz.n	a4, 10004735 <__fixunsdfdi+0x5d>
1000472d:	f37c                                    	movi.n	a3, -1
1000472f:	f27c                                    	movi.n	a2, -1
10004731:	f01d                                    	retw.n

10004733 <__fixunsdfdi+0x5b>:
	...

10004735 <__fixunsdfdi+0x5d>:
10004735:	ff43d6                                    	bgez	a3, 1000472d <__fixunsdfdi+0x55>
10004738:	113650                                    	slli	a3, a6, 11
1000473b:	020c                                    	movi.n	a2, 0
1000473d:	f01d                                    	retw.n

1000473f <__fixunsdfdi+0x67>:
	...

10004740 <__fixunsdfdi+0x68>:
10004740:	030c                                    	movi.n	a3, 0
10004742:	020c                                    	movi.n	a2, 0
10004744:	f01d                                    	retw.n

10004746 <__fixunsdfdi+0x6e>:
	...

10004748 <__fixunsdfdi+0x70>:
10004748:	fec796                                    	bltz	a7, 10004738 <__fixunsdfdi+0x60>
1000474b:	f01d                                    	retw.n

1000474d <__fixunsdfdi+0x75>:
1000474d:	000000                                        ...

10004750 <__muldi3>:
10004750:	004136                                    	entry	a1, 32
10004753:	20a220                                    	or	a10, a2, a2
10004756:	20b440                                    	or	a11, a4, a4
10004759:	011465                                    	call8	100058a0 <__umulsidi3>
1000475c:	82f520                                    	mull	a15, a5, a2
1000475f:	823340                                    	mull	a3, a3, a4
10004762:	202aa0                                    	or	a2, a10, a10
10004765:	3f3a                                    	add.n	a3, a15, a3
10004767:	33ba                                    	add.n	a3, a3, a11
10004769:	f01d                                    	retw.n

1000476b <__muldi3+0x1b>:
	...

1000476c <__udivdi3>:
1000476c:	004136                                    	entry	a1, 32
1000476f:	037d                                    	mov.n	a7, a3
10004771:	0bf516                                    	beqz	a5, 10004834 <__udivdi3+0xc8>
10004774:	030c                                    	movi.n	a3, 0
10004776:	060c                                    	movi.n	a6, 0
10004778:	02b757                                    	bgeu	a7, a5, 1000477e <__udivdi3+0x12>
1000477b:	002c46                                    	j	10004830 <__udivdi3+0xc4>
1000477e:	40f560                                    	nsau	a6, a5
10004781:	1db616                                    	beqz	a6, 10004960 <__udivdi3+0x1f4>
10004784:	082c                                    	movi.n	a8, 32
10004786:	401600                                    	ssl	a6
10004789:	c0d860                                    	sub	a13, a8, a6
1000478c:	a15500                                    	sll	a5, a5
1000478f:	400d00                                    	ssr	a13
10004792:	91e040                                    	srl	a14, a4
10004795:	401600                                    	ssl	a6
10004798:	a1b400                                    	sll	a11, a4
1000479b:	400d00                                    	ssr	a13
1000479e:	204e50                                    	or	a4, a14, a5
100047a1:	91f070                                    	srl	a15, a7
100047a4:	f58040                                    	extui	a8, a4, 16, 16
100047a7:	401600                                    	ssl	a6
100047aa:	c29f80                                    	quou	a9, a15, a8
100047ad:	a1a700                                    	sll	a10, a7
100047b0:	400d00                                    	ssr	a13
100047b3:	82c980                                    	mull	a12, a9, a8
100047b6:	91d020                                    	srl	a13, a2
100047b9:	c05fc0                                    	sub	a5, a15, a12
100047bc:	401600                                    	ssl	a6
100047bf:	207da0                                    	or	a7, a13, a10
100047c2:	f46040                                    	extui	a6, a4, 0, 16
100047c5:	11f500                                    	slli	a15, a5, 16
100047c8:	f5e070                                    	extui	a14, a7, 16, 16
100047cb:	82a960                                    	mull	a10, a9, a6
100047ce:	cfea                                    	add.n	a12, a15, a14
100047d0:	095d                                    	mov.n	a5, a9
100047d2:	0fbca7                                    	bgeu	a12, a10, 100047e5 <__udivdi3+0x79>
100047d5:	cc4a                                    	add.n	a12, a12, a4
100047d7:	590b                                    	addi.n	a5, a9, -1
100047d9:	083c47                                    	bltu	a12, a4, 100047e5 <__udivdi3+0x79>
100047dc:	05bca7                                    	bgeu	a12, a10, 100047e5 <__udivdi3+0x79>
100047df:	fec952                                    	addi	a5, a9, -2
100047e2:	80cc40                                    	add	a12, a12, a4

100047e5 <__udivdi3+0x79>:
100047e5:	c0aca0                                    	sub	a10, a12, a10
100047e8:	c29a80                                    	quou	a9, a10, a8
100047eb:	828980                                    	mull	a8, a9, a8
100047ee:	f47070                                    	extui	a7, a7, 0, 16
100047f1:	c08a80                                    	sub	a8, a10, a8
100047f4:	11f800                                    	slli	a15, a8, 16
100047f7:	826960                                    	mull	a6, a9, a6
100047fa:	7f7a                                    	add.n	a7, a15, a7
100047fc:	098d                                    	mov.n	a8, a9
100047fe:	0fb767                                    	bgeu	a7, a6, 10004811 <__udivdi3+0xa5>
10004801:	774a                                    	add.n	a7, a7, a4
10004803:	890b                                    	addi.n	a8, a9, -1
10004805:	083747                                    	bltu	a7, a4, 10004811 <__udivdi3+0xa5>
10004808:	05b767                                    	bgeu	a7, a6, 10004811 <__udivdi3+0xa5>
1000480b:	fec982                                    	addi	a8, a9, -2
1000480e:	807740                                    	add	a7, a7, a4
10004811:	115500                                    	slli	a5, a5, 16
10004814:	c04760                                    	sub	a4, a7, a6
10004817:	206850                                    	or	a6, a8, a5
1000481a:	06ad                                    	mov.n	a10, a6
1000481c:	a12200                                    	sll	a2, a2
1000481f:	0020f0                                    	nop
10004822:	0107e5                                    	call8	100058a0 <__umulsidi3>
10004825:	0534b7                                    	bltu	a4, a11, 1000482e <__udivdi3+0xc2>
10004828:	0494b7                                    	bne	a4, a11, 10004830 <__udivdi3+0xc4>
1000482b:	01b2a7                                    	bgeu	a2, a10, 10004830 <__udivdi3+0xc4>
1000482e:	660b                                    	addi.n	a6, a6, -1
10004830:	062d                                    	mov.n	a2, a6
10004832:	f01d                                    	retw.n

10004834 <__udivdi3+0xc8>:
10004834:	40f430                                    	nsau	a3, a4
10004837:	023747                                    	bltu	a7, a4, 1000483d <__udivdi3+0xd1>
1000483a:	002386                                    	j	100048cc <__udivdi3+0x160>
1000483d:	023316                                    	beqz	a3, 10004864 <__udivdi3+0xf8>
10004840:	1fa052                                    	movi	a5, 31
10004843:	106530                                    	and	a6, a5, a3
10004846:	401300                                    	ssl	a3
10004849:	305560                                    	xor	a5, a5, a6
1000484c:	41f120                                    	srli	a15, a2, 1
1000484f:	a14400                                    	sll	a4, a4
10004852:	a17700                                    	sll	a7, a7
10004855:	400500                                    	ssr	a5
10004858:	9150f0                                    	srl	a5, a15
1000485b:	401300                                    	ssl	a3
1000485e:	207750                                    	or	a7, a7, a5
10004861:	a12200                                    	sll	a2, a2

10004864 <__udivdi3+0xf8>:
10004864:	f56040                                    	extui	a6, a4, 16, 16
10004867:	c28760                                    	quou	a8, a7, a6
1000486a:	823860                                    	mull	a3, a8, a6
1000486d:	f45040                                    	extui	a5, a4, 0, 16
10004870:	c03730                                    	sub	a3, a7, a3
10004873:	11f300                                    	slli	a15, a3, 16
10004876:	f59020                                    	extui	a9, a2, 16, 16
10004879:	827850                                    	mull	a7, a8, a5
1000487c:	9f9a                                    	add.n	a9, a15, a9
1000487e:	083d                                    	mov.n	a3, a8
10004880:	10b977                                    	bgeu	a9, a7, 10004894 <__udivdi3+0x128>
10004883:	994a                                    	add.n	a9, a9, a4
10004885:	ffc832                                    	addi	a3, a8, -1
10004888:	083947                                    	bltu	a9, a4, 10004894 <__udivdi3+0x128>
1000488b:	05b977                                    	bgeu	a9, a7, 10004894 <__udivdi3+0x128>
1000488e:	fec832                                    	addi	a3, a8, -2
10004891:	809940                                    	add	a9, a9, a4
10004894:	c08970                                    	sub	a8, a9, a7
10004897:	c27860                                    	quou	a7, a8, a6
1000489a:	826760                                    	mull	a6, a7, a6
1000489d:	f4f020                                    	extui	a15, a2, 0, 16
100048a0:	c06860                                    	sub	a6, a8, a6
100048a3:	116600                                    	slli	a6, a6, 16
100048a6:	822750                                    	mull	a2, a7, a5
100048a9:	56fa                                    	add.n	a5, a6, a15
100048ab:	11b527                                    	bgeu	a5, a2, 100048c0 <__udivdi3+0x154>
100048ae:	554a                                    	add.n	a5, a5, a4
100048b0:	f67c                                    	movi.n	a6, -1
100048b2:	622520                                    	saltu	a2, a5, a2
100048b5:	624540                                    	saltu	a4, a5, a4
100048b8:	c02620                                    	sub	a2, a6, a2
100048bb:	932640                                    	movnez	a2, a6, a4
100048be:	727a                                    	add.n	a7, a2, a7
100048c0:	112300                                    	slli	a2, a3, 16
100048c3:	206720                                    	or	a6, a7, a2
100048c6:	030c                                    	movi.n	a3, 0
100048c8:	062d                                    	mov.n	a2, a6
100048ca:	f01d                                    	retw.n

100048cc <__udivdi3+0x160>:
100048cc:	0a5316                                    	beqz	a3, 10004975 <__udivdi3+0x209>
100048cf:	0a2c                                    	movi.n	a10, 32
100048d1:	401300                                    	ssl	a3
100048d4:	c0ba30                                    	sub	a11, a10, a3
100048d7:	a14400                                    	sll	a4, a4
100048da:	400b00                                    	ssr	a11
100048dd:	91a070                                    	srl	a10, a7
100048e0:	f55040                                    	extui	a5, a4, 16, 16
100048e3:	401300                                    	ssl	a3
100048e6:	c28a50                                    	quou	a8, a10, a5
100048e9:	e97c                                    	movi.n	a9, -2
100048eb:	a1c700                                    	sll	a12, a7
100048ee:	400b00                                    	ssr	a11
100048f1:	82d850                                    	mull	a13, a8, a5
100048f4:	91b020                                    	srl	a11, a2
100048f7:	f49090                                    	extui	a9, a9, 0, 16
100048fa:	106490                                    	and	a6, a4, a9
100048fd:	401300                                    	ssl	a3
10004900:	207bc0                                    	or	a7, a11, a12
10004903:	c03ad0                                    	sub	a3, a10, a13
10004906:	11f300                                    	slli	a15, a3, 16
10004909:	f5e070                                    	extui	a14, a7, 16, 16
1000490c:	829860                                    	mull	a9, a8, a6
1000490f:	afea                                    	add.n	a10, a15, a14
10004911:	083d                                    	mov.n	a3, a8
10004913:	0eba97                                    	bgeu	a10, a9, 10004925 <__udivdi3+0x1b9>
10004916:	aa4a                                    	add.n	a10, a10, a4
10004918:	380b                                    	addi.n	a3, a8, -1
1000491a:	073a47                                    	bltu	a10, a4, 10004925 <__udivdi3+0x1b9>
1000491d:	04ba97                                    	bgeu	a10, a9, 10004925 <__udivdi3+0x1b9>
10004920:	fec832                                    	addi	a3, a8, -2
10004923:	aa4a                                    	add.n	a10, a10, a4
10004925:	c09a90                                    	sub	a9, a10, a9
10004928:	c28950                                    	quou	a8, a9, a5
1000492b:	82e850                                    	mull	a14, a8, a5
1000492e:	f47070                                    	extui	a7, a7, 0, 16
10004931:	c099e0                                    	sub	a9, a9, a14
10004934:	11f900                                    	slli	a15, a9, 16
10004937:	826860                                    	mull	a6, a8, a6
1000493a:	7f7a                                    	add.n	a7, a15, a7
1000493c:	089d                                    	mov.n	a9, a8
1000493e:	0eb767                                    	bgeu	a7, a6, 10004950 <__udivdi3+0x1e4>
10004941:	774a                                    	add.n	a7, a7, a4
10004943:	980b                                    	addi.n	a9, a8, -1
10004945:	073747                                    	bltu	a7, a4, 10004950 <__udivdi3+0x1e4>
10004948:	04b767                                    	bgeu	a7, a6, 10004950 <__udivdi3+0x1e4>
1000494b:	fec892                                    	addi	a9, a8, -2
1000494e:	774a                                    	add.n	a7, a7, a4
10004950:	113300                                    	slli	a3, a3, 16
10004953:	a12200                                    	sll	a2, a2
10004956:	c06760                                    	sub	a6, a7, a6
10004959:	203930                                    	or	a3, a9, a3
1000495c:	000746                                    	j	1000497d <__udivdi3+0x211>

1000495f <__udivdi3+0x1f3>:
	...

10004960 <__udivdi3+0x1f4>:
10004960:	622240                                    	saltu	a2, a2, a4
10004963:	1f0c                                    	movi.n	a15, 1
10004965:	625570                                    	saltu	a5, a5, a7
10004968:	3022f0                                    	xor	a2, a2, a15
1000496b:	206250                                    	or	a6, a2, a5
1000496e:	062d                                    	mov.n	a2, a6
10004970:	f01d                                    	retw.n

10004972 <__udivdi3+0x206>:
10004972:	000000                                        ...

10004975 <__udivdi3+0x209>:
10004975:	c06740                                    	sub	a6, a7, a4
10004978:	f55040                                    	extui	a5, a4, 16, 16
1000497b:	130c                                    	movi.n	a3, 1
1000497d:	c28650                                    	quou	a8, a6, a5
10004980:	82d850                                    	mull	a13, a8, a5
10004983:	f47040                                    	extui	a7, a4, 0, 16
10004986:	c0e6d0                                    	sub	a14, a6, a13
10004989:	f5a020                                    	extui	a10, a2, 16, 16
1000498c:	11fe00                                    	slli	a15, a14, 16
1000498f:	829870                                    	mull	a9, a8, a7
10004992:	afaa                                    	add.n	a10, a15, a10
10004994:	086d                                    	mov.n	a6, a8
10004996:	0eba97                                    	bgeu	a10, a9, 100049a8 <__udivdi3+0x23c>
10004999:	aa4a                                    	add.n	a10, a10, a4
1000499b:	680b                                    	addi.n	a6, a8, -1
1000499d:	073a47                                    	bltu	a10, a4, 100049a8 <__udivdi3+0x23c>
100049a0:	04ba97                                    	bgeu	a10, a9, 100049a8 <__udivdi3+0x23c>
100049a3:	fec862                                    	addi	a6, a8, -2
100049a6:	aa4a                                    	add.n	a10, a10, a4
100049a8:	c09a90                                    	sub	a9, a10, a9
100049ab:	c28950                                    	quou	a8, a9, a5
100049ae:	825850                                    	mull	a5, a8, a5
100049b1:	f4f020                                    	extui	a15, a2, 0, 16
100049b4:	c05950                                    	sub	a5, a9, a5
100049b7:	115500                                    	slli	a5, a5, 16
100049ba:	822870                                    	mull	a2, a8, a7
100049bd:	55fa                                    	add.n	a5, a5, a15
100049bf:	11b527                                    	bgeu	a5, a2, 100049d4 <__udivdi3+0x268>
100049c2:	554a                                    	add.n	a5, a5, a4
100049c4:	f77c                                    	movi.n	a7, -1
100049c6:	622520                                    	saltu	a2, a5, a2
100049c9:	624540                                    	saltu	a4, a5, a4
100049cc:	c02720                                    	sub	a2, a7, a2
100049cf:	932740                                    	movnez	a2, a7, a4
100049d2:	828a                                    	add.n	a8, a2, a8
100049d4:	112600                                    	slli	a2, a6, 16
100049d7:	206820                                    	or	a6, a8, a2
100049da:	062d                                    	mov.n	a2, a6
100049dc:	f01d                                    	retw.n

100049de <__udivdi3+0x272>:
	...

100049e0 <__divdf3>:
100049e0:	00a136                                    	entry	a1, 80
100049e3:	ff7c                                    	movi.n	a15, -1
100049e5:	309530                                    	xor	a9, a5, a3
100049e8:	02ad                                    	mov.n	a10, a2
100049ea:	412cf0                                    	srli	a2, a15, 12
100049ed:	ffa782                                    	movi	a8, 0x7ff
100049f0:	b57430                                    	extui	a7, a3, 20, 12
100049f3:	04cd                                    	mov.n	a12, a4
100049f5:	104320                                    	and	a4, a3, a2
100049f8:	102520                                    	and	a2, a5, a2
100049fb:	a56450                                    	extui	a6, a5, 20, 11
100049fe:	059f90                                    	extui	a9, a9, 31, 1
10004a01:	18c787                                    	bnall	a7, a8, 10004a1d <__divdf3+0x3d>
10004a04:	2044a0                                    	or	a4, a4, a10
10004a07:	34ec                                    	bnez.n	a4, 10004a2e <__divdf3+0x4e>
10004a09:	ffa742                                    	movi	a4, 0x7ff
10004a0c:	021647                                    	beq	a6, a4, 10004a12 <__divdf3+0x32>
10004a0f:	008646                                    	j	10004c2c <__divdf3+0x24c>
10004a12:	2022c0                                    	or	a2, a2, a12
10004a15:	52dc                                    	bnez.n	a2, 10004a2e <__divdf3+0x4e>
10004a17:	0099c6                                    	j	10004c82 <__divdf3+0x2a2>

10004a1a <__divdf3+0x3a>:
10004a1a:	000000                                        ...

10004a1d <__divdf3+0x3d>:
10004a1d:	a47070                                    	extui	a7, a7, 0, 11
10004a20:	969c                                    	beqz.n	a6, 10004a3d <__divdf3+0x5d>
10004a22:	ffa782                                    	movi	a8, 0x7ff
10004a25:	349687                                    	bne	a6, a8, 10004a5d <__divdf3+0x7d>
10004a28:	2022c0                                    	or	a2, a2, a12
10004a2b:	2d7216                                    	beqz	a2, 10004d06 <__divdf3+0x326>
10004a2e:	03bd                                    	mov.n	a11, a3
10004a30:	05dd                                    	mov.n	a13, a5
10004a32:	0030a5                                    	call8	10004d3c <__propagateFloat64NaN>
10004a35:	007b06                                    	j	10004c25 <__divdf3+0x245>

10004a38 <__divdf3+0x58>:
10004a38:	000000                                        ...

10004a3b <__divdf3+0x5b>:
	...

10004a3d <__divdf3+0x5d>:
10004a3d:	2032c0                                    	or	a3, a2, a12
10004a40:	219316                                    	beqz	a3, 10004c5d <__divdf3+0x27d>
10004a43:	270216                                    	beqz	a2, 10004cb7 <__divdf3+0x2d7>
10004a46:	40f230                                    	nsau	a3, a2
10004a49:	15c352                                    	addi	a5, a3, 21
10004a4c:	401500                                    	ssl	a5
10004a4f:	c60c                                    	movi.n	a6, 12
10004a51:	a1fc00                                    	sll	a15, a12
10004a54:	8122c0                                    	src	a2, a2, a12
10004a57:	c06630                                    	sub	a6, a6, a3
10004a5a:	20cff0                                    	or	a12, a15, a15
10004a5d:	285716                                    	beqz	a7, 10004ce6 <__divdf3+0x306>
10004a60:	130c                                    	movi.n	a3, 1
10004a62:	01e3c0                                    	slli	a14, a3, 20
10004a65:	b80c                                    	movi.n	a8, 11
10004a67:	401800                                    	ssl	a8
10004a6a:	20f4e0                                    	or	a15, a4, a14
10004a6d:	2022e0                                    	or	a2, a2, a14
10004a70:	c05760                                    	sub	a5, a7, a6
10004a73:	817fa0                                    	src	a7, a15, a10
10004a76:	8142c0                                    	src	a4, a2, a12
10004a79:	b199                                    	s32i.n	a9, a1, 44
10004a7b:	a16a00                                    	sll	a6, a10
10004a7e:	a13c00                                    	sll	a3, a12
10004a81:	0b3477                                    	bltu	a4, a7, 10004a90 <__divdf3+0xb0>
10004a84:	fda322                                    	movi	a2, 0x3fd
10004a87:	802520                                    	add	a2, a5, a2
10004a8a:	123637                                    	bltu	a6, a3, 10004aa0 <__divdf3+0xc0>
10004a8d:	0f9477                                    	bne	a4, a7, 10004aa0 <__divdf3+0xc0>
10004a90:	1f0c                                    	movi.n	a15, 1
10004a92:	fea382                                    	movi	a8, 0x3fe
10004a95:	400f00                                    	ssr	a15
10004a98:	816760                                    	src	a6, a7, a6
10004a9b:	258a                                    	add.n	a2, a5, a8
10004a9d:	917070                                    	srl	a7, a7
10004aa0:	20a770                                    	or	a10, a7, a7
10004aa3:	20b660                                    	or	a11, a6, a6
10004aa6:	20c440                                    	or	a12, a4, a4
10004aa9:	a129                                    	s32i.n	a2, a1, 40
10004aab:	8169                                    	s32i.n	a6, a1, 32
10004aad:	00e325                                    	call8	100058e0 <__estimateDiv64To32>
10004ab0:	f46030                                    	extui	a6, a3, 0, 16
10004ab3:	f5e030                                    	extui	a14, a3, 16, 16
10004ab6:	f590a0                                    	extui	a9, a10, 16, 16
10004ab9:	f480a0                                    	extui	a8, a10, 0, 16
10004abc:	0a5d                                    	mov.n	a5, a10
10004abe:	c1a8e0                                    	mul16u	a10, a8, a14
10004ac1:	c1b960                                    	mul16u	a11, a9, a6
10004ac4:	f52040                                    	extui	a2, a4, 16, 16
10004ac7:	f4f040                                    	extui	a15, a4, 0, 16
10004aca:	bbaa                                    	add.n	a11, a11, a10
10004acc:	51e9                                    	s32i.n	a14, a1, 20
10004ace:	c1c820                                    	mul16u	a12, a8, a2
10004ad1:	c1d9f0                                    	mul16u	a13, a9, a15
10004ad4:	c1e9e0                                    	mul16u	a14, a9, a14
10004ad7:	62aba0                                    	saltu	a10, a11, a10
10004ada:	61f9                                    	s32i.n	a15, a1, 24
10004adc:	c1f8f0                                    	mul16u	a15, a8, a15
10004adf:	9169                                    	s32i.n	a6, a1, 36
10004ae1:	c18860                                    	mul16u	a8, a8, a6
10004ae4:	f560b0                                    	extui	a6, a11, 16, 16
10004ae7:	ddca                                    	add.n	a13, a13, a12
10004ae9:	7129                                    	s32i.n	a2, a1, 28
10004aeb:	c19920                                    	mul16u	a9, a9, a2
10004aee:	11aa00                                    	slli	a10, a10, 16
10004af1:	26ea                                    	add.n	a2, a6, a14
10004af3:	11bb00                                    	slli	a11, a11, 16
10004af6:	22aa                                    	add.n	a2, a2, a10
10004af8:	11ad00                                    	slli	a10, a13, 16
10004afb:	eb8a                                    	add.n	a14, a11, a8
10004afd:	6afa                                    	add.n	a6, a10, a15
10004aff:	62cdc0                                    	saltu	a12, a13, a12
10004b02:	628eb0                                    	saltu	a8, a14, a11
10004b05:	226a                                    	add.n	a2, a2, a6
10004b07:	f5d0d0                                    	extui	a13, a13, 16, 16
10004b0a:	228a                                    	add.n	a2, a2, a8
10004b0c:	99da                                    	add.n	a9, a9, a13
10004b0e:	f87c                                    	movi.n	a8, -1
10004b10:	c07790                                    	sub	a7, a7, a9
10004b13:	119800                                    	slli	a9, a8, 16
10004b16:	93c9c0                                    	movnez	a12, a9, a12
10004b19:	62b6a0                                    	saltu	a11, a6, a10
10004b1c:	77ca                                    	add.n	a7, a7, a12
10004b1e:	8188                                    	l32i.n	a8, a1, 32
10004b20:	62f260                                    	saltu	a15, a2, a6
10004b23:	c077b0                                    	sub	a7, a7, a11
10004b26:	060c                                    	movi.n	a6, 0
10004b28:	62b820                                    	saltu	a11, a8, a2
10004b2b:	c077f0                                    	sub	a7, a7, a15
10004b2e:	62c6e0                                    	saltu	a12, a6, a14
10004b31:	c02820                                    	sub	a2, a8, a2
10004b34:	c0d7b0                                    	sub	a13, a7, a11
10004b37:	62f2c0                                    	saltu	a15, a2, a12
10004b3a:	c08df0                                    	sub	a8, a13, a15
10004b3d:	c062c0                                    	sub	a6, a2, a12
10004b40:	6070e0                                    	neg	a7, a14
10004b43:	0f6896                                    	bltz	a8, 10004c3d <__divdf3+0x25d>
10004b46:	20a660                                    	or	a10, a6, a6
10004b49:	20b770                                    	or	a11, a7, a7
10004b4c:	20c440                                    	or	a12, a4, a4
10004b4f:	00d925                                    	call8	100058e0 <__estimateDiv64To32>
10004b52:	9420a0                                    	extui	a2, a10, 0, 10
10004b55:	0252b6                                    	bltui	a2, 5, 10004b5b <__divdf3+0x17b>
10004b58:	002986                                    	j	10004c02 <__divdf3+0x222>
10004b5b:	0921c2                                    	l32i	a12, a1, 36
10004b5e:	f420a0                                    	extui	a2, a10, 0, 16
10004b61:	062192                                    	l32i	a9, a1, 24
10004b64:	51e8                                    	l32i.n	a14, a1, 20
10004b66:	f580a0                                    	extui	a8, a10, 16, 16
10004b69:	c1d2c0                                    	mul16u	a13, a2, a12
10004b6c:	81d9                                    	s32i.n	a13, a1, 32
10004b6e:	c1d2e0                                    	mul16u	a13, a2, a14
10004b71:	c1b8c0                                    	mul16u	a11, a8, a12
10004b74:	c1f290                                    	mul16u	a15, a2, a9
10004b77:	51f9                                    	s32i.n	a15, a1, 20
10004b79:	c1f890                                    	mul16u	a15, a8, a9
10004b7c:	7198                                    	l32i.n	a9, a1, 28
10004b7e:	c1e8e0                                    	mul16u	a14, a8, a14
10004b81:	bbda                                    	add.n	a11, a11, a13
10004b83:	c12290                                    	mul16u	a2, a2, a9
10004b86:	f5c0b0                                    	extui	a12, a11, 16, 16
10004b89:	c18890                                    	mul16u	a8, a8, a9
10004b8c:	629bd0                                    	saltu	a9, a11, a13
10004b8f:	ecea                                    	add.n	a14, a12, a14
10004b91:	ff2a                                    	add.n	a15, a15, a2
10004b93:	61e9                                    	s32i.n	a14, a1, 24
10004b95:	11c900                                    	slli	a12, a9, 16
10004b98:	fd7c                                    	movi.n	a13, -1
10004b9a:	81e8                                    	l32i.n	a14, a1, 32
10004b9c:	5198                                    	l32i.n	a9, a1, 20
10004b9e:	7189                                    	s32i.n	a8, a1, 28
10004ba0:	118d00                                    	slli	a8, a13, 16
10004ba3:	622f20                                    	saltu	a2, a15, a2
10004ba6:	f5d0f0                                    	extui	a13, a15, 16, 16
10004ba9:	11bb00                                    	slli	a11, a11, 16
10004bac:	11ff00                                    	slli	a15, a15, 16
10004baf:	932820                                    	movnez	a2, a8, a2
10004bb2:	8bea                                    	add.n	a8, a11, a14
10004bb4:	ef9a                                    	add.n	a14, a15, a9
10004bb6:	7198                                    	l32i.n	a9, a1, 28
10004bb8:	62b8b0                                    	saltu	a11, a8, a11
10004bbb:	d9da                                    	add.n	a13, a9, a13
10004bbd:	6198                                    	l32i.n	a9, a1, 24
10004bbf:	c066d0                                    	sub	a6, a6, a13
10004bc2:	99ca                                    	add.n	a9, a9, a12
10004bc4:	99ea                                    	add.n	a9, a9, a14
10004bc6:	d9ba                                    	add.n	a13, a9, a11
10004bc8:	62cef0                                    	saltu	a12, a14, a15
10004bcb:	262a                                    	add.n	a2, a6, a2
10004bcd:	00a0f2                                    	movi	a15, 0
10004bd0:	c022c0                                    	sub	a2, a2, a12
10004bd3:	629de0                                    	saltu	a9, a13, a14
10004bd6:	c0b7d0                                    	sub	a11, a7, a13
10004bd9:	62ff80                                    	saltu	a15, a15, a8
10004bdc:	62d7d0                                    	saltu	a13, a7, a13
10004bdf:	c02290                                    	sub	a2, a2, a9
10004be2:	62ebf0                                    	saltu	a14, a11, a15
10004be5:	c022d0                                    	sub	a2, a2, a13
10004be8:	606080                                    	neg	a6, a8
10004beb:	c082e0                                    	sub	a8, a2, a14
10004bee:	c07bf0                                    	sub	a7, a11, a15
10004bf1:	0a2896                                    	bltz	a8, 10004c97 <__divdf3+0x2b7>
10004bf4:	202860                                    	or	a2, a8, a6
10004bf7:	202720                                    	or	a2, a7, a2
10004bfa:	030c                                    	movi.n	a3, 0
10004bfc:	622320                                    	saltu	a2, a3, a2
10004bff:	20aa20                                    	or	a10, a10, a2
10004c02:	0ba022                                    	movi	a2, 11
10004c05:	400200                                    	ssr	a2
10004c08:	00a032                                    	movi	a3, 0
10004c0b:	a12300                                    	sll	a2, a3
10004c0e:	814a30                                    	src	a4, a10, a3
10004c11:	622320                                    	saltu	a2, a3, a2
10004c14:	81d5a0                                    	src	a13, a5, a10
10004c17:	91c050                                    	srl	a12, a5
10004c1a:	20e420                                    	or	a14, a4, a2
10004c1d:	0b21a2                                    	l32i	a10, a1, 44
10004c20:	a1b8                                    	l32i.n	a11, a1, 40
10004c22:	002165                                    	call8	10004e38 <__roundAndPackFloat64>
10004c25:	0a2d                                    	mov.n	a2, a10
10004c27:	0b3d                                    	mov.n	a3, a11
10004c29:	f01d                                    	retw.n

10004c2b <__divdf3+0x24b>:
	...

10004c2c <__divdf3+0x24c>:
10004c2c:	ffa722                                    	movi	a2, 0x7ff
10004c2f:	01f2c0                                    	slli	a15, a2, 20
10004c32:	013910                                    	slli	a3, a9, 31
10004c35:	33fa                                    	add.n	a3, a3, a15
10004c37:	020c                                    	movi.n	a2, 0
10004c39:	f01d                                    	retw.n

10004c3b <__divdf3+0x25b>:
	...

10004c3d <__divdf3+0x25d>:
10004c3d:	198176                                    	loop	a1, 10004c5a <__divdf3+0x27a>

10004c40 <__divdf3+0x260>:
10004c40:	072d                                    	mov.n	a2, a7
10004c42:	773a                                    	add.n	a7, a7, a3
10004c44:	964a                                    	add.n	a9, a6, a4
10004c46:	622720                                    	saltu	a2, a7, a2
10004c49:	62f960                                    	saltu	a15, a9, a6
10004c4c:	692a                                    	add.n	a6, a9, a2
10004c4e:	88fa                                    	add.n	a8, a8, a15
10004c50:	622620                                    	saltu	a2, a6, a2
10004c53:	882a                                    	add.n	a8, a8, a2
10004c55:	550b                                    	addi.n	a5, a5, -1
10004c57:	eeb8d6                                    	bgez	a8, 10004b46 <__divdf3+0x166>

10004c5a <__divdf3+0x27a>:
10004c5a:	fff886                                    	j	10004c40 <__divdf3+0x260>

10004c5d <__divdf3+0x27d>:
10004c5d:	2024a0                                    	or	a2, a4, a10
10004c60:	202270                                    	or	a2, a2, a7
10004c63:	b29c                                    	beqz.n	a2, 10004c82 <__divdf3+0x2a2>
10004c65:	f06141                                    	l32r	a4, 10000dec (10025cf0 <__float_exception_flags>)
10004c68:	ffa732                                    	movi	a3, 0x7ff
10004c6b:	000452                                    	l8ui	a5, a4, 0
10004c6e:	860c                                    	movi.n	a6, 8
10004c70:	205560                                    	or	a5, a5, a6
10004c73:	01f910                                    	slli	a15, a9, 31
10004c76:	0133c0                                    	slli	a3, a3, 20
10004c79:	3f3a                                    	add.n	a3, a15, a3
10004c7b:	020c                                    	movi.n	a2, 0
10004c7d:	004452                                    	s8i	a5, a4, 0
10004c80:	f01d                                    	retw.n

10004c82 <__divdf3+0x2a2>:
10004c82:	f05ae1                                    	l32r	a14, 10000dec (10025cf0 <__float_exception_flags>)
10004c85:	041c                                    	movi.n	a4, 16
10004c87:	000ef2                                    	l8ui	a15, a14, 0
10004c8a:	f05931                                    	l32r	a3, 10000df0 (7ff80000 <_memmap_cacheattr_bp_allvalid+0x3bb3bbbc>)
10004c8d:	204f40                                    	or	a4, a15, a4
10004c90:	004e42                                    	s8i	a4, a14, 0
10004c93:	020c                                    	movi.n	a2, 0
10004c95:	f01d                                    	retw.n

10004c97 <__divdf3+0x2b7>:
10004c97:	198176                                    	loop	a1, 10004cb4 <__divdf3+0x2d4>

10004c9a <__divdf3+0x2ba>:
10004c9a:	062d                                    	mov.n	a2, a6
10004c9c:	663a                                    	add.n	a6, a6, a3
10004c9e:	974a                                    	add.n	a9, a7, a4
10004ca0:	622620                                    	saltu	a2, a6, a2
10004ca3:	62b970                                    	saltu	a11, a9, a7
10004ca6:	792a                                    	add.n	a7, a9, a2
10004ca8:	88ba                                    	add.n	a8, a8, a11
10004caa:	622720                                    	saltu	a2, a7, a2
10004cad:	882a                                    	add.n	a8, a8, a2
10004caf:	aa0b                                    	addi.n	a10, a10, -1
10004cb1:	f3f8d6                                    	bgez	a8, 10004bf4 <__divdf3+0x214>

10004cb4 <__divdf3+0x2d4>:
10004cb4:	fff886                                    	j	10004c9a <__divdf3+0x2ba>

10004cb7 <__divdf3+0x2d7>:
10004cb7:	40fc30                                    	nsau	a3, a12
10004cba:	a20c                                    	movi.n	a2, 10
10004cbc:	f5c352                                    	addi	a5, a3, -11
10004cbf:	133237                                    	bltu	a2, a3, 10004cd6 <__divdf3+0x2f6>
10004cc2:	b20c                                    	movi.n	a2, 11
10004cc4:	c02230                                    	sub	a2, a2, a3
10004cc7:	400200                                    	ssr	a2
10004cca:	9120c0                                    	srl	a2, a12
10004ccd:	401500                                    	ssl	a5
10004cd0:	a1cc00                                    	sll	a12, a12
10004cd3:	0001c6                                    	j	10004cde <__divdf3+0x2fe>

10004cd6 <__divdf3+0x2f6>:
10004cd6:	401500                                    	ssl	a5
10004cd9:	a12c00                                    	sll	a2, a12
10004cdc:	0c0c                                    	movi.n	a12, 0
10004cde:	c56c                                    	movi.n	a5, -20
10004ce0:	c06530                                    	sub	a6, a5, a3
10004ce3:	d79756                                    	bnez	a7, 10004a60 <__divdf3+0x80>
10004ce6:	2034a0                                    	or	a3, a4, a10
10004ce9:	939c                                    	beqz.n	a3, 10004d06 <__divdf3+0x326>
10004ceb:	e49c                                    	beqz.n	a4, 10004d0d <__divdf3+0x32d>
10004ced:	40f430                                    	nsau	a3, a4
10004cf0:	15c352                                    	addi	a5, a3, 21
10004cf3:	401500                                    	ssl	a5
10004cf6:	c70c                                    	movi.n	a7, 12
10004cf8:	a1fa00                                    	sll	a15, a10
10004cfb:	8144a0                                    	src	a4, a4, a10
10004cfe:	c07730                                    	sub	a7, a7, a3
10004d01:	0fad                                    	mov.n	a10, a15
10004d03:	ff5646                                    	j	10004a60 <__divdf3+0x80>

10004d06 <__divdf3+0x326>:
10004d06:	013910                                    	slli	a3, a9, 31
10004d09:	020c                                    	movi.n	a2, 0
10004d0b:	f01d                                    	retw.n

10004d0d <__divdf3+0x32d>:
10004d0d:	40fa30                                    	nsau	a3, a10
10004d10:	a40c                                    	movi.n	a4, 10
10004d12:	f5c352                                    	addi	a5, a3, -11
10004d15:	133437                                    	bltu	a4, a3, 10004d2c <__divdf3+0x34c>
10004d18:	b40c                                    	movi.n	a4, 11
10004d1a:	c04430                                    	sub	a4, a4, a3
10004d1d:	400400                                    	ssr	a4
10004d20:	9140a0                                    	srl	a4, a10
10004d23:	401500                                    	ssl	a5
10004d26:	a1aa00                                    	sll	a10, a10
10004d29:	0001c6                                    	j	10004d34 <__divdf3+0x354>

10004d2c <__divdf3+0x34c>:
10004d2c:	401500                                    	ssl	a5
10004d2f:	a14a00                                    	sll	a4, a10
10004d32:	0a0c                                    	movi.n	a10, 0
10004d34:	c56c                                    	movi.n	a5, -20
10004d36:	c07530                                    	sub	a7, a5, a3
10004d39:	ff48c6                                    	j	10004a60 <__divdf3+0x80>

10004d3c <__propagateFloat64NaN>:
10004d3c:	004136                                    	entry	a1, 32
10004d3f:	fa7c                                    	movi.n	a10, -1
10004d41:	f77c                                    	movi.n	a7, -1
10004d43:	01aab0                                    	slli	a10, a10, 21
10004d46:	11f3f0                                    	slli	a15, a3, 1
10004d49:	206220                                    	or	a6, a2, a2
10004d4c:	01a092                                    	movi	a9, 1
10004d4f:	417c70                                    	srli	a7, a7, 12
10004d52:	0b3fa7                                    	bltu	a15, a10, 10004d61 <__propagateFloat64NaN+0x25>
10004d55:	102370                                    	and	a2, a3, a7
10004d58:	01a082                                    	movi	a8, 1
10004d5b:	202620                                    	or	a2, a6, a2
10004d5e:	629280                                    	saltu	a9, a2, a8

10004d61 <__propagateFloat64NaN+0x25>:
10004d61:	f023c1                                    	l32r	a12, 10000df0 (7ff80000 <_memmap_cacheattr_bp_allvalid+0x3bb3bbbc>)
10004d64:	ffa7d2                                    	movi	a13, 0x7ff
10004d67:	fb7c                                    	movi.n	a11, -1
10004d69:	01ddc0                                    	slli	a13, a13, 20
10004d6c:	10e3c0                                    	and	a14, a3, a12
10004d6f:	080c                                    	movi.n	a8, 0
10004d71:	41bdb0                                    	srli	a11, a11, 13
10004d74:	020c                                    	movi.n	a2, 0
10004d76:	0a9ed7                                    	bne	a14, a13, 10004d84 <__propagateFloat64NaN+0x48>
10004d79:	1023b0                                    	and	a2, a3, a11
10004d7c:	0e0c                                    	movi.n	a14, 0
10004d7e:	202620                                    	or	a2, a6, a2
10004d81:	622e20                                    	saltu	a2, a14, a2
10004d84:	11e5f0                                    	slli	a14, a5, 1
10004d87:	0a3ea7                                    	bltu	a14, a10, 10004d95 <__propagateFloat64NaN+0x59>
10004d8a:	107570                                    	and	a7, a5, a7
10004d8d:	080c                                    	movi.n	a8, 0
10004d8f:	207470                                    	or	a7, a4, a7
10004d92:	628870                                    	saltu	a8, a8, a7
10004d95:	1075c0                                    	and	a7, a5, a12
10004d98:	0a0c                                    	movi.n	a10, 0
10004d9a:	0a97d7                                    	bne	a7, a13, 10004da8 <__propagateFloat64NaN+0x6c>
10004d9d:	1075b0                                    	and	a7, a5, a11
10004da0:	0a0c                                    	movi.n	a10, 0
10004da2:	207470                                    	or	a7, a4, a7
10004da5:	62aa70                                    	saltu	a10, a10, a7
10004da8:	1b0c                                    	movi.n	a11, 1
10004daa:	2072a0                                    	or	a7, a2, a10
10004dad:	01bbd0                                    	slli	a11, a11, 19
10004db0:	0d1766                                    	bnei	a7, 1, 10004dc1 <__propagateFloat64NaN+0x85>
10004db3:	f00e71                                    	l32r	a7, 10000dec (10025cf0 <__float_exception_flags>)
10004db6:	0d1c                                    	movi.n	a13, 16
10004db8:	0007c2                                    	l8ui	a12, a7, 0
10004dbb:	20ccd0                                    	or	a12, a12, a13
10004dbe:	0047c2                                    	s8i	a12, a7, 0
10004dc1:	2073b0                                    	or	a7, a3, a11
10004dc4:	2055b0                                    	or	a5, a5, a11
10004dc7:	f28c                                    	beqz.n	a2, 10004dda <__propagateFloat64NaN+0x9e>
10004dc9:	4aec                                    	bnez.n	a10, 10004df1 <__propagateFloat64NaN+0xb5>
10004dcb:	18cc                                    	bnez.n	a8, 10004dd0 <__propagateFloat64NaN+0x94>
10004dcd:	204660                                    	or	a4, a6, a6
10004dd0:	08cc                                    	bnez.n	a8, 10004dd4 <__propagateFloat64NaN+0x98>
10004dd2:	075d                                    	mov.n	a5, a7
10004dd4:	042d                                    	mov.n	a2, a4
10004dd6:	053d                                    	mov.n	a3, a5
10004dd8:	f01d                                    	retw.n

10004dda <__propagateFloat64NaN+0x9e>:
10004dda:	042d                                    	mov.n	a2, a4
10004ddc:	053d                                    	mov.n	a3, a5
10004dde:	69ec                                    	bnez.n	a9, 10004e08 <__propagateFloat64NaN+0xcc>
10004de0:	1e0c                                    	movi.n	a14, 1
10004de2:	30fae0                                    	xor	a15, a10, a14
10004de5:	1088f0                                    	and	a8, a8, a15
10004de8:	202660                                    	or	a2, a6, a6
10004deb:	203770                                    	or	a3, a7, a7
10004dee:	161866                                    	bnei	a8, 1, 10004e08 <__propagateFloat64NaN+0xcc>
10004df1:	1187f0                                    	slli	a8, a7, 1
10004df4:	1195f0                                    	slli	a9, a5, 1
10004df7:	042d                                    	mov.n	a2, a4
10004df9:	053d                                    	mov.n	a3, a5
10004dfb:	093897                                    	bltu	a8, a9, 10004e08 <__propagateFloat64NaN+0xcc>
10004dfe:	08b647                                    	bgeu	a6, a4, 10004e0a <__propagateFloat64NaN+0xce>
10004e01:	042d                                    	mov.n	a2, a4
10004e03:	053d                                    	mov.n	a3, a5
10004e05:	019897                                    	bne	a8, a9, 10004e0a <__propagateFloat64NaN+0xce>
10004e08:	f01d                                    	retw.n

10004e0a <__propagateFloat64NaN+0xce>:
10004e0a:	062d                                    	mov.n	a2, a6
10004e0c:	073d                                    	mov.n	a3, a7
10004e0e:	f63987                                    	bltu	a9, a8, 10004e08 <__propagateFloat64NaN+0xcc>
10004e11:	c0c890                                    	sub	a12, a8, a9
10004e14:	030c                                    	movi.n	a3, 0
10004e16:	62d460                                    	saltu	a13, a4, a6
10004e19:	1e0c                                    	movi.n	a14, 1
10004e1b:	62f3c0                                    	saltu	a15, a3, a12
10004e1e:	308de0                                    	xor	a8, a13, a14
10004e21:	2088f0                                    	or	a8, a8, a15
10004e24:	062d                                    	mov.n	a2, a6
10004e26:	073d                                    	mov.n	a3, a7
10004e28:	fdc816                                    	beqz	a8, 10004e08 <__propagateFloat64NaN+0xcc>
10004e2b:	622750                                    	saltu	a2, a7, a5
10004e2e:	934620                                    	movnez	a4, a6, a2
10004e31:	633750                                    	minu	a3, a7, a5
10004e34:	042d                                    	mov.n	a2, a4
10004e36:	f01d                                    	retw.n

10004e38 <__roundAndPackFloat64>:
10004e38:	004136                                    	entry	a1, 32
10004e3b:	fda772                                    	movi	a7, 0x7fd
10004e3e:	f49030                                    	extui	a9, a3, 0, 16
10004e41:	038d                                    	mov.n	a8, a3
10004e43:	02b977                                    	bgeu	a9, a7, 10004e49 <__roundAndPackFloat64+0x11>
10004e46:	003a06                                    	j	10004f32 <__roundAndPackFloat64+0xfa>
10004e49:	1fa737                                    	bge	a7, a3, 10004e6c <__roundAndPackFloat64+0x34>

10004e4c <__roundAndPackFloat64+0x14>:
10004e4c:	efe841                                    	l32r	a4, 10000dec (10025cf0 <__float_exception_flags>)
10004e4f:	ffa732                                    	movi	a3, 0x7ff
10004e52:	0004e2                                    	l8ui	a14, a4, 0
10004e55:	560c                                    	movi.n	a6, 5
10004e57:	20fe60                                    	or	a15, a14, a6
10004e5a:	012210                                    	slli	a2, a2, 31
10004e5d:	0133c0                                    	slli	a3, a3, 20
10004e60:	323a                                    	add.n	a3, a2, a3
10004e62:	050c                                    	movi.n	a5, 0
10004e64:	0044f2                                    	s8i	a15, a4, 0
10004e67:	052d                                    	mov.n	a2, a5
10004e69:	f01d                                    	retw.n

10004e6b <__roundAndPackFloat64+0x33>:
	...

10004e6c <__roundAndPackFloat64+0x34>:
10004e6c:	fda782                                    	movi	a8, 0x7fd
10004e6f:	169387                                    	bne	a3, a8, 10004e89 <__roundAndPackFloat64+0x51>
10004e72:	f37c                                    	movi.n	a3, -1
10004e74:	413b30                                    	srli	a3, a3, 11
10004e77:	021437                                    	beq	a4, a3, 10004e7d <__roundAndPackFloat64+0x45>
10004e7a:	002d06                                    	j	10004f32 <__roundAndPackFloat64+0xfa>
10004e7d:	020526                                    	beqi	a5, -1, 10004e83 <__roundAndPackFloat64+0x4b>
10004e80:	002b86                                    	j	10004f32 <__roundAndPackFloat64+0xfa>
10004e83:	fc5696                                    	bltz	a6, 10004e4c <__roundAndPackFloat64+0x14>
10004e86:	002a06                                    	j	10004f32 <__roundAndPackFloat64+0xfa>

10004e89 <__roundAndPackFloat64+0x51>:
10004e89:	038d                                    	mov.n	a8, a3
10004e8b:	0a33d6                                    	bgez	a3, 10004f32 <__roundAndPackFloat64+0xfa>
10004e8e:	f87c                                    	movi.n	a8, -1
10004e90:	418b80                                    	srli	a8, a8, 11
10004e93:	170c                                    	movi.n	a7, 1
10004e95:	173487                                    	bltu	a4, a8, 10004eb0 <__roundAndPackFloat64+0x78>
10004e98:	140366                                    	bnei	a3, -1, 10004eb0 <__roundAndPackFloat64+0x78>
10004e9b:	0116d6                                    	bgez	a6, 10004eb0 <__roundAndPackFloat64+0x78>
10004e9e:	01c592                                    	addi	a9, a5, 1
10004ea1:	c07480                                    	sub	a7, a4, a8
10004ea4:	01a0e2                                    	movi	a14, 1
10004ea7:	6277e0                                    	saltu	a7, a7, a14
10004eaa:	62f590                                    	saltu	a15, a5, a9
10004ead:	1077f0                                    	and	a7, a7, a15
10004eb0:	603030                                    	neg	a3, a3
10004eb3:	400300                                    	ssr	a3
10004eb6:	16c3f6                                    	bgeui	a3, 32, 10004ed0 <__roundAndPackFloat64+0x98>
10004eb9:	a13600                                    	sll	a3, a6
10004ebc:	080c                                    	movi.n	a8, 0
10004ebe:	81f560                                    	src	a15, a5, a6
10004ec1:	623830                                    	saltu	a3, a8, a3
10004ec4:	815450                                    	src	a5, a4, a5
10004ec7:	914040                                    	srl	a4, a4
10004eca:	206f30                                    	or	a6, a15, a3
10004ecd:	001106                                    	j	10004f15 <__roundAndPackFloat64+0xdd>

10004ed0 <__roundAndPackFloat64+0x98>:
10004ed0:	16d3f6                                    	bgeui	a3, 64, 10004eea <__roundAndPackFloat64+0xb2>
10004ed3:	a13500                                    	sll	a3, a5
10004ed6:	818450                                    	src	a8, a4, a5
10004ed9:	915040                                    	srl	a5, a4
10004edc:	203360                                    	or	a3, a3, a6
10004edf:	040c                                    	movi.n	a4, 0
10004ee1:	623430                                    	saltu	a3, a4, a3
10004ee4:	206830                                    	or	a6, a8, a3
10004ee7:	000a86                                    	j	10004f15 <__roundAndPackFloat64+0xdd>

10004eea <__roundAndPackFloat64+0xb2>:
10004eea:	f85c                                    	movi.n	a8, 95
10004eec:	183837                                    	bltu	a8, a3, 10004f08 <__roundAndPackFloat64+0xd0>
10004eef:	20f650                                    	or	a15, a6, a5
10004ef2:	a13400                                    	sll	a3, a4
10004ef5:	918040                                    	srl	a8, a4
10004ef8:	040c                                    	movi.n	a4, 0
10004efa:	203f30                                    	or	a3, a15, a3
10004efd:	623430                                    	saltu	a3, a4, a3
10004f00:	050c                                    	movi.n	a5, 0
10004f02:	206830                                    	or	a6, a8, a3
10004f05:	000306                                    	j	10004f15 <__roundAndPackFloat64+0xdd>

10004f08 <__roundAndPackFloat64+0xd0>:
10004f08:	203650                                    	or	a3, a6, a5
10004f0b:	203340                                    	or	a3, a3, a4
10004f0e:	040c                                    	movi.n	a4, 0
10004f10:	050c                                    	movi.n	a5, 0
10004f12:	626430                                    	saltu	a6, a4, a3
10004f15:	080c                                    	movi.n	a8, 0
10004f17:	623860                                    	saltu	a3, a8, a6
10004f1a:	103730                                    	and	a3, a7, a3
10004f1d:	111366                                    	bnei	a3, 1, 10004f32 <__roundAndPackFloat64+0xfa>
10004f20:	efb331                                    	l32r	a3, 10000dec (10025cf0 <__float_exception_flags>)
10004f23:	270c                                    	movi.n	a7, 2
10004f25:	000332                                    	l8ui	a3, a3, 0
10004f28:	080c                                    	movi.n	a8, 0
10004f2a:	207370                                    	or	a7, a3, a7
10004f2d:	000246                                    	j	10004f3a <__roundAndPackFloat64+0x102>

10004f30 <__roundAndPackFloat64+0xf8>:
	...

10004f32 <__roundAndPackFloat64+0xfa>:
10004f32:	269c                                    	beqz.n	a6, 10004f48 <__roundAndPackFloat64+0x110>
10004f34:	efae31                                    	l32r	a3, 10000dec (10025cf0 <__float_exception_flags>)
10004f37:	000372                                    	l8ui	a7, a3, 0
10004f3a:	130c                                    	movi.n	a3, 1
10004f3c:	efac91                                    	l32r	a9, 10000dec (10025cf0 <__float_exception_flags>)
10004f3f:	207730                                    	or	a7, a7, a3
10004f42:	004972                                    	s8i	a7, a9, 0
10004f45:	008696                                    	bltz	a6, 10004f51 <__roundAndPackFloat64+0x119>
10004f48:	203450                                    	or	a3, a4, a5
10004f4b:	838330                                    	moveqz	a8, a3, a3
10004f4e:	0005c6                                    	j	10004f69 <__roundAndPackFloat64+0x131>

10004f51 <__roundAndPackFloat64+0x119>:
10004f51:	f77c                                    	movi.n	a7, -1
10004f53:	417170                                    	srli	a7, a7, 1
10004f56:	106670                                    	and	a6, a6, a7
10004f59:	e51b                                    	addi.n	a14, a5, 1
10004f5b:	623630                                    	saltu	a3, a6, a3
10004f5e:	62fe50                                    	saltu	a15, a14, a5
10004f61:	103e30                                    	and	a3, a14, a3
10004f64:	44fa                                    	add.n	a4, a4, a15
10004f66:	305e30                                    	xor	a5, a14, a3
10004f69:	012210                                    	slli	a2, a2, 31
10004f6c:	0138c0                                    	slli	a3, a8, 20
10004f6f:	242a                                    	add.n	a2, a4, a2
10004f71:	323a                                    	add.n	a3, a2, a3
10004f73:	052d                                    	mov.n	a2, a5
10004f75:	f01d                                    	retw.n

10004f77 <__roundAndPackFloat64+0x13f>:
	...

10004f78 <xtos_interrupt_enable>:
10004f78:	004136                                    	entry	a1, 32
10004f7b:	023d                                    	mov.n	a3, a2
10004f7d:	f27c                                    	movi.n	a2, -1
10004f7f:	27c3f6                                    	bgeui	a3, 32, 10004faa <xtos_interrupt_enable+0x32>
10004f82:	120c                                    	movi.n	a2, 1
10004f84:	401300                                    	ssl	a3
10004f87:	a12200                                    	sll	a2, a2
10004f8a:	006530                                    	rsil	a3, 5
10004f8d:	ef9941                                    	l32r	a4, 10000df4 (10024c28 <xtos_enabled>)
10004f90:	ef9a51                                    	l32r	a5, 10000df8 (10024c2c <xtos_vpri_enabled>)
10004f93:	0468                                    	l32i.n	a6, a4, 0
10004f95:	0558                                    	l32i.n	a5, a5, 0
10004f97:	202620                                    	or	a2, a6, a2
10004f9a:	105520                                    	and	a5, a5, a2
10004f9d:	0429                                    	s32i.n	a2, a4, 0
10004f9f:	13e450                                    	wsr.intenable	a5
10004fa2:	13e630                                    	wsr.ps	a3
10004fa5:	002010                                    	rsync
10004fa8:	020c                                    	movi.n	a2, 0

10004faa <xtos_interrupt_enable+0x32>:
10004faa:	f01d                                    	retw.n

10004fac <xtos_interrupt_disable>:
10004fac:	004136                                    	entry	a1, 32
10004faf:	023d                                    	mov.n	a3, a2
10004fb1:	f27c                                    	movi.n	a2, -1
10004fb3:	27c3f6                                    	bgeui	a3, 32, 10004fde <xtos_interrupt_disable+0x32>
10004fb6:	006520                                    	rsil	a2, 5
10004fb9:	ef8ef1                                    	l32r	a15, 10000df4 (10024c28 <xtos_enabled>)
10004fbc:	ef8f51                                    	l32r	a5, 10000df8 (10024c2c <xtos_vpri_enabled>)
10004fbf:	e47c                                    	movi.n	a4, -2
10004fc1:	401300                                    	ssl	a3
10004fc4:	0f68                                    	l32i.n	a6, a15, 0
10004fc6:	814440                                    	src	a4, a4, a4
10004fc9:	0558                                    	l32i.n	a5, a5, 0
10004fcb:	104640                                    	and	a4, a6, a4
10004fce:	105540                                    	and	a5, a5, a4
10004fd1:	0f49                                    	s32i.n	a4, a15, 0
10004fd3:	13e450                                    	wsr.intenable	a5
10004fd6:	13e620                                    	wsr.ps	a2
10004fd9:	002010                                    	rsync
10004fdc:	020c                                    	movi.n	a2, 0

10004fde <xtos_interrupt_disable+0x32>:
10004fde:	f01d                                    	retw.n

10004fe0 <xtos_set_interrupt_handler>:
10004fe0:	004136                                    	entry	a1, 32
10004fe3:	026d                                    	mov.n	a6, a2
10004fe5:	f27c                                    	movi.n	a2, -1
10004fe7:	35c6f6                                    	bgeui	a6, 32, 10005020 <xtos_set_interrupt_handler+0x40>
10004fea:	ef8471                                    	l32r	a7, 10000dfc (10024060 <Xthal_intlevel>)
10004fed:	f81c                                    	movi.n	a8, 31
10004fef:	907670                                    	addx2	a7, a6, a7
10004ff2:	001772                                    	l16ui	a7, a7, 0
10004ff5:	c09860                                    	sub	a9, a8, a6
10004ff8:	2467f6                                    	bgeui	a7, 6, 10005020 <xtos_set_interrupt_handler+0x40>
10004ffb:	ef81f1                                    	l32r	a15, 10000e00 (10024c30 <xtos_interrupt_table>)
10004ffe:	ef7771                                    	l32r	a7, 10000ddc (10004428 <xtos_unhandled_interrupt>)
10005001:	b029f0                                    	addx8	a2, a9, a15
10005004:	438c                                    	beqz.n	a3, 1000500c <xtos_set_interrupt_handler+0x2c>
10005006:	1249                                    	s32i.n	a4, a2, 4
10005008:	000106                                    	j	10005010 <xtos_set_interrupt_handler+0x30>

1000500b <xtos_set_interrupt_handler+0x2b>:
	...

1000500c <xtos_set_interrupt_handler+0x2c>:
1000500c:	073d                                    	mov.n	a3, a7
1000500e:	1269                                    	s32i.n	a6, a2, 4
10005010:	0248                                    	l32i.n	a4, a2, 0
10005012:	0239                                    	s32i.n	a3, a2, 0
10005014:	020c                                    	movi.n	a2, 0
10005016:	658c                                    	beqz.n	a5, 10005020 <xtos_set_interrupt_handler+0x40>
10005018:	c03470                                    	sub	a3, a4, a7
1000501b:	933430                                    	movnez	a3, a4, a3
1000501e:	0539                                    	s32i.n	a3, a5, 0
10005020:	f01d                                    	retw.n

10005022 <xtos_set_interrupt_handler+0x42>:
	...

10005024 <_xtos_syscall_handler>:
10005024:	03b130                                    	rsr.epc1	a3
10005027:	030120                                    	rsr.lend	a2
1000502a:	333b                                    	addi.n	a3, a3, 3
1000502c:	0c9237                                    	bne	a2, a3, 1000503c <_xtos_syscall_handler+0x18>
1000502f:	030220                                    	rsr.lcount	a2
10005032:	628c                                    	beqz.n	a2, 1000503c <_xtos_syscall_handler+0x18>
10005034:	220b                                    	addi.n	a2, a2, -1
10005036:	130220                                    	wsr.lcount	a2
10005039:	030030                                    	rsr.lbeg	a3

1000503c <_xtos_syscall_handler+0x18>:
1000503c:	4128                                    	l32i.n	a2, a1, 16
1000503e:	13b130                                    	wsr.epc1	a3
10005041:	5138                                    	l32i.n	a3, a1, 20
10005043:	056256                                    	bnez	a2, 1000509d <__deep_call+0x19>
10005046:	116132                                    	s32i	a3, a1, 68
10005049:	126142                                    	s32i	a4, a1, 72
1000504c:	136152                                    	s32i	a5, a1, 76
1000504f:	ef6d31                                    	l32r	a3, 10000e04 (50023 <_memmap_mem_srom_end+0x30023>)
10005052:	03e620                                    	rsr.ps	a2
10005055:	13e630                                    	wsr.ps	a3
10005058:	03b130                                    	rsr.epc1	a3
1000505b:	60c112                                    	addi	a1, a1, 96
1000505e:	002010                                    	rsync
10005061:	040c                                    	movi.n	a4, 0

10005063 <_SyscallException>:
10005063:	008136                                    	entry	a1, 64
10005066:	0001f5                                    	call12	10005084 <__deep_call>
10005069:	ef32e1                                    	l32r	a14, 10000d34 (80000007 <_memmap_cacheattr_bp_allvalid+0x3bbbbbc3>)
1000506c:	0cea                                    	add.n	a0, a12, a14
1000506e:	f01d                                    	retw.n

10005070 <_SyscallException+0xd>:
10005070:	13e620                                    	wsr.ps	a2
10005073:	020c                                    	movi.n	a2, 0
10005075:	a548                                    	l32i.n	a4, a5, 40
10005077:	002010                                    	rsync
1000507a:	13b130                                    	wsr.epc1	a3
1000507d:	9538                                    	l32i.n	a3, a5, 36
1000507f:	b558                                    	l32i.n	a5, a5, 44
10005081:	003000                                    	rfe

10005084 <__deep_call>:
10005084:	006136                                    	entry	a1, 48
10005087:	ef60c1                                    	l32r	a12, 10000e08 (5 <_memmap_cacheattr_bp_base+0x1>)
1000508a:	c0ca                                    	add.n	a12, a0, a12
1000508c:	006136                                    	entry	a1, 48
1000508f:	00cd                                    	mov.n	a12, a0
10005091:	006136                                    	entry	a1, 48
10005094:	00cd                                    	mov.n	a12, a0
10005096:	002136                                    	entry	a1, 16
10005099:	0bbd                                    	mov.n	a11, a11
1000509b:	f01d                                    	retw.n

1000509d <__deep_call+0x19>:
1000509d:	f27c                                    	movi.n	a2, -1
1000509f:	60c112                                    	addi	a1, a1, 96
100050a2:	003000                                    	rfe

100050a5 <__deep_call+0x21>:
100050a5:	000000                                        ...

100050a8 <_Level2FromVector>:
100050a8:	61d220                                    	xsr.excsave2	a2
100050ab:	a0c112                                    	addi	a1, a1, -96
100050ae:	4129                                    	s32i.n	a2, a1, 16
100050b0:	ef5521                                    	l32r	a2, 10000e04 (50023 <_memmap_mem_srom_end+0x30023>)
100050b3:	6149                                    	s32i.n	a4, a1, 24
100050b5:	7159                                    	s32i.n	a5, a1, 28
100050b7:	13e620                                    	wsr.ps	a2
100050ba:	002010                                    	rsync
100050bd:	60c112                                    	addi	a1, a1, 96
100050c0:	03b240                                    	rsr.epc2	a4
100050c3:	ef5251                                    	l32r	a5, 10000e0c (c0000000 <_memmap_cacheattr_bp_allvalid+0x7bbbbbbc>)
100050c6:	204540                                    	or	a4, a5, a4
100050c9:	904540                                    	addx2	a4, a5, a4
100050cc:	00c136                                    	entry	a1, 96
100050cf:	0062f0                                    	rsil	a15, 2
100050d2:	03e2f0                                    	rsr.interrupt	a15

100050d5 <Pri_2_initial>:
100050d5:	03e4c0                                    	rsr.intenable	a12
100050d8:	ef4ed1                                    	l32r	a13, 10000e10 (840f0f0e <_memmap_cacheattr_bp_allvalid+0x3fcacaca>)
100050db:	10ffc0                                    	and	a15, a15, a12
100050de:	10ffd0                                    	and	a15, a15, a13
100050e1:	063f16                                    	beqz	a15, 10005148 <spurious2int>
100050e4:	0303e0                                    	rsr.sar	a14
100050e7:	0302d0                                    	rsr.lcount	a13
100050ea:	0300c0                                    	rsr.lbeg	a12
100050ed:	91d9                                    	s32i.n	a13, a1, 36
100050ef:	0301d0                                    	rsr.lend	a13
100050f2:	a1c9                                    	s32i.n	a12, a1, 40
100050f4:	b1d9                                    	s32i.n	a13, a1, 44
100050f6:	21e9                                    	s32i.n	a14, a1, 8

100050f8 <Pri_2_initial+0x23>:
100050f8:	60c0f0                                    	neg	a12, a15
100050fb:	10ccf0                                    	and	a12, a12, a15
100050fe:	13e3c0                                    	wsr.intclear	a12
10005101:	ef3fd1                                    	l32r	a13, 10000e00 (10024c30 <xtos_interrupt_table>)

10005104 <Pri_2_loop_postclear>:
10005104:	fe1c                                    	movi.n	a14, 31
10005106:	40fcc0                                    	nsau	a12, a12
10005109:	c0fec0                                    	sub	a15, a14, a12
1000510c:	60f0f0                                    	neg	a15, a15
1000510f:	1fcff2                                    	addi	a15, a15, 31
10005112:	b0cfd0                                    	addx8	a12, a15, a13
10005115:	0cd8                                    	l32i.n	a13, a12, 0
10005117:	012ce2                                    	l32i	a14, a12, 4
1000511a:	20f110                                    	or	a15, a1, a1
1000511d:	000df0                                    	callx12	a13
10005120:	03e2f0                                    	rsr.interrupt	a15
10005123:	03e4c0                                    	rsr.intenable	a12
10005126:	ef3ad1                                    	l32r	a13, 10000e10 (840f0f0e <_memmap_cacheattr_bp_allvalid+0x3fcacaca>)
10005129:	10ffc0                                    	and	a15, a15, a12
1000512c:	10ffd0                                    	and	a15, a15, a13

1000512f <Pri_2_loop_postclear+0x2b>:
1000512f:	fc5f56                                    	bnez	a15, 100050f8 <Pri_2_initial+0x23>

10005132 <spurious2int_restore_ex>:
10005132:	21e8                                    	l32i.n	a14, a1, 8
10005134:	91c8                                    	l32i.n	a12, a1, 36
10005136:	0a21d2                                    	l32i	a13, a1, 40
10005139:	0b21f2                                    	l32i	a15, a1, 44
1000513c:	1302c0                                    	wsr.lcount	a12
1000513f:	1300d0                                    	wsr.lbeg	a13
10005142:	1301f0                                    	wsr.lend	a15
10005145:	1303e0                                    	wsr.sar	a14

10005148 <spurious2int>:
10005148:	003120                                    	clrex
1000514b:	ef3201                                    	l32r	a0, 10000e14 (1000515c <return2from_exc>)
1000514e:	ef2fd1                                    	l32r	a13, 10000e0c (c0000000 <_memmap_cacheattr_bp_allvalid+0x7bbbbbbc>)
10005151:	2000d0                                    	or	a0, a0, a13
10005154:	900d00                                    	addx2	a0, a13, a0
10005157:	0063e0                                    	rsil	a14, 3
1000515a:	f01d                                    	retw.n

1000515c <return2from_exc>:
1000515c:	4528                                    	l32i.n	a2, a5, 16
1000515e:	6548                                    	l32i.n	a4, a5, 24
10005160:	7558                                    	l32i.n	a5, a5, 28
10005162:	003210                                    	rfi	2

10005165 <return2from_exc+0x9>:
10005165:	000000                                        ...

10005168 <_Level3FromVector>:
10005168:	61d320                                    	xsr.excsave3	a2
1000516b:	a0c112                                    	addi	a1, a1, -96
1000516e:	4129                                    	s32i.n	a2, a1, 16
10005170:	ef2521                                    	l32r	a2, 10000e04 (50023 <_memmap_mem_srom_end+0x30023>)
10005173:	6149                                    	s32i.n	a4, a1, 24
10005175:	7159                                    	s32i.n	a5, a1, 28
10005177:	13e620                                    	wsr.ps	a2
1000517a:	002010                                    	rsync
1000517d:	60c112                                    	addi	a1, a1, 96
10005180:	03b340                                    	rsr.epc3	a4
10005183:	ef2251                                    	l32r	a5, 10000e0c (c0000000 <_memmap_cacheattr_bp_allvalid+0x7bbbbbbc>)
10005186:	204540                                    	or	a4, a5, a4
10005189:	904540                                    	addx2	a4, a5, a4
1000518c:	00c136                                    	entry	a1, 96
1000518f:	0063f0                                    	rsil	a15, 3
10005192:	0303e0                                    	rsr.sar	a14
10005195:	0c4c                                    	movi.n	a12, 64
10005197:	21e9                                    	s32i.n	a14, a1, 8
10005199:	13e3c0                                    	wsr.intclear	a12

1000519c <Pri_3_loop_postclear>:
1000519c:	0302d0                                    	rsr.lcount	a13
1000519f:	0300e0                                    	rsr.lbeg	a14
100051a2:	91d9                                    	s32i.n	a13, a1, 36
100051a4:	0301d0                                    	rsr.lend	a13
100051a7:	a1e9                                    	s32i.n	a14, a1, 40
100051a9:	b1d9                                    	s32i.n	a13, a1, 44
100051ab:	ef1bc1                                    	l32r	a12, 10000e18 (10024cf8 <xtos_interrupt_table+0xc8>)
100051ae:	0cd8                                    	l32i.n	a13, a12, 0
100051b0:	1ce8                                    	l32i.n	a14, a12, 4
100051b2:	20f110                                    	or	a15, a1, a1
100051b5:	000df0                                    	callx12	a13

100051b8 <spurious3int_restore_ex>:
100051b8:	21e8                                    	l32i.n	a14, a1, 8
100051ba:	91c8                                    	l32i.n	a12, a1, 36
100051bc:	a1d8                                    	l32i.n	a13, a1, 40
100051be:	b1f8                                    	l32i.n	a15, a1, 44
100051c0:	1302c0                                    	wsr.lcount	a12
100051c3:	1300d0                                    	wsr.lbeg	a13
100051c6:	1301f0                                    	wsr.lend	a15
100051c9:	1303e0                                    	wsr.sar	a14

100051cc <spurious3int>:
100051cc:	003120                                    	clrex
100051cf:	ef1301                                    	l32r	a0, 10000e1c (100051dd <return3from_exc>)
100051d2:	ef0ed1                                    	l32r	a13, 10000e0c (c0000000 <_memmap_cacheattr_bp_allvalid+0x7bbbbbbc>)
100051d5:	2000d0                                    	or	a0, a0, a13
100051d8:	900d00                                    	addx2	a0, a13, a0
100051db:	f01d                                    	retw.n

100051dd <return3from_exc>:
100051dd:	4528                                    	l32i.n	a2, a5, 16
100051df:	6548                                    	l32i.n	a4, a5, 24
100051e1:	7558                                    	l32i.n	a5, a5, 28
100051e3:	003310                                    	rfi	3

100051e6 <return3from_exc+0x9>:
	...

100051e8 <_Level4FromVector>:
100051e8:	ef0e21                                    	l32r	a2, 10000e20 (10026100 <_Pri_4_SaveArea>)
100051eb:	b209                                    	s32i.n	a0, a2, 44
100051ed:	ef0d01                                    	l32r	a0, 10000e24 (10024264 <_Pri_4_HandlerAddress>)
100051f0:	c219                                    	s32i.n	a1, a2, 48
100051f2:	0008                                    	l32i.n	a0, a0, 0
100051f4:	e239                                    	s32i.n	a3, a2, 56
100051f6:	61d400                                    	xsr.excsave4	a0
100051f9:	f249                                    	s32i.n	a4, a2, 60
100051fb:	d209                                    	s32i.n	a0, a2, 52
100051fd:	03b130                                    	rsr.epc1	a3
10005200:	03e840                                    	rsr.exccause	a4
10005203:	3239                                    	s32i.n	a3, a2, 12
10005205:	4249                                    	s32i.n	a4, a2, 16
10005207:	03ee30                                    	rsr.excvaddr	a3
1000520a:	5239                                    	s32i.n	a3, a2, 20
1000520c:	03d140                                    	rsr.excsave1	a4
1000520f:	6249                                    	s32i.n	a4, a2, 24
10005211:	803c                                    	movi.n	a0, 56
10005213:	106252                                    	s32i	a5, a2, 64
10005216:	116262                                    	s32i	a6, a2, 68
10005219:	126272                                    	s32i	a7, a2, 72

1000521c <_Level4FromVector+0x34>:
1000521c:	136282                                    	s32i	a8, a2, 76
1000521f:	146292                                    	s32i	a9, a2, 80
10005222:	1562a2                                    	s32i	a10, a2, 84
10005225:	1662b2                                    	s32i	a11, a2, 88
10005228:	1762c2                                    	s32i	a12, a2, 92
1000522b:	1862d2                                    	s32i	a13, a2, 96
1000522e:	1962e2                                    	s32i	a14, a2, 100
10005231:	1a62f2                                    	s32i	a15, a2, 104
10005234:	f8c082                                    	addi	a8, a0, -8
10005237:	20c2a2                                    	addi	a10, a2, 32
1000523a:	408020                                    	rotw	2
1000523d:	fdb056                                    	bnez	a0, 1000521c <_Level4FromVector+0x34>
10005240:	408020                                    	rotw	2
10005243:	034930                                    	rsr.windowstart	a3
10005246:	034840                                    	rsr.windowbase	a4
10005249:	1239                                    	s32i.n	a3, a2, 4
1000524b:	2249                                    	s32i.n	a4, a2, 8
1000524d:	130c                                    	movi.n	a3, 1
1000524f:	040c                                    	movi.n	a4, 0
10005251:	134930                                    	wsr.windowstart	a3
10005254:	134840                                    	wsr.windowbase	a4
10005257:	002010                                    	rsync
1000525a:	eef111                                    	l32r	a1, 10000e20 (10026100 <_Pri_4_SaveArea>)
1000525d:	000c                                    	movi.n	a0, 0
1000525f:	eef221                                    	l32r	a2, 10000e28 (50024 <_memmap_mem_srom_end+0x30024>)
10005262:	13e620                                    	wsr.ps	a2
10005265:	002010                                    	rsync
10005268:	0303e0                                    	rsr.sar	a14
1000526b:	01e9                                    	s32i.n	a14, a1, 0
1000526d:	0302e0                                    	rsr.lcount	a14
10005270:	81e9                                    	s32i.n	a14, a1, 32
10005272:	0300e0                                    	rsr.lbeg	a14
10005275:	91e9                                    	s32i.n	a14, a1, 36
10005277:	0301e0                                    	rsr.lend	a14
1000527a:	a1e9                                    	s32i.n	a14, a1, 40
1000527c:	eeecd1                                    	l32r	a13, 10000e2c (8000000 <_memmap_mem_sram_end+0x7dc0000>)
1000527f:	eee0c1                                    	l32r	a12, 10000e00 (10024c30 <xtos_interrupt_table>)
10005282:	13e3d0                                    	wsr.intclear	a13

10005285 <Pri_4_loop_postclear>:
10005285:	8cd8                                    	l32i.n	a13, a12, 32
10005287:	9c68                                    	l32i.n	a6, a12, 36
10005289:	000dd0                                    	callx4	a13

1000528c <Pri_4_spurious>:
1000528c:	003120                                    	clrex
1000528f:	81d8                                    	l32i.n	a13, a1, 32
10005291:	91e8                                    	l32i.n	a14, a1, 36
10005293:	a1f8                                    	l32i.n	a15, a1, 40
10005295:	1302d0                                    	wsr.lcount	a13
10005298:	1300e0                                    	wsr.lbeg	a14
1000529b:	1301f0                                    	wsr.lend	a15
1000529e:	01f8                                    	l32i.n	a15, a1, 0
100052a0:	1303f0                                    	wsr.sar	a15
100052a3:	423c                                    	movi.n	a2, 52
100052a5:	13e620                                    	wsr.ps	a2
100052a8:	002010                                    	rsync
100052ab:	1128                                    	l32i.n	a2, a1, 4
100052ad:	2138                                    	l32i.n	a3, a1, 8
100052af:	134920                                    	wsr.windowstart	a2
100052b2:	134830                                    	wsr.windowbase	a3
100052b5:	002010                                    	rsync
100052b8:	eeda11                                    	l32r	a1, 10000e20 (10026100 <_Pri_4_SaveArea>)
100052bb:	863c                                    	movi.n	a6, 56
100052bd:	e0c172                                    	addi	a7, a1, -32
100052c0:	f8c6e2                                    	addi	a14, a6, -8
100052c3:	20c7f2                                    	addi	a15, a7, 32
100052c6:	ff48                                    	l32i.n	a4, a15, 60
100052c8:	102f52                                    	l32i	a5, a15, 64
100052cb:	112f62                                    	l32i	a6, a15, 68
100052ce:	122f72                                    	l32i	a7, a15, 72
100052d1:	132f82                                    	l32i	a8, a15, 76
100052d4:	142f92                                    	l32i	a9, a15, 80
100052d7:	152fa2                                    	l32i	a10, a15, 84
100052da:	162fb2                                    	l32i	a11, a15, 88
100052dd:	408020                                    	rotw	2
100052e0:	fdc656                                    	bnez	a6, 100052c0 <Pri_4_spurious+0x34>
100052e3:	172742                                    	l32i	a4, a7, 92
100052e6:	182752                                    	l32i	a5, a7, 96
100052e9:	192762                                    	l32i	a6, a7, 100
100052ec:	1a2772                                    	l32i	a7, a7, 104
100052ef:	408020                                    	rotw	2
100052f2:	3128                                    	l32i.n	a2, a1, 12
100052f4:	4138                                    	l32i.n	a3, a1, 16
100052f6:	13b120                                    	wsr.epc1	a2
100052f9:	13e830                                    	wsr.exccause	a3
100052fc:	5128                                    	l32i.n	a2, a1, 20
100052fe:	13ee20                                    	wsr.excvaddr	a2
10005301:	6138                                    	l32i.n	a3, a1, 24
10005303:	13d130                                    	wsr.excsave1	a3
10005306:	b108                                    	l32i.n	a0, a1, 44
10005308:	d128                                    	l32i.n	a2, a1, 52
1000530a:	e138                                    	l32i.n	a3, a1, 56
1000530c:	c118                                    	l32i.n	a1, a1, 48
1000530e:	003410                                    	rfi	4

10005311 <Pri_4_spurious+0x85>:
10005311:	000000                                        ...

10005314 <_xtos_l1int_handler>:
10005314:	7159                                    	s32i.n	a5, a1, 28
10005316:	eebb21                                    	l32r	a2, 10000e04 (50023 <_memmap_mem_srom_end+0x30023>)
10005319:	03b130                                    	rsr.epc1	a3
1000531c:	61e620                                    	xsr.ps	a2
1000531f:	0139                                    	s32i.n	a3, a1, 0
10005321:	1129                                    	s32i.n	a2, a1, 4
10005323:	60c112                                    	addi	a1, a1, 96
10005326:	002010                                    	rsync
10005329:	eeb841                                    	l32r	a4, 10000e0c (c0000000 <_memmap_cacheattr_bp_allvalid+0x7bbbbbbc>)
1000532c:	203430                                    	or	a3, a4, a3
1000532f:	904430                                    	addx2	a4, a4, a3

10005332 <_LevelOneInterrupt>:
10005332:	00c136                                    	entry	a1, 96
10005335:	0061f0                                    	rsil	a15, 1
10005338:	eeafe1                                    	l32r	a14, 10000df4 (10024c28 <xtos_enabled>)
1000533b:	03e2f0                                    	rsr.interrupt	a15
1000533e:	03e4c0                                    	rsr.intenable	a12
10005341:	1ed8                                    	l32i.n	a13, a14, 4
10005343:	10ffc0                                    	and	a15, a15, a12
10005346:	0303c0                                    	rsr.sar	a12
10005349:	31d9                                    	s32i.n	a13, a1, 12
1000534b:	07df16                                    	beqz	a15, 100053cc <spurious_int>
1000534e:	21c9                                    	s32i.n	a12, a1, 8
10005350:	8129                                    	s32i.n	a2, a1, 32
10005352:	f27c                                    	movi.n	a2, -1

10005354 <_LevelOneInterrupt+0x22>:
10005354:	40ffc0                                    	nsau	a12, a15
10005357:	eeb6f1                                    	l32r	a15, 10000e30 (80000000 <_memmap_cacheattr_bp_allvalid+0x3bbbbbbc>)
1000535a:	400c00                                    	ssr	a12
1000535d:	91f0f0                                    	srl	a15, a15
10005360:	3022f0                                    	xor	a2, a2, a15
10005363:	eea7d1                                    	l32r	a13, 10000e00 (10024c30 <xtos_interrupt_table>)
10005366:	13e3f0                                    	wsr.intclear	a15
10005369:	b0ccd0                                    	addx8	a12, a12, a13
1000536c:	402cd2                                    	l32i	a13, a12, 0x100
1000536f:	0065f0                                    	rsil	a15, 5
10005372:	0ef8                                    	l32i.n	a15, a14, 0
10005374:	1ed9                                    	s32i.n	a13, a14, 4
10005376:	10ffd0                                    	and	a15, a15, a13
10005379:	13e4f0                                    	wsr.intenable	a15
1000537c:	002010                                    	rsync
1000537f:	0060f0                                    	rsil	a15, 0
10005382:	0302d0                                    	rsr.lcount	a13
10005385:	0300f0                                    	rsr.lbeg	a15
10005388:	91d9                                    	s32i.n	a13, a1, 36
1000538a:	0301d0                                    	rsr.lend	a13
1000538d:	a1f9                                    	s32i.n	a15, a1, 40
1000538f:	b1d9                                    	s32i.n	a13, a1, 44
10005391:	0cd8                                    	l32i.n	a13, a12, 0
10005393:	01fd                                    	mov.n	a15, a1
10005395:	1ce8                                    	l32i.n	a14, a12, 4
10005397:	000df0                                    	callx12	a13
1000539a:	91d8                                    	l32i.n	a13, a1, 36
1000539c:	a1e8                                    	l32i.n	a14, a1, 40
1000539e:	b1f8                                    	l32i.n	a15, a1, 44
100053a0:	1302d0                                    	wsr.lcount	a13
100053a3:	1300e0                                    	wsr.lbeg	a14
100053a6:	1301f0                                    	wsr.lend	a15
100053a9:	ee92e1                                    	l32r	a14, 10000df4 (10024c28 <xtos_enabled>)
100053ac:	03e2f0                                    	rsr.interrupt	a15
100053af:	0065d0                                    	rsil	a13, 5
100053b2:	0ed8                                    	l32i.n	a13, a14, 0
100053b4:	31c8                                    	l32i.n	a12, a1, 12
100053b6:	10ddc0                                    	and	a13, a13, a12
100053b9:	10ffd0                                    	and	a15, a15, a13

100053bc <_LevelOneInterrupt+0x8a>:
100053bc:	024f56                                    	bnez	a15, 100053e4 <preloop>
100053bf:	8128                                    	l32i.n	a2, a1, 32
100053c1:	1ec9                                    	s32i.n	a12, a14, 4
100053c3:	0221c2                                    	l32i	a12, a1, 8
100053c6:	13e4d0                                    	wsr.intenable	a13
100053c9:	0063d0                                    	rsil	a13, 3

100053cc <spurious_int>:
100053cc:	003120                                    	clrex
100053cf:	ee9901                                    	l32r	a0, 10000e34 (10005960 <_xtos_return_from_exc>)
100053d2:	ee8ed1                                    	l32r	a13, 10000e0c (c0000000 <_memmap_cacheattr_bp_allvalid+0x7bbbbbbc>)
100053d5:	1303c0                                    	wsr.sar	a12
100053d8:	2000d0                                    	or	a0, a0, a13
100053db:	900d00                                    	addx2	a0, a13, a0
100053de:	0063d0                                    	rsil	a13, 3
100053e1:	f01d                                    	retw.n

100053e3 <spurious_int+0x17>:
	...

100053e4 <preloop>:
100053e4:	40ffd0                                    	nsau	a13, a15
100053e7:	ee86c1                                    	l32r	a12, 10000e00 (10024c30 <xtos_interrupt_table>)
100053ea:	b0cdc0                                    	addx8	a12, a13, a12
100053ed:	412ce2                                    	l32i	a14, a12, 0x104
100053f0:	10ff20                                    	and	a15, a15, a2
100053f3:	10ffe0                                    	and	a15, a15, a14
100053f6:	ee7fe1                                    	l32r	a14, 10000df4 (10024c28 <xtos_enabled>)

100053f9 <preloop+0x15>:
100053f9:	f57f56                                    	bnez	a15, 10005354 <_LevelOneInterrupt+0x22>
100053fc:	ee8df1                                    	l32r	a15, 10000e30 (80000000 <_memmap_cacheattr_bp_allvalid+0x3bbbbbbc>)
100053ff:	400d00                                    	ssr	a13
10005402:	91d0f0                                    	srl	a13, a15
10005405:	412cf2                                    	l32i	a15, a12, 0x104
10005408:	13e3d0                                    	wsr.intclear	a13
1000540b:	2022f0                                    	or	a2, a2, a15
1000540e:	3022d0                                    	xor	a2, a2, a13
10005411:	ffd5c6                                    	j	1000536c <_LevelOneInterrupt+0x3a>

10005414 <preloop+0x30>:
	...

10005420 <com_cpu_user_exception>:
10005420:	006136                                    	entry	a1, 48
10005423:	03e830                                    	rsr.exccause	a3
10005426:	03ee40                                    	rsr.excvaddr	a4
10005429:	fbcb65                                    	call8	100010e0 <com_trax_stop>
1000542c:	002a16                                    	beqz	a10, 10005432 <com_cpu_user_exception+0x12>
1000542f:	fbd065                                    	call8	10001134 <com_trax_store_trace>

10005432 <com_cpu_user_exception+0x12>:
10005432:	72d8                                    	l32i.n	a13, a2, 28
10005434:	02c8                                    	l32i.n	a12, a2, 0
10005436:	12e8                                    	l32i.n	a14, a2, 4
10005438:	32f8                                    	l32i.n	a15, a2, 12
1000543a:	4258                                    	l32i.n	a5, a2, 16
1000543c:	5268                                    	l32i.n	a6, a2, 20
1000543e:	6278                                    	l32i.n	a7, a2, 24
10005440:	31d9                                    	s32i.n	a13, a1, 12
10005442:	0a0c                                    	movi.n	a10, 0
10005444:	03bd                                    	mov.n	a11, a3
10005446:	04dd                                    	mov.n	a13, a4
10005448:	2179                                    	s32i.n	a7, a1, 8
1000544a:	1169                                    	s32i.n	a6, a1, 4
1000544c:	0159                                    	s32i.n	a5, a1, 0
1000544e:	fc5b25                                    	call8	10001a00 <com_send_rb_e_EXCEPTION_ERR>
10005451:	048176                                    	loop	a1, 10005459 <com_cpu_user_exception+0x39>
10005454:	007000                                    	waiti	0
10005457:	f03d                                    	nop.n

10005459 <com_cpu_user_exception+0x39>:
10005459:	fffdc6                                    	j	10005454 <com_cpu_user_exception+0x34>

1000545c <com_cpu_kernel_exception>:
1000545c:	006136                                    	entry	a1, 48
1000545f:	03e830                                    	rsr.exccause	a3
10005462:	03ee40                                    	rsr.excvaddr	a4
10005465:	fbc7a5                                    	call8	100010e0 <com_trax_stop>
10005468:	002a16                                    	beqz	a10, 1000546e <com_cpu_kernel_exception+0x12>
1000546b:	fbcca5                                    	call8	10001134 <com_trax_store_trace>

1000546e <com_cpu_kernel_exception+0x12>:
1000546e:	72d8                                    	l32i.n	a13, a2, 28
10005470:	02c8                                    	l32i.n	a12, a2, 0
10005472:	12e8                                    	l32i.n	a14, a2, 4
10005474:	32f8                                    	l32i.n	a15, a2, 12
10005476:	4258                                    	l32i.n	a5, a2, 16
10005478:	5268                                    	l32i.n	a6, a2, 20
1000547a:	6278                                    	l32i.n	a7, a2, 24
1000547c:	31d9                                    	s32i.n	a13, a1, 12
1000547e:	1a0c                                    	movi.n	a10, 1
10005480:	03bd                                    	mov.n	a11, a3
10005482:	04dd                                    	mov.n	a13, a4
10005484:	2179                                    	s32i.n	a7, a1, 8
10005486:	1169                                    	s32i.n	a6, a1, 4
10005488:	0159                                    	s32i.n	a5, a1, 0
1000548a:	fc5765                                    	call8	10001a00 <com_send_rb_e_EXCEPTION_ERR>
1000548d:	048176                                    	loop	a1, 10005495 <com_cpu_kernel_exception+0x39>
10005490:	007000                                    	waiti	0
10005493:	f03d                                    	nop.n

10005495 <com_cpu_kernel_exception+0x39>:
10005495:	fffdc6                                    	j	10005490 <com_cpu_kernel_exception+0x34>

10005498 <com_cpu_double_exception>:
10005498:	006136                                    	entry	a1, 48
1000549b:	03e830                                    	rsr.exccause	a3
1000549e:	03ee40                                    	rsr.excvaddr	a4
100054a1:	fbc3e5                                    	call8	100010e0 <com_trax_stop>
100054a4:	002a16                                    	beqz	a10, 100054aa <com_cpu_double_exception+0x12>
100054a7:	fbc8e5                                    	call8	10001134 <com_trax_store_trace>

100054aa <com_cpu_double_exception+0x12>:
100054aa:	72d8                                    	l32i.n	a13, a2, 28
100054ac:	02c8                                    	l32i.n	a12, a2, 0
100054ae:	12e8                                    	l32i.n	a14, a2, 4
100054b0:	32f8                                    	l32i.n	a15, a2, 12
100054b2:	4258                                    	l32i.n	a5, a2, 16
100054b4:	5268                                    	l32i.n	a6, a2, 20
100054b6:	6278                                    	l32i.n	a7, a2, 24
100054b8:	31d9                                    	s32i.n	a13, a1, 12
100054ba:	2a0c                                    	movi.n	a10, 2
100054bc:	03bd                                    	mov.n	a11, a3
100054be:	04dd                                    	mov.n	a13, a4
100054c0:	2179                                    	s32i.n	a7, a1, 8
100054c2:	1169                                    	s32i.n	a6, a1, 4
100054c4:	0159                                    	s32i.n	a5, a1, 0
100054c6:	fc53a5                                    	call8	10001a00 <com_send_rb_e_EXCEPTION_ERR>
100054c9:	048176                                    	loop	a1, 100054d1 <com_cpu_double_exception+0x39>
100054cc:	007000                                    	waiti	0
100054cf:	f03d                                    	nop.n

100054d1 <com_cpu_double_exception+0x39>:
100054d1:	fffdc6                                    	j	100054cc <com_cpu_double_exception+0x34>

100054d4 <com_cpu_debug_exception>:
100054d4:	006136                                    	entry	a1, 48
100054d7:	03e830                                    	rsr.exccause	a3
100054da:	03ee40                                    	rsr.excvaddr	a4
100054dd:	fbc025                                    	call8	100010e0 <com_trax_stop>
100054e0:	002a16                                    	beqz	a10, 100054e6 <com_cpu_debug_exception+0x12>
100054e3:	fbc525                                    	call8	10001134 <com_trax_store_trace>

100054e6 <com_cpu_debug_exception+0x12>:
100054e6:	72d8                                    	l32i.n	a13, a2, 28
100054e8:	02c8                                    	l32i.n	a12, a2, 0
100054ea:	12e8                                    	l32i.n	a14, a2, 4
100054ec:	32f8                                    	l32i.n	a15, a2, 12
100054ee:	4258                                    	l32i.n	a5, a2, 16
100054f0:	5268                                    	l32i.n	a6, a2, 20
100054f2:	6278                                    	l32i.n	a7, a2, 24
100054f4:	31d9                                    	s32i.n	a13, a1, 12
100054f6:	3a0c                                    	movi.n	a10, 3
100054f8:	03bd                                    	mov.n	a11, a3
100054fa:	04dd                                    	mov.n	a13, a4
100054fc:	2179                                    	s32i.n	a7, a1, 8
100054fe:	1169                                    	s32i.n	a6, a1, 4
10005500:	0159                                    	s32i.n	a5, a1, 0
10005502:	fc4fe5                                    	call8	10001a00 <com_send_rb_e_EXCEPTION_ERR>
10005505:	048176                                    	loop	a1, 1000550d <com_cpu_debug_exception+0x39>
10005508:	007000                                    	waiti	0
1000550b:	f03d                                    	nop.n

1000550d <com_cpu_debug_exception+0x39>:
1000550d:	fffdc6                                    	j	10005508 <com_cpu_debug_exception+0x34>

10005510 <com_queue_init>:
10005510:	008136                                    	entry	a1, 64
10005513:	030c                                    	movi.n	a3, 0
10005515:	18c1b2                                    	addi	a11, a1, 24
10005518:	8c0c                                    	movi.n	a12, 8
1000551a:	02ad                                    	mov.n	a10, a2
1000551c:	7139                                    	s32i.n	a3, a1, 28
1000551e:	6139                                    	s32i.n	a3, a1, 24
10005520:	056132                                    	s32i	a3, a1, 20
10005523:	4139                                    	s32i.n	a3, a1, 16
10005525:	001525                                    	call8	10005678 <com_shared_mem_write>
10005528:	a28b                                    	addi.n	a10, a2, 8
1000552a:	10c1b2                                    	addi	a11, a1, 16
1000552d:	8c0c                                    	movi.n	a12, 8
1000552f:	0014a5                                    	call8	10005678 <com_shared_mem_write>
10005532:	f01d                                    	retw.n

10005534 <com_queue_insert>:
10005534:	010136                                    	entry	a1, 128
10005537:	628b                                    	addi.n	a6, a2, 8
10005539:	a1cb                                    	addi.n	a10, a1, 12
1000553b:	8c0c                                    	movi.n	a12, 8
1000553d:	06bd                                    	mov.n	a11, a6
1000553f:	025d                                    	mov.n	a5, a2
10005541:	001465                                    	call8	10005688 <com_shared_mem_read>
10005544:	14c1a2                                    	addi	a10, a1, 20
10005547:	8c0c                                    	movi.n	a12, 8
10005549:	02bd                                    	mov.n	a11, a2
1000554b:	0013e5                                    	call8	10005688 <com_shared_mem_read>
1000554e:	41f8                                    	l32i.n	a15, a1, 16
10005550:	6178                                    	l32i.n	a7, a1, 24
10005552:	120c                                    	movi.n	a2, 1
10005554:	c07f70                                    	sub	a7, a15, a7
10005557:	69b726                                    	beqi	a7, 16, 100055c4 <com_queue_insert+0x90>
1000555a:	20c172                                    	addi	a7, a1, 32
1000555d:	0b0c                                    	movi.n	a11, 0
1000555f:	0c4c                                    	movi.n	a12, 64
10005561:	07ad                                    	mov.n	a10, a7
10005563:	00a022                                    	movi	a2, 0
10005566:	002ae5                                    	call8	10005814 <memset>
10005569:	748040                                    	extui	a8, a4, 0, 8
1000556c:	11c4e0                                    	slli	a12, a4, 2
1000556f:	07ad                                    	mov.n	a10, a7
10005571:	03bd                                    	mov.n	a11, a3
10005573:	7189                                    	s32i.n	a8, a1, 28
10005575:	001725                                    	call8	100056e8 <memcpy>
10005578:	3138                                    	l32i.n	a3, a1, 12
1000557a:	1cc1b2                                    	addi	a11, a1, 28
1000557d:	1143a0                                    	slli	a4, a3, 6
10005580:	a03340                                    	addx4	a3, a3, a4
10005583:	353a                                    	add.n	a3, a5, a3
10005585:	10c3a2                                    	addi	a10, a3, 16
10005588:	4c4c                                    	movi.n	a12, 68
1000558a:	000ee5                                    	call8	10005678 <com_shared_mem_write>
1000558d:	0020c0                                    	memw
10005590:	4138                                    	l32i.n	a3, a1, 16
10005592:	056c                                    	movi.n	a5, -32
10005594:	431b                                    	addi.n	a4, a3, 1
10005596:	20c332                                    	addi	a3, a3, 32
10005599:	b33440                                    	movgez	a3, a4, a4
1000559c:	103350                                    	and	a3, a3, a5
1000559f:	c03430                                    	sub	a3, a4, a3
100055a2:	234300                                    	sext	a4, a3, 7
100055a5:	e3fb                                    	addi.n	a14, a3, 15
100055a7:	b3e340                                    	movgez	a14, a3, a4
100055aa:	f0a0f2                                    	movi	a15, 240
100055ad:	104ef0                                    	and	a4, a14, a15
100055b0:	c04340                                    	sub	a4, a3, a4
100055b3:	234400                                    	sext	a4, a4, 7
100055b6:	b1cb                                    	addi.n	a11, a1, 12
100055b8:	8c0c                                    	movi.n	a12, 8
100055ba:	06ad                                    	mov.n	a10, a6
100055bc:	4139                                    	s32i.n	a3, a1, 16
100055be:	036142                                    	s32i	a4, a1, 12
100055c1:	000b65                                    	call8	10005678 <com_shared_mem_write>

100055c4 <com_queue_insert+0x90>:
100055c4:	f01d                                    	retw.n

100055c6 <com_queue_insert+0x92>:
	...

100055c8 <com_queue_read>:
100055c8:	008136                                    	entry	a1, 64
100055cb:	b28b                                    	addi.n	a11, a2, 8
100055cd:	18c1a2                                    	addi	a10, a1, 24
100055d0:	08a0c2                                    	movi	a12, 8
100055d3:	205220                                    	or	a5, a2, a2
100055d6:	000b25                                    	call8	10005688 <com_shared_mem_read>
100055d9:	a1cb                                    	addi.n	a10, a1, 12
100055db:	8c0c                                    	movi.n	a12, 8
100055dd:	02bd                                    	mov.n	a11, a2
100055df:	000aa5                                    	call8	10005688 <com_shared_mem_read>
100055e2:	7168                                    	l32i.n	a6, a1, 28
100055e4:	4178                                    	l32i.n	a7, a1, 16
100055e6:	220c                                    	movi.n	a2, 2
100055e8:	6a1677                                    	beq	a6, a7, 10005656 <com_queue_read+0x8e>
100055eb:	3128                                    	l32i.n	a2, a1, 12
100055ed:	10c572                                    	addi	a7, a5, 16
100055f0:	1162a0                                    	slli	a6, a2, 6
100055f3:	a02260                                    	addx4	a2, a2, a6
100055f6:	b72a                                    	add.n	a11, a7, a2
100055f8:	14c1a2                                    	addi	a10, a1, 20
100055fb:	4c0c                                    	movi.n	a12, 4
100055fd:	0008a5                                    	call8	10005688 <com_shared_mem_read>
10005600:	3128                                    	l32i.n	a2, a1, 12
10005602:	5168                                    	l32i.n	a6, a1, 20
10005604:	1182a0                                    	slli	a8, a2, 6
10005607:	a02280                                    	addx4	a2, a2, a8
1000560a:	746060                                    	extui	a6, a6, 0, 8
1000560d:	272a                                    	add.n	a2, a7, a2
1000560f:	11c6e0                                    	slli	a12, a6, 2
10005612:	b24b                                    	addi.n	a11, a2, 4
10005614:	03ad                                    	mov.n	a10, a3
10005616:	000725                                    	call8	10005688 <com_shared_mem_read>
10005619:	140122                                    	l8ui	a2, a1, 20
1000561c:	0429                                    	s32i.n	a2, a4, 0
1000561e:	0020c0                                    	memw
10005621:	4128                                    	l32i.n	a2, a1, 16
10005623:	046c                                    	movi.n	a4, -32
10005625:	321b                                    	addi.n	a3, a2, 1
10005627:	20c222                                    	addi	a2, a2, 32
1000562a:	b32330                                    	movgez	a2, a3, a3
1000562d:	102240                                    	and	a2, a2, a4
10005630:	c02320                                    	sub	a2, a3, a2
10005633:	233200                                    	sext	a3, a2, 7
10005636:	e2fb                                    	addi.n	a14, a2, 15
10005638:	b3e230                                    	movgez	a14, a2, a3
1000563b:	f0a0f2                                    	movi	a15, 240
1000563e:	103ef0                                    	and	a3, a14, a15
10005641:	c03230                                    	sub	a3, a2, a3
10005644:	233300                                    	sext	a3, a3, 7
10005647:	b1cb                                    	addi.n	a11, a1, 12
10005649:	8c0c                                    	movi.n	a12, 8
1000564b:	05ad                                    	mov.n	a10, a5
1000564d:	4129                                    	s32i.n	a2, a1, 16
1000564f:	3139                                    	s32i.n	a3, a1, 12
10005651:	000265                                    	call8	10005678 <com_shared_mem_write>
10005654:	020c                                    	movi.n	a2, 0

10005656 <com_queue_read+0x8e>:
10005656:	f01d                                    	retw.n

10005658 <com_queue_dump>:
10005658:	00e136                                    	entry	a1, 112
1000565b:	051c                                    	movi.n	a5, 16
1000565d:	41cb                                    	addi.n	a4, a1, 12
1000565f:	10c232                                    	addi	a3, a2, 16

10005662 <com_queue_dump+0xa>:
10005662:	4c4c                                    	movi.n	a12, 68
10005664:	04ad                                    	mov.n	a10, a4
10005666:	20b330                                    	or	a11, a3, a3
10005669:	0001e5                                    	call8	10005688 <com_shared_mem_read>
1000566c:	550b                                    	addi.n	a5, a5, -1
1000566e:	44c332                                    	addi	a3, a3, 68
10005671:	fed556                                    	bnez	a5, 10005662 <com_queue_dump+0xa>
10005674:	f01d                                    	retw.n

10005676 <com_queue_dump+0x1e>:
	...

10005678 <com_shared_mem_write>:
10005678:	004136                                    	entry	a1, 32
1000567b:	02ad                                    	mov.n	a10, a2
1000567d:	03bd                                    	mov.n	a11, a3
1000567f:	04cd                                    	mov.n	a12, a4
10005681:	000665                                    	call8	100056e8 <memcpy>
10005684:	f01d                                    	retw.n

10005686 <com_shared_mem_write+0xe>:
	...

10005688 <com_shared_mem_read>:
10005688:	004136                                    	entry	a1, 32
1000568b:	02ad                                    	mov.n	a10, a2
1000568d:	03bd                                    	mov.n	a11, a3
1000568f:	04cd                                    	mov.n	a12, a4
10005691:	000565                                    	call8	100056e8 <memcpy>
10005694:	f01d                                    	retw.n

10005696 <com_shared_mem_read+0xe>:
	...

100056a0 <__memcpy_aux>:
	...

100056ad <__memcpy_aux+0xd>:
100056ad:	099476                                    	loopnez	a4, 100056ba <__memcpy_aux+0x1a>
100056b0:	000362                                    	l8ui	a6, a3, 0
100056b3:	331b                                    	addi.n	a3, a3, 1
100056b5:	004562                                    	s8i	a6, a5, 0
100056b8:	551b                                    	addi.n	a5, a5, 1

100056ba <__memcpy_aux+0x1a>:
100056ba:	f01d                                    	retw.n

100056bc <__memcpy_aux+0x1c>:
100056bc:	ed74b6                                    	bltui	a4, 7, 100056ad <__memcpy_aux+0xd>
100056bf:	000362                                    	l8ui	a6, a3, 0
100056c2:	331b                                    	addi.n	a3, a3, 1
100056c4:	440b                                    	addi.n	a4, a4, -1
100056c6:	004562                                    	s8i	a6, a5, 0
100056c9:	551b                                    	addi.n	a5, a5, 1
100056cb:	256517                                    	bbci	a5, 1, 100056f4 <memcpy+0xc>
100056ce:	db64b6                                    	bltui	a4, 6, 100056ad <__memcpy_aux+0xd>
100056d1:	000362                                    	l8ui	a6, a3, 0
100056d4:	010372                                    	l8ui	a7, a3, 1
100056d7:	332b                                    	addi.n	a3, a3, 2
100056d9:	fec442                                    	addi	a4, a4, -2
100056dc:	004562                                    	s8i	a6, a5, 0
100056df:	014572                                    	s8i	a7, a5, 1
100056e2:	552b                                    	addi.n	a5, a5, 2
100056e4:	000306                                    	j	100056f4 <memcpy+0xc>

100056e7 <__memcpy_aux+0x47>:
	...

100056e8 <memcpy>:
100056e8:	002136                                    	entry	a1, 16
100056eb:	205220                                    	or	a5, a2, a2
100056ee:	cae207                                    	bbsi	a2, 0, 100056bc <__memcpy_aux+0x1c>
100056f1:	d9e217                                    	bbsi	a2, 1, 100056ce <__memcpy_aux+0x2e>

100056f4 <memcpy+0xc>:
100056f4:	417440                                    	srli	a7, a4, 4
100056f7:	018320                                    	slli	a8, a3, 30
100056fa:	05a856                                    	bnez	a8, 10005758 <memcpy+0x70>
100056fd:	159776                                    	loopnez	a7, 10005716 <memcpy+0x2e>
10005700:	0368                                    	l32i.n	a6, a3, 0
10005702:	1378                                    	l32i.n	a7, a3, 4
10005704:	0569                                    	s32i.n	a6, a5, 0
10005706:	2368                                    	l32i.n	a6, a3, 8
10005708:	1579                                    	s32i.n	a7, a5, 4
1000570a:	3378                                    	l32i.n	a7, a3, 12
1000570c:	2569                                    	s32i.n	a6, a5, 8
1000570e:	10c332                                    	addi	a3, a3, 16
10005711:	3579                                    	s32i.n	a7, a5, 12
10005713:	10c552                                    	addi	a5, a5, 16

10005716 <memcpy+0x2e>:
10005716:	0b6437                                    	bbci	a4, 3, 10005725 <memcpy+0x3d>
10005719:	0368                                    	l32i.n	a6, a3, 0
1000571b:	1378                                    	l32i.n	a7, a3, 4
1000571d:	338b                                    	addi.n	a3, a3, 8
1000571f:	0569                                    	s32i.n	a6, a5, 0
10005721:	1579                                    	s32i.n	a7, a5, 4
10005723:	558b                                    	addi.n	a5, a5, 8

10005725 <memcpy+0x3d>:
10005725:	07e427                                    	bbsi	a4, 2, 10005730 <memcpy+0x48>
10005728:	14e417                                    	bbsi	a4, 1, 10005740 <memcpy+0x58>
1000572b:	20e407                                    	bbsi	a4, 0, 1000574f <memcpy+0x67>
1000572e:	f01d                                    	retw.n

10005730 <memcpy+0x48>:
10005730:	0368                                    	l32i.n	a6, a3, 0
10005732:	334b                                    	addi.n	a3, a3, 4
10005734:	0569                                    	s32i.n	a6, a5, 0
10005736:	554b                                    	addi.n	a5, a5, 4
10005738:	04e417                                    	bbsi	a4, 1, 10005740 <memcpy+0x58>
1000573b:	10e407                                    	bbsi	a4, 0, 1000574f <memcpy+0x67>
1000573e:	f01d                                    	retw.n

10005740 <memcpy+0x58>:
10005740:	001362                                    	l16ui	a6, a3, 0
10005743:	332b                                    	addi.n	a3, a3, 2
10005745:	005562                                    	s16i	a6, a5, 0
10005748:	552b                                    	addi.n	a5, a5, 2
1000574a:	01e407                                    	bbsi	a4, 0, 1000574f <memcpy+0x67>
1000574d:	f01d                                    	retw.n

1000574f <memcpy+0x67>:
1000574f:	000362                                    	l8ui	a6, a3, 0
10005752:	004562                                    	s8i	a6, a5, 0
10005755:	f01d                                    	retw.n

10005757 <memcpy+0x6f>:
	...

10005758 <memcpy+0x70>:
10005758:	ff9416                                    	beqz	a4, 10005755 <memcpy+0x6d>
1000575b:	402300                                    	ssa8l	a3
1000575e:	15be80                                    	extui	a11, a8, 30, 2
10005761:	c033b0                                    	sub	a3, a3, a11
10005764:	0368                                    	l32i.n	a6, a3, 0
10005766:	219776                                    	loopnez	a7, 1000578b <memcpy+0xa3>
10005769:	1378                                    	l32i.n	a7, a3, 4
1000576b:	2388                                    	l32i.n	a8, a3, 8
1000576d:	816760                                    	src	a6, a7, a6
10005770:	0569                                    	s32i.n	a6, a5, 0
10005772:	3398                                    	l32i.n	a9, a3, 12
10005774:	817870                                    	src	a7, a8, a7
10005777:	1579                                    	s32i.n	a7, a5, 4
10005779:	4368                                    	l32i.n	a6, a3, 16
1000577b:	818980                                    	src	a8, a9, a8
1000577e:	2589                                    	s32i.n	a8, a5, 8
10005780:	10c332                                    	addi	a3, a3, 16
10005783:	819690                                    	src	a9, a6, a9
10005786:	3599                                    	s32i.n	a9, a5, 12
10005788:	10c552                                    	addi	a5, a5, 16

1000578b <memcpy+0xa3>:
1000578b:	136437                                    	bbci	a4, 3, 100057a2 <memcpy+0xba>
1000578e:	1378                                    	l32i.n	a7, a3, 4
10005790:	2388                                    	l32i.n	a8, a3, 8
10005792:	816760                                    	src	a6, a7, a6
10005795:	0569                                    	s32i.n	a6, a5, 0
10005797:	338b                                    	addi.n	a3, a3, 8
10005799:	817870                                    	src	a7, a8, a7
1000579c:	1579                                    	s32i.n	a7, a5, 4
1000579e:	558b                                    	addi.n	a5, a5, 8
100057a0:	086d                                    	mov.n	a6, a8

100057a2 <memcpy+0xba>:
100057a2:	0c6427                                    	bbci	a4, 2, 100057b2 <memcpy+0xca>
100057a5:	1378                                    	l32i.n	a7, a3, 4
100057a7:	334b                                    	addi.n	a3, a3, 4
100057a9:	816760                                    	src	a6, a7, a6
100057ac:	0569                                    	s32i.n	a6, a5, 0
100057ae:	554b                                    	addi.n	a5, a5, 4
100057b0:	076d                                    	mov.n	a6, a7
100057b2:	33ba                                    	add.n	a3, a3, a11
100057b4:	04e417                                    	bbsi	a4, 1, 100057bc <memcpy+0xd4>
100057b7:	16e407                                    	bbsi	a4, 0, 100057d1 <memcpy+0xe9>
100057ba:	f01d                                    	retw.n

100057bc <memcpy+0xd4>:
100057bc:	000362                                    	l8ui	a6, a3, 0
100057bf:	010372                                    	l8ui	a7, a3, 1
100057c2:	332b                                    	addi.n	a3, a3, 2
100057c4:	004562                                    	s8i	a6, a5, 0
100057c7:	014572                                    	s8i	a7, a5, 1
100057ca:	552b                                    	addi.n	a5, a5, 2
100057cc:	01e407                                    	bbsi	a4, 0, 100057d1 <memcpy+0xe9>
100057cf:	f01d                                    	retw.n

100057d1 <memcpy+0xe9>:
100057d1:	000362                                    	l8ui	a6, a3, 0
100057d4:	004562                                    	s8i	a6, a5, 0
100057d7:	f01d                                    	retw.n

100057d9 <memcpy+0xf1>:
100057d9:	00000000                                 .......

100057e0 <__memset_aux>:
	...

100057ed <__memset_aux+0xd>:
100057ed:	049476                                    	loopnez	a4, 100057f5 <__memset_aux+0x15>
100057f0:	004532                                    	s8i	a3, a5, 0
100057f3:	551b                                    	addi.n	a5, a5, 1

100057f5 <__memset_aux+0x15>:
100057f5:	f01d                                    	retw.n

100057f7 <__memset_aux+0x17>:
	...

100057f8 <__memset_aux+0x18>:
100057f8:	f184b6                                    	bltui	a4, 8, 100057ed <__memset_aux+0xd>
100057fb:	004532                                    	s8i	a3, a5, 0
100057fe:	551b                                    	addi.n	a5, a5, 1
10005800:	440b                                    	addi.n	a4, a4, -1
10005802:	286517                                    	bbci	a5, 1, 1000582e <memset+0x1a>
10005805:	e484b6                                    	bltui	a4, 8, 100057ed <__memset_aux+0xd>
10005808:	005532                                    	s16i	a3, a5, 0
1000580b:	552b                                    	addi.n	a5, a5, 2
1000580d:	fec442                                    	addi	a4, a4, -2
10005810:	000686                                    	j	1000582e <memset+0x1a>

10005813 <__memset_aux+0x33>:
	...

10005814 <memset>:
10005814:	002136                                    	entry	a1, 16
10005817:	743030                                    	extui	a3, a3, 0, 8
1000581a:	117380                                    	slli	a7, a3, 8
1000581d:	203370                                    	or	a3, a3, a7
10005820:	117300                                    	slli	a7, a3, 16
10005823:	203370                                    	or	a3, a3, a7
10005826:	025d                                    	mov.n	a5, a2
10005828:	cce207                                    	bbsi	a2, 0, 100057f8 <__memset_aux+0x18>
1000582b:	d6e217                                    	bbsi	a2, 1, 10005805 <__memset_aux+0x25>

1000582e <memset+0x1a>:
1000582e:	417440                                    	srli	a7, a4, 4
10005831:	0a9776                                    	loopnez	a7, 1000583f <memset+0x2b>
10005834:	0539                                    	s32i.n	a3, a5, 0
10005836:	1539                                    	s32i.n	a3, a5, 4
10005838:	2539                                    	s32i.n	a3, a5, 8
1000583a:	3539                                    	s32i.n	a3, a5, 12
1000583c:	10c552                                    	addi	a5, a5, 16

1000583f <memset+0x2b>:
1000583f:	056437                                    	bbci	a4, 3, 10005848 <memset+0x34>
10005842:	0539                                    	s32i.n	a3, a5, 0
10005844:	1539                                    	s32i.n	a3, a5, 4
10005846:	558b                                    	addi.n	a5, a5, 8

10005848 <memset+0x34>:
10005848:	036427                                    	bbci	a4, 2, 1000584f <memset+0x3b>
1000584b:	0539                                    	s32i.n	a3, a5, 0
1000584d:	554b                                    	addi.n	a5, a5, 4
1000584f:	046417                                    	bbci	a4, 1, 10005857 <memset+0x43>
10005852:	005532                                    	s16i	a3, a5, 0
10005855:	552b                                    	addi.n	a5, a5, 2
10005857:	026407                                    	bbci	a4, 0, 1000585d <memset+0x49>
1000585a:	004532                                    	s8i	a3, a5, 0
1000585d:	f01d                                    	retw.n

1000585f <memset+0x4b>:
	...

10005860 <__floatunsidf>:
10005860:	002136                                    	entry	a1, 16
10005863:	22bc                                    	beqz.n	a2, 10005899 <__floatsidf+0x2d>
10005865:	070c                                    	movi.n	a7, 0
10005867:	000306                                    	j	10005877 <__floatsidf+0xb>

1000586a <__floatunsidf+0xa>:
	...

1000586c <__floatsidf>:
1000586c:	002136                                    	entry	a1, 16
1000586f:	62ac                                    	beqz.n	a2, 10005899 <__floatsidf+0x2d>
10005871:	057f20                                    	extui	a7, a2, 31, 1
10005874:	602120                                    	abs	a2, a2

10005877 <__floatsidf+0xb>:
10005877:	40f240                                    	nsau	a4, a2
1000587a:	401400                                    	ssl	a4
1000587d:	a15200                                    	sll	a5, a2
10005880:	413b50                                    	srli	a3, a5, 11
10005883:	0125b0                                    	slli	a2, a5, 21
10005886:	1da452                                    	movi	a5, 0x41d
10005889:	c05540                                    	sub	a5, a5, a4
1000588c:	0155c0                                    	slli	a5, a5, 20
1000588f:	335a                                    	add.n	a3, a3, a5
10005891:	017710                                    	slli	a7, a7, 31
10005894:	203370                                    	or	a3, a3, a7
10005897:	f01d                                    	retw.n

10005899 <__floatsidf+0x2d>:
10005899:	030c                                    	movi.n	a3, 0
1000589b:	f01d                                    	retw.n

1000589d <__floatsidf+0x31>:
1000589d:	000000                                        ...

100058a0 <__umulsidi3>:
100058a0:	002136                                    	entry	a1, 16
100058a3:	f54020                                    	extui	a4, a2, 16, 16
100058a6:	f55030                                    	extui	a5, a3, 16, 16
100058a9:	c16250                                    	mul16u	a6, a2, a5
100058ac:	c1b430                                    	mul16u	a11, a4, a3
100058af:	090c                                    	movi.n	a9, 0
100058b1:	66ba                                    	add.n	a6, a6, a11
100058b3:	02b6b7                                    	bgeu	a6, a11, 100058b9 <__umulsidi3+0x19>
100058b6:	01c992                                    	addi	a9, a9, 1

100058b9 <__umulsidi3+0x19>:
100058b9:	404010                                    	ssai	16
100058bc:	819960                                    	src	a9, a9, a6
100058bf:	c1b230                                    	mul16u	a11, a2, a3
100058c2:	a16600                                    	sll	a6, a6
100058c5:	66ba                                    	add.n	a6, a6, a11
100058c7:	01b6b7                                    	bgeu	a6, a11, 100058cc <__umulsidi3+0x2c>
100058ca:	991b                                    	addi.n	a9, a9, 1
100058cc:	c13450                                    	mul16u	a3, a4, a5
100058cf:	062d                                    	mov.n	a2, a6
100058d1:	339a                                    	add.n	a3, a3, a9
100058d3:	f01d                                    	retw.n

100058d5 <__umulsidi3+0x35>:
	...

100058e0 <__estimateDiv64To32>:
100058e0:	004136                                    	entry	a1, 32
100058e3:	205220                                    	or	a5, a2, a2
100058e6:	ffaf22                                    	movi	a2, -1
100058e9:	50b547                                    	bgeu	a5, a4, 1000593d <__estimateDiv64To32+0x5d>
100058ec:	ffaf22                                    	movi	a2, -1
100058ef:	112200                                    	slli	a2, a2, 16
100058f2:	107420                                    	and	a7, a4, a2
100058f5:	f56040                                    	extui	a6, a4, 16, 16
100058f8:	05b577                                    	bgeu	a5, a7, 10005901 <__estimateDiv64To32+0x21>
100058fb:	c22560                                    	quou	a2, a5, a6
100058fe:	112200                                    	slli	a2, a2, 16

10005901 <__estimateDiv64To32+0x21>:
10005901:	f58020                                    	extui	a8, a2, 16, 16
10005904:	f49040                                    	extui	a9, a4, 0, 16
10005907:	c19890                                    	mul16u	a9, a8, a9
1000590a:	c18860                                    	mul16u	a8, a8, a6
1000590d:	f5a090                                    	extui	a10, a9, 16, 16
10005910:	119900                                    	slli	a9, a9, 16
10005913:	88aa                                    	add.n	a8, a8, a10
10005915:	62f390                                    	saltu	a15, a3, a9
10005918:	c05580                                    	sub	a5, a5, a8
1000591b:	c055f0                                    	sub	a5, a5, a15
1000591e:	c03390                                    	sub	a3, a3, a9
10005921:	01c596                                    	bltz	a5, 10005941 <__estimateDiv64To32+0x61>
10005924:	f53030                                    	extui	a3, a3, 16, 16
10005927:	114500                                    	slli	a4, a5, 16
1000592a:	343a                                    	add.n	a3, a4, a3
1000592c:	05b377                                    	bgeu	a3, a7, 10005935 <__estimateDiv64To32+0x55>
1000592f:	c23360                                    	quou	a3, a3, a6
10005932:	000106                                    	j	1000593a <__estimateDiv64To32+0x5a>

10005935 <__estimateDiv64To32+0x55>:
10005935:	f37c                                    	movi.n	a3, -1
10005937:	f43030                                    	extui	a3, a3, 0, 16
1000593a:	202320                                    	or	a2, a3, a2
1000593d:	f01d                                    	retw.n

1000593f <__estimateDiv64To32+0x5f>:
	...

10005941 <__estimateDiv64To32+0x61>:
10005941:	f87c                                    	movi.n	a8, -1
10005943:	114400                                    	slli	a4, a4, 16
10005946:	118800                                    	slli	a8, a8, 16
10005949:	0f8176                                    	loop	a1, 1000595c <__estimateDiv64To32+0x7c>

1000594c <__estimateDiv64To32+0x6c>:
1000594c:	039d                                    	mov.n	a9, a3
1000594e:	334a                                    	add.n	a3, a3, a4
10005950:	556a                                    	add.n	a5, a5, a6
10005952:	629390                                    	saltu	a9, a3, a9
10005955:	559a                                    	add.n	a5, a5, a9
10005957:	228a                                    	add.n	a2, a2, a8
10005959:	fc75d6                                    	bgez	a5, 10005924 <__estimateDiv64To32+0x44>

1000595c <__estimateDiv64To32+0x7c>:
1000595c:	fffb06                                    	j	1000594c <__estimateDiv64To32+0x6c>

1000595f <__estimateDiv64To32+0x7f>:
	...

10005960 <_xtos_return_from_exc>:
10005960:	1528                                    	l32i.n	a2, a5, 4
10005962:	0538                                    	l32i.n	a3, a5, 0
10005964:	13e620                                    	wsr.ps	a2
10005967:	4528                                    	l32i.n	a2, a5, 16
10005969:	6548                                    	l32i.n	a4, a5, 24
1000596b:	002010                                    	rsync
1000596e:	13b130                                    	wsr.epc1	a3
10005971:	5538                                    	l32i.n	a3, a5, 20
10005973:	7558                                    	l32i.n	a5, a5, 28
10005975:	003000                                    	rfe

10005978 <xthal_get_ccount>:
10005978:	002136                                    	entry	a1, 16
1000597b:	03ea20                                    	rsr.ccount	a2
1000597e:	f01d                                    	retw.n

10005980 <xthal_set_ccompare>:
10005980:	002136                                    	entry	a1, 16
10005983:	62cc                                    	bnez.n	a2, 1000598d <xthal_set_ccompare+0xd>
10005985:	13f030                                    	wsr.ccompare0	a3
10005988:	002010                                    	rsync
1000598b:	f01d                                    	retw.n

1000598d <xthal_set_ccompare+0xd>:
1000598d:	071266                                    	bnei	a2, 1, 10005998 <xthal_set_ccompare+0x18>
10005990:	13f130                                    	wsr.ccompare1	a3
10005993:	002010                                    	rsync
10005996:	f01d                                    	retw.n

10005998 <xthal_set_ccompare+0x18>:
10005998:	f01d                                    	retw.n

1000599a <xthal_set_ccompare+0x1a>:
	...

1000599c <xthal_get_ccompare>:
1000599c:	002136                                    	entry	a1, 16
1000599f:	52cc                                    	bnez.n	a2, 100059a8 <xthal_get_ccompare+0xc>
100059a1:	03f020                                    	rsr.ccompare0	a2
100059a4:	f01d                                    	retw.n

100059a6 <xthal_get_ccompare+0xa>:
	...

100059a8 <xthal_get_ccompare+0xc>:
100059a8:	041266                                    	bnei	a2, 1, 100059b0 <xthal_get_ccompare+0x14>
100059ab:	03f120                                    	rsr.ccompare1	a2
100059ae:	f01d                                    	retw.n

100059b0 <xthal_get_ccompare+0x14>:
100059b0:	020c                                    	movi.n	a2, 0
100059b2:	f01d                                    	retw.n

Disassembly of section .dram0.com_tables.data:

10020000 <com_static_data_init>:
10020000:	64002005 00010000 00000000 018c1004     . .d............
10020010:	021d0008 01845003 031c1014 021c100d     .....P..........
10020020:	043d0018 030c5013 063c1024 043c101d     ..=..P..$.<...<.
10020030:	007d0028 061c5023 007c102d 018d0044     (.}.#P..-.|.D...
10020040:	020f0048 018c1043 031d0054 021d004d     H...C...T...M...
10020050:	041f0058 031c1053 063d0064 043d005d     X...S...d.=.].=.
10020060:	003f0068 063c1063 007d006d 01841084     h.?.c.<.m.}.....
10020070:	020d0088 01805083 030c1094 020c108d     .....P..........
10020080:	041d0098 03045093 061c10a4 041c109d     .....P..........
10020090:	003d00a8 060c50a3 003c10ad 018500c4     ..=..P....<.....
100200a0:	020700c8 018410c3 030d00d4 020d00cd     ................
100200b0:	040f00d8 030c10d3 061d00e4 041d00dd     ................
100200c0:	001f00e8 061c10e3 003d00ed 01801104     ..........=.....
100200d0:	02050108 0180d103 03041114 0204110d     ................
100200e0:	040d0118 03005113 060c1124 040c111d     .....Q..$.......
100200f0:	001d0128 06045123 001c112d 01810144     (...#Q..-...D...
10020100:	02030148 01801143 03050154 0205014d     H...C...T...M...
10020110:	04070158 03041153 060d0164 040d015d     X...S...d...]...
10020120:	000f0168 060c1163 001d016d 01803184     h...c...m....1..
10020130:	02010188 0180f183 03001194 0200118d     ................
10020140:	04050198 0300d193 060411a4 0404119d     ................
10020150:	000d01a8 060051a3 000c11ad 018001c4     .....Q..........
10020160:	018001c3 030101d4 020101cd 040301d8     ................
10020170:	030011d3 060501e4 040501dd 000701e8     ................
10020180:	060411e3 000d01ed 02000208 03003214     .............2..
10020190:	0200320d 04010218 0300f213 06001224     .2..........$...
100201a0:	0400121d 00050228 06007223 0004122d     ....(...#r..-...
100201b0:	03000254 0200024d 03003253 06010264     T...M...S2..d...
100201c0:	0401025d 06001263 0005026d 04000298     ]...c...m.......
100201d0:	060032a4 0400329d 000102a8 0600f2a3     .2...2..........
100201e0:	000012ad 030002d3 060002e4 060032e3     .............2..
100201f0:	000102ed 01800d44 02000d88 03000dd4     ....D...........
10020200:	02000dcd 04000e18 06000e64 04000e5d     ........d...]...
10020210:	00001823 00004c37 00002cb3 00008d31     #...7L...,..1...
10020220:	0000504f 000030c7 00009143 000051c1     OP...0..C....Q..
10020230:	000034df 00009557 000055d3 08100408     .4..W....U......
10020240:	20401020 00004080 0c18060c 30601830      .@ .@......0.`0
10020250:	408060c0 0204a020 0225a862 0246b0a4     .`.@ ...b.%...F.
10020260:	0267b8e6 021ce230 023dea72 025ef2b4     ..g.0...r.=...^.
10020270:	027ffaf6 093223c6 09f3a6cc 0ab529d2     .....#2......)..
10020280:	0b76acd8 0c382fde 0cf9b2e4 0dbb35ea     ..v../8......5..
10020290:	0e7cb8f0 25ca22c4 2bd628d0 31e22edc     ..|..".%.(.+...1
100202a0:	37ee34e8 3c773af4 43424140 00001001     .4.7.:w<@ABC....
100202b0:	00001208 00001007 0000180b 0000200f     ............. ..
100202c0:	00003017 0000401f 0000602f 0000803f     .0...@../`..?...
100202d0:	0000c05f 0001007f 000180bf 000200ff     _...............
100202e0:	0003017f 0000200f 00003017 0000401f     ..... ...0...@..
100202f0:	0000602f 0000803f 0000c05f 0001007f     /`..?..._.......
10020300:	000180bf 000200ff 0003017f 000401ff     ................
10020310:	000602ff                                ....

Disassembly of section .dram0.rx_tables.data:

10020314 <rx_static_data_init>:
10020314:	08040201 80402010 0023fd00 0023fd00     ..... @...#...#.
10020324:	bddd6300 00000000 00002020 00004040     .c......  ..@@..
10020334:	00008080 00010100 00003030 00006060     ........00..``..
10020344:	0000c0c0 00018180 00015a82 03020400     .........Z......
10020354:	00000007 00000000 00000000 00000000     ................
	...

Disassembly of section .dram0.rodata:

10024000 <__handler_table>:
10024000:	10000bd4 10005024 10000bd4 10000bd4     ....$P..........
10024010:	10005314 10000810 10000bd4 10000bd4     .S..............
10024020:	10000bd4 10000bd4 10000bd4 10000bf4     ................

Disassembly of section .dram0.data:

10024030 <g_idma_desc2d>:
	...

10024050 <g_idma_desc_memcpy>:
	...

Disassembly of section .rtos.rodata:

10024060 <Xthal_intlevel>:
10024060:	00020001 00020002 00010001 00060003     ................
10024070:	00020002 00020002 00010001 00010001     ................
10024080:	00020002 00020002 00010001 00010001     ................
10024090:	00010001 00040002 00010001 00020001     ................
	...

Disassembly of section .rodata:

10024160 <__switchjump_table_xp_temp_1_0>:
10024160:	100012e5 1000130e 1000132a 1000132a     ........*...*...
10024170:	1000132a 1000132a 10001317 1000132a     *...*.......*...
10024180:	1000132a 10001320                       *... ...

10024188 <__switchjump_table_xp_temp_3_0>:
10024188:	10001426 10001444 1000145e 10001479     &...D...^...y...

10024198 <__switchjump_table_xp_temp_8_0>:
10024198:	10001ef7 10001ee7 10001ee7 10001eff     ................
100241a8:	10001f07 10001f14 10001f33 10001f3b     ........3...;...
100241b8:	10001f43 10001eef 10001f59 10001f61     C.......Y...a...
100241c8:	10001eef                                ....

100241cc <__switchjump_table_xp_temp_10_0>:
100241cc:	10001fd8 10001fc0 10001fe0 10001fc0     ................
100241dc:	10001fe8 10001ff0 10001ff5 10001ff5     ................
100241ec:	10002004 1000200c                       . ... ..

100241f4 <__switchjump_table_xp_temp_3_0>:
100241f4:	10002a07 10002a1c 10002a0e 10002a25     .*...*...*..%*..
10024204:	10002a15 10002a2e 00000000              .*...*......

10024210 <com_gpdma_trw_info>:
10024210:	00000010 00000004 00000008 00000003     ................
10024220:	00000004 00000002 00000002 00000001     ................
10024230:	00000001 00000000 00000000 00000000     ................

10024240 <p_adc_cpu>:
10024240:	049f0000 04bf0000 04df0000 04ff0000     ................

10024250 <com_gpdma_e_lock>:
10024250:	00000008 00000009 10024e30 10026250     ........0N..Pb..

Disassembly of section .rtos.percpu.data:

10024260 <_Pri_4_HandlerAddress-0x4>:
10024260:	00000000                                ....

10024264 <_Pri_4_HandlerAddress>:
10024264:	00000000                                ....

Disassembly of section .data:

10024270 <ver_fw>:
10024270:	00461a80                                ..F.

10024274 <g_com_print_level>:
10024274:	00000003 00000000 00000000              ............

10024280 <direct_irq_config>:
10024280:	00000000 00000001 00000002 00000003     ................
10024290:	00000004 00000005 00000006 00000007     ................
100242a0:	0000001c 0000001d 0000001e 0000001f     ................
100242b0:	0000000e 0000000f 00000000 00000000     ................

100242c0 <aggr_irq_config>:
100242c0:	00000010 00000000 00000000 00000000     ................
100242d0:	00000000 00000011 00000000 00000000     ................
100242e0:	00000001 00000000 00000012 00000000     ................
100242f0:	00000000 00000002 00000000 00000013     ................
	...
10024308:	00000003 00000000 00000014 00000000     ................
10024318:	00000000 00000004 00000000 00000015     ................
	...
10024330:	00000005 00000000 00000016 00000000     ................
10024340:	00000000 00000006 00000000 00000017     ................
	...
10024358:	00000007 00000000 00000018 00000000     ................
10024368:	00000000 00000008 00000000 00000019     ................
	...
10024380:	00000009 00000000 00000008 00000000     ................
10024390:	00000000 0000000a 00000000 00000009     ................
	...
100243a8:	0000000b 00000000 0000000a 00000000     ................
100243b8:	00000000 0000000c 00000000 0000000b     ................
	...
100243d0:	0000000d 00000000 0000000c 00000000     ................
100243e0:	00000000 0000000e 00000000 0000000d     ................
	...
100243f8:	0000000f 00000000 0000001a 00000000     ................
10024408:	00000000 00000010 00000000 0000001b     ................
	...
10024420:	00000011 00000000                       ........

10024428 <reg3_data>:
10024428:	00000003 100250b0 0026c380              .....P....&.

10024434 <reg4_data>:
10024434:	00000004 10024e70 0026c390              ....pN....&.

10024440 <reg5_data>:
10024440:	00000005 10024fe0 0026c3a0              .....O....&.

1002444c <reg10_data>:
1002444c:	0000000a 10024ec0 0026c3f0              .....N....&.

10024458 <reg13_data>:
10024458:	0000000d 10024f40 0026c420              ....@O.. .&.

10024464 <ver_commit_id>:
10024464:	00000978                                x...

10024468 <g_idma_last_err>:
10024468:	11111111 00000000                       ........

10024470 <gpdma_irq_info>:
10024470:	00000000 00000004 11111111 11111111     ................
	...
10024488:	00000001 00000004 11111111 11111111     ................
	...

100244a0 <event_loop_continue>:
100244a0:	00000001                                ....

100244a4 <next_free_event>:
100244a4:	ffffffff                                ....

100244a8 <next_scheduled_event>:
100244a8:	ffffffff                                ....

100244ac <next_plo_pending_event>:
100244ac:	ffffffff                                ....

100244b0 <next_phi_pending_event>:
100244b0:	ffffffff                                ....

100244b4 <keepalive_event_callback.min>:
100244b4:	000186a0                                ....

100244b8 <p_system_data>:
100244b8:	00200000 00000000                       .. .....

100244c0 <rx_hdlr_lut>:
100244c0:	10003a30 00000000 0000ff38 000063d7     0:......8....c..
100244d0:	000007ae 00000001 10003a30 00000000     ........0:......
100244e0:	0000ff48 0000451e 000007ae 00000001     H....E..........
100244f0:	10003ab4 00000000 0000ff3a 0000451e     .:......:....E..
10024500:	000007ae 00000001 10003ab4 00000000     .........:......
10024510:	0000ff4a 00001eb8 000007ae 00000001     J...............
10024520:	10003b0c 00000000 0000ff28 0000451e     .;......(....E..
10024530:	000007ae 00000001 10003b0c 00000000     .........;......
10024540:	0000fff8 000063d7 000007ae 00000001     .....c..........
10024550:	10003bc4 00000000 0000fff9 0000547a     .;..........zT..
10024560:	000007ae 00000001 10003c68 00000000     ........h<......
10024570:	0000fffa 0000451e 000007ae 00000001     .....E..........
10024580:	10003c68 00000000 0000ff2a 00001eb8     h<......*.......
10024590:	000007ae 00000001 10003ccc 00000000     .........<......
100245a0:	0000fff6 00000000 00000000 00000001     ................
100245b0:	10003d68 00000000 0000ff15 00000000     h=..............
	...
100245c8:	10003de4 00000000 0000fe00 00000000     .=..............
	...

10024600 <rx_msg_irq_hdlr_map>:
10024600:	00000007 10003e1c 00000009 10003e34     .....>......4>..

10024610 <rx_daco>:
10024610:	00000001 00000000 00000000 00000000     ................
	...
100246b0:	04802000 04800000 04882000 04880000     . ....... ......
	...
100246d0:	049a0000 049e2000 049e0000 049f3000     ..... .......0..
100246e0:	04a02000 04a00000 04a82000 04a80000     . ....... ......
	...
10024700:	04ba0000 04be2000 04be0000 04bf3000     ..... .......0..
10024710:	04c02000 04c00000 04c82000 04c80000     . ....... ......
	...
10024730:	04da0000 04de2000 04de0000 04df3000     ..... .......0..
10024740:	04e02000 04e00000 04e82000 04e80000     . ....... ......
	...
10024760:	04fa0000 04fe2000 04fe0000 04ff3000     ..... .......0..
10024770:	05122000 05128000 05129400 05132000     . ........... ..
10024780:	05138000 05139400 0513f000 05142000     ............. ..
10024790:	05148000 05149400 05152000 05158000     ......... ......
100247a0:	05159400 0515f000 05162000 05168000     ......... ......
100247b0:	05169400 05172000 05178000 05179400     ..... ..........
100247c0:	0517f000 05182000 05188000 05189400     ..... ..........
100247d0:	05192000 05198000 05199400 0519f000     . ..............
100247e0:	051a2000 051a8000 051a9400 051b2000     . ........... ..
100247f0:	051b8000 051b9400 051bf000 051c2000     ............. ..
10024800:	051c8000 051c9400 051d2000 051d8000     ......... ......
10024810:	051d9400 051df000 051e2000 051e8000     ......... ......
10024820:	051e9400 051f2000 051f8000 051f9400     ..... ..........
10024830:	051ff000 05202000 05208000 05209400     .....  ... ... .
10024840:	05212000 05218000 05219400 0521f000     . !...!...!...!.
10024850:	05260000 05261000 05270000 05271000     ..&...&...'...'.
10024860:	05278000 0527f000 05280000 05281000     ..'...'...(...(.
10024870:	05290000 05291000 05298000 0529f000     ..)...)...)...).
10024880:	052a0000 052a1000 052b0000 052b1000     ..*...*...+...+.
10024890:	052b8000 052bf000 052c0000 052c1000     ..+...+...,...,.
100248a0:	052d0000 052d1000 052d8000 052df000     ..-...-...-...-.
100248b0:	052e0000 052e1000 052f0000 052f1000     ........../.../.
100248c0:	052f8000 052ff000 05300000 05301000     ../.../...0...0.
100248d0:	05310000 05311000 05318000 0531f000     ..1...1...1...1.
100248e0:	05320000 05321000 05330000 05331000     ..2...2...3...3.
100248f0:	05338000 0533f000 05340000 05341000     ..3...3...4...4.
10024900:	05350000 05351000 05358000 0535f000     ..5...5...5...5.
10024910:	05000000 05028000 05020000 0502c000     ................
10024920:	05040000 05068000 05060000 0506c000     ................
10024930:	05022000 05062000 0502b000 0506b000     . ... ..........
10024940:	0502a000 0506a000 05029000 05069000     ................
10024950:	05078000 0507f000 05080000 050a8000     ................
10024960:	050a0000 050ac000 050c0000 050e8000     ................
10024970:	050e0000 050ec000 050a2000 050e2000     ......... ... ..
10024980:	050ab000 050eb000 050aa000 050ea000     ................
10024990:	050a9000 050e9000 050f8000 050ff000     ................
100249a0:	05100000 05101000 05108000 05109000     ................
100249b0:	0510c000 0510d000 0510f000 05110000     ................
100249c0:	05111000 05118000 05119000 0511c000     ................
100249d0:	0511d000 0511f000 03818000 0381a000     ................
100249e0:	03838000 0383a000 0383c000 03858000     ................
100249f0:	0385a000 03878000 0387a000 0387c000     ................
10024a00:	03898000 0389a000 038b8000 038ba000     ................
10024a10:	038bc000 038d8000 038da000 038f8000     ................
10024a20:	038fa000 038fc000 03918000 0391a000     ................
10024a30:	03938000 0393a000 0393c000 03958000     ................
10024a40:	0395a000 03978000 0397a000 0397c000     ................
10024a50:	03998000 0399a000 039b8000 039ba000     ................
10024a60:	039bc000 039d8000 039da000 039f8000     ................
10024a70:	039fa000 039fc000 03c02000 03c0a000     ......... ......
10024a80:	03c09000 03c03000 03c04000 03c12000     .....0...@... ..
10024a90:	03c1a000 03c19000 03c13000 03c14000     .........0...@..
10024aa0:	03c0c000 03c1b000 03c22000 03c2a000     ......... ......
10024ab0:	03c29000 03c23000 03c24000 03c32000     .....0...@... ..
10024ac0:	03c3a000 03c39000 03c33000 03c34000     .........0...@..
10024ad0:	03c2c000 03c3b000 03c42000 03c4a000     ......... ......
10024ae0:	03c49000 03c43000 03c44000 03c52000     .....0...@... ..
10024af0:	03c5a000 03c59000 03c53000 03c54000     .........0...@..
10024b00:	03c4c000 03c5b000 03c62000 03c6a000     ......... ......
10024b10:	03c69000 03c63000 03c64000 03c72000     .....0...@... ..
10024b20:	03c7a000 03c79000 03c73000 03c74000     .........0...@..
10024b30:	03c6c000 03c7b000 03c82000 03c8a000     ......... ......
10024b40:	03c89000 03c83000 03c84000 03c92000     .....0...@... ..
10024b50:	03c9a000 03c99000 03c93000 03c94000     .........0...@..
10024b60:	03c8c000 03c9b000 03ca2000 03caa000     ......... ......
10024b70:	03ca9000 03ca3000 03ca4000 03cb2000     .....0...@... ..
10024b80:	03cba000 03cb9000 03cb3000 03cb4000     .........0...@..
10024b90:	03cac000 03cbb000 03cc2000 03cca000     ......... ......
10024ba0:	03cc9000 03cc3000 03cc4000 03cd2000     .....0...@... ..
10024bb0:	03cda000 03cd9000 03cd3000 03cd4000     .........0...@..
10024bc0:	03ccc000 03cdb000 03ce2000 03cea000     ......... ......
10024bd0:	03ce9000 03ce3000 03ce4000 03cf2000     .....0...@... ..
10024be0:	03cfa000 03cf9000 03cf3000 03cf4000     .........0...@..
10024bf0:	03cec000 03cfb000 04000000 041f0000     ................
10024c00:	041f0400 041f0800 041f1000 04200000     .............. .
10024c10:	043f0000 043f0400 043f0800 043f1000     ..?...?...?...?.

10024c20 <exception_11_cnt>:
10024c20:	00000000                                ....

10024c24 <exception_11_cnt+0x4>:
10024c24:	00000000                                ....

10024c28 <xtos_enabled>:
10024c28:	00000000                                ....

10024c2c <xtos_vpri_enabled>:
10024c2c:	ffffffff                                ....

10024c30 <xtos_interrupt_table>:
10024c30:	100014f4 0000001f 100014f4 0000001e     ................
10024c40:	100014f4 0000001d 100014f4 0000001c     ................
10024c50:	100014f4 0000001b 100014f4 0000001a     ................
10024c60:	100014f4 00000019 100014f4 00000018     ................
10024c70:	100014f4 00000017 100014f4 00000016     ................
10024c80:	100014f4 00000015 100014f4 00000014     ................
10024c90:	100014f4 00000013 100014f4 00000012     ................
10024ca0:	100014f4 00000011 100014f4 00000010     ................
10024cb0:	100014f4 0000000f 100014f4 0000000e     ................
10024cc0:	100014f4 0000000d 100014f4 0000000c     ................
10024cd0:	100014f4 0000000b 100014f4 0000000a     ................
10024ce0:	100014f4 00000009 100014f4 00000008     ................
10024cf0:	100014f4 00000007 100014f4 00000006     ................
10024d00:	100014f4 00000005 100014f4 00000004     ................
10024d10:	100014f4 00000003 100014f4 00000002     ................
10024d20:	100014f4 00000001 100014f4 00000000     ................

10024d30 <xtos_interrupt_mask_table>:
10024d30:	8c0f0fce 80000000 8c0f0fce 40000000     ...............@
10024d40:	cc0f0fce 20000000 ec0f0fce 10000000     ....... ........
10024d50:	fc0f0fce 08000000 fc0f0fce 04000000     ................
10024d60:	fc0f0fce 02000000 fe0f0fce 01000000     ................
10024d70:	ff0f0fce 00800000 ff8f0fce 00400000     ..............@.
10024d80:	ffcf0fce 00200000 ffef0fce 00100000     ...... .........
10024d90:	ffff0fce 00080000 ffff0fce 00040000     ................
10024da0:	ffff0fce 00020000 ffff0fce 00010000     ................
10024db0:	ffff0fce 00008000 ffff8fce 00004000     .............@..
10024dc0:	ffffcfce 00002000 ffffefce 00001000     ..... ..........
10024dd0:	ffffffce 00000800 ffffffce 00000400     ................
10024de0:	ffffffce 00000200 ffffffce 00000100     ................
10024df0:	ffffffce 00000080 ffffffce 00000040     ............@...
10024e00:	ffffffce 00000020 ffffffee 00000010     .... ...........
10024e10:	fffffffe 00000008 fffffffe 00000004     ................
10024e20:	fffffffe 00000002 fffffffe 00000001     ................

Disassembly of section .bss:

10024e30 <g_trace_base>:
10024e30:	00000000                                ....

10024e34 <heap>:
	...

10024e60 <trax_initialized>:
	...

10024e70 <reg4_irq_config>:
	...

10024ec0 <reg10_irq_config>:
	...

10024f40 <reg13_irq_config>:
	...

10024fe0 <reg5_irq_config>:
	...

100250b0 <reg3_irq_config>:
	...

10025190 <edge_irq_reg0_handler_map>:
	...

10025290 <edge_irq_reg1_handler_map>:
	...

10025390 <edge_irq_reg2_handler_map>:
	...

10025490 <g_bfn_cntl_total>:
10025490:	00000000                                ....

10025494 <com_trace_bfn_cpu_offset>:
10025494:	00000000                                ....

10025498 <com_write_trace_buffer.idx>:
10025498:	00000000                                ....

1002549c <g_com_timing_epoch>:
1002549c:	00000000                                ....

100254a0 <g_com_timing_prev_tick>:
100254a0:	00000000                                ....

100254a4 <com_shm_lock_first_addr>:
100254a4:	00000000                                ....

100254a8 <com_shm_lock_last_addr>:
100254a8:	00000000                                ....

100254ac <g_idma_que_task>:
100254ac:	00000000                                ....

100254b0 <gp_idma_done_handler>:
100254b0:	00000000                                ....

100254b4 <gp_idma_err_handler>:
	...

100254c0 <event_table>:
	...

10025ca0 <keepalive_event_callback.loops>:
10025ca0:	00000000                                ....

10025ca4 <keepalive_event_callback.count>:
10025ca4:	00000000                                ....

10025ca8 <keepalive_event_callback.total>:
10025ca8:	00000000                                ....

10025cac <keepalive_event_callback.max>:
10025cac:	00000000                                ....

10025cb0 <ref_timestamps>:
	...

10025cf0 <__float_exception_flags>:
	...

10025d00 <_Pri_4_Stack>:
	...

10026100 <_Pri_4_SaveArea>:
	...

Disassembly of section .debug_aranges:

00000000 <.debug_aranges>:
   0:	0000001c 00000002 00040000 00000000     ................
  10:	10000e38 0000002f 00000000 00000000     8.../...........
  20:	0000001c 00260002 00040000 00000000     ......&.........
  30:	100056a0 00000139 00000000 00000000     .V..9...........
  40:	0000001c 004c0002 00040000 00000000     ......L.........
  50:	100057e0 0000007f 00000000 00000000     .W..............
  60:	0000001c 00720002 00040000 00000000     ......r.........
  70:	10004448 0000028f 00000000 00000000     HD..............
  80:	0000001c 00980002 00040000 00000000     ................
  90:	100046d8 00000075 00000000 00000000     .F..u...........
  a0:	0000001c 00be0002 00040000 00000000     ................
  b0:	10005860 0000003d 00000000 00000000     `X..=...........
  c0:	0000001c 15e00002 00040000 00000000     ................
  d0:	100058a0 00000035 00000000 00000000     .X..5...........
  e0:	0000001c 1f510002 00040000 00000000     ......Q.........
  f0:	10000a68 0000000b 00000000 00000000     h...............
 100:	0000001c 1f770002 00040000 00000000     ......w.........
 110:	10000000 000001b4 00000000 00000000     ................
 120:	0000001c 22370002 00040000 00000000     ......7"........
 130:	10005024 00000081 00000000 00000000     $P..............
 140:	0000001c 225d0002 00040000 00000000     ......]"........
 150:	10000330 00000026 00000000 00000000     0...&...........
 160:	0000001c 22830002 00040000 00000000     ......."........
 170:	10000a80 00000003 00000000 00000000     ................
 180:	0000001c 22a90002 00040000 00000000     ......."........
 190:	10000800 0000016a 00000000 00000000     ....j...........
 1a0:	0000001c 22cf0002 00040000 00000000     ......."........
 1b0:	10000980 00000006 00000000 00000000     ................
 1c0:	0000001c 22f50002 00040000 00000000     ......."........
 1d0:	100009c0 00000006 00000000 00000000     ................
 1e0:	0000001c 231b0002 00040000 00000000     .......#........
 1f0:	10000a00 00000006 00000000 00000000     ................
 200:	0000001c 23410002 00040000 00000000     ......A#........
 210:	100050a8 000000bd 00000000 00000000     .P..............
 220:	0000001c 23670002 00040000 00000000     ......g#........
 230:	10005168 0000007e 00000000 00000000     hQ..~...........
 240:	0000001c 238d0002 00040000 00000000     .......#........
 250:	100051e8 00000129 00000000 00000000     .Q..)...........
 260:	0000001c 23b30002 00040000 00000000     .......#........
 270:	10005314 00000100 00000000 00000000     .S..............
 280:	0000001c 23d90002 00040000 00000000     .......#........
 290:	10005960 00000018 00000000 00000000     `Y..............
 2a0:	0000001c 23ff0002 00040000 00000000     .......#........
 2b0:	10005978 0000003c 00000000 00000000     xY..<...........

Disassembly of section .debug_ranges:

00000000 <.debug_ranges>:
   0:	00000005 000000c4 000000c8 0000015c     ............\...
  10:	00000160 00000202 00000209 0000026e     `...........n...
	...
  28:	00000038 0000003b 0000003e 00000041     8...;...>...A...
  38:	00000056 000000ae 00000000 00000000     V...............
  48:	00000174 00000177 0000017a 0000017f     t...w...z.......
  58:	0000018e 00000191 0000019a 000001e7     ................
  68:	000001ea 000001f4 00000000 00000000     ................
  78:	00000285 00000293 0000029d 000002a0     ................
	...
  90:	00000063 0000007d 000002d7 00000303     c...}...........
	...
  a8:	00000087 0000008a 00000093 00000096     ................
  b8:	0000009b 0000009e 00000000 00000000     ................
  c8:	00000096 0000009b 0000009e 000000a1     ................
	...
  e0:	000000b5 000000bb 000000bd 000000c0     ................
	...
  f8:	000000d0 000000dc 000000de 00000146     ............F...
	...
 110:	000000d0 000000dc 000000de 000000e4     ................
 120:	000000ea 000000ee 000000f4 000000fc     ................
 130:	00000101 00000107 0000010e 00000118     ................
 140:	0000011b 0000011d 00000122 00000127     ........"...'...
	...
 158:	000000e4 000000ea 000000ee 000000f4     ................
 168:	000000fc 00000101 00000107 0000010e     ................
 178:	00000118 0000011b 0000011d 00000122     ............"...
 188:	00000127 0000012a 0000012c 00000140     '...*...,...@...
	...
 1a0:	0000012a 0000012c 00000140 00000146     *...,...@...F...
	...
 1b8:	0000017e 000001b3 000001b5 000001ed     ~...............
 1c8:	000001f0 000001f6 00000000 00000000     ................
 1d8:	0000017e 00000194 0000019e 000001a3     ~...............
 1e8:	000001a6 000001a9 000001ac 000001b1     ................
 1f8:	000001b5 000001b8 000001ba 000001bc     ................
 208:	000001be 000001c0 000001c9 000001cc     ................
 218:	000001d2 000001d4 000001d8 000001db     ................
 228:	000001dd 000001df 000001e2 000001e6     ................
	...
 240:	00000194 0000019e 000001a3 000001a6     ................
 250:	000001a9 000001ac 000001b1 000001b3     ................
 260:	000001b8 000001ba 000001bc 000001be     ................
 270:	000001c0 000001c9 000001cc 000001d2     ................
 280:	000001d4 000001d8 000001db 000001dd     ................
 290:	000001df 000001e2 000001e8 000001ed     ................
	...
 2a8:	000001e6 000001e8 000001f0 000001f6     ................
	...
 2c0:	000001b3 000001b5 000001ed 000001f0     ................
 2d0:	000001f6 00000211 00000000 00000000     ................
 2e0:	0000030b 00000326 0000032d 0000035c     ....&...-...\...
	...
 2f8:	00000110 0000011e 00000128 0000012b     ........(...+...
	...
 310:	0000021d 0000021f 00000222 00000225     ........"...%...
 320:	00000228 0000022a 00000000 00000000     (...*...........

Disassembly of section .debug_info:

00000000 <.debug_info>:
       0:	00000022 00000002 01040000 00000000     "...............
      10:	10000e38 10000e67 00000000 0000005b     8...g.......[...
      20:	000000c4 00228001 00020000 00000014     ......".........
      30:	00e60104 56a00000 57d91000 00d01000     .......V...W....
      40:	01230000 00c40000 80010000 00000022     ..#........."...
      50:	00280002 01040000 0000042e 100057e0     ..(..........W..
      60:	1000585f 00000197 00000123 000000c4     _X......#.......
      70:	00228001 00020000 0000003c 05ae0104     ..".....<.......
      80:	44480000 46d71000 01ea1000 025a0000     ..HD...F......Z.
      90:	00c40000 80010000 00000022 00500002     ........".....P.
      a0:	01040000 00000bbb 100046d8 1000474d     .........F..MG..
      b0:	000001ea 0000025a 000000c4 00228001     ....Z.........".
      c0:	00020000 00000064 0d520104 58600000     ....d.....R...`X
      d0:	589d1000 01ea1000 025a0000 00c40000     ...X......Z.....
      e0:	80010000 00000115 00780004 01040000     ..........x.....
      f0:	000002c9 02f0000c 0e710000 025a0000     ..........q...Z.
     100:	47500000 001b1000 31020000 5c000000     ..PG.......1...\
     110:	01000003 034f0390 04070000 00475004     ......O......PG.
     120:	00001b10 64510100 02000003 009f0214     ......Qd........
     130:	18050000 6e000000 02000003 009f0214     .......n........
     140:	00050000 71000000 0200000d 009f0214     .......q........
     150:	3d060000 6d000000 02000003 00b10216     ...=...m........
     160:	62060000 84000000 02000003 00b10217     ...b............
     170:	7a060000 f0000000 02000003 00b60218     ...z............
     180:	02000000 000000aa 0000039b 90039301     ................
     190:	05000003 00b60708 c2080000 7c000000     ...............|
     1a0:	01000003 080901a7 0a01a301 0000085e     ............^...
     1b0:	000000e2 0001a501 0003790a 00009f00     .........y......
     1c0:	01a60100 700b0000 08000003 0a019c01     .......p........
     1d0:	00000511 00000106 00019c01 0004f80a     ................
     1e0:	00010600 019c0100 11020004 5d000001     ...............]
     1f0:	01000003 0358038f 04050000 00053900     ......X......9..
     200:	17000400 04000001 0002c901 f0000c00     ................
     210:	49000002 5a00000f 6c000002 72100047     ...I...Z...lG..r
     220:	02000002 0000002b 00003603 00039a00     ....+....6......
     230:	04940100 00000387 48030807 5c000000     ...........H...\
     240:	01000003 034f0490 04070000 0003a205     ......O.........
     250:	03890200 00002b03 90060100 02000009     .....+..........
     260:	002b0389 b3060000 02000003 002b0389     ..+...........+.
     270:	af060000 02000003 00260389 ce070000     ..........&.....
     280:	02000003 003d038e b2070000 02000003     ......=.........
     290:	02c8038c dd070000 02000003 003d038e     ..............=.
     2a0:	b5070000 02000003 003d038e b8070000     ..........=.....
     2b0:	02000003 003d038e bb070000 02000003     ......=.........
     2c0:	02c8038b be070000 02000003 003d0390     ..............=.
     2d0:	c1070000 02000003 003d0390 c3070000     ..........=.....
     2e0:	02000003 003d038e e6070000 02000003     ......=.........
     2f0:	003d038f d3070000 02000003 003d038f     ..=...........=.
     300:	c6070000 02000003 02cd038d c9070000     ................
     310:	02000003 02c80459 07080000 0000072a     ....Y.......*...
     320:	3d043702 07000000 0000072f 3d043702     .7.=..../....7.=
     330:	08000000 0003cc07 04420200 0000003d     ..........B.=...
     340:	0003d107 04420200 0000003d 0003d607     ......B.=.......
     350:	04420200 0000003d 0003db07 04420200     ..B.=.........B.
     360:	0000003d 0003e007 04420200 0000003d     =.........B.=...
     370:	0003e407 04420200 0000003d 0003e907     ......B.=.......
     380:	04420200 0000003d ee070800 02000003     ..B.=...........
     390:	02cd0443 08000000 0003f207 04480200     C.............H.
     3a0:	0000003d f2070800 02000003 003d0450     =...........P.=.
     3b0:	00000000 03f20708 27020000 00003d04     ...........'.=..
     3c0:	07080000 000003cc 3d03cc02 07000000     ...........=....
     3d0:	000003db 3d03cc02 07000000 000003d1     .......=........
     3e0:	3d03cc02 07000000 000003d6 3d03cc02     ...=...........=
     3f0:	07000000 000003e0 3d03cc02 07000000     ...........=....
     400:	000003e4 3d03cc02 07000000 000003e9     .......=........
     410:	3d03cc02 00000000 03cc0708 f1020000     ...=............
     420:	00003d03 03db0700 f1020000 00003d03     .=...........=..
     430:	03d10700 f1020000 00003d03 03d60700     .........=......
     440:	f1020000 00003d03 03e00700 f1020000     .....=..........
     450:	00003d03 03e40700 f1020000 00003d03     .=...........=..
     460:	03e90700 f1020000 00003d03 07080000     .........=......
     470:	000003cc 3d03f602 07000000 000003db     .......=........
     480:	3d03f602 07000000 000003d1 3d03f602     ...=...........=
     490:	07000000 000003d6 3d03f602 07000000     ...........=....
     4a0:	000003e0 3d03f602 07000000 000003e4     .......=........
     4b0:	3d03f602 07000000 000003e9 3d03f602     ...=...........=
     4c0:	00000000 02cd0900 d90a0000 7c000002     ...............|
     4d0:	01000003 080b01a7 0c01a301 0000085e     ............^...
     4e0:	000002f9 0001a501 0003790c 00032f00     .........y.../..
     4f0:	01a60100 700d0000 08000003 0c019c01     .......p........
     500:	00000511 0000031d 00019c01 0004f80c     ................
     510:	00031d00 019c0100 28030004 5d000003     ...........(...]
     520:	01000003 0358048f 04050000 00033a03     ......X......:..
     530:	00039b00 04930100 00000390 6c0e0805     ...............l
     540:	72100047 01000002 0003f651 049b0200     G..r....Q.......
     550:	0000002b 0004650f 00099000 049b0200     +....e..........
     560:	0000002b 0000b50f 0003b300 049b0200     +...............
     570:	0000002b 00004f10 00000000 049d0200     +....O..........
     580:	03d7110a 005d0000 f3110000 69000004     ......]........i
     590:	11000000 000003b7 00000075 00015012     ........u....P..
     5a0:	00008100 019a1200 008d0000 35120000     ...............5
     5b0:	99000002 12000000 00000269 000000a5     ........i.......
     5c0:	0002df12 0000b100 03291200 00bd0000     ..........).....
     5d0:	8e120000 c9000005 12000000 000005cd     ................
     5e0:	000000d5 0005eb12 0000e100 06f11200     ................
     5f0:	00ed0000 49120000 f9000007 13000000     .......I........
     600:	10004786 000000aa 00070f12 00011e00     .G..............
     610:	07361200 012a0000 28140000 12000000     ..6...*....(....
     620:	00000609 00000137 00061c12 00014300     ....7........C..
     630:	063a1200 014f0000 6e120000 5b000006     ..:...O....n...[
     640:	12000001 00000681 00000167 00069f12     ........g.......
     650:	00017300 06bd1200 017f0000 00000000     .s..............
     660:	00486413 00006410 07891200 01c60000     .dH..d..........
     670:	9c120000 d2000007 12000001 000007af     ................
     680:	000001de 0007cd12 0001ea00 07f61200     ................
     690:	01f60000 14120000 02000008 12000002     ................
     6a0:	0000083f 0000020e 00481400 5d120000     ?.........H....]
     6b0:	1c000008 12000002 00000870 00000228     ........p...(...
     6c0:	00088312 00023400 08a11200 02400000     .....4........@.
     6d0:	d5120000 4c000008 12000002 000008f3     .......L........
     6e0:	00000258 00091c12 00026400 78130000     X........d.....x
     6f0:	62100049 12000000 00000945 00000272     I..b....E...r...
     700:	00095812 00027e00 096b1200 028a0000     .X...~....k.....
     710:	89120000 96000009 12000002 000009b2     ................
     720:	000002a2 0009d012 0002ae00 09fb1200     ................
     730:	02ba0000 00000000 0ea20000 00040000     ................
     740:	00000211 02c90104 000c0000 00000400     ................
     750:	00001294 0000025a 100049e0 0000035c     ....Z....I..\...
     760:	00004d02 5e010400 00048003 93031000     .M.....^........
     770:	08000004 0004a803 bc030400 02000004     ................
     780:	0004d103 04000100 0000034f 4d020407     ........O......M
     790:	04000000 e403bf02 80000004 07ffe080     ................
     7a0:	0004fd03 05000000 00000078 00000515     ........x.......
     7b0:	58045e03 05000003 004d0504 05160000     .^.X......M.....
     7c0:	5d030000 00009505 00052900 04490300     ...].....)....I.
     7d0:	0000051d 2e060106 04000005 00b6010b     ................
     7e0:	07010000 00000195 c1010b04 00000000     ................
     7f0:	00007805 00054000 054b0300 000000cc     .x...@....K.....
     800:	00000546 08083101 09082b01 00000511     F....1...+......
     810:	0000004d 09002f01 000004f8 0000004d     M..../......M...
     820:	00042f01 00054e06 01000400 0000007f     ./...N..........
     830:	01950701 00040000 0000c101 620a0000     ...............b
     840:	04000005 07010128 0000057c 7f012904     ....(...|....)..
     850:	07000000 00000582 7f012a04 07000000     .........*......
     860:	00000588 56012b04 07000001 00000590     .....+.V........
     870:	5b012c04 07000001 00000599 5b012d04     .,.[.........-.[
     880:	0b000001 000005a2 8a013004 00000000     .........0......
     890:	0000b60c 007f0c00 ad060000 05000005     ................
     8a0:	008a0362 07010000 00000195 7f036205     b............b..
     8b0:	00000000 0005c10a 012c0500 05d20701     ..........,.....
     8c0:	2d050000 00007f01 05d50700 2d050000     ...-...........-
     8d0:	00007f01 05d80700 2d050000 0000b601     ...........-....
     8e0:	05de0700 2d050000 00015b01 05e40700     .......-.[......
     8f0:	2d050000 00015b01 05ea0b00 31050000     ...-.[.........1
     900:	00007f01 05ed0b00 31050000 00007f01     ...........1....
     910:	f0060000 05000005 021603a0 07010000     ................
     920:	000005d2 7f03a005 07000000 000005d5     ................
     930:	7f03a005 07000000 000005fa 7f03a005     ................
     940:	07000000 000005fd 7f03a005 00000000     ................
     950:	00022105 0005f500 04470300 00000524     .!........G.$...
     960:	000d0108 05000006 0e010353 000005d2     ........S.......
     970:	007f5405 d50e0000 05000005 00007f54     .T..........T...
     980:	05d80e00 54050000 000000b6 0005de0e     .......T........
     990:	5b540500 0e000001 000005e4 015b5405     ..T[.........T[.
     9a0:	ea0f0000 05000005 00007f56 05ed0f00     ........V.......
     9b0:	56050000 0000007f 060d0a00 e2050000     ...V............
     9c0:	95070101 05000001 007f01e2 c1070000     ................
     9d0:	05000003 007f01e2 de070000 05000005     ................
     9e0:	015b01e2 e4070000 05000005 015b01e2     ..[...........[.
     9f0:	170b0000 05000006 031901f0 330b0000     ...............3
     a00:	05000006 031901f0 390b0000 05000006     ...........9....
     a10:	031901f0 3e0b0000 05000006 031901f0     .......>........
     a20:	430b0000 05000006 007f01f1 4c0b0000     ...C...........L
     a30:	05000006 007f01f1 ed0b0000 05000005     ................
     a40:	007f01f1 ea0b0000 05000005 007f01f1     ................
     a50:	05000000 00000324 0000062c 1d045b03     ....$...,....[..
     a60:	07000006 06550a02 13050000 d2070102     ......U.........
     a70:	05000005 007f0214 d5070000 05000005     ................
     a80:	007f0215 c1070000 05000003 007f0216     ................
     a90:	de070000 05000005 015b0217 e4070000     ..........[.....
     aa0:	05000005 015b0218 63070000 05000006     ......[....c....
     ab0:	015b0219 690b0000 05000006 007f021c     ..[....i........
     ac0:	ea0b0000 05000005 007f021c 6f0b0000     ...............o
     ad0:	05000006 007f021c ed0b0000 05000005     ................
     ae0:	007f021c 10000000 00000672 03017305     ........r....s..
     af0:	05d20701 74050000 00007f01 05d50700     .......t........
     b00:	74050000 00007f01 05fa0700 74050000     ...t...........t
     b10:	00007f01 05fd0700 74050000 00007f01     ...........t....
     b20:	05de0700 74050000 00015b01 05e40700     .......t.[......
     b30:	74050000 00015b01 05ea0b00 76050000     ...t.[.........v
     b40:	00007f01 78100000 05000006 010301bf     .......x........
     b50:	0005d207 01c00500 0000007f 0005d507     ................
     b60:	01c10500 0000007f 00067e07 01c20500     .........~......
     b70:	0000007f 0005fa07 01c30500 0000007f     ................
     b80:	0005fd07 01c40500 0000007f 00068107     ................
     b90:	01c50500 0000007f 0005de07 01c60500     ................
     ba0:	0000015b 0005e407 01c70500 0000015b     [...........[...
     bb0:	00066307 01c80500 0000015b 0006840b     .c......[.......
     bc0:	01cc0500 0000007f 00068c0b 01cc0500     ................
     bd0:	0000007f 0005ea0b 01cb0500 0000007f     ................
     be0:	0005ed0b 01cb0500 0000007f 00066f0b     .............o..
     bf0:	01cb0500 0000007f 06940d00 d1050000     ................
     c00:	d20e0103 05000005 00007fd2 05d50e00     ................
     c10:	d3050000 0000007f 00067e0e 7fd40500     .........~......
     c20:	0e000000 000005d8 00b6d505 de0e0000     ................
     c30:	05000005 00015bd6 05e40e00 d7050000     .....[..........
     c40:	0000015b 0006630e 5bd80500 0f000001     [....c.....[....
     c50:	000006ad 0078de05 6f0f0000 05000006     ......x....o....
     c60:	00007fdb 05ea0f00 db050000 0000007f     ................
     c70:	0005ed0f 7fdb0500 00000000 0006b611     ................
     c80:	01530400 0000c103 c2070100 04000006     ..S.............
     c90:	02160153 c8070000 04000006 00b60153     S...........S...
     ca0:	cd070000 04000006 007f0153 d3070000     ........S.......
     cb0:	04000006 007f0153 d90b0000 04000006     ....S...........
     cc0:	00c10155 10000000 000006db 03018705     U...............
     cd0:	05d20701 88050000 00007f01 05d50700     ................
     ce0:	89050000 00007f01 067e0700 8a050000     ..........~.....
     cf0:	00007f01 05fa0700 8b050000 00007f01     ................
     d00:	05fd0700 8c050000 00007f01 06810700     ................
     d10:	8d050000 00007f01 05de0700 8e050000     ................
     d20:	00015b01 05e40700 8f050000 00015b01     .[...........[..
     d30:	06630700 90050000 00015b01 066f0b00     ..c......[....o.
     d40:	93050000 00007f01 05ea0b00 93050000     ................
     d50:	00007f01 06e10b00 94050000 00007f01     ................
     d60:	06e80b00 94050000 00007f01 05ed0b00     ................
     d70:	93050000 00007f01 ef120000 02000006     ................
     d80:	5a0e0140 02000008 00008a40 e0130000     @..Z....@.......
     d90:	5c100049 01000003 0006fd51 075d0400     I..\....Q.....].
     da0:	000000c1 00019507 075d0400 000000c1     ..........].....
     db0:	0003c107 075d0400 000000c1 000a1914     ......].........
     dc0:	00058200 07610400 0000007f 000abd14     ......a.........
     dd0:	00070600 07610400 0000007f 000b4a14     ......a......J..
     de0:	00070c00 07600400 000000b6 000ba314     ......`.........
     df0:	00057c00 07610400 0000007f 000c0314     .|....a.........
     e00:	00071100 07610400 0000007f 000c6e14     ......a......n..
     e10:	00071700 07600400 000000b6 000d8414     ......`.........
     e20:	0006c800 07600400 000000b6 000ef214     ......`.........
     e30:	0006cd00 07610400 0000007f 0010a214     ......a.........
     e40:	00071c00 07620400 0000007f 0010cb14     ......b.........
     e50:	00072200 07620400 0000007f 00114d14     ."....b......M..
     e60:	00072800 07620400 0000007f 00119414     .(....b.........
     e70:	00072d00 07620400 0000007f 0011d314     .-....b.........
     e80:	00073200 07620400 0000007f 00120714     .2....b.........
     e90:	0006d300 07610400 0000007f 00145914     ......a......Y..
     ea0:	00073700 07620400 0000007f 0014db14     .7....b.........
     eb0:	00073d00 07620400 0000007f 00155514     .=....b......U..
     ec0:	00074200 07610400 0000007f 00164914     .B....a......I..
     ed0:	0006d900 07630400 000000c1 0007480b     ......c......H..
     ee0:	075f0400 00000216 00074e0b 075f0400     .._......N...._.
     ef0:	00000216 0006c20b 075f0400 00000216     .........._.....
     f00:	0007540b 07620400 0000007f 00009c15     .T....b.........
     f10:	0049f000 00000510 07670400 0aa6160c     ..I.......g.....
     f20:	00a90000 15000000 000000ea 100049f5     .............I..
     f30:	00000003 0d076604 000b8916 0000f700     .....f..........
     f40:	ea150000 f8000000 03100049 04000000     ........I.......
     f50:	160d076a 00000b33 000000f7 009c1700     j...3...........
     f60:	49fb0000 00031000 6b040000 42150c07     ...I.......k...B
     f70:	32000005 0710004c 04000000 18100774     ...2L.......t...
     f80:	05505901 ff190000 00055c0f 68001a00     .YP......\.....h
     f90:	1a000005 00057400 15681b00 05800000     .....t....h.....
     fa0:	1c000000 0000048b 82077d04 1510004c     .........}..L...
     fb0:	00000640 10004c82 00000013 11077e04     @....L.......~..
     fc0:	06481019 1d000000 00000640 00000078     ..H.....@...x...
     fd0:	0d078304 06480819 15000000 00000542     ......H.....B...
     fe0:	10004c73 0000000a 14078404 0016321b     sL...........2..
     ff0:	00058000 041d0000 90000001 04000000     ................
    1000:	16090786 00000cb8 0000010d 000cd616     ................
    1010:	00011900 0cff1b00 01490000 60150000     ..........I....`
    1020:	46000001 0310004a 04000000 1816013f     ...FJ.......?...
    1030:	016d5201 15000000 0000017a 10004a4c     .Rm.....z...LJ..
    1040:	0000000b 09014004 000d4b16 00018300     .....@...K......
    1050:	0d381600 018f0000 23160000 9b00000d     ..8........#....
    1060:	1b000001 00000d5e 000001bf 01601500     ....^.........`.
    1070:	4cb70000 00051000 33040000 01181601     ...L.......3....
    1080:	00016d5c 1d000000 0000017a 000000a8     \m......z.......
    1090:	05078d04 000d7116 00018300 0de81600     .....q..........
    10a0:	018f0000 d4160000 9b00000d 1b000001     ................
    10b0:	00000dfb 000001cb 017a1d00 00c80000     ..........z.....
    10c0:	8e040000 01180507 00018352 5c011800     ........R......\
    10d0:	0000018f 019b0b19 0e1b0000 cb00000e     ................
    10e0:	00000001 0001d815 004a8100 00000310     ..........J.....
    10f0:	078f0400 5401180a 000001e5 fd570118     .......T......W.
    1100:	18000001 02095601 1d000000 00000228     .....V......(...
    1110:	000000e0 09079004 31570118 18000002     ..........W1....
    1120:	023c5601 01190000 00000247 000e211b     .V<.....G....!..
    1130:	00026800 02731e00 1d000000 0000032b     .h....s.....+...
    1140:	000000f8 05079404 000eb916 00033400     .............4..
    1150:	0ea61600 03400000 df160000 4c00000e     ......@........L
    1160:	1b000003 0000105d 0000037c 0010de1b     ....]...|.......
    1170:	00038800 10f11b00 03940000 7f1d0000     ................
    1180:	10000002 05000001 1605021e 00000e93     ................
    1190:	00000288 000ecc16 00029400 0e341b00     ..............4.
    11a0:	02b80000 581b0000 c400000e 1b000002     .......X........
    11b0:	00000e6d 000002dc 000e801b 0002d000     m...............
    11c0:	0f311b00 02e80000 441b0000 f400000f     ..1........D....
    11d0:	1b000002 00000fc1 00000300 000ff21b     ................
    11e0:	00030c00 7f1d0000 58000002 05000001     ...........X....
    11f0:	1805021f 02885401 011f0000 0002d054     .....T......T...
    1200:	0f571b00 02c40000 6c1b0000 b800000f     ..W........l....
    1210:	1b000002 00000f90 000002e8 000fa31b     ................
    1220:	0002f400 0fd41b00 030c0000 101b0000     ................
    1230:	00000010 00000003 0003ad1d 0001a000     ................
    1240:	02200500 104a1605 03c30000 36160000     .. ...J........6
    1250:	cf000010 1b000003 00001023 000003ff     ........#.......
    1260:	0c150000 26000004 1d10004b 04000000     .......&K.......
    1270:	16050795 00001083 00000422 042e001a     ........".......
    1280:	70160000 46000010 18000004 04525e01     ...p...F.....^R.
    1290:	041b0000 82000011 1b000004 0000111c     ................
    12a0:	0000048e 00112f1b 00049a00 11811b00     ...../..........
    12b0:	04a60000 1d000000 0000032b 000001b8     ........+.......
    12c0:	09079c04 34540118 18000003 03405301     ......T4.....S@.
    12d0:	01180000 00034c5a 13d21b00 037c0000     ....ZL........|.
    12e0:	7f1d0000 d8000002 05000001 1805021e     ................
    12f0:	02885301 01180000 0002945a 53011f00     .S......Z......S
    1300:	000002d0 0012461b 0002b800 5a011f00     .....F.........Z
    1310:	000002dc 00126a1b 0002c400 127f1b00     .....j..........
    1320:	030c0000 c01b0000 e8000012 1b000002     ................
    1330:	000012d3 000002f4 0013231b 00030000     .........#......
    1340:	7f1d0000 40000002 05000002 1605021f     .......@........
    1350:	000013ac 00000288 00139916 00029400     ................
    1360:	12e61b00 030c0000 101b0000 f4000013     ................
    1370:	1b000002 00001336 000002e8 0013491b     ....6........I..
    1380:	00030000 13731b00 02dc0000 861b0000     ......s.........
    1390:	d0000013 00000002 0003ad1d 0002a800     ................
    13a0:	02200500 13f91605 03c30000 e5160000     .. .............
    13b0:	cf000013 1b000003 000013bf 000003ff     ................
    13c0:	0c1d0000 c0000004 04000002 1609079d     ................
    13d0:	00001446 00000422 00143216 00042e00     F..."....2......
    13e0:	141f1600 04460000 0c160000 52000014     ......F........R
    13f0:	1b000004 0000146c 0000049a 00148a1b     ....l...........
    1400:	00048e00 149d1b00 04820000 b51b0000     ................
    1410:	b2000014 1b000004 000014c8 000004a6     ................
    1420:	058d1500 4c9c0000 00131000 a0040000     .......L........
    1430:	8e160d07 97000016 16000005 0000167b     ............{...
    1440:	000005a3 00166816 0005af00 bb001a00     .....h..........
    1450:	18000005 05c75401 01180000 0005d353     .....T......S...
    1460:	16a11b00 06030000 b41b0000 0f000016     ................
    1470:	1b000006 000016d2 0000061b 0016e51b     ................
    1480:	00062700 16f81b00 06330000 15000000     .'........3.....
    1490:	000004bf 10004c05 00000018 0507a404     .....L..........
    14a0:	c8550118 18000004 04d35a01 001a0000     ..U......Z......
    14b0:	000004de 04e90b19 f91b0000 15000014     ................
    14c0:	1b000005 0000150c 00000520 00152f1b     ........ ..../..
    14d0:	00052b00 15421b00 05360000 15000000     .+....B...6.....
    14e0:	0000058d 10004c42 00000013 09079804     ....BL..........
    14f0:	0015b516 00059700 15a21600 05a30000     ................
    1500:	8f160000 af000015 1a000005 0005bb00     ................
    1510:	54011800 000005c7 d3530118 1b000005     ...T......S.....
    1520:	000015c8 00000603 0015db1b 00060f00     ................
    1530:	15f91b00 061b0000 0c1b0000 27000016     ...............'
    1540:	1b000006 0000161f 00000633 01041d00     ........3.......
    1550:	02e00000 8a040000 0b160907 0d000017     ................
    1560:	16000001 00001729 00000119 0017521b     ....)........R..
    1570:	00014900 01601500 4ced0000 00031000     .I....`....L....
    1580:	3f040000 01181601 00016d54 7a150000     ...?....Tm.....z
    1590:	f3000001 0b10004c 04000000 16090140     ....L.......@...
    15a0:	0000179e 00000183 00178b16 00018f00     ................
    15b0:	17761600 019b0000 b11b0000 bf000017     ..v.............
    15c0:	00000001 00016015 004d0d00 00000510     .....`....M.....
    15d0:	01330400 5a011816 0000016d 00000000     ..3....Zm.......
    15e0:	00000022 03b30002 01040000 00001ade     "...............
    15f0:	100058a0 100058d5 0000075a 0000025a     .X...X..Z...Z...
    1600:	000000c4 003e8001 00040000 000003c7     ......>.........
    1610:	02c90104 000c0000 000007cb 00001bf3     ................
    1620:	0000025a 00084802 00002f00 05360200     Z....H.../....6.
    1630:	025cf003 003a0310 05290000 49010000     ..\...:...)....I
    1640:	00051d04 00010600 000005ec 04000004     ................
    1650:	01040000 000002c9 0860000c 1ca30000     ..........`.....
    1660:	025a0000 4d3c0000 023b1000 4d020000     ..Z...<M..;....M
    1670:	04000000 80035e01 10000004 00049303     .....^..........
    1680:	a8030800 04000004 0004bc03 d1030200     ................
    1690:	01000004 034f0400 04070000 00004d02     ......O......M..
    16a0:	3b010400 0008e003 fe030000 01000008     ...;............
    16b0:	004d0200 01040000 091d034a 03000000     ..M.....J.......
    16c0:	00000936 09470301 03020000 00000956     6.....G.....V...
    16d0:	95050003 15000000 02000005 0358045e     ............^.X.
    16e0:	04050000 0000a705 00062c00 045b0200     .........,....[.
    16f0:	0000061d 4d050207 16000000 02000005     .......M........
    1700:	096a065d c9030000 000000d1 01950701     ].j.............
    1710:	c9030000 000000e3 00dc0500 05f50000     ................
    1720:	47020000 00052404 05010800 000000ee     ...G.$..........
    1730:	00000546 08083101 09082b01 00000511     F....1...+......
    1740:	0000004d 09002f01 000004f8 0000004d     M..../......M...
    1750:	00042f01 00097906 d1d70300 01000000     ./...y..........
    1760:	00019507 e3d70300 00000000 0006ef0a     ................
    1770:	01400300 00085a07 38400300 00000001     ..@..Z....@8....
    1780:	00014305 00052900 04490200 0000051d     .C...)....I.....
    1790:	920b0106 04000009 00d103ad 0c010000     ................
    17a0:	000005d2 ae03ad04 0c000000 000005d5     ................
    17b0:	ae03ad04 0c000000 000005fa ae03ad04     ................
    17c0:	0c000000 000005fd ae03ad04 00000000     ................
    17d0:	004d3c0d 0000fc10 97510100 03000009     .<M.......Q.....
    17e0:	00e30112 6b0e0000 95000018 03000001     .......k........
    17f0:	00e30112 080e0000 c1000018 03000003     ................
    1800:	00e30112 c70f0000 c3000018 03000009     ................
    1810:	00d10114 160f0000 d3000019 03000009     ................
    1820:	00d10114 550f0000 da000019 03000009     .......U........
    1830:	00d10114 02100000 0300000a 00d10114     ................
    1840:	b9110000 46000000 1b10004d 03000000     .......FM.......
    1850:	120e0116 000017cf 000000c5 010c1100     ................
    1860:	4d6c0000 00181000 17030000 a0121701     ..lM............
    1870:	18000018 00000001 0000b911 004d8400     ..............M.
    1880:	00001110 01180300 18ef120e 00c50000     ................
    1890:	11000000 0000010c 10004d95 00000013     .........M......
    18a0:	17011903 00192e12 00011800 24110000     ...............$
    18b0:	b3000001 0e10004d 03000000 132e011c     ....M...........
    18c0:	00012c10 ea140000 03000009 4df10123     .,..........#..M
    18d0:	4a111000 fb000001 0310004d 03000000     ...J....M.......
    18e0:	150e0124 01575801 01150000 00016356     $....XW.....Vc..
    18f0:	59011500 0000016f 7b540115 00000001     ...Yo.....T{....
    1900:	00014a11 004e0e00 00001d10 01250300     .J....N.......%.
    1910:	5901150e 00000157 63540115 12000001     ...YW.....Tc....
    1920:	0000196d 0000016f 7b560115 00000001     m...o.....V{....
    1930:	06b61600 53050000 00e30301 0c010000     .......S........
    1940:	000006c2 d1015305 0c000000 000006c8     .....S..........
    1950:	34015305 0c000003 000006cd ae015305     .S.4.........S..
    1960:	0c000000 000006d3 ae015305 10000000     .........S......
    1970:	000006d9 e3015505 00000000 00009505     .....U..........
    1980:	00054000 0a4b0200 00000694 0701d104     .@....K.........
    1990:	000005d2 00aed204 d5070000 04000005     ................
    19a0:	0000aed3 067e0700 d4040000 000000ae     ......~.........
    19b0:	0005d807 34d50400 07000003 000005de     .......4........
    19c0:	03c1d604 e4070000 04000005 0003c1d7     ................
    19d0:	06630700 d8040000 000003c1 0006ad17     ..c.............
    19e0:	95de0400 17000000 0000066f 00aedb04     ........o.......
    19f0:	ea170000 04000005 0000aedb 05ed1700     ................
    1a00:	db040000 000000ae 00ae1800 72190000     ...............r
    1a10:	04000006 01030173 0005d20c 01740400     ....s.........t.
    1a20:	000000ae 0005d50c 01740400 000000ae     ..........t.....
    1a30:	0005fa0c 01740400 000000ae 0005fd0c     ......t.........
    1a40:	01740400 000000ae 0005de0c 01740400     ..t...........t.
    1a50:	000003c1 0005e40c 01740400 000003c1     ..........t.....
    1a60:	0005ea10 01760400 000000ae 4e380d00     ......v.......8N
    1a70:	013f1000 51010000 000009ad e3017f05     ..?....Q........
    1a80:	0e000000 00001980 000006c2 d1018005     ................
    1a90:	0e000000 0000199e 000006c8 34018005     ...............4
    1aa0:	0e000003 000019e9 000006cd ae018005     ................
    1ab0:	0e000000 00001a1d 000006d3 ae018005     ................
    1ac0:	0e000000 00001a67 00000742 ae018005     ....g...B.......
    1ad0:	0f000000 00001a90 00000a09 d1018305     ................
    1ae0:	1a000000 000a1300 01820500 00000138     ............8...
    1af0:	0a20011b 83050000 0000d101 1b090f00     .. .............
    1b00:	0a310000 83050000 0000d101 01241c00     ..1...........$.
    1b10:	02f80000 9c050000 05130d01 0000012c     ............,...
    1b20:	02e91100 4e5a0000 000a1000 a3050000     ......ZN........
    1b30:	f21d1401 2700001a 00000003 00014a1e     .......'.....J..
    1b40:	004e9e00 00001210 01aa0500 033f1114     ..N...........?.
    1b50:	4eb30000 00621000 ab050000 89120d01     ...N..b.........
    1b60:	4700001b 12000003 00001b55 00000352     ...G....U...R...
    1b70:	001b2112 00035d00 1bbd1200 03680000     .!...]........h.
    1b80:	f11d0000 9400001b 1d000003 00001c1a     ................
    1b90:	0000039f 001c591d 0003aa00 1c771d00     .....Y........w.
    1ba0:	03b50000 11000000 00000124 10004f20     ........$... O..
    1bb0:	00000012 2401ae05 012c0213 11000000     .......$..,.....
    1bc0:	00000124 10004f34 00000011 1201bc05     $...4O..........
    1bd0:	001c8a12 00012c00 c61c0000 10000003     .....,..........
    1be0:	05000003 1f0901be 0003e800 f4011f00     ................
    1bf0:	1d000003 00001c9e 00000418 02e91100     ................
    1c00:	4f690000 000a1000 c4050000 b1120c01     ..iO............
    1c10:	f700001c 15000002 03035801 01150000     .........X......
    1c20:	00030f54 55011500 0000031b 93550320     T......U.... .U.
    1c30:	00032704 00000000 00000315 05b90004     .'..............
    1c40:	01040000 000002c9 0a38000c 21550000     ..........8...U!
    1c50:	025a0000 58e00000 007f1000 31020000     ..Z....X.......1
    1c60:	15000000 01000005 0358035e 04050000     ........^.X.....
    1c70:	00004302 00051600 035d0100 0000034f     .C........].O...
    1c80:	0d040407 02000006 050101e2 00000195     ................
    1c90:	3801e202 05000000 000003c1 3801e202     ...8...........8
    1ca0:	05000000 000005de e401e202 05000000     ................
    1cb0:	000005e4 e401e202 06000000 00000639     ............9...
    1cc0:	e901f002 06000000 00000617 e901f002     ................
    1cd0:	06000000 00000633 e901f002 06000000     ....3...........
    1ce0:	000005ea 3801f102 06000000 00000643     .......8....C...
    1cf0:	3801f102 06000000 0000064c 3801f102     ...8....L......8
    1d00:	06000000 000005ed 3801f102 06000000     ...........8....
    1d10:	0000063e e901f002 00000000 00003807     >............8..
    1d20:	00f40200 062c0000 5b010000 00061d03     ......,....[....
    1d30:	04020700 00000ab9 0101ad02 0005d205     ................
    1d40:	01ae0200 00000038 0005d505 01ae0200     ....8...........
    1d50:	00000038 0005fa05 01ae0200 00000038     8...........8...
    1d60:	0005fd05 01ae0200 00000038 0005de05     ........8.......
    1d70:	01ae0200 000000e4 0005e405 01ae0200     ................
    1d80:	000000e4 06720400 73020000 d2050101     ......r....s....
    1d90:	02000005 00380174 d5050000 02000005     ....t.8.........
    1da0:	00380174 fa050000 02000005 00380174     t.8.........t.8.
    1db0:	fd050000 02000005 00380174 de050000     ........t.8.....
    1dc0:	02000005 00e40174 e4050000 02000005     ....t...........
    1dd0:	00e40174 ea060000 02000005 00380176     t...........v.8.
    1de0:	08000000 100058e0 0000007f 0abf5101     .....X.......Q..
    1df0:	5d020000 00003802 1cc40900 05d20000     ...].8..........
    1e00:	5d020000 00003802 1ce20900 05d50000     ...].8..........
    1e10:	5d020000 00003802 1cf50900 03c10000     ...].8..........
    1e20:	5d020000 00003802 1d130a00 05fa0000     ...].8..........
    1e30:	af020000 00003802 1db20a00 07220000     .....8........".
    1e40:	b0020000 00003802 1dd00a00 06d90000     .....8..........
    1e50:	b1020000 00003802 1df90a00 07280000     .....8........(.
    1e60:	b0020000 00003802 1e380a00 072d0000     .....8....8...-.
    1e70:	b0020000 00003802 1e710a00 05fd0000     .....8....q.....
    1e80:	af020000 00003802 07540600 b0020000     .....8....T.....
    1e90:	00003802 004a0b00 59010000 00121000     .8....J....Y....
    1ea0:	b6020000 010c0502 00005354 54010d00     ........TS.....T
    1eb0:	00000083 0076030d 00008f9f 1d310e00     ......v.......1.
    1ec0:	009b0000 460e0000 a700001d 0e000000     .......F........
    1ed0:	00001d65 000000b3 001d790e 0000bf00     e........y......
    1ee0:	1d8c0e00 00cb0000 0b000000 000000fb     ................
    1ef0:	10005913 0000000e 0502b702 001d9f0f     .Y..............
    1f00:	00010400 53010c00 00000110 2859010c     .......S......Y(
    1f10:	00000001 00014d0b 00594e00 00000910     .....M...NY.....
    1f20:	02bb0200 1e5e0f09 01560000 4b0f0000     ......^...V....K
    1f30:	6200001e 0c000001 016e5601 010c0000     ...b.....Vn.....
    1f40:	00017a54 1e840e00 019e0000 00000000     Tz..............
    1f50:	00002200 82000200 04000006 00230301     ."............#.
    1f60:	000a6800 000a7310 000ad310 00005b00     .h...s.......[..
    1f70:	0000c400 22800100 02000000 00069600     ......."........
    1f80:	a8010400 00000023 b4100000 36100001     ....#..........6
    1f90:	5b00000b c4000000 01000000 0000a280     ...[............
    1fa0:	aa000400 04000006 0002c901 9e000c00     ................
    1fb0:	2200000b 5b000026 78000000 3410004f     ..."&..[...xO..4
    1fc0:	02000000 00000031 00000c0e 3d032702     ....1........'.=
    1fd0:	05000000 0100000c 4f0401cf 07000003     ...........O....
    1fe0:	4f780504 00341000 51010000 00000c17     ..xO..4....Q....
    1ff0:	00873e03 97060000 3500001e 0300000c     .>.........5....
    2000:	0000263e 1eb50700 0c3c0000 42030000     >&........<....B
    2010:	00000026 001ed307 000c4100 26410300     &........A....A&
    2020:	00000000 00009202 000c0f00 03220200     ..............".
    2030:	0000009e 00000c2d 0401ce01 00000358     ....-.......X...
    2040:	a2000405 04000000 00071b00 c9010400     ................
    2050:	0c000002 000c4900 00285500 00005b00     .....I...U(..[..
    2060:	004fac00 00003410 00310200 0c0e0000     ..O..4....1.....
    2070:	27020000 00003d03 000c0500 01cf0100     ...'.=..........
    2080:	00034f04 05040700 10004fac 00000034     .O.......O..4...
    2090:	0cb15101 3e030000 00000087 001ee606     .Q.....>........
    20a0:	000c3500 263e0300 07000000 00001f04     .5....>&........
    20b0:	00000c3c 00264203 17070000 4100001f     <....B&........A
    20c0:	0300000c 00002641 92020000 0f000000     ....A&..........
    20d0:	0200000c 009e0322 0c2d0000 ce010000     ....".....-.....
    20e0:	03580401 04050000 00014a00 8c000400     ..X......J......
    20f0:	04000007 0002c901 c8000c00 9300000c     ................
    2100:	5b00002a e0000000 4210004f 02000000     *..[....O..B....
    2110:	00000031 00000c0e 3d032702 05000000     1........'.=....
    2120:	0100000c 4f0401cf 07000003 004f0204     .......O......O.
    2130:	0c0f0000 22020000 00005b03 000c2d00     .......".[...-..
    2140:	01ce0100 00035804 05040500 004fe006     .....X........O.
    2150:	00004210 2d510100 0300000d 0000444f     .B....Q-....OD..
    2160:	1f2a0700 0c350000 4f030000 00000026     ..*...5....O&...
    2170:	001f4807 000d5f00 d1500300 07000000     .H..._....P.....
    2180:	00001f5b 00000d67 00625103 01080000     [...g....Qb.....
    2190:	000d6d55 f3520300 09000000 00001f6e     Um....R.....n...
    21a0:	00000d73 00d16d03 81090000 7700001f     s....m.........w
    21b0:	0300000d 0000f86c dc020000 5a000000     ....l..........Z
    21c0:	0400000d 00e10a36 ec020000 48000000     ....6..........H
    21d0:	0400000d 620c0b35 00000000 0000d10a     ....5..b........
    21e0:	00fd0a00 09030000 87000001 0500000d     ................
    21f0:	870d01e0 0800000d 0e01da05 00000d5f     ............_...
    2200:	000000d1 0001db05 00036e0e 00012c00     .........n...,..
    2210:	01df0500 05040f04 7d0e01dc 6200000d     ...........}...b
    2220:	05000000 0e0001dd 00000d82 00000026     ............&...
    2230:	0001de05 22000000 02000000 00084d00     .......".....M..
    2240:	28010400 2400002d a5100050 9b100050     ...(-..$P...P...
    2250:	5b00000d c4000000 01000000 00002280     ...[........."..
    2260:	61000200 04000008 002ee301 00033000     ...a.........0..
    2270:	00035610 000e0510 00005b00 0000c400     .V.......[......
    2280:	22800100 02000000 00087500 b0010400     ...".....u......
    2290:	8000002f 8310000a 6b10000a 5b00000e     /..........k...[
    22a0:	c4000000 01000000 00002280 89000200     ........."......
    22b0:	04000008 00304101 00080000 00096a10     .....A0......j..
    22c0:	000ecc10 00005b00 0000c400 22800100     .....[........."
    22d0:	02000000 00089d00 ab010400 80000032     ............2...
    22e0:	86100009 31100009 5b00000f c4000000     .......1...[....
    22f0:	01000000 00002280 b1000200 04000008     ....."..........
    2300:	00334201 0009c000 0009c610 000f3110     .B3..........1..
    2310:	00005b00 0000c400 22800100 02000000     .[........."....
    2320:	0008c500 d9010400 00000033 0610000a     ........3.......
    2330:	3110000a 5b00000f c4000000 01000000     ...1...[........
    2340:	00002280 d9000200 04000008 00347001     ."...........p4.
    2350:	0050a800 00516510 000f9210 00005b00     ..P..eQ......[..
    2360:	0000c400 22800100 02000000 0008ed00     ......."........
    2370:	51010400 68000036 e6100051 92100051     ...Q6..hQ...Q...
    2380:	5b00000f c4000000 01000000 00002280     ...[........."..
    2390:	01000200 04000009 0037cc01 0051e800     ..........7...Q.
    23a0:	00531110 000ffe10 00005b00 0000c400     ..S......[......
    23b0:	22800100 02000000 00091500 05010400     ..."............
    23c0:	1400003b 14100053 6b100054 5b000010     ;...S...T..k...[
    23d0:	c4000000 01000000 00002280 29000200     .........".....)
    23e0:	04000009 003d7f01 00596000 00597810     ......=..`Y..xY.
    23f0:	0010d710 00005b00 0000c400 22800100     .....[........."
    2400:	02000000 00093d00 47010400 7800003e     .....=.....G>..x
    2410:	b4100059 38100059 8e000011 c4000011     Y...Y..8........
    2420:	01000000 00005680 51000400 04000009     .....V.....Q....
    2430:	0002c901 f6000c00 4b000011 8e00003f     ...........K?...
    2440:	02000011 0000124c 0000002f 03054b02     ....L.../....K..
    2450:	10024060 00003b03 00520400 00800000     `@...;....R.....
    2460:	00004005 004b0600 125b0000 26010000     .@....K...[....&
    2470:	00061d07 08020700 00001264               ........d......

Disassembly of section .debug_abbrev:

00000000 <.debug_abbrev>:
   0:	10001101 12011106 1b0e0301 130e250e     .............%..
  10:	00000005 10001101 12011106 1b0e0301     ................
  20:	130e250e 00000005 10001101 12011106     .%..............
  30:	1b0e0301 130e250e 00000005 10001101     .....%..........
  40:	12011106 1b0e0301 130e250e 00000005     .........%......
  50:	10001101 12011106 1b0e0301 130e250e     .............%..
  60:	00000005 10001101 12011106 1b0e0301     ................
  70:	130e250e 00000005 25011101 0305130e     .%.........%....
  80:	1b17100e 1201110e 02000006 13490016     ..............I.
  90:	0b3a0e03 00000b3b 03002403 0b0b3e0e     ..:.;....$...>..
  a0:	0400000b 0111012e 18400612 03194297     ..........@..B..
  b0:	3b0b3a0e 49192705 00193f13 00050500     .:.;.'.I.?......
  c0:	0e031702 053b0b3a 00001349 02003406     ....:.;.I....4..
  d0:	3a0e0317 49053b0b 07000013 13490026     ...:.;.I....&.I.
  e0:	16080000 03134900 3b0b3a0e 09000005     .....I...:.;....
  f0:	0b0b0117 053b0b3a 0d0a0000 490e0300     ....:.;........I
 100:	3b0b3a13 000b3805 01130b00 0b0b0e03     .:.;.8..........
 110:	053b0b3a 01000000 0e250111 0e030513     :.;.......%.....
 120:	0e1b1710 06120111 0f020000 00134900     .............I..
 130:	00160300 0e031349 0b3b0b3a 24040000     ....I...:.;....$
 140:	3e0e0300 000b0b0b 012e0500 0b3a0e03     ...>..........:.
 150:	1927053b 13490b36 00000b20 03000506     ;.'.6.I. .......
 160:	3b0b3a0e 00134905 00340700 0b3a0e03     .:.;.I....4...:.
 170:	1349053b 0b080000 09000001 13490026     ;.I.........&.I.
 180:	160a0000 03134900 3b0b3a0e 0b000005     .....I...:.;....
 190:	0b0b0117 053b0b3a 0d0c0000 490e0300     ....:.;........I
 1a0:	3b0b3a13 000b3805 01130d00 0b0b0e03     .:.;.8..........
 1b0:	053b0b3a 2e0e0000 12011101 97184006     :.;..........@..
 1c0:	0e031942 053b0b3a 13491927 0000193f     B...:.;.'.I.?...
 1d0:	0200050f 3a0e0317 49053b0b 10000013     .......:.;.I....
 1e0:	1331011d 0b581755 0b570559 05110000     ..1.U.X.Y.W.....
 1f0:	31170200 12000013 17020034 00001331     ...1....4...1...
 200:	11010b13 00061201 010b1400 00001755     ............U...
 210:	01110100 05130e25 17100e03 01110e1b     ....%...........
 220:	00000612 49010402 3a0b0b13 000b3b0b     .......I...:.;..
 230:	00280300 0f1c0e03 24040000 3e0e0300     ..(........$...>
 240:	000b0b0b 00160500 0e031349 0b3b0b3a     ........I...:.;.
 250:	2e060000 3a0e0301 27053b0b 20134919     .......:.;.'.I. 
 260:	0700000b 0e030005 053b0b3a 00001349     ........:.;.I...
 270:	0b011308 3b0b3a0b 0f01880b 0d090000     .....:.;........
 280:	490e0300 3b0b3a13 000b380b 012e0a00     ...I.:.;.8......
 290:	0b3a0e03 1927053b 00000b20 0300340b     ..:.;.'. ....4..
 2a0:	3b0b3a0e 00134905 000f0c00 00001349     .:.;.I......I...
 2b0:	03012e0d 3b0b3a0e 3619270b 000b200b     .....:.;.'.6. ..
 2c0:	00050e00 0b3a0e03 13490b3b 340f0000     ......:.;.I....4
 2d0:	3a0e0300 490b3b0b 10000013 0e03012e     ...:.;.I........
 2e0:	053b0b3a 0b361927 00000b20 03012e11     :.;.'.6. .......
 2f0:	3b0b3a0e 36192705 2013490b 1200000b     .:.;.'.6.I. ....
 300:	0e03012e 0b3b0b3a 0b201927 2e130000     ....:.;.'. .....
 310:	12011101 97184006 0e031942 053b0b3a     .....@..B...:.;.
 320:	13491927 0000193f 02003414 3a0e0317     '.I.?....4.....:
 330:	49053b0b 15000013 1331011d 06120111     .;.I......1.....
 340:	05590b58 00000b57 02000516 00133117     X.Y.W........1..
 350:	001d1700 01111331 0b580612 0b570559     ....1.....X.Y.W.
 360:	05180000 31180200 19000013 0d1c0005     .......1........
 370:	00001331 1c00051a 0013310f 00341b00     1........1....4.
 380:	13311702 0a1c0000 3a0e0300 11053b0b     ..1........:.;..
 390:	1d000001 1331011d 0b581755 0b570559     ......1.U.X.Y.W.
 3a0:	341e0000 00133100 00341f00 13311802     ...4.1....4...1.
 3b0:	01000000 06100011 01120111 0e1b0e03     ................
 3c0:	05130e25 01000000 0e250111 0e030513     %.........%.....
 3d0:	0e1b1710 34020000 490e0300 3a193f13     .......4...I.?.:
 3e0:	020b3b0b 03000018 13490016 0b3a0e03     .;........I...:.
 3f0:	00000b3b 03002404 0b0b3e0e 0000000b     ;....$...>......
 400:	25011101 0305130e 1b17100e 1201110e     ...%............
 410:	02000006 13490104 0b3a0b0b 00000b3b     ......I...:.;...
 420:	03002803 000f1c0e 00240400 0b3e0e03     .(........$...>.
 430:	00000b0b 49001605 3a0e0313 000b3b0b     .......I...:.;..
 440:	012e0600 0b3a0e03 19270b3b 0b201349     ......:.;.'.I. .
 450:	05070000 3a0e0300 490b3b0b 08000013     .......:.;.I....
 460:	0b0b0113 0b3b0b3a 000f0188 000d0900     ....:.;.........
 470:	13490e03 0b3b0b3a 00000b38 03012e0a     ..I.:.;.8.......
 480:	3b0b3a0e 2019270b 0b00000b 0e03012e     .:.;.'. ........
 490:	053b0b3a 13491927 00000b20 0300050c     :.;.'.I. .......
 4a0:	3b0b3a0e 00134905 012e0d00 06120111     .:.;.I..........
 4b0:	42971840 3a0e0319 27053b0b 3f134919     @..B...:.;.'.I.?
 4c0:	0e000019 17020005 0b3a0e03 1349053b     ..........:.;.I.
 4d0:	340f0000 03170200 3b0b3a0e 00134905     ...4.....:.;.I..
 4e0:	00341000 0b3a0e03 1349053b 1d110000     ..4...:.;.I.....
 4f0:	11133101 58061201 5705590b 1200000b     .1.....X.Y.W....
 500:	17020005 00001331 1c000513 0013310d     ....1........1..
 510:	000a1400 0b3a0e03 0111053b 05150000     ......:.;.......
 520:	31180200 16000013 0e03012e 053b0b3a     ...1........:.;.
 530:	0b361927 0b201349 34170000 3a0e0300     '.6.I. ....4...:
 540:	490b3b0b 18000013 1349000f 2e190000     .;.I......I.....
 550:	3a0e0301 27053b0b 200b3619 1a00000b     ...:.;.'.6. ....
 560:	0d1c0034 0b3a0e03 1349053b 341b0000     4.....:.;.I....4
 570:	030f1c00 3b0b3a0e 00134905 011d1c00     .....:.;.I......
 580:	17551331 05590b58 00000b57 0200341d     1.U.X.Y.W....4..
 590:	00133117 001d1e00 01111331 0b580612     .1......1.....X.
 5a0:	0b570559 051f0000 310f1c00 20000013     Y.W........1... 
 5b0:	18020034 00001331 01110100 05130e25     4...1.......%...
 5c0:	17100e03 01110e1b 00000612 49001602     ...............I
 5d0:	3a0e0313 000b3b0b 00240300 0b3e0e03     ...:.;....$...>.
 5e0:	00000b0b 03012e04 3b0b3a0e 20192705     .........:.;.'. 
 5f0:	0500000b 0e030005 053b0b3a 00001349     ........:.;.I...
 600:	03003406 3b0b3a0e 00134905 000f0700     .4...:.;.I......
 610:	00001349 11012e08 40061201 19429718     I..........@..B.
 620:	0b3a0e03 1927053b 193f1349 05090000     ..:.;.'.I.?.....
 630:	03170200 3b0b3a0e 00134905 00340a00     .....:.;.I....4.
 640:	0e031702 053b0b3a 00001349 31011d0b     ....:.;.I......1
 650:	12011113 590b5806 000b5705 00050c00     .....X.Y.W......
 660:	13311802 340d0000 31180200 0e000013     ..1....4...1....
 670:	17020034 00001331 0200050f 00133117     4...1........1..
 680:	11010000 11061000 03011201 250e1b0e     ...............%
 690:	0005130e 11010000 11061000 03011201     ................
 6a0:	250e1b0e 0005130e 11010000 130e2501     ...%.........%..
 6b0:	100e0305 110e1b17 00061201 00160200     ................
 6c0:	0e031349 0b3b0b3a 16030000 03134900     I...:.;......I..
 6d0:	3b0b3a0e 04000005 0e030024 0b0b0b3e     .:.;....$...>...
 6e0:	2e050000 12011101 97184006 0e031942     .........@..B...
 6f0:	0b3b0b3a 13491927 0000193f 02000506     :.;.'.I.?.......
 700:	3a0e0317 490b3b0b 07000013 17020034     ...:.;.I....4...
 710:	0b3a0e03 13490b3b 01000000 0e250111     ..:.;.I.......%.
 720:	0e030513 0e1b1710 06120111 16020000     ................
 730:	03134900 3b0b3a0e 0300000b 13490016     .I...:.;......I.
 740:	0b3a0e03 0000053b 03002404 0b0b3e0e     ..:.;....$...>..
 750:	0500000b 0111012e 18400612 03194297     ..........@..B..
 760:	3b0b3a0e 4919270b 00193f13 00050600     .:.;.'.I.?......
 770:	0e031702 0b3b0b3a 00001349 02003407     ....:.;.I....4..
 780:	3a0e0317 490b3b0b 00000013 25011101     ...:.;.I.......%
 790:	0305130e 1b17100e 1201110e 02000006     ................
 7a0:	13490016 0b3a0e03 00000b3b 49001603     ..I...:.;......I
 7b0:	3a0e0313 00053b0b 00240400 0b3e0e03     ...:.;....$...>.
 7c0:	00000b0b 00000f05 012e0600 06120111     ................
 7d0:	42971840 3a0e0319 270b3b0b 3f134919     @..B...:.;.'.I.?
 7e0:	07000019 17020005 0b3a0e03 13490b3b     ..........:.;.I.
 7f0:	05080000 03180200 3b0b3a0e 0013490b     .........:.;.I..
 800:	00340900 0e031702 0b3b0b3a 00001349     ..4.....:.;.I...
 810:	49000f0a 0b000013 19270115 050c0000     ...I......'.....
 820:	00134900 01130d00 0b0b0e03 053b0b3a     .I..........:.;.
 830:	0d0e0000 490e0300 3b0b3a13 000b3805     .......I.:.;.8..
 840:	01170f00 0b3a0b0b 0000053b 00110100     ......:.;.......
 850:	01110610 0e030112 0e250e1b 00000513     ..........%.....
 860:	00110100 01110610 0e030112 0e250e1b     ..............%.
 870:	00000513 00110100 01110610 0e030112     ................
 880:	0e250e1b 00000513 00110100 01110610     ..%.............
 890:	0e030112 0e250e1b 00000513 00110100     ......%.........
 8a0:	01110610 0e030112 0e250e1b 00000513     ..........%.....
 8b0:	00110100 01110610 0e030112 0e250e1b     ..............%.
 8c0:	00000513 00110100 01110610 0e030112     ................
 8d0:	0e250e1b 00000513 00110100 01110610     ..%.............
 8e0:	0e030112 0e250e1b 00000513 00110100     ......%.........
 8f0:	01110610 0e030112 0e250e1b 00000513     ..........%.....
 900:	00110100 01110610 0e030112 0e250e1b     ..............%.
 910:	00000513 00110100 01110610 0e030112     ................
 920:	0e250e1b 00000513 00110100 01110610     ..%.............
 930:	0e030112 0e250e1b 00000513 00110100     ......%.........
 940:	01110610 0e030112 0e250e1b 00000513     ..........%.....
 950:	01110100 05130e25 17100e03 00000e1b     ....%...........
 960:	03003402 3f13490e 3b0b3a19 0018020b     .4...I.?.:.;....
 970:	01010300 00001349 49002104 000b3713     ....I....!.I.7..
 980:	00260500 00001349 49001606 3a0e0313     ..&.I......I...:
 990:	000b3b0b 00240700 0b3e0e03 00000b0b     .;....$...>.....
 9a0:	03002408 3e0b0b0e 0000000b              .$.....>....

Disassembly of section .debug_line:

00000000 <.debug_line>:
       0:	000000e2 00710003 01010000 000d0efb     ......q.........
      10:	01010101 01000000 2f010000 656d6f68     .........../home
      20:	6770782f 74737563 6572742f 4a522f65     /xpgcust/tree/RJ
      30:	3230322d 2f322e33 742f6274 736c6f6f     -2023.2/tb/tools
      40:	7477732f 736c6f6f 3638782d 2d34365f     /swtools-x86_64-
      50:	756e696c 74782f78 61736e65 666c652d     linux/xtensa-elf
      60:	6372732f 6f74782f 63000073 2d317472     /src/xtos..crt1-
      70:	796e6974 0100532e 00000000 0e380205     tiny.S........8.
      80:	c4031000 01030100 01000309 03090e03     ................
      90:	01030100 01000309 03090203 0a030100     ................
      a0:	01000309 03090103 01030100 01000509     ................
      b0:	03090103 01030100 01000209 02090103     ................
      c0:	08030100 01000309 03090a03 01030100     ................
      d0:	01000209 03090303 02030100 01000309     ................
      e0:	00000309 03440101 00030000 00000069     ......D.....i...
      f0:	0efb0101 0101000d 00000101 00000100     ................
     100:	6f682f01 782f656d 75636770 742f7473     ./home/xpgcust/t
     110:	2f656572 322d4a52 2e333230 62742f32     ree/RJ-2023.2/tb
     120:	7234702f 2f746f6f 6e657458 542f6173     /p4root/Xtensa/T
     130:	65677261 696c2d74 782f7362 62696c63     arget-libs/xclib
     140:	6e65742f 696c6973 00006163 636d656d     /tensilica..memc
     150:	532e7970 00000100 02050000 100056ad     py.S.........V..
     160:	0100cf03 03090503 01030100 01000309     ................
     170:	02090103 01030100 01000309 02090403     ................
     180:	09030100 01000209 03090303 01030100     ................
     190:	01000309 02090103 01030100 01000209     ................
     1a0:	03090103 03030100 01000209 03090503     ................
     1b0:	03030100 01000309 03090103 01030100     ................
     1c0:	01000309 02090103 01030100 01000309     ................
     1d0:	03090103 01030100 01000309 02090303     ................
     1e0:	07030100 01000409 03090303 01030100     ................
     1f0:	01000309 03090103 04030100 01000309     ................
     200:	03090303 01030100 01000309 03090403     ................
     210:	06030100 01000309 02090103 01030100     ................
     220:	01000209 02090103 02030100 01000209     ................
     230:	02090103 01030100 01000209 02090103     ................
     240:	01030100 01000309 02090103 06030100     ................
     250:	01000309 03090303 01030100 01000209     ................
     260:	02090103 01030100 01000209 02090103     ................
     270:	01030100 01000209 02090203 01030100     ................
     280:	01000309 03090103 01030100 01000309     ................
     290:	02090403 01030100 01000209 02090103     ................
     2a0:	01030100 01000209 02090103 01030100     ................
     2b0:	01000309 03090103 03030100 01000209     ................
     2c0:	03090103 01030100 01000209 03090103     ................
     2d0:	01030100 01000209 03090103 03030100     ................
     2e0:	01000209 03090103 03030100 01000309     ................
     2f0:	03090803 04030100 01000309 03090203     ................
     300:	01030100 01000309 03090203 02030100     ................
     310:	01000209 03090603 01030100 01000209     ................
     320:	02090103 01030100 01000309 02090103     ................
     330:	01030100 01000209 03090103 01030100     ................
     340:	01000209 02090103 01030100 01000309     ................
     350:	02090103 01030100 01000309 03090103     ................
     360:	01030100 01000209 03090503 03030100     ................
     370:	01000309 02090103 01030100 01000209     ................
     380:	03090103 01030100 01000209 02090103     ................
     390:	01030100 01000309 02090103 01030100     ................
     3a0:	01000209 02090203 03030100 01000309     ................
     3b0:	02090103 01030100 01000209 03090103     ................
     3c0:	01030100 01000209 02090103 03030100     ................
     3d0:	01000209 02090203 01030100 01000309     ................
     3e0:	03090103 03030100 01000209 03090103     ................
     3f0:	01030100 01000309 02090103 01030100     ................
     400:	01000309 03090103 01030100 01000209     ................
     410:	03090103 03030100 01000209 03090103     ................
     420:	01030100 01000309 00000209 017c0101     ..............|.
     430:	00030000 00000069 0efb0101 0101000d     ....i...........
     440:	00000101 00000100 6f682f01 782f656d     ........./home/x
     450:	75636770 742f7473 2f656572 322d4a52     pgcust/tree/RJ-2
     460:	2e333230 62742f32 7234702f 2f746f6f     023.2/tb/p4root/
     470:	6e657458 542f6173 65677261 696c2d74     Xtensa/Target-li
     480:	782f7362 62696c63 6e65742f 696c6973     bs/xclib/tensili
     490:	00006163 736d656d 532e7465 00000100     ca..memset.S....
     4a0:	02050000 100057ed 0100c503 03090503     .....W..........
     4b0:	01030100 01000309 02090403 0a030100     ................
     4c0:	01000309 03090303 01030100 01000309     ................
     4d0:	02090103 03030100 01000209 03090503     ................
     4e0:	03030100 01000309 03090103 01030100     ................
     4f0:	01000209 03090303 07030100 01000409     ................
     500:	03090403 01030100 01000309 03090103     ................
     510:	01030100 01000309 03090103 02030100     ................
     520:	01000309 02090303 01030100 01000309     ................
     530:	03090403 04030100 01000309 03090703     ................
     540:	01030100 01000209 02090103 01030100     ................
     550:	01000209 02090103 06030100 01000309     ................
     560:	03090303 01030100 01000209 02090103     ................
     570:	02030100 01000209 03090303 01030100     ................
     580:	01000209 02090203 03030100 01000309     ................
     590:	03090103 02030100 01000209 03090303     ................
     5a0:	01030100 01000309 00000209 06090101     ................
     5b0:	00030000 00000086 0efb0101 0101000d     ................
     5c0:	00000101 00000100 6f682f01 782f656d     ........./home/x
     5d0:	75636770 742f7473 2f656572 322d4a52     pgcust/tree/RJ-2
     5e0:	2e333230 62742f32 6f6f742f 732f736c     023.2/tb/tools/s
     5f0:	6f6f7477 782d736c 365f3638 696c2d34     wtools-x86_64-li
     600:	2f78756e 6e657478 652d6173 732f666c     nux/xtensa-elf/s
     610:	6c2f6372 63676269 63782d63 6f632f63     rc/libgcc-xcc/co
     620:	6769666e 6574782f 0061736e 65656900     nfig/xtensa..iee
     630:	34353765 2e66642d 00010053 05000000     e754-df.S.......
     640:	00444802 0ef10310 09010301 03010003     .HD.............
     650:	00030903 09010301 03010003 00030903     ................
     660:	09010301 03010002 00030901 09010301     ................
     670:	03010003 00030901 09010301 03010003     ................
     680:	00030901 09010301 03010002 00030901     ................
     690:	09020301 03010003 00030901 09010301     ................
     6a0:	03010003 00020901 09010301 03010003     ................
     6b0:	00030901 09010301 03010003 00030901     ................
     6c0:	09010301 03010002 00050902 09010301     ................
     6d0:	03010003 00030901 09040301 03010003     ................
     6e0:	00030901 09030301 03010003 00030901     ................
     6f0:	09030301 03010002 00020901 09010301     ................
     700:	03010003 00030901 09010301 03010003     ................
     710:	00030901 09010301 03010003 00020901     ................
     720:	09010301 03010003 00030902 09010301     ................
     730:	03010003 00030901 09010301 03010002     ................
     740:	00030901 09010301 03010003 00030901     ................
     750:	09010301 03010003 00020901 09020301     ................
     760:	03010005 00030901 09010301 03010003     ................
     770:	00030904 09010301 03010003 00030901     ................
     780:	09010301 03010002 00050904 09010301     ................
     790:	03010002 00030901 09030301 03010002     ................
     7a0:	00030901 09010301 03010003 00030901     ................
     7b0:	09030301 03010002 00020901 09030301     ................
     7c0:	03010002 00030901 09010301 03010003     ................
     7d0:	00020902 09010301 03010003 00030901     ................
     7e0:	09010301 03010003 00030901 09040301     ................
     7f0:	03010005 00030901 09010301 03010003     ................
     800:	00030901 09030301 03010002 00030901     ................
     810:	09010301 03010003 00060912 09020301     ................
     820:	03010003 00030903 09030301 03010003     ................
     830:	00030901 09030301 03010003 00030901     ................
     840:	09020301 03010003 00030902 09040301     ................
     850:	03010003 00020903 09010301 03010003     ................
     860:	00030901 09010301 03010003 00030901     ................
     870:	00d40301 01000309 02091103 01030100     ................
     880:	01000309 03090103 01030100 01000309     ................
     890:	0900ca03 03010003 00030901 09010301     ................
     8a0:	03010003 00020901 09010301 03010002     ................
     8b0:	00030901 09040301 03010002 00030901     ................
     8c0:	09030301 03010003 00030901 09010301     ................
     8d0:	03010003 00020901 09010301 03010003     ................
     8e0:	00030907 097f0301 03010003 00020902     ................
     8f0:	09010301 03010002 00030901 09020301     ................
     900:	03010002 00030901 09010301 03010003     ................
     910:	00030901 09020301 03010002 00030901     ................
     920:	09010301 03010002 00030901 09030301     ................
     930:	03010002 00020901 09010301 03010002     ................
     940:	00030903 09010301 03010003 00030901     ................
     950:	09010301 03010002 00020901 09010301     ................
     960:	03010003 00030902 09010301 03010003     ................
     970:	00030901 09010301 03010003 00020902     ................
     980:	09010301 03010006 00020901 09010301     ................
     990:	03010003 00020903 09010301 03010003     ................
     9a0:	00020901 09010301 03010003 00020901     ................
     9b0:	09010301 03010003 00030904 097f0301     ................
     9c0:	03010003 00020902 09010301 03010002     ................
     9d0:	00030901 09020301 03010002 00030901     ................
     9e0:	09010301 03010003 00030901 09020301     ................
     9f0:	03010003 00060901 09010301 03010003     ................
     a00:	00030901 09030301 03010003 00030901     ................
     a10:	09010301 03010003 00020901 09010301     ................
     a20:	03010003 00030901 09030301 03010003     ................
     a30:	00030901 09010301 03010002 00030901     ................
     a40:	09010301 03010002 00030901 09030301     ................
     a50:	03010003 00030904 097d0301 03010002     ..........}.....
     a60:	00020912 097f0301 03010003 00020902     ................
     a70:	09010301 03010002 00020901 09010301     ................
     a80:	03010003 00030901 09010301 03010003     ................
     a90:	00030901 09050301 03010003 00030901     ................
     aa0:	09040301 03010003 00030901 09040301     ................
     ab0:	03010003 00030901 09010301 03010002     ................
     ac0:	00020901 09010301 03010003 00020904     ................
     ad0:	09010301 03010003 00020904 09010301     ................
     ae0:	03010003 00030901 090a0301 03010003     ................
     af0:	00020904 09010301 03010003 00030901     ................
     b00:	09050301 03010003 00020902 09030301     ................
     b10:	03010005 00030902 09010301 03010002     ................
     b20:	00030901 09010301 03010002 00030906     ................
     b30:	09010301 03010003 00020901 09010301     ................
     b40:	03010003 00030905 09010301 03010003     ................
     b50:	00030901 09010301 03010003 00030903     ................
     b60:	09010301 03010003 00030901 09010301     ................
     b70:	03010003 00030901 09010301 03010002     ................
     b80:	00030903 09030301 03010002 00030901     ................
     b90:	09010301 03010002 00030901 09040301     ................
     ba0:	03010005 00030901 09010301 03010003     ................
     bb0:	00020901 00030901 93010100 03000001     ................
     bc0:	00008600 fb010100 01000d0e 00010101     ................
     bd0:	00010000 682f0100 2f656d6f 63677078     ....../home/xpgc
     be0:	2f747375 65657274 2d4a522f 33323032     ust/tree/RJ-2023
     bf0:	742f322e 6f742f62 2f736c6f 6f747773     .2/tb/tools/swto
     c00:	2d736c6f 5f363878 6c2d3436 78756e69     ols-x86_64-linux
     c10:	6574782f 2d61736e 2f666c65 2f637273     /xtensa-elf/src/
     c20:	6762696c 782d6363 632f6363 69666e6f     libgcc-xcc/confi
     c30:	74782f67 61736e65 65690000 35376565     g/xtensa..ieee75
     c40:	66642d34 0100532e 00000000 46d80205     4-df.S.........F
     c50:	b5031000 0703011a 01000309 03090103     ................
     c60:	03030100 01000309 03090103 01030100     ................
     c70:	01000309 03090103 01030100 01000309     ................
     c80:	03090303 01030100 01000309 03090103     ................
     c90:	01030100 01000309 03090303 01030100     ................
     ca0:	01000209 03090103 01030100 01000309     ................
     cb0:	03090103 01030100 01000309 02090403     ................
     cc0:	01030100 01000309 03090103 01030100     ................
     cd0:	01000309 02090103 01030100 01000209     ................
     ce0:	03090303 01030100 01000309 03090103     ................
     cf0:	04030100 01000309 03090103 01030100     ................
     d00:	01000309 02090303 01030100 01000209     ................
     d10:	02090103 03030100 01000409 03090103     ................
     d20:	01030100 01000309 02090103 03030100     ................
     d30:	01000309 02090103 01030100 01000209     ................
     d40:	04090403 01030100 01000309 00000209     ................
     d50:	011b0101 00030000 00000086 0efb0101     ................
     d60:	0101000d 00000101 00000100 6f682f01     ............./ho
     d70:	782f656d 75636770 742f7473 2f656572     me/xpgcust/tree/
     d80:	322d4a52 2e333230 62742f32 6f6f742f     RJ-2023.2/tb/too
     d90:	732f736c 6f6f7477 782d736c 365f3638     ls/swtools-x86_6
     da0:	696c2d34 2f78756e 6e657478 652d6173     4-linux/xtensa-e
     db0:	732f666c 6c2f6372 63676269 63782d63     lf/src/libgcc-xc
     dc0:	6f632f63 6769666e 6574782f 0061736e     c/config/xtensa.
     dd0:	65656900 34353765 2e66642d 00010053     .ieee754-df.S...
     de0:	05000000 00586002 1b850310 09010301     .....`X.........
     df0:	03010003 00020903 09010301 03010002     ................
     e00:	00050906 09030301 03010003 00020903     ................
     e10:	09040301 03010003 00030908 09010301     ................
     e20:	03010003 00030901 09030301 03010003     ................
     e30:	00030901 09030301 03010003 00030901     ................
     e40:	09010301 03010003 00030901 09030301     ................
     e50:	03010002 00030901 09040301 03010003     ................
     e60:	00020903 09040301 09010002 01000002     ................
     e70:	0000d401 82000300 01000000 0d0efb01     ................
     e80:	01010100 00000001 01000001 6d6f682f     ............/hom
     e90:	70782f65 73756367 72742f74 522f6565     e/xpgcust/tree/R
     ea0:	30322d4a 322e3332 2f62742f 6c6f6f74     J-2023.2/tb/tool
     eb0:	77732f73 6c6f6f74 38782d73 34365f36     s/swtools-x86_64
     ec0:	6e696c2d 782f7875 736e6574 6c652d61     -linux/xtensa-el
     ed0:	72732f66 696c2f63 63636762 6363782d     f/src/libgcc-xcc
     ee0:	696c0000 63636762 00682e32 6c000001     ..libgcc2.h....l
     ef0:	63676269 632e3263 00000100 00020400     ibgcc2.c........
     f00:	47500205 94031000 16050104 0903030a     ..PG............
     f10:	05010003 09020322 05010009 0901031e     ...."...........
     f20:	05010003 097d0316 05010003 09030309     ......}.........
     f30:	05010003 097f030c 05010002 09030303     ................
     f40:	09010002 01000002 00034701 82000300     .........G......
     f50:	01000000 0d0efb01 01010100 00000001     ................
     f60:	01000001 6d6f682f 70782f65 73756367     ..../home/xpgcus
     f70:	72742f74 522f6565 30322d4a 322e3332     t/tree/RJ-2023.2
     f80:	2f62742f 6c6f6f74 77732f73 6c6f6f74     /tb/tools/swtool
     f90:	38782d73 34365f36 6e696c2d 782f7875     s-x86_64-linux/x
     fa0:	736e6574 6c652d61 72732f66 696c2f63     tensa-elf/src/li
     fb0:	63636762 6363782d 696c0000 63636762     bgcc-xcc..libgcc
     fc0:	00682e32 6c000001 63676269 632e3263     2.h....libgcc2.c
     fd0:	00000100 00020400 476c0205 9b031000     ..........lG....
     fe0:	07050109 7e9e030a 01000509 cc030b05     .......~........
     ff0:	00070900 03040501 00060913 03080501     ................
    1000:	00030901 03110501 00050922 03180501     ........".......
    1010:	0003097e 03110501 00030902 061e0501     ~...............
    1020:	03090003 10050100 09010306 03010006     ................
    1030:	00060901 03180501 0003097e 03100501     ........~.......
    1040:	00030902 03080501 00030904 03110501     ................
    1050:	0003097d 03080501 00030903 03110501     }...............
    1060:	0003097d 061e0501 03090003 10050100     }...............
    1070:	09010306 0501000c 097f0318 05010003     ................
    1080:	09030308 06010003 10090003 00030100     ................
    1090:	01000309 0a090003 00030100 01000609     ................
    10a0:	19090003 00030100 01000309 0a090003     ................
    10b0:	00030100 01000609 09010306 06010009     ................
    10c0:	05090003 14050100 09020306 05010006     ................
    10d0:	00030621 01000309 03060705 00060902     !...............
    10e0:	03030501 020900d6 0b050100 097e9f03     ..............~.
    10f0:	05010007 09060308 05010006 09060318     ................
    1100:	05010006 097f0310 05010003 09010318     ................
    1110:	05010003 097f0310 05010006 09010318     ................
    1120:	05010003 09010310 05010009 097f0318     ................
    1130:	05010003 09010310 05010003 09030304     ................
    1140:	06010003 0f090003 00030100 01000d09     ................
    1150:	03090003 00030100 01000b09 06090003     ................
    1160:	00030100 01000909 11090003 00030100     ................
    1170:	01001209 03060305 080901d1 08050100     ................
    1180:	097ebd03 05010004 09120310 05010005     ..~.............
    1190:	097e0318 05010003 09020310 03010003     ..~.............
    11a0:	00030901 03080501 00060904 03110501     ................
    11b0:	0003097d 03080501 00030903 03110501     }...............
    11c0:	0005097d 061e0501 03090003 08050100     }...............
    11d0:	09030306 0501000c 097e0310 05010003     ..........~.....
    11e0:	097f0318 05010003 09030308 06010006     ................
    11f0:	0d090003 00030100 01000309 0a090003     ................
    1200:	00030100 01000509 19090003 00030100     ................
    1210:	01000309 0a090003 00030100 01000509     ................
    1220:	06090003 0f050100 09330306 0501000f     ..........3.....
    1230:	00030614 01000609 03060305 030900f9     ................
    1240:	0b050100 097ec603 05010007 09130304     ......~.........
    1250:	06010003 05090003 00030100 01000c09     ................
    1260:	0d090003 00030100 01000309 0a090003     ................
    1270:	00030100 01000509 1a090003 00030100     ................
    1280:	01001209 03060305 060901a7 04090100     ................
    1290:	01010000 00000846 00da0003 01010000     ....F...........
    12a0:	000d0efb 01010101 01000000 2f010000     .............../
    12b0:	656d6f68 6770782f 74737563 6572742f     home/xpgcust/tre
    12c0:	4a522f65 3230322d 2f322e33 742f6274     e/RJ-2023.2/tb/t
    12d0:	736c6f6f 7477732f 736c6f6f 3638782d     ools/swtools-x86
    12e0:	2d34365f 756e696c 74782f78 61736e65     _64-linux/xtensa
    12f0:	666c652d 6372732f 62696c2f 2d636367     -elf/src/libgcc-
    1300:	2f636378 666e6f63 782f6769 736e6574     xcc/config/xtens
    1310:	6f732f61 6c667466 0074616f 666f7300     a/softfloat..sof
    1320:	6f6c6674 682e7461 00000100 74666f73     tfloat.h....soft
    1330:	616f6c66 70732d74 61696365 657a696c     float-specialize
    1340:	0100682e 696d0000 7565696c 0100682e     .h....milieu.h..
    1350:	6f730000 6c667466 2e74616f 00010063     ..softfloat.c...
    1360:	666f7300 6f6c6674 6d2d7461 6f726361     .softfloat-macro
    1370:	00682e73 00000001 05000404 0049e002     s.h...........I.
    1380:	0edd0310 0a130501 05090f03 14050100     ................
    1390:	0973a103 0501000b 09750313 06010005     ..s.......u.....
    13a0:	03090003 1b050100 090b0306 05010003     ................
    13b0:	0cdf0313 01000309 01030a05 01000309     ................
    13c0:	01031405 01000309 03060e05 00030900     ................
    13d0:	01030601 01000509 01031805 01000609     ................
    13e0:	03061205 00030900 060a0501 0b090503     ................
    13f0:	03060100 00050900 06140501 03090103     ................
    1400:	0e050100 09000306 05010003 04030616     ................
    1410:	01001209 03060e05 00030900 060a0501     ................
    1420:	0973b703 04010003 03130505 030904b2     ..s.............
    1430:	04040100 db033305 0003097b 05050401     .....3..{.......
    1440:	09730305 05010003 0901030a 03010005     ..s.............
    1450:	00030901 05040401 090d0316 05010003     ................
    1460:	0cc7030a 01000609 05050504 0973aa03     ..............s.
    1470:	0401000a 031d0504 03090cdb 01030100     ................
    1480:	01000309 7e031105 01000309 0a050504     .......~........
    1490:	0973a803 06010003 03090003 03060100     ..s.............
    14a0:	0005097f 00030601 01000309 03061805     ................
    14b0:	030904f0 04040100 0907e903 05010006     ................
    14c0:	0903030a 04010003 03050505 0b0971ca     .............q..
    14d0:	07050100 03090203 04040100 b6030905     ................
    14e0:	0003090e 05050401 71cb0307 01000209     ...........q....
    14f0:	0d050404 090eb703 04010003 030c0505     ................
    1500:	100974e9 0e050100 03097803 07030100     .t.......x......
    1510:	01000309 01031e05 01000309 0d050404     ................
    1520:	090b9703 04010003 03230505 020974eb     ..........#..t..
    1530:	22050100 03097f03 0e050100 03097703     ...".........w..
    1540:	0c050100 03090803 0e050100 03090403     ................
    1550:	23050100 04097e03 22050100 03097f03     ...#.~....."....
    1560:	1d050100 03090203 0e050100 03090103     ................
    1570:	1c050100 05097c03 03060100 00050900     .....|..........
    1580:	06440501 03090503 0e050100 03097f03     ..D.............
    1590:	1d050100 04097f03 31050100 03090203     ...........1....
    15a0:	38050100 09000306 05010003 0103060e     ...8............
    15b0:	01000209 7f030805 01000309 01030e05     ................
    15c0:	01000209 01030805 01000309 09000306     ................
    15d0:	05010002 7e030631 01000209 03031005     ....1..~........
    15e0:	01000309 03060805 00030900 06440501     ..............D.
    15f0:	02097d03 0d050100 097ef703 05010003     .}........~.....
    1600:	01890308 01000209 09000306 05010004     ................
    1610:	09000331 05010006 03030610 01000309     1...............
    1620:	03060805 00030900 061d0501 097ef603     ..............~.
    1630:	05010004 00030616 01000309 03061405     ................
    1640:	030900d5 02030100 01000209 01030d05     ................
    1650:	01000309 7d031405 01000309 01030d05     .......}........
    1660:	01000309 03030805 01000309 03061005     ................
    1670:	00030900 06080501 03090203 7f030100     ................
    1680:	01000309 7a030d05 01000309 05050404     .......z........
    1690:	090bc803 05010003 0904030d 05010003     ................
    16a0:	09010312 0501000c 0003060a 01000309     ................
    16b0:	1e050504 74e10306 01000909 7f030e05     .......t........
    16c0:	01000809 01031c05 01000309 01032205     ............."..
    16d0:	01000309 01032305 01000209 7f032205     .....#......."..
    16e0:	01000309 7f031c05 01000309 01032205     ............."..
    16f0:	01000309 02031d05 01000709 01030e05     ................
    1700:	01000309 7e032305 01000209 03034405     .....#.~.....D..
    1710:	01000309 7e031d05 01000309 01030e05     .......~........
    1720:	01000309 01033805 01000309 7f030e05     .....8..........
    1730:	01000209 4f031405 01000209 32033105     .......O.....1.2
    1740:	01000209 09000306 05010003 02030608     ................
    1750:	01000209 09000306 05010002 7e030638     ............8..~
    1760:	01000209 03063105 00020900 03440501     .....1........D.
    1770:	00060900 060e0501 03090103 03060100     ................
    1780:	00030900 06310501 03097f03 08050100     ......1.........
    1790:	03090203 03060100 00020900 7e030601     ...............~
    17a0:	01000209 03031005 01000209 7d030805     ...............}
    17b0:	01000309 09000306 03010002 00020900     ................
    17c0:	09000301 06010003 02090303 0d050100     ................
    17d0:	097ef403 05010002 018c0310 01000209     ..~.............
    17e0:	03060805 00030900 06140501 02094b03     .............K..
    17f0:	16050100 097fab03 05010003 0003061d     ................
    1800:	01000309 03060d05 030900d6 14050100     ................
    1810:	03097f03 02030100 01000309 01030d05     ................
    1820:	01000309 01031005 01000309 03060805     ................
    1830:	00030900 060d0501 03097b03 08050100     .........{......
    1840:	03090703 7f030100 01000309 09050404     ................
    1850:	090bca03 05010003 0904031b 05010003     ................
    1860:	00030622 01000309 00032b05 01000309     "........+......
    1870:	00030f05 01000509 05050504 72bd0306     ...............r
    1880:	01000609 06031305 01000309 7c030d05     ...............|
    1890:	01000309 01030705 01000309 03031305     ................
    18a0:	01000309 7e030705 01000309 03090103     .......~........
    18b0:	05050100 03090103 04040100 c0030c05     ................
    18c0:	0003090d 03010501 000c0902 03220501     ..............".
    18d0:	090973b1 29050100 09000306 05010003     .s.....)........
    18e0:	cf030601 0004090c 05050401 73ef030d     ...............s
    18f0:	01000909 02090203 13050100 02097f03     ................
    1900:	02030100 01000309 02030805 01000309     ................
    1910:	02090103 10050100 09000306 05010002     ................
    1920:	01030608 01000309 09050404 090bfa03     ................
    1930:	05010002 09650319 05010008 00030621     ......e.....!...
    1940:	01000309 00031205 01000309 1b050204     ................
    1950:	71c70306 01000209 09000306 04010006     ...q............
    1960:	06220504 09029503 05010008 00030629     ..".........)...
    1970:	01000609 1b050204 7deb0306 01000409     ...........}....
    1980:	01050404 090ee403 04010003 031b0502     ................
    1990:	0209719c 04040100 e4030105 0013090e     .q..............
    19a0:	05050401 73ef030d 01000709 02090203     .......s........
    19b0:	13050100 02097f03 02030100 01000309     ................
    19c0:	02030805 01000309 02090103 10050100     ................
    19d0:	09000306 05010002 01030608 01000309     ................
    19e0:	0d050404 090c8203 04010002 03130505     ................
    19f0:	080977c5 04040100 cf033305 0005097b     .w.......3..{...
    1a00:	030e0501 00030901 03220501 00050901     ..........".....
    1a10:	061e0501 03090003 03060100 00060901     ................
    1a20:	09030301 05010009 09030321 0501000a     ........!.......
    1a30:	0ccc030a 01000309 01031605 01000309     ................
    1a40:	03060e05 00030900 060a0501 0973a903     ..............s.
    1a50:	04010002 03130505 020904b2 04040100     ................
    1a60:	db033305 0003097b 05050401 09730305     .3..{.........s.
    1a70:	05010003 0901030a 03010005 00030901     ................
    1a80:	05040401 090d0316 05010003 0ce60301     ................
    1a90:	01000d09 13050504 0977bd03 04010002     ..........w.....
    1aa0:	03330504 05097bcf 0e050100 03090103     ..3..{..........
    1ab0:	22050100 05090103 1e050100 09000306     ..."............
    1ac0:	06010003 06090103 03030100 01000909     ................
    1ad0:	03032105 01000a09 00000609 01110101     .!..............
    1ae0:	00030000 00000087 0efb0101 0101000d     ................
    1af0:	00000101 00000100 6f682f01 782f656d     ........./home/x
    1b00:	75636770 742f7473 2f656572 322d4a52     pgcust/tree/RJ-2
    1b10:	2e333230 62742f32 6f6f742f 732f736c     023.2/tb/tools/s
    1b20:	6f6f7477 782d736c 365f3638 696c2d34     wtools-x86_64-li
    1b30:	2f78756e 6e657478 652d6173 732f666c     nux/xtensa-elf/s
    1b40:	6c2f6372 63676269 63782d63 6f632f63     rc/libgcc-xcc/co
    1b50:	6769666e 6574782f 0061736e 62696c00     nfig/xtensa..lib
    1b60:	6e756631 612e7363 01006d73 00000000     1funcs.asm......
    1b70:	58a00205 8f031000 21030102 01000309     ...X.......!....
    1b80:	03090103 c6030100 00030900 09010301     ................
    1b90:	03010003 00030901 09010301 03010002     ................
    1ba0:	00020901 09010301 03010003 00030904     ................
    1bb0:	09010301 03010003 00030903 09010301     ................
    1bc0:	03010003 00030901 09010301 03010002     ................
    1bd0:	00030901 09030301 03010002 00030902     ................
    1be0:	097f0301 03010002 00020910 00020901     ................
    1bf0:	ac010100 03000000 0000a600 fb010100     ................
    1c00:	01000d0e 00010101 00010000 682f0100     ............../h
    1c10:	2f656d6f 63677078 2f747375 65657274     ome/xpgcust/tree
    1c20:	2d4a522f 33323032 742f322e 6f742f62     /RJ-2023.2/tb/to
    1c30:	2f736c6f 6f747773 2d736c6f 5f363878     ols/swtools-x86_
    1c40:	6c2d3436 78756e69 6574782f 2d61736e     64-linux/xtensa-
    1c50:	2f666c65 2f637273 6762696c 782d6363     elf/src/libgcc-x
    1c60:	632f6363 69666e6f 74782f67 61736e65     cc/config/xtensa
    1c70:	666f732f 6f6c6674 00007461 696c696d     /softfloat..mili
    1c80:	682e7565 00000100 74666f73 616f6c66     eu.h....softfloa
    1c90:	70732d74 61696365 657a696c 0100682e     t-specialize.h..
    1ca0:	ae000000 03000004 0000da00 fb010100     ................
    1cb0:	01000d0e 00010101 00010000 682f0100     ............../h
    1cc0:	2f656d6f 63677078 2f747375 65657274     ome/xpgcust/tree
    1cd0:	2d4a522f 33323032 742f322e 6f742f62     /RJ-2023.2/tb/to
    1ce0:	2f736c6f 6f747773 2d736c6f 5f363878     ols/swtools-x86_
    1cf0:	6c2d3436 78756e69 6574782f 2d61736e     64-linux/xtensa-
    1d00:	2f666c65 2f637273 6762696c 782d6363     elf/src/libgcc-x
    1d10:	632f6363 69666e6f 74782f67 61736e65     cc/config/xtensa
    1d20:	666f732f 6f6c6674 00007461 74666f73     /softfloat..soft
    1d30:	616f6c66 00682e74 6d000001 65696c69     float.h....milie
    1d40:	00682e75 73000001 6674666f 74616f6c     u.h....softfloat
    1d50:	6570732d 6c616963 2e657a69 00010068     -specialize.h...
    1d60:	666f7300 6f6c6674 6d2d7461 6f726361     .softfloat-macro
    1d70:	00682e73 73000001 6674666f 74616f6c     s.h....softfloat
    1d80:	0100632e 04000000 02050003 10004d3c     .c..........<M..
    1d90:	01029203 030a2d05 0a097fba 09050100     .....-..........
    1da0:	0c090103 14050100 09000306 05010003     ................
    1db0:	0900030e 05010006 09000314 05010003     ................
    1dc0:	0d030629 01000e09 01030905 01000a09     )...............
    1dd0:	03061405 00030900 030e0501 00050900     ................
    1de0:	03140501 00030900 062d0501 03097103     ..........-..q..
    1df0:	09050100 03090103 14050100 09000306     ................
    1e00:	05010003 0900030e 05010005 09000314     ................
    1e10:	05010003 0d030629 01000309 01030905     ....)...........
    1e20:	01000509 03061405 00030900 030e0501     ................
    1e30:	00050900 03140501 00030900 061a0501     ................
    1e40:	0900c003 05010005 0003060a 01000609     ................
    1e50:	03061b05 03097ea7 0a050100 0901da03     .....~..........
    1e60:	05010014 0901030e 05010002 09010310     ................
    1e70:	06010002 05090003 01050100 090d0306     ................
    1e80:	05010008 0975030f 05010006 0901031e     ......u.........
    1e90:	05010004 0003060e 01000c09 03061a05     ................
    1ea0:	00030902 062c0501 03090003 04040100     ......,.........
    1eb0:	03061805 0709058c 03040100 f4030e05     ................
    1ec0:	0003097a 00030601 01000709 03060105     z...............
    1ed0:	00030908 05040401 05840318 01000609     ................
    1ee0:	09000306 0401001a 06100503 097af603     ..............z.
    1ef0:	05010003 09060301 0401000b 03000505     ................
    1f00:	020900d5 13050100 0914030a 05010006     ................
    1f10:	0003060a 01000509 03060e05 00060902     ................
    1f20:	05030401 7dac031b 01000309 09000306     .......}........
    1f30:	04010006 06220505 09029503 05010008     ......".........
    1f40:	00030629 01000609 1b050304 7deb0306     )..............}
    1f50:	01000409 01050504 09038303 05010003     ................
    1f60:	09520313 03010008 00080901 030e0501     ..R.............
    1f70:	0014090c 03110501 000a0904 05040401     ................
    1f80:	0487032a 01000909 03062205 00030900     *........"......
    1f90:	032a0501 00090900 05050401 fc030626     ..*.........&...
    1fa0:	0006097b 05040401 7eb30305 01000309     {..........~....
    1fb0:	01030a05 01000309 01030d05 01000309     ................
    1fc0:	04031305 01000309 7d030705 01000209     ...........}....
    1fd0:	03031305 01000309 7e030705 01000309     ...........~....
    1fe0:	03090103 05050100 03090103 0e050100     ................
    1ff0:	06090303 11050100 03090103 0b050100     ................
    2000:	03090103 01030100 01000309 01031905     ................
    2010:	01000309 03062005 00030900 03090501     ..... ..........
    2020:	00050900 060b0501 08090303 16050100     ................
    2030:	03090303 0e050100 03097e03 08050100     .........~......
    2040:	03090103 22050100 03090103 1b050100     ......."........
    2050:	09000306 05010002 09000322 05010003     ........".......
    2060:	09000306 05010005 0303060f 01000609     ................
    2070:	03061405 00030900 031b0501 00030900     ................
    2080:	09000301 04010004 06190505 0901b903     ................
    2090:	04010008 031b0503 06097d95 05040100     .........}......
    20a0:	f9030a05 00120902 05030401 7d87031b     ...............}
    20b0:	01000209 09000306 04010008 060a0505     ................
    20c0:	0902fa03 05010009 09050316 05010003     ................
    20d0:	0003060e 01000309 03062605 000b097d     .........&..}...
    20e0:	05040401 7fb9030d 01000309 26050504     ...............&
    20f0:	0900c703 04010002 031d0504 03097fbb     ................
    2100:	05040100 c5030f05 00030900 05040401     ................
    2110:	7fbb0316 01000309 0f050504 0900c503     ................
    2120:	05010002 7f990322 01000309 03063e05     ...."........>..
    2130:	00030900 03290501 00030900 03450501     ......).......E.
    2140:	00020900 06010501 0900ee03 09010002     ................
    2150:	01000004 0001aa01 a2000300 01000000     ................
    2160:	0d0efb01 01010100 00000001 01000001     ................
    2170:	6d6f682f 70782f65 73756367 72742f74     /home/xpgcust/tr
    2180:	522f6565 30322d4a 322e3332 2f62742f     ee/RJ-2023.2/tb/
    2190:	6c6f6f74 77732f73 6c6f6f74 38782d73     tools/swtools-x8
    21a0:	34365f36 6e696c2d 782f7875 736e6574     6_64-linux/xtens
    21b0:	6c652d61 72732f66 696c2f63 63636762     a-elf/src/libgcc
    21c0:	6363782d 6e6f632f 2f676966 6e657478     -xcc/config/xten
    21d0:	732f6173 6674666f 74616f6c 696d0000     sa/softfloat..mi
    21e0:	7565696c 0100682e 6f730000 6c667466     lieu.h....softfl
    21f0:	2d74616f 7263616d 682e736f 00000100     oat-macros.h....
    2200:	00020400 58e00205 dd031000 0a050104     .......X........
    2210:	00d5030a 01000909 02030d05 01000909     ................
    2220:	7f030b05 01000309 01030905 01000309     ................
    2230:	03062e05 00030900 03340501 00030900     ..........4.....
    2240:	060e0501 097ec603 05010003 0901030c     ......~.........
    2250:	05010003 09010322 05010003 0902031d     ...."...........
    2260:	05010003 09020344 05010003 0901030e     ....D...........
    2270:	05010003 7fb00311 01000309 03061d05     ................
    2280:	00020900 03110501 00030900 03160501     ................
    2290:	00030900 06110501 03097f03 05050100     ................
    22a0:	09028703 05010003 09050319 05010003     ................
    22b0:	0901030a 05010008 0003062d 01000309     ........-.......
    22c0:	00030705 01000b09 03060105 00030904     ................
    22d0:	030d0501 11097db6 11050100 02090203     .....}..........
    22e0:	1d050100 09000306 05010002 09000316     ................
    22f0:	05010003 bf03060b 00020902 00080901     ................
    2300:	a1010100 03000000 00007900 fb010100     .........y......
    2310:	01000d0e 00010101 00010000 682f0100     ............../h
    2320:	2f656d6f 63677078 2f747375 65657274     ome/xpgcust/tree
    2330:	2d4a522f 33323032 742f322e 6f742f62     /RJ-2023.2/tb/to
    2340:	2f736c6f 6f747773 2d736c6f 5f363878     ols/swtools-x86_
    2350:	6c2d3436 78756e69 6574782f 2d61736e     64-linux/xtensa-
    2360:	2f666c65 2f637273 736f7478 6165782f     elf/src/xtos/xea
    2370:	64000032 67756265 6365762d 2e726f74     2..debug-vector.
    2380:	00010053 05000000 000a6802 01290310     S........h....).
    2390:	03090103 01030100 01000209 03090c03     ................
    23a0:	03090100 01010000 00000276 007e0003     ........v.....~.
    23b0:	01010000 000d0efb 01010101 01000000     ................
    23c0:	2f010000 656d6f68 6770782f 74737563     .../home/xpgcust
    23d0:	6572742f 4a522f65 3230322d 2f322e33     /tree/RJ-2023.2/
    23e0:	742f6274 736c6f6f 7477732f 736c6f6f     tb/tools/swtools
    23f0:	3638782d 2d34365f 756e696c 74782f78     -x86_64-linux/xt
    2400:	61736e65 666c652d 6372732f 6f74782f     ensa-elf/src/xto
    2410:	65782f73 00003261 65736572 65762d74     s/xea2..reset-ve
    2420:	726f7463 6165782d 00532e32 00000001     ctor-xea2.S.....
    2430:	00020500 03100000 030100d0 00580936     ............6.X.
    2440:	09010301 03010003 00020901 09360301     ..............6.
    2450:	03010003 0002090c 00f60301 01000309     ................
    2460:	03090103 0d030100 01000309 03093f03     .............?..
    2470:	01030100 01000309 03090103 02030100     ................
    2480:	01000309 03090103 01030100 01000309     ................
    2490:	02090103 01030100 01000309 72090103     ...............r
    24a0:	01030100 01000309 02090103 01030100     ................
    24b0:	01000309 03090103 0a030100 01000509     ................
    24c0:	03090103 01030100 01000309 03090103     ................
    24d0:	01030100 01000209 02090103 01030100     ................
    24e0:	01000209 03090103 04030100 01000309     ................
    24f0:	03090103 01030100 01000309 03090103     ................
    2500:	01030100 01000209 03090103 01030100     ................
    2510:	01000309 03090103 01030100 01000309     ................
    2520:	02090103 01030100 01000309 03090103     ................
    2530:	01030100 01000209 02090103 01030100     ................
    2540:	01000309 03090403 01030100 01000309     ................
    2550:	03090b03 01030100 01000309 03090103     ................
    2560:	05030100 01000309 03092003 01030100     ......... ......
    2570:	01000309 02090103 01030100 01000309     ................
    2580:	02090103 04030100 01000209 03090103     ................
    2590:	01030100 01000209 02090103 01030100     ................
    25a0:	01000209 02090103 01030100 01000209     ................
    25b0:	03090103 01030100 01000209 02090103     ................
    25c0:	01030100 01000209 02090103 01030100     ................
    25d0:	01000309 06090103 01030100 01000309     ................
    25e0:	03090b03 1f030100 01000309 03090103     ................
    25f0:	01030100 01000309 03090103 01030100     ................
    2600:	01000309 03092803 01030100 01000609     .....(..........
    2610:	06090103 0f030100 01000c09 00000309     ................
    2620:	022f0101 00030000 000001aa 0efb0101     ../.............
    2630:	0101000d 00000101 00000100 2f2e2f01     ............././
    2640:	72702f2e 63656a6f 75632f74 672f7473     ./project/cust/g
    2650:	70616e65 4a522f70 3230322d 2f322e33     enapp/RJ-2023.2/
    2660:	6c697562 6e692f64 5f6c6574 2f79656b     build/intel_key/
    2670:	70757773 64617267 57482f65 43525f43     swupgrade/HWC_RC
    2680:	584c5f53 70305f37 4a525f35 39332f32     S_LX7_0p5_RJ2/39
    2690:	37303538 2d4a522f 33323032 482f322e     8507/RJ-2023.2/H
    26a0:	525f4357 4c5f5343 305f3758 525f3570     WC_RCS_LX7_0p5_R
    26b0:	782f324a 736e6574 6c652d61 6e692f66     J2/xtensa-elf/in
    26c0:	64756c63 39632f65 2e2f0039 702f2e2f     clude/c99./././p
    26d0:	656a6f72 632f7463 2f747375 616e6567     roject/cust/gena
    26e0:	522f7070 30322d4a 322e3332 6975622f     pp/RJ-2023.2/bui
    26f0:	692f646c 6c65746e 79656b5f 7577732f     ld/intel_key/swu
    2700:	61726770 482f6564 525f4357 4c5f5343     pgrade/HWC_RCS_L
    2710:	305f3758 525f3570 332f324a 30353839     X7_0p5_RJ2/39850
    2720:	4a522f37 3230322d 2f322e33 5f435748     7/RJ-2023.2/HWC_
    2730:	5f534352 5f37584c 5f357030 2f324a52     RCS_LX7_0p5_RJ2/
    2740:	6e657478 652d6173 692f666c 756c636e     xtensa-elf/inclu
    2750:	2f006564 656d6f68 6770782f 74737563     de./home/xpgcust
    2760:	6572742f 4a522f65 3230322d 2f322e33     /tree/RJ-2023.2/
    2770:	742f6274 736c6f6f 7477732f 736c6f6f     tb/tools/swtools
    2780:	3638782d 2d34365f 756e696c 74782f78     -x86_64-linux/xt
    2790:	61736e65 666c652d 6372732f 6f74782f     ensa-elf/src/xto
    27a0:	79000073 736c6176 0100682e 74730000     s..yvals.h....st
    27b0:	746e6964 0200682e 74780000 692d736f     dint.h....xtos-i
    27c0:	7265746e 74707572 616e652d 2e656c62     nterrupt-enable.
    27d0:	00030063 03040000 78020500 0310004f     c..........xO...
    27e0:	0905013e 090b030a 05010007 09060319     >...............
    27f0:	05010005 0901031a 05010006 09210312     ..............!.
    2800:	05010003 0901031b 05010003 097f0312     ................
    2810:	05010003 0901031b 05010002 097f0312     ................
    2820:	05010002 09010319 05010003 097f0312     ................
    2830:	05010003 09050305 03010002 00030904     ................
    2840:	09010301 05010003 09100301 09010005     ................
    2850:	01000002 00023a01 ab000300 01000001     .....:..........
    2860:	0d0efb01 01010100 00000001 01000001     ................
    2870:	2e2f2e2f 6f72702f 7463656a 7375632f     /././project/cus
    2880:	65672f74 7070616e 2d4a522f 33323032     t/genapp/RJ-2023
    2890:	622f322e 646c6975 746e692f 6b5f6c65     .2/build/intel_k
    28a0:	732f7965 67707577 65646172 4357482f     ey/swupgrade/HWC
    28b0:	5343525f 37584c5f 3570305f 324a525f     _RCS_LX7_0p5_RJ2
    28c0:	3839332f 2f373035 322d4a52 2e333230     /398507/RJ-2023.
    28d0:	57482f32 43525f43 584c5f53 70305f37     2/HWC_RCS_LX7_0p
    28e0:	4a525f35 74782f32 61736e65 666c652d     5_RJ2/xtensa-elf
    28f0:	636e692f 6564756c 3939632f 2f2e2f00     /include/c99././
    2900:	72702f2e 63656a6f 75632f74 672f7473     ./project/cust/g
    2910:	70616e65 4a522f70 3230322d 2f322e33     enapp/RJ-2023.2/
    2920:	6c697562 6e692f64 5f6c6574 2f79656b     build/intel_key/
    2930:	70757773 64617267 57482f65 43525f43     swupgrade/HWC_RC
    2940:	584c5f53 70305f37 4a525f35 39332f32     S_LX7_0p5_RJ2/39
    2950:	37303538 2d4a522f 33323032 482f322e     8507/RJ-2023.2/H
    2960:	525f4357 4c5f5343 305f3758 525f3570     WC_RCS_LX7_0p5_R
    2970:	782f324a 736e6574 6c652d61 6e692f66     J2/xtensa-elf/in
    2980:	64756c63 682f0065 2f656d6f 63677078     clude./home/xpgc
    2990:	2f747375 65657274 2d4a522f 33323032     ust/tree/RJ-2023
    29a0:	742f322e 6f742f62 2f736c6f 6f747773     .2/tb/tools/swto
    29b0:	2d736c6f 5f363878 6c2d3436 78756e69     ols-x86_64-linux
    29c0:	6574782f 2d61736e 2f666c65 2f637273     /xtensa-elf/src/
    29d0:	736f7478 76790000 2e736c61 00010068     xtos..yvals.h...
    29e0:	64747300 2e746e69 00020068 6f747800     .stdint.h....xto
    29f0:	6e692d73 72726574 2d747075 61736964     s-interrupt-disa
    2a00:	2e656c62 00030063 03040000 ac020500     ble.c...........
    2a10:	0310004f 0905013e 090b030a 05010007     O...>...........
    2a20:	0907031a 05010003 09210312 05010003     ..........!.....
    2a30:	0901031b 05010003 097f0315 05010005     ................
    2a40:	00030612 01000309 00031505 01000209     ................
    2a50:	03061b05 00030901 03120501 0002097f     ................
    2a60:	03190501 00030901 03120501 0003097f     ................
    2a70:	03050501 00020905 09040301 03010003     ................
    2a80:	00030901 03010501 00050910 00020901     ................
    2a90:	91010100 03000002 00022300 fb010100     .........#......
    2aa0:	01000d0e 00010101 00010000 2e2f0100     ............../.
    2ab0:	702f2e2f 656a6f72 632f7463 2f747375     /./project/cust/
    2ac0:	616e6567 522f7070 30322d4a 322e3332     genapp/RJ-2023.2
    2ad0:	6975622f 692f646c 6c65746e 79656b5f     /build/intel_key
    2ae0:	7577732f 61726770 482f6564 525f4357     /swupgrade/HWC_R
    2af0:	4c5f5343 305f3758 525f3570 332f324a     CS_LX7_0p5_RJ2/3
    2b00:	30353839 4a522f37 3230322d 2f322e33     98507/RJ-2023.2/
    2b10:	5f435748 5f534352 5f37584c 5f357030     HWC_RCS_LX7_0p5_
    2b20:	2f324a52 6e657478 652d6173 692f666c     RJ2/xtensa-elf/i
    2b30:	756c636e 632f6564 2f003939 2f2e2f2e     nclude/c99./././
    2b40:	6a6f7270 2f746365 74737563 6e65672f     project/cust/gen
    2b50:	2f707061 322d4a52 2e333230 75622f32     app/RJ-2023.2/bu
    2b60:	2f646c69 65746e69 656b5f6c 77732f79     ild/intel_key/sw
    2b70:	72677075 2f656461 5f435748 5f534352     upgrade/HWC_RCS_
    2b80:	5f37584c 5f357030 2f324a52 35383933     LX7_0p5_RJ2/3985
    2b90:	522f3730 30322d4a 322e3332 4357482f     07/RJ-2023.2/HWC
    2ba0:	5343525f 37584c5f 3570305f 324a525f     _RCS_LX7_0p5_RJ2
    2bb0:	6574782f 2d61736e 2f666c65 6c636e69     /xtensa-elf/incl
    2bc0:	00656475 6d6f682f 70782f65 73756367     ude./home/xpgcus
    2bd0:	72742f74 522f6565 30322d4a 322e3332     t/tree/RJ-2023.2
    2be0:	2f62742f 6c6f6f74 77732f73 6c6f6f74     /tb/tools/swtool
    2bf0:	38782d73 34365f36 6e696c2d 782f7875     s-x86_64-linux/x
    2c00:	736e6574 6c652d61 72732f66 74782f63     tensa-elf/src/xt
    2c10:	2f00736f 2f2e2f2e 656d6f68 6770782f     os./././home/xpg
    2c20:	74737563 6572742f 4a522f65 3230322d     cust/tree/RJ-202
    2c30:	2f322e33 742f6274 736c6f6f 7477732f     3.2/tb/tools/swt
    2c40:	736c6f6f 3638782d 2d34365f 756e696c     ools-x86_64-linu
    2c50:	74782f78 61736e65 666c652d 636e692f     x/xtensa-elf/inc
    2c60:	6564756c 6574782f 0061736e 61767900     lude/xtensa..yva
    2c70:	682e736c 00000100 69647473 682e746e     ls.h....stdint.h
    2c80:	00000200 736f7478 7465732d 746e692d     ....xtos-set-int
    2c90:	646e6168 2e72656c 00030063 72747800     handler.c....xtr
    2ca0:	69746e75 682e656d 00000400 736f7478     untime.h....xtos
    2cb0:	746e692d 616e7265 00682e6c 00000003     -internal.h.....
    2cc0:	05000304 004fe002 00d20310 0a090501     ......O.........
    2cd0:	07091c03 13050100 03090603 24050100     ...............$
    2ce0:	0b090503 09050100 03097b03 0f050100     .........{......
    2cf0:	03090503 09050100 09090d03 18050100     ................
    2d00:	02090203 04030100 01000809 04097f03     ................
    2d10:	09050100 04090603 01050100 0a091503     ................
    2d20:	02090100 01010000 000001b7 00800003     ................
    2d30:	01010000 000d0efb 01010101 01000000     ................
    2d40:	2f010000 656d6f68 6770782f 74737563     .../home/xpgcust
    2d50:	6572742f 4a522f65 3230322d 2f322e33     /tree/RJ-2023.2/
    2d60:	742f6274 736c6f6f 7477732f 736c6f6f     tb/tools/swtools
    2d70:	3638782d 2d34365f 756e696c 74782f78     -x86_64-linux/xt
    2d80:	61736e65 666c652d 6372732f 6f74782f     ensa-elf/src/xto
    2d90:	65782f73 00003261 2d637865 63737973     s/xea2..exc-sysc
    2da0:	2d6c6c61 646e6168 2e72656c 00010053     all-handler.S...
    2db0:	05000000 00502402 00d70310 09060301     .....$P.........
    2dc0:	03010003 00030901 09010301 03010002     ................
    2dd0:	00030901 09010301 03010003 00020901     ................
    2de0:	09010301 03010002 00030901 09020301     ................
    2df0:	03010003 00020906 09010301 03010003     ................
    2e00:	00020904 09070301 03010003 00030901     ................
    2e10:	09010301 03010003 00030902 09010301     ................
    2e20:	03010003 00030901 09020301 03010003     ................
    2e30:	00030901 09010301 03010003 00030907     ................
    2e40:	09050301 03010002 00030902 09020301     ................
    2e50:	03010003 00030901 09020301 03010002     ................
    2e60:	00020904 09010301 03010003 00020901     ................
    2e70:	09010301 03010002 00030901 09010301     ................
    2e80:	03010003 00020901 09010301 03010002     ................
    2e90:	00030908 09040301 03010003 00030901     ................
    2ea0:	09010301 03010002 00030901 09010301     ................
    2eb0:	03010002 00030901 09010301 03010002     ................
    2ec0:	00030901 09020301 03010002 00020905     ................
    2ed0:	09010301 03010002 00030901 00030901     ................
    2ee0:	c9010100 03000000 00007c00 fb010100     .........|......
    2ef0:	01000d0e 00010101 00010000 682f0100     ............../h
    2f00:	2f656d6f 63677078 2f747375 65657274     ome/xpgcust/tree
    2f10:	2d4a522f 33323032 742f322e 6f742f62     /RJ-2023.2/tb/to
    2f20:	2f736c6f 6f747773 2d736c6f 5f363878     ols/swtools-x86_
    2f30:	6c2d3436 78756e69 6574782f 2d61736e     64-linux/xtensa-
    2f40:	2f666c65 2f637273 736f7478 6165782f     elf/src/xtos/xea
    2f50:	6d000032 72656d65 2d726f72 74636576     2..memerror-vect
    2f60:	532e726f 00000100 02050000 10000330     or.S........0...
    2f70:	0100c503 08090f03 01030100 01000309     ................
    2f80:	03090103 1b030100 01000309 03090203     ................
    2f90:	0d030100 01000309 06091003 02030100     ................
    2fa0:	01000309 03090103 03090100 01010000     ................
    2fb0:	0000008d 00770003 01010000 000d0efb     ......w.........
    2fc0:	01010101 01000000 2f010000 656d6f68     .........../home
    2fd0:	6770782f 74737563 6572742f 4a522f65     /xpgcust/tree/RJ
    2fe0:	3230322d 2f322e33 742f6274 736c6f6f     -2023.2/tb/tools
    2ff0:	7477732f 736c6f6f 3638782d 2d34365f     /swtools-x86_64-
    3000:	756e696c 74782f78 61736e65 666c652d     linux/xtensa-elf
    3010:	6372732f 6f74782f 65782f73 00003261     /src/xtos/xea2..
    3020:	2d696d6e 74636576 532e726f 00000100     nmi-vector.S....
    3030:	02050000 10000a80 09013303 01000003     .........3......
    3040:	00026601 7b000300 01000000 0d0efb01     .f.....{........
    3050:	01010100 00000001 01000001 6d6f682f     ............/hom
    3060:	70782f65 73756367 72742f74 522f6565     e/xpgcust/tree/R
    3070:	30322d4a 322e3332 2f62742f 6c6f6f74     J-2023.2/tb/tool
    3080:	77732f73 6c6f6f74 38782d73 34365f36     s/swtools-x86_64
    3090:	6e696c2d 782f7875 736e6574 6c652d61     -linux/xtensa-el
    30a0:	72732f66 74782f63 782f736f 00326165     f/src/xtos/xea2.
    30b0:	6e697700 2d776f64 74636576 2e73726f     .window-vectors.
    30c0:	00010053 05000000 00080002 00f40310     S...............
    30d0:	09010301 03010003 00030901 09010301     ................
    30e0:	03010003 00030901 09220301 03010004     ..........".....
    30f0:	00020901 09010301 03010002 00020901     ................
    3100:	09010301 03010003 00030901 09010301     ................
    3110:	03010003 00030901 09010301 03010003     ................
    3120:	00030901 09010301 03010003 00150912     ................
    3130:	09010301 03010003 00030901 09010301     ................
    3140:	03010003 00030901 090b0301 03010004     ................
    3150:	00030901 09010301 03010003 00030901     ................
    3160:	09010301 03010003 00030901 09010301     ................
    3170:	03010003 00030901 09010301 03010003     ................
    3180:	00030901 09130301 03010015 00030901     ................
    3190:	09010301 03010003 00030901 09010301     ................
    31a0:	03010003 00030901 09010301 03010003     ................
    31b0:	00030901 09010301 03010003 00030901     ................
    31c0:	09120301 03010025 00030901 09010301     ....%...........
    31d0:	03010003 00030901 09010301 03010003     ................
    31e0:	00030901 09010301 03010003 00030901     ................
    31f0:	09010301 03010003 00030901 09130301     ................
    3200:	03010025 00030901 09010301 03010003     %...............
    3210:	00030901 09010301 03010003 00030901     ................
    3220:	09010301 03010003 00030901 09010301     ................
    3230:	03010003 00030901 09010301 03010003     ................
    3240:	00030901 09010301 03010003 00030901     ................
    3250:	09120301 03010019 00030901 09010301     ................
    3260:	03010003 00030901 09010301 03010003     ................
    3270:	00030901 09010301 03010003 00030901     ................
    3280:	09010301 03010003 00030901 09010301     ................
    3290:	03010003 00030901 09010301 03010003     ................
    32a0:	00030901 00030901 93010100 03000000     ................
    32b0:	00007700 fb010100 01000d0e 00010101     .w..............
    32c0:	00010000 682f0100 2f656d6f 63677078     ....../home/xpgc
    32d0:	2f747375 65657274 2d4a522f 33323032     ust/tree/RJ-2023
    32e0:	742f322e 6f742f62 2f736c6f 6f747773     .2/tb/tools/swto
    32f0:	2d736c6f 5f363878 6c2d3436 78756e69     ols-x86_64-linux
    3300:	6574782f 2d61736e 2f666c65 2f637273     /xtensa-elf/src/
    3310:	736f7478 6165782f 69000032 762d746e     xtos/xea2..int-v
    3320:	6f746365 00532e72 00000001 80020500     ector.S.........
    3330:	03100009 01030133 01000309 00000309     ....3...........
    3340:	00930101 00030000 00000077 0efb0101     ........w.......
    3350:	0101000d 00000101 00000100 6f682f01     ............./ho
    3360:	782f656d 75636770 742f7473 2f656572     me/xpgcust/tree/
    3370:	322d4a52 2e333230 62742f32 6f6f742f     RJ-2023.2/tb/too
    3380:	732f736c 6f6f7477 782d736c 365f3638     ls/swtools-x86_6
    3390:	696c2d34 2f78756e 6e657478 652d6173     4-linux/xtensa-e
    33a0:	732f666c 782f6372 2f736f74 32616578     lf/src/xtos/xea2
    33b0:	6e690000 65762d74 726f7463 0100532e     ..int-vector.S..
    33c0:	00000000 09c00205 33031000 09010301     ...........3....
    33d0:	09010003 01000003 00009301 77000300     ...............w
    33e0:	01000000 0d0efb01 01010100 00000001     ................
    33f0:	01000001 6d6f682f 70782f65 73756367     ..../home/xpgcus
    3400:	72742f74 522f6565 30322d4a 322e3332     t/tree/RJ-2023.2
    3410:	2f62742f 6c6f6f74 77732f73 6c6f6f74     /tb/tools/swtool
    3420:	38782d73 34365f36 6e696c2d 782f7875     s-x86_64-linux/x
    3430:	736e6574 6c652d61 72732f66 74782f63     tensa-elf/src/xt
    3440:	782f736f 00326165 746e6900 6365762d     os/xea2..int-vec
    3450:	2e726f74 00010053 05000000 000a0002     tor.S...........
    3460:	01330310 03090103 03090100 01010000     ..3.............
    3470:	000001dd 00820003 01010000 000d0efb     ................
    3480:	01010101 01000000 2f010000 656d6f68     .........../home
    3490:	6770782f 74737563 6572742f 4a522f65     /xpgcust/tree/RJ
    34a0:	3230322d 2f322e33 742f6274 736c6f6f     -2023.2/tb/tools
    34b0:	7477732f 736c6f6f 3638782d 2d34365f     /swtools-x86_64-
    34c0:	756e696c 74782f78 61736e65 666c652d     linux/xtensa-elf
    34d0:	6372732f 6f74782f 65782f73 00003261     /src/xtos/xea2..
    34e0:	2d746e69 7064656d 642d6972 61707369     int-medpri-dispa
    34f0:	65686374 00532e72 00000001 a8020500     tcher.S.........
    3500:	03100050 0103013b 01000309 03090103     P...;...........
    3510:	01030100 01000209 03090103 01030100     ................
    3520:	01000209 02090103 01030100 01000309     ................
    3530:	03091403 02030100 01000309 03090103     ................
    3540:	01030100 01000309 03090103 04030100     ................
    3550:	01000309 03090703 ce030100 00030900     ................
    3560:	09040301 03010003 00030901 09010301     ................
    3570:	03010003 00030901 09010301 03010003     ................
    3580:	00030901 09010301 03010003 000f0901     ................
    3590:	09050301 03010002 00030901 09010301     ................
    35a0:	03010003 00030901 09020301 03010003     ................
    35b0:	00080901 09010301 03010006 00030901     ................
    35c0:	09060301 03010002 00030901 09010301     ................
    35d0:	03010003 00030906 09010301 03010003     ................
    35e0:	00030901 09010301 03010003 00030901     ................
    35f0:	09050301 03010003 00030908 09010301     ................
    3600:	03010002 00110901 09060301 03010003     ................
    3610:	00030918 09010301 03010003 00030901     ................
    3620:	09010301 03010003 00030906 09020301     ................
    3630:	03010003 00020905 09010301 03010002     ................
    3640:	00020901 09010301 09010002 01000003     ................
    3650:	00017701 82000300 01000000 0d0efb01     .w..............
    3660:	01010100 00000001 01000001 6d6f682f     ............/hom
    3670:	70782f65 73756367 72742f74 522f6565     e/xpgcust/tree/R
    3680:	30322d4a 322e3332 2f62742f 6c6f6f74     J-2023.2/tb/tool
    3690:	77732f73 6c6f6f74 38782d73 34365f36     s/swtools-x86_64
    36a0:	6e696c2d 782f7875 736e6574 6c652d61     -linux/xtensa-el
    36b0:	72732f66 74782f63 782f736f 00326165     f/src/xtos/xea2.
    36c0:	746e6900 64656d2d 2d697270 70736964     .int-medpri-disp
    36d0:	68637461 532e7265 00000100 02050000     atcher.S........
    36e0:	10005168 03013b03 00030901 09010301     hQ...;..........
    36f0:	03010003 00020901 09010301 03010003     ................
    3700:	00020901 09010301 03010002 00030901     ................
    3710:	09140301 03010003 00030902 09010301     ................
    3720:	03010003 00030901 09010301 03010003     ................
    3730:	00030904 09070301 03010003 00030906     ................
    3740:	09020301 03010003 0002090a 09020301     ................
    3750:	03010002 0003090b 09060301 0301000f     ................
    3760:	00030901 09060301 03010002 00020901     ................
    3770:	09010301 03010003 030900d7 01030100     ................
    3780:	01000209 0f090103 06030100 01000309     ................
    3790:	03091803 01030100 01000309 03090103     ................
    37a0:	01030100 01000309 03090803 05030100     ................
    37b0:	01000209 02090103 01030100 01000209     ................
    37c0:	02090103 03090100 01010000 00000335     ............5...
    37d0:	00830003 01010000 000d0efb 01010101     ................
    37e0:	01000000 2f010000 656d6f68 6770782f     ......./home/xpg
    37f0:	74737563 6572742f 4a522f65 3230322d     cust/tree/RJ-202
    3800:	2f322e33 742f6274 736c6f6f 7477732f     3.2/tb/tools/swt
    3810:	736c6f6f 3638782d 2d34365f 756e696c     ools-x86_64-linu
    3820:	74782f78 61736e65 666c652d 6372732f     x/xtensa-elf/src
    3830:	6f74782f 65782f73 00003261 2d746e69     /xtos/xea2..int-
    3840:	68676968 2d697270 70736964 68637461     highpri-dispatch
    3850:	532e7265 00000100 02050000 100051e8     er.S.........Q..
    3860:	0100e703 03090303 01030100 01000209     ................
    3870:	03090103 01030100 01000209 02090103     ................
    3880:	01030100 01000209 03090103 01030100     ................
    3890:	01000209 02090f03 01030100 01000309     ................
    38a0:	03090103 01030100 01000209 02090103     ................
    38b0:	01030100 01000309 02090103 01030100     ................
    38c0:	01000309 02090403 03030100 01000209     ................
    38d0:	03090103 01030100 01000309 03090303     ................
    38e0:	01030100 01000309 03090103 01030100     ................
    38f0:	01000309 03090103 01030100 01000309     ................
    3900:	03090103 01030100 01000309 03090303     ................
    3910:	01030100 01000309 03090103 01030100     ................
    3920:	01000309 03090203 04030100 01000309     ................
    3930:	03090103 01030100 01000309 02090103     ................
    3940:	03030100 01000209 02090103 01030100     ................
    3950:	01000209 03090103 01030100 01000309     ................
    3960:	03090603 01030100 01000309 02090903     ................
    3970:	01030100 01000309 03090103 09030100     ................
    3980:	01000309 03090103 02030100 01000209     ................
    3990:	03090103 01030100 01000209 03090103     ................
    39a0:	01030100 01000209 03090103 e0030100     ................
    39b0:	00020900 090a0301 03010003 00030902     ................
    39c0:	090f0301 03010003 00020905 09010301     ................
    39d0:	03010002 0003091b 09080301 03010003     ................
    39e0:	00020901 09010301 03010002 00020901     ................
    39f0:	09010301 03010003 00030901 09130301     ................
    3a00:	03010003 00020901 09050301 03010003     ................
    3a10:	00020901 09010301 03010003 00030904     ................
    3a20:	09010301 03010002 00020901 09010301     ................
    3a30:	03010003 00030901 09040301 03010003     ................
    3a40:	00030901 09010301 03010002 00030905     ................
    3a50:	09010301 03010003 00030901 09010301     ................
    3a60:	03010002 00030901 09010301 03010003     ................
    3a70:	00030901 09010301 03010003 00030901     ................
    3a80:	09010301 03010003 00030901 09010301     ................
    3a90:	03010003 00030902 09010301 03010003     ................
    3aa0:	00030901 09010301 03010003 00030901     ................
    3ab0:	09160301 03010003 00020901 09010301     ................
    3ac0:	03010002 00030901 09010301 03010003     ................
    3ad0:	00020901 09010301 03010003 00020901     ................
    3ae0:	09020301 03010003 00020901 09010301     ................
    3af0:	03010002 00020901 09010301 09010002     ................
    3b00:	01000003 00027601 82000300 01000000     .....v..........
    3b10:	0d0efb01 01010100 00000001 01000001     ................
    3b20:	6d6f682f 70782f65 73756367 72742f74     /home/xpgcust/tr
    3b30:	522f6565 30322d4a 322e3332 2f62742f     ee/RJ-2023.2/tb/
    3b40:	6c6f6f74 77732f73 6c6f6f74 38782d73     tools/swtools-x8
    3b50:	34365f36 6e696c2d 782f7875 736e6574     6_64-linux/xtens
    3b60:	6c652d61 72732f66 74782f63 782f736f     a-elf/src/xtos/x
    3b70:	00326165 746e6900 776f6c2d 2d697270     ea2..int-lowpri-
    3b80:	70736964 68637461 532e7265 00000100     dispatcher.S....
    3b90:	02050000 10005314 0100e603 02090b03     .....S..........
    3ba0:	01030100 01000309 03090103 0a030100     ................
    3bb0:	01000309 02090103 18030100 01000209     ................
    3bc0:	03090103 d3030100 00030900 09010301     ................
    3bd0:	03010003 00030901 09080301 03010003     ................
    3be0:	00030930 09220301 03010003 00030901     0.....".........
    3bf0:	09010301 03010003 00030901 09010301     ................
    3c00:	03010002 00030901 09010301 03010003     ................
    3c10:	00020902 09010301 03010003 00020902     ................
    3c20:	09010301 03010002 0002091e 09040301     ................
    3c30:	0301000c 00030901 09010301 03010003     ................
    3c40:	00030901 09040301 03010003 00030905     ................
    3c50:	09040301 03010003 00020901 09010301     ................
    3c60:	03010002 00030902 09030301 03010003     ................
    3c70:	0003090b 01bc0301 01000309 0f090403     ................
    3c80:	10030100 01000209 02090103 01030100     ................
    3c90:	01000209 03090403 0c030100 01000f09     ................
    3ca0:	03090203 01030100 01000309 03090103     ................
    3cb0:	01030100 01000209 02090203 01030100     ................
    3cc0:	01000309 03090903 01030100 01000309     ................
    3cd0:	02090b03 01030100 01000209 03090103     ................
    3ce0:	03030100 01000309 0900d303 03010003     ................
    3cf0:	00030903 09080301 03010003 00030901     ................
    3d00:	09010301 03010003 00030901 09030301     ................
    3d10:	03010003 00030902 09170301 03010003     ................
    3d20:	00030906 09020301 03010003 00030901     ................
    3d30:	09010301 03010003 00030901 09010301     ................
    3d40:	03010003 00030901 09090301 03010003     ................
    3d50:	00030901 09010301 03010003 00030907     ................
    3d60:	09010301 03010003 00030901 09010301     ................
    3d70:	03010003 00030901 00030901 c4010100     ................
    3d80:	03000000 00007700 fb010100 01000d0e     .....w..........
    3d90:	00010101 00010000 682f0100 2f656d6f     ........../home/
    3da0:	63677078 2f747375 65657274 2d4a522f     xpgcust/tree/RJ-
    3db0:	33323032 742f322e 6f742f62 2f736c6f     2023.2/tb/tools/
    3dc0:	6f747773 2d736c6f 5f363878 6c2d3436     swtools-x86_64-l
    3dd0:	78756e69 6574782f 2d61736e 2f666c65     inux/xtensa-elf/
    3de0:	2f637273 736f7478 6165782f 65000032     src/xtos/xea2..e
    3df0:	722d6378 72757465 00532e6e 00000001     xc-return.S.....
    3e00:	60020500 03100059 030100cc 00020901     ...`Y...........
    3e10:	09010301 03010002 00030902 09010301     ................
    3e20:	03010002 00020901 09020301 03010003     ................
    3e30:	00030908 09010301 03010002 00020902     ................
    3e40:	00030901 00010100 03000001 00006c00     .............l..
    3e50:	fb010100 01000d0e 00010101 00010000     ................
    3e60:	682f0100 2f656d6f 63677078 2f747375     ../home/xpgcust/
    3e70:	65657274 2d4a522f 33323032 742f322e     tree/RJ-2023.2/t
    3e80:	6f742f62 2f736c6f 6f747773 2d736c6f     b/tools/swtools-
    3e90:	5f363878 6c2d3436 78756e69 6574782f     x86_64-linux/xte
    3ea0:	2d61736e 2f666c65 2f637273 006c6168     nsa-elf/src/hal.
    3eb0:	6f6c6300 532e6b63 00000100 02050000     .clock.S........
    3ec0:	10005978 03012703 00030902 09120301     xY...'..........
    3ed0:	03010003 0002090e 09020301 03010003     ................
    3ee0:	00020901 09010301 03010003 00030901     ................
    3ef0:	09040301 03010002 00030901 09010301     ................
    3f00:	03010003 00030901 09090301 03010002     ................
    3f10:	0004090a 09020301 03010003 00020901     ................
    3f20:	09010301 03010003 00040904 09010301     ................
    3f30:	03010003 00030901 090c0301 03010002     ................
    3f40:	00020902 00020901 07010100 03000001     ................
    3f50:	00010100 fb010100 01000d0e 00010101     ................
    3f60:	00010000 2e2f0100 702f2e2f 656a6f72     ....../././proje
    3f70:	632f7463 2f747375 616e6567 522f7070     ct/cust/genapp/R
    3f80:	30322d4a 322e3332 6975622f 692f646c     J-2023.2/build/i
    3f90:	6c65746e 79656b5f 7577732f 61726770     ntel_key/swupgra
    3fa0:	482f6564 525f4357 4c5f5343 305f3758     de/HWC_RCS_LX7_0
    3fb0:	525f3570 332f324a 30353839 4a522f37     p5_RJ2/398507/RJ
    3fc0:	3230322d 2f322e33 5f435748 5f534352     -2023.2/HWC_RCS_
    3fd0:	5f37584c 5f357030 2f324a52 6e657478     LX7_0p5_RJ2/xten
    3fe0:	652d6173 692f666c 756c636e 2f006564     sa-elf/include./
    3ff0:	656d6f68 6770782f 74737563 6572742f     home/xpgcust/tre
    4000:	4a522f65 3230322d 2f322e33 742f6274     e/RJ-2023.2/tb/t
    4010:	736c6f6f 7477732f 736c6f6f 3638782d     ools/swtools-x86
    4020:	2d34365f 756e696c 74782f78 61736e65     _64-linux/xtensa
    4030:	666c652d 6372732f 6c61682f 74730000     -elf/src/hal..st
    4040:	746e6964 0100682e 6f630000 2e74736e     dint.h....const.
    4050:	00020063                                 c.....

Disassembly of section .debug_frame:

00000000 <.debug_frame>:
   0:	00000010 ffffffff 7c010001 00010c10     ...........|....
  10:	0000010c 00000010 00000000 10004750     ............PG..
  20:	0000001b 00200e43 00000010 ffffffff     ....C. .........
  30:	7c010001 00010c10 0000010c 00000010     ...|............
  40:	00000028 1000476c 00000272 00200e43     (...lG..r...C. .
  50:	00000010 ffffffff 7c010001 00010c10     ...........|....
  60:	0000010c 00000010 00000050 100049e0     ........P....I..
  70:	0000035c 00500e43 00000010 ffffffff     \...C.P.........
  80:	7c010001 00010c10 0000010c 00000010     ...|............
  90:	00000078 10004d3c 000000fc 00200e43     x...<M......C. .
  a0:	00000010 00000078 10004e38 0000013f     ....x...8N..?...
  b0:	00200e43 00000010 ffffffff 7c010001     C. ............|
  c0:	00010c10 0000010c 00000010 000000b4     ................
  d0:	100058e0 0000007f 00200e43 00000010     .X......C. .....
  e0:	ffffffff 7c010001 00010c10 0000010c     .......|........
  f0:	00000010 000000dc 10004f78 00000034     ........xO..4...
 100:	00200e43 00000010 ffffffff 7c010001     C. ............|
 110:	00010c10 0000010c 00000010 00000104     ................
 120:	10004fac 00000034 00200e43 00000010     .O..4...C. .....
 130:	ffffffff 7c010001 00010c10 0000010c     .......|........
 140:	00000010 0000012c 10004fe0 00000042     ....,....O..B...
 150:	00200e43                                C. .

Disassembly of section .debug_str:

00000000 <.debug_str>:
       0:	6d6f682f 70782f65 73756367 72742f74     /home/xpgcust/tr
      10:	522f6565 30322d4a 322e3332 2f62742f     ee/RJ-2023.2/tb/
      20:	6c6f6f74 77732f73 6c6f6f74 38782d73     tools/swtools-x8
      30:	34365f36 6e696c2d 782f7875 736e6574     6_64-linux/xtens
      40:	6c652d61 72732f66 74782f63 632f736f     a-elf/src/xtos/c
      50:	2d317472 796e6974 2f00532e 6a6f7270     rt1-tiny.S./proj
      60:	2f746365 74737563 6e65672f 2f707061     ect/cust/genapp/
      70:	322d4a52 2e333230 75622f32 2f646c69     RJ-2023.2/build/
      80:	65746e69 656b5f6c 77732f79 72677075     intel_key/swupgr
      90:	2f656461 5f435748 5f534352 5f37584c     ade/HWC_RCS_LX7_
      a0:	5f357030 2f324a52 35383933 782f3730     0p5_RJ2/398507/x
      b0:	6c697562 57532f64 666e6f43 782f6769     build/SWConfig/x
      c0:	00736f74 20554e47 32205341 0034332e     tos.GNU AS 2.34.
      d0:	6d6f682f 70782f65 73756367 72742f74     /home/xpgcust/tr
      e0:	522f6565 30322d4a 322e3332 2f62742f     ee/RJ-2023.2/tb/
      f0:	6f723470 582f746f 736e6574 61542f61     p4root/Xtensa/Ta
     100:	74656772 62696c2d 63782f73 2f62696c     rget-libs/xclib/
     110:	736e6574 63696c69 656d2f61 7970636d     tensilica/memcpy
     120:	2f00532e 6a6f7270 2f746365 74737563     .S./project/cust
     130:	6e65672f 2f707061 322d4a52 2e333230     /genapp/RJ-2023.
     140:	75622f32 2f646c69 65746e69 656b5f6c     2/build/intel_ke
     150:	77732f79 72677075 2f656461 5f435748     y/swupgrade/HWC_
     160:	5f534352 5f37584c 5f357030 2f324a52     RCS_LX7_0p5_RJ2/
     170:	35383933 782f3730 6c697562 57532f64     398507/xbuild/SW
     180:	666e6f43 782f6769 62696c63 6e65742f     Config/xclib/ten
     190:	696c6973 2f006163 656d6f68 6770782f     silica./home/xpg
     1a0:	74737563 6572742f 4a522f65 3230322d     cust/tree/RJ-202
     1b0:	2f322e33 702f6274 6f6f7234 74582f74     3.2/tb/p4root/Xt
     1c0:	61736e65 7261542f 2d746567 7362696c     ensa/Target-libs
     1d0:	6c63782f 742f6269 69736e65 6163696c     /xclib/tensilica
     1e0:	6d656d2f 2e746573 682f0053 2f656d6f     /memset.S./home/
     1f0:	63677078 2f747375 65657274 2d4a522f     xpgcust/tree/RJ-
     200:	33323032 742f322e 6f742f62 2f736c6f     2023.2/tb/tools/
     210:	6f747773 2d736c6f 5f363878 6c2d3436     swtools-x86_64-l
     220:	78756e69 6574782f 2d61736e 2f666c65     inux/xtensa-elf/
     230:	2f637273 6762696c 782d6363 632f6363     src/libgcc-xcc/c
     240:	69666e6f 74782f67 61736e65 6565692f     onfig/xtensa/iee
     250:	34353765 2e66642d 702f0053 656a6f72     e754-df.S./proje
     260:	632f7463 2f747375 616e6567 522f7070     ct/cust/genapp/R
     270:	30322d4a 322e3332 6975622f 692f646c     J-2023.2/build/i
     280:	6c65746e 79656b5f 7577732f 61726770     ntel_key/swupgra
     290:	482f6564 525f4357 4c5f5343 305f3758     de/HWC_RCS_LX7_0
     2a0:	525f3570 332f324a 30353839 62782f37     p5_RJ2/398507/xb
     2b0:	646c6975 4357532f 69666e6f 696c2f67     uild/SWConfig/li
     2c0:	63636762 6363782d 65745800 5461736e     bgcc-xcc.XtensaT
     2d0:	736c6f6f 2e35312d 63203230 676e616c     ools-15.02 clang
     2e0:	72657620 6e6f6973 2e353120 00372e30      version 15.0.7.
     2f0:	6d6f682f 70782f65 73756367 72742f74     /home/xpgcust/tr
     300:	522f6565 30322d4a 322e3332 2f62742f     ee/RJ-2023.2/tb/
     310:	6c6f6f74 77732f73 6c6f6f74 38782d73     tools/swtools-x8
     320:	34365f36 6e696c2d 782f7875 736e6574     6_64-linux/xtens
     330:	6c652d61 72732f66 696c2f63 63636762     a-elf/src/libgcc
     340:	6363782d 62696c2f 32636367 7500632e     -xcc/libgcc2.c.u
     350:	6769736e 2064656e 00746e69 74495355     nsigned int.USIt
     360:	00657079 756d5f5f 3369646c 00757500     ype.__muldi3.uu.
     370:	74735744 74637572 006c6c00 6e755744     DWstruct.ll.DWun
     380:	006e6f69 75007676 6769736e 2064656e     ion.vv.unsigned 
     390:	676e6f6c 6e6f6c20 44550067 70797449     long long.UDItyp
     3a0:	5f5f0065 76696475 64646f6d 72003469     e.__udivmoddi4.r
     3b0:	64640070 00316e00 6e00306e 6d62006e     p.dd.n1.n0.nn.bm
     3c0:	6e006200 72720032 00777700 31645f5f     .b.n2.rr.ww.__d1
     3d0:	715f5f00 5f5f0031 5f003172 0030645f     .__q1.__r1.__d0.
     3e0:	006d5f5f 30715f5f 725f5f00 5f5f0030     __m.__q0.__r0.__
     3f0:	5f5f0077 5f5f0078 76696475 00336964     w.__x.__udivdi3.
     400:	6d6f682f 70782f65 73756367 72742f74     /home/xpgcust/tr
     410:	522f6565 30322d4a 322e3332 2f62742f     ee/RJ-2023.2/tb/
     420:	6c6f6f74 77732f73 6c6f6f74 38782d73     tools/swtools-x8
     430:	34365f36 6e696c2d 782f7875 736e6574     6_64-linux/xtens
     440:	6c652d61 72732f66 696c2f63 63636762     a-elf/src/libgcc
     450:	6363782d 6e6f632f 2f676966 6e657478     -xcc/config/xten
     460:	732f6173 6674666f 74616f6c 666f732f     sa/softfloat/sof
     470:	6f6c6674 645f7461 645f7669 00632e66     tfloat_div_df.c.
     480:	616f6c66 6c665f74 695f6761 6c61766e     float_flag_inval
     490:	66006469 74616f6c 616c665f 69645f67     id.float_flag_di
     4a0:	7a796276 006f7265 616f6c66 6c665f74     vbyzero.float_fl
     4b0:	6f5f6761 66726576 00776f6c 616f6c66     ag_overflow.floa
     4c0:	6c665f74 755f6761 7265646e 776f6c66     t_flag_underflow
     4d0:	6f6c6600 665f7461 5f67616c 78656e69     .float_flag_inex
     4e0:	00746361 616f6c66 5f343674 61666564     act.float64_defa
     4f0:	5f746c75 5f6e616e 68676968 6f6c6600     ult_nan_high.flo
     500:	34367461 6665645f 746c7561 6e616e5f     at64_default_nan
     510:	776f6c5f 69627300 32337374 67697300     _low.sbits32.sig
     520:	2064656e 72616863 746e6900 78650038     ned char.int8.ex
     530:	63617274 6f6c4674 34367461 00707845     tractFloat64Exp.
     540:	31746e69 6c660036 3674616f 78650034     int16.float64.ex
     550:	63617274 6f6c4674 34367461 63617246     tractFloat64Frac
     560:	6f6e0030 6c616d72 46657a69 74616f6c     0.normalizeFloat
     570:	75533436 726f6e62 006c616d 67695361     64Subnormal.aSig
     580:	53610030 00316769 7078457a 00727450     0.aSig1.zExpPtr.
     590:	6769537a 72745030 69537a00 74503167     zSig0Ptr.zSig1Pt
     5a0:	68730072 43746669 746e756f 756f6300     r.shiftCount.cou
     5b0:	654c746e 6e696461 72655a67 3233736f     ntLeadingZeros32
     5c0:	6f687300 68537472 36746669 66654c34     .shortShift64Lef
     5d0:	30610074 00316100 6e756f63 307a0074     t.a0.a1.count.z0
     5e0:	00727450 7450317a 317a0072 00307a00     Ptr.z1Ptr.z1.z0.
     5f0:	3436656c 616c6600 30620067 00316200     le64.flag.b0.b1.
     600:	66696873 52343674 74686769 6c756d00     shift64Right.mul
     610:	6f543233 61003436 68676948 736e7500     32To64.aHigh.uns
     620:	656e6769 68732064 0074726f 73746962     igned short.bits
     630:	62003631 68676948 6f4c6100 4c620077     16.bHigh.aLow.bL
     640:	7a00776f 6464694d 0042656c 64694d7a     ow.zMiddleB.zMid
     650:	41656c64 6c756d00 79423436 6f543233     dleA.mul64By32To
     660:	7a003639 72745032 726f6d00 7a003165     96.z2Ptr.more1.z
     670:	64610032 00343664 39627573 32610036     2.add64.sub96.a2
     680:	00326200 72726f62 0030776f 72726f62     .b2.borrow0.borr
     690:	0031776f 66696873 45343674 61727478     ow1.shift64Extra
     6a0:	68676952 6d614a74 676e696d 736f6c00     RightJamming.los
     6b0:	74694274 61700073 6c466b63 3674616f     tBits.packFloat6
     6c0:	537a0034 006e6769 7078457a 69537a00     4.zSign.zExp.zSi
     6d0:	7a003067 31676953 61007a00 36396464     g0.zSig1.z.add96
     6e0:	72616300 00317972 72726163 5f003079     .carry1.carry0._
     6f0:	6f6c665f 725f7461 65736961 645f5f00     _float_raise.__d
     700:	66647669 53620033 00316769 70784561     ivdf3.bSig1.aExp
     710:	69536200 62003067 00707845 6d726574     .bSig0.bExp.term
     720:	65740032 00316d72 306d6572 6d657200     2.term1.rem0.rem
     730:	65720031 7400326d 336d7265 6d657200     1.rem2.term3.rem
     740:	537a0033 00326769 67695361 5362006e     3.zSig2.aSign.bS
     750:	006e6769 6d726574 682f0030 2f656d6f     ign.term0./home/
     760:	63677078 2f747375 65657274 2d4a522f     xpgcust/tree/RJ-
     770:	33323032 742f322e 6f742f62 2f736c6f     2023.2/tb/tools/
     780:	6f747773 2d736c6f 5f363878 6c2d3436     swtools-x86_64-l
     790:	78756e69 6574782f 2d61736e 2f666c65     inux/xtensa-elf/
     7a0:	2f637273 6762696c 782d6363 632f6363     src/libgcc-xcc/c
     7b0:	69666e6f 74782f67 61736e65 62696c2f     onfig/xtensa/lib
     7c0:	6e756631 612e7363 2f006d73 656d6f68     1funcs.asm./home
     7d0:	6770782f 74737563 6572742f 4a522f65     /xpgcust/tree/RJ
     7e0:	3230322d 2f322e33 742f6274 736c6f6f     -2023.2/tb/tools
     7f0:	7477732f 736c6f6f 3638782d 2d34365f     /swtools-x86_64-
     800:	756e696c 74782f78 61736e65 666c652d     linux/xtensa-elf
     810:	6372732f 62696c2f 2d636367 2f636378     /src/libgcc-xcc/
     820:	666e6f63 782f6769 736e6574 6f732f61     config/xtensa/so
     830:	6c667466 2f74616f 74666f73 616f6c66     ftfloat/softfloa
     840:	6d635f74 00632e6e 6c665f5f 5f74616f     t_cmn.c.__float_
     850:	65637865 6f697470 6c665f6e 00736761     exception_flags.
     860:	6d6f682f 70782f65 73756367 72742f74     /home/xpgcust/tr
     870:	522f6565 30322d4a 322e3332 2f62742f     ee/RJ-2023.2/tb/
     880:	6c6f6f74 77732f73 6c6f6f74 38782d73     tools/swtools-x8
     890:	34365f36 6e696c2d 782f7875 736e6574     6_64-linux/xtens
     8a0:	6c652d61 72732f66 696c2f63 63636762     a-elf/src/libgcc
     8b0:	6363782d 6e6f632f 2f676966 6e657478     -xcc/config/xten
     8c0:	732f6173 6674666f 74616f6c 666f732f     sa/softfloat/sof
     8d0:	6f6c6674 635f7461 645f6e6d 00632e66     tfloat_cmn_df.c.
     8e0:	616f6c66 69745f74 656e696e 615f7373     float_tininess_a
     8f0:	72657466 756f725f 6e69646e 6c660067     fter_rounding.fl
     900:	5f74616f 696e6974 7373656e 6665625f     oat_tininess_bef
     910:	5f65726f 6e756f72 676e6964 6f6c6600     ore_rounding.flo
     920:	725f7461 646e756f 61656e5f 74736572     at_round_nearest
     930:	6576655f 6c66006e 5f74616f 6e756f72     _even.float_roun
     940:	6f645f64 66006e77 74616f6c 756f725f     d_down.float_rou
     950:	755f646e 6c660070 5f74616f 6e756f72     nd_up.float_roun
     960:	6f745f64 72657a5f 6c66006f 3674616f     d_to_zero.float6
     970:	73695f34 6e616e5f 6f6c6600 34367461     4_is_nan.float64
     980:	5f73695f 6e676973 6e696c61 616e5f67     _is_signaling_na
     990:	746c006e 5f003436 6f72705f 61676170     n.lt64.__propaga
     9a0:	6c466574 3674616f 4e614e34 725f5f00     teFloat64NaN.__r
     9b0:	646e756f 50646e41 466b6361 74616f6c     oundAndPackFloat
     9c0:	61003436 69537349 6c616e67 4e676e69     64.aIsSignalingN
     9d0:	62004e61 614e7349 4962004e 67695373     aN.bIsNaN.bIsSig
     9e0:	696c616e 614e676e 6572004e 6e727574     nalingNaN.return
     9f0:	6772614c 69537265 66696e67 6e616369     LargerSignifican
     a00:	49610064 4e614e73 636e6900 656d6572     d.aIsNaN.increme
     a10:	7200746e 646e756f 4d676e69 0065646f     nt.roundingMode.
     a20:	6e756f72 61654e64 74736572 6e657645     roundNearestEven
     a30:	54736900 00796e69 6d6f682f 70782f65     .isTiny./home/xp
     a40:	73756367 72742f74 522f6565 30322d4a     gcust/tree/RJ-20
     a50:	322e3332 2f62742f 6c6f6f74 77732f73     23.2/tb/tools/sw
     a60:	6c6f6f74 38782d73 34365f36 6e696c2d     tools-x86_64-lin
     a70:	782f7875 736e6574 6c652d61 72732f66     ux/xtensa-elf/sr
     a80:	696c2f63 63636762 6363782d 6e6f632f     c/libgcc-xcc/con
     a90:	2f676966 6e657478 732f6173 6674666f     fig/xtensa/softf
     aa0:	74616f6c 666f732f 6f6c6674 635f7461     loat/softfloat_c
     ab0:	645f6e6d 632e7669 62757300 5f003436     mn_div.c.sub64._
     ac0:	7473655f 74616d69 76694465 6f543436     _estimateDiv64To
     ad0:	2f003233 656d6f68 6770782f 74737563     32./home/xpgcust
     ae0:	6572742f 4a522f65 3230322d 2f322e33     /tree/RJ-2023.2/
     af0:	742f6274 736c6f6f 7477732f 736c6f6f     tb/tools/swtools
     b00:	3638782d 2d34365f 756e696c 74782f78     -x86_64-linux/xt
     b10:	61736e65 666c652d 6372732f 6f74782f     ensa-elf/src/xto
     b20:	65782f73 642f3261 67756265 6365762d     s/xea2/debug-vec
     b30:	2e726f74 682f0053 2f656d6f 63677078     tor.S./home/xpgc
     b40:	2f747375 65657274 2d4a522f 33323032     ust/tree/RJ-2023
     b50:	742f322e 6f742f62 2f736c6f 6f747773     .2/tb/tools/swto
     b60:	2d736c6f 5f363878 6c2d3436 78756e69     ols-x86_64-linux
     b70:	6574782f 2d61736e 2f666c65 2f637273     /xtensa-elf/src/
     b80:	736f7478 6165782f 65722f32 2d746573     xtos/xea2/reset-
     b90:	74636576 782d726f 2e326165 682f0053     vector-xea2.S./h
     ba0:	2f656d6f 63677078 2f747375 65657274     ome/xpgcust/tree
     bb0:	2d4a522f 33323032 742f322e 6f742f62     /RJ-2023.2/tb/to
     bc0:	2f736c6f 6f747773 2d736c6f 5f363878     ols/swtools-x86_
     bd0:	6c2d3436 78756e69 6574782f 2d61736e     64-linux/xtensa-
     be0:	2f666c65 2f637273 736f7478 6f74782f     elf/src/xtos/xto
     bf0:	6e692d73 72726574 2d747075 62616e65     s-interrupt-enab
     c00:	632e656c 69555f00 3233746e 69750074     le.c._Uint32t.ui
     c10:	3233746e 7800745f 5f736f74 65746e69     nt32_t.xtos_inte
     c20:	70757272 6e655f74 656c6261 6e495f00     rrupt_enable._In
     c30:	74323374 746e6900 006d756e 6b73616d     t32t.intnum.mask
     c40:	76617300 73705f65 6f682f00 782f656d     .save_ps./home/x
     c50:	75636770 742f7473 2f656572 322d4a52     pgcust/tree/RJ-2
     c60:	2e333230 62742f32 6f6f742f 732f736c     023.2/tb/tools/s
     c70:	6f6f7477 782d736c 365f3638 696c2d34     wtools-x86_64-li
     c80:	2f78756e 6e657478 652d6173 732f666c     nux/xtensa-elf/s
     c90:	782f6372 2f736f74 736f7478 746e692d     rc/xtos/xtos-int
     ca0:	75727265 642d7470 62617369 632e656c     errupt-disable.c
     cb0:	6f747800 6e695f73 72726574 5f747075     .xtos_interrupt_
     cc0:	61736964 00656c62 6d6f682f 70782f65     disable./home/xp
     cd0:	73756367 72742f74 522f6565 30322d4a     gcust/tree/RJ-20
     ce0:	322e3332 2f62742f 6c6f6f74 77732f73     23.2/tb/tools/sw
     cf0:	6c6f6f74 38782d73 34365f36 6e696c2d     tools-x86_64-lin
     d00:	782f7875 736e6574 6c652d61 72732f66     ux/xtensa-elf/sr
     d10:	74782f63 782f736f 2d736f74 2d746573     c/xtos/xtos-set-
     d20:	68746e69 6c646e61 632e7265 6f747800     inthandler.c.xto
     d30:	65735f73 6e695f74 72726574 5f747075     s_set_interrupt_
     d40:	646e6168 0072656c 736f7478 6e61685f     handler.xtos_han
     d50:	72656c64 6e75665f 74780063 685f736f     dler_func.xtos_h
     d60:	6c646e61 70007265 6d617261 72707000     andler.param.ppr
     d70:	6f007665 6500646c 7972746e 72617600     ev.old.entry.var
     d80:	616e0067 58006772 49736f74 6148746e     g.narg.XtosIntHa
     d90:	656c646e 746e4572 2f007972 656d6f68     ndlerEntry./home
     da0:	6770782f 74737563 6572742f 4a522f65     /xpgcust/tree/RJ
     db0:	3230322d 2f322e33 742f6274 736c6f6f     -2023.2/tb/tools
     dc0:	7477732f 736c6f6f 3638782d 2d34365f     /swtools-x86_64-
     dd0:	756e696c 74782f78 61736e65 666c652d     linux/xtensa-elf
     de0:	6372732f 6f74782f 65782f73 652f3261     /src/xtos/xea2/e
     df0:	732d6378 61637379 682d6c6c 6c646e61     xc-syscall-handl
     e00:	532e7265 6f682f00 782f656d 75636770     er.S./home/xpgcu
     e10:	742f7473 2f656572 322d4a52 2e333230     st/tree/RJ-2023.
     e20:	62742f32 6f6f742f 732f736c 6f6f7477     2/tb/tools/swtoo
     e30:	782d736c 365f3638 696c2d34 2f78756e     ls-x86_64-linux/
     e40:	6e657478 652d6173 732f666c 782f6372     xtensa-elf/src/x
     e50:	2f736f74 32616578 6d656d2f 6f727265     tos/xea2/memerro
     e60:	65762d72 726f7463 2f00532e 656d6f68     r-vector.S./home
     e70:	6770782f 74737563 6572742f 4a522f65     /xpgcust/tree/RJ
     e80:	3230322d 2f322e33 742f6274 736c6f6f     -2023.2/tb/tools
     e90:	7477732f 736c6f6f 3638782d 2d34365f     /swtools-x86_64-
     ea0:	756e696c 74782f78 61736e65 666c652d     linux/xtensa-elf
     eb0:	6372732f 6f74782f 65782f73 6e2f3261     /src/xtos/xea2/n
     ec0:	762d696d 6f746365 00532e72 6d6f682f     mi-vector.S./hom
     ed0:	70782f65 73756367 72742f74 522f6565     e/xpgcust/tree/R
     ee0:	30322d4a 322e3332 2f62742f 6c6f6f74     J-2023.2/tb/tool
     ef0:	77732f73 6c6f6f74 38782d73 34365f36     s/swtools-x86_64
     f00:	6e696c2d 782f7875 736e6574 6c652d61     -linux/xtensa-el
     f10:	72732f66 74782f63 782f736f 2f326165     f/src/xtos/xea2/
     f20:	646e6977 762d776f 6f746365 532e7372     window-vectors.S
     f30:	6f682f00 782f656d 75636770 742f7473     ./home/xpgcust/t
     f40:	2f656572 322d4a52 2e333230 62742f32     ree/RJ-2023.2/tb
     f50:	6f6f742f 732f736c 6f6f7477 782d736c     /tools/swtools-x
     f60:	365f3638 696c2d34 2f78756e 6e657478     86_64-linux/xten
     f70:	652d6173 732f666c 782f6372 2f736f74     sa-elf/src/xtos/
     f80:	32616578 746e692f 6365762d 2e726f74     xea2/int-vector.
     f90:	682f0053 2f656d6f 63677078 2f747375     S./home/xpgcust/
     fa0:	65657274 2d4a522f 33323032 742f322e     tree/RJ-2023.2/t
     fb0:	6f742f62 2f736c6f 6f747773 2d736c6f     b/tools/swtools-
     fc0:	5f363878 6c2d3436 78756e69 6574782f     x86_64-linux/xte
     fd0:	2d61736e 2f666c65 2f637273 736f7478     nsa-elf/src/xtos
     fe0:	6165782f 6e692f32 656d2d74 69727064     /xea2/int-medpri
     ff0:	7369642d 63746170 2e726568 682f0053     -dispatcher.S./h
    1000:	2f656d6f 63677078 2f747375 65657274     ome/xpgcust/tree
    1010:	2d4a522f 33323032 742f322e 6f742f62     /RJ-2023.2/tb/to
    1020:	2f736c6f 6f747773 2d736c6f 5f363878     ols/swtools-x86_
    1030:	6c2d3436 78756e69 6574782f 2d61736e     64-linux/xtensa-
    1040:	2f666c65 2f637273 736f7478 6165782f     elf/src/xtos/xea
    1050:	6e692f32 69682d74 72706867 69642d69     2/int-highpri-di
    1060:	74617073 72656863 2f00532e 656d6f68     spatcher.S./home
    1070:	6770782f 74737563 6572742f 4a522f65     /xpgcust/tree/RJ
    1080:	3230322d 2f322e33 742f6274 736c6f6f     -2023.2/tb/tools
    1090:	7477732f 736c6f6f 3638782d 2d34365f     /swtools-x86_64-
    10a0:	756e696c 74782f78 61736e65 666c652d     linux/xtensa-elf
    10b0:	6372732f 6f74782f 65782f73 692f3261     /src/xtos/xea2/i
    10c0:	6c2d746e 7270776f 69642d69 74617073     nt-lowpri-dispat
    10d0:	72656863 2f00532e 656d6f68 6770782f     cher.S./home/xpg
    10e0:	74737563 6572742f 4a522f65 3230322d     cust/tree/RJ-202
    10f0:	2f322e33 742f6274 736c6f6f 7477732f     3.2/tb/tools/swt
    1100:	736c6f6f 3638782d 2d34365f 756e696c     ools-x86_64-linu
    1110:	74782f78 61736e65 666c652d 6372732f     x/xtensa-elf/src
    1120:	6f74782f 65782f73 652f3261 722d6378     /xtos/xea2/exc-r
    1130:	72757465 00532e6e 6d6f682f 70782f65     eturn.S./home/xp
    1140:	73756367 72742f74 522f6565 30322d4a     gcust/tree/RJ-20
    1150:	322e3332 2f62742f 6c6f6f74 77732f73     23.2/tb/tools/sw
    1160:	6c6f6f74 38782d73 34365f36 6e696c2d     tools-x86_64-lin
    1170:	782f7875 736e6574 6c652d61 72732f66     ux/xtensa-elf/sr
    1180:	61682f63 6c632f6c 2e6b636f 702f0053     c/hal/clock.S./p
    1190:	656a6f72 632f7463 2f747375 616e6567     roject/cust/gena
    11a0:	522f7070 30322d4a 322e3332 6975622f     pp/RJ-2023.2/bui
    11b0:	692f646c 6c65746e 79656b5f 7577732f     ld/intel_key/swu
    11c0:	61726770 482f6564 525f4357 4c5f5343     pgrade/HWC_RCS_L
    11d0:	305f3758 525f3570 332f324a 30353839     X7_0p5_RJ2/39850
    11e0:	62782f37 646c6975 4357532f 69666e6f     7/xbuild/SWConfi
    11f0:	61682f67 682f006c 2f656d6f 63677078     g/hal./home/xpgc
    1200:	2f747375 65657274 2d4a522f 33323032     ust/tree/RJ-2023
    1210:	742f322e 6f742f62 2f736c6f 6f747773     .2/tb/tools/swto
    1220:	2d736c6f 5f363878 6c2d3436 78756e69     ols-x86_64-linux
    1230:	6574782f 2d61736e 2f666c65 2f637273     /xtensa-elf/src/
    1240:	2f6c6168 736e6f63 00632e74 61687458     hal/const.c.Xtha
    1250:	6e695f6c 76656c74 75006c65 31746e69     l_intlevel.uint1
    1260:	00745f36 52415f5f 5f594152 455a4953     6_t.__ARRAY_SIZE
    1270:	5059545f 005f5f45                       _TYPE__.

Disassembly of section .debug_loc:

00000000 <.debug_loc>:
       0:	00000000 0000001b 93540006 04935504     ..........T..U..
	...
      1c:	00000012 93520006 04935304 00000012     ......R..S......
      2c:	00000015 93520003 00000004 00000000     ......R.........
      3c:	00000300 00001200 52000600 93530493     ...........R..S.
      4c:	00001204 00001500 52000300 00000493     ...........R....
      5c:	00000000 00030000 001b0000 00060000     ................
      6c:	55049354 00000493 00000000 00120000     T..U............
      7c:	00150000 00050000 935b0493 00001504     ..........[.....
      8c:	00001900 72000800 04939f00 1904935b     .......r....[...
      9c:	1b000000 08000000 9f007200 93530493     .........r....S.
      ac:	00000004 00000000 00000000 00002300     .............#..
      bc:	54000600 93550493 00002304 00003500     ...T..U..#...5..
      cc:	54000300 00c80493 00d70000 00060000     ...T............
      dc:	55049354 00d70493 00e60000 00030000     T..U............
      ec:	60049354 6e000001 06000001 04935400     T..`...n.....T..
      fc:	6e049355 77000001 05000001 55049300     U..n...w.......U
     10c:	01f40493 01fc0000 00060000 55049354     ............T..U
     11c:	01fc0493 02090000 00030000 09049354     ............T...
     12c:	0f000002 06000002 04935400 0f049355     .........T..U...
     13c:	11000002 03000002 04935400 00000000     .........T......
     14c:	00000000 00000005 00000023 35550001     ........#.....U5
     15c:	ab000000 01000000 00c85400 00d70000     .........T......
     16c:	00010000 00016055 00017700 55000100     ....U`...w.....U
     17c:	000001f4 000001fc 09550001 0f000002     ..........U.....
     18c:	01000002 00005500 00000000 00050000     .....U..........
     19c:	00230000 00060000 55049354 00230493     ..#.....T..U..#.
     1ac:	00350000 00030000 c8049354 d7000000     ..5.....T.......
     1bc:	06000000 04935400 d7049355 e6000000     .....T..U.......
     1cc:	03000000 04935400 00000160 0000016e     .....T..`...n...
     1dc:	93540006 04935504 0000016e 00000177     ..T..U..n...w...
     1ec:	04930005 f4049355 fc000001 06000001     ....U...........
     1fc:	04935400 fc049355 09000001 03000002     .T..U...........
     20c:	04935400 00000209 0000020f 93540006     .T............T.
     21c:	04935504 0000020f 00000211 93540003     .U............T.
     22c:	00000004 00000000 00000500 00002f00     ............./..
     23c:	54000100 0000002f 000000b9 c85b0001     ...T/.........[.
     24c:	4c000000 01000001 01605400 02600000     ...L.....T`...`.
     25c:	00010000 00000054 00000000 00000500     ....T...........
     26c:	00005600 57000100 00000056 00000062     .V.....WV...b...
     27c:	ae5a0001 c4000000 01000000 00c85400     ..Z..........T..
     28c:	00e90000 00010000 0000f557 00011000     ........W.......
     29c:	57000100 00000160 00000197 97570001     ...W`.........W.
     2ac:	f0000001 01000001 01f05c00 01f40000     .........\......
     2bc:	00010000 0001f456 00020c00 57000100     ....V..........W
     2cc:	0000020c 0000022a 00560001 00000000     ....*.....V.....
     2dc:	05000000 53000000 01000000 00b35200     .......S.....R..
     2ec:	00c40000 00010000 0000c852 00013d00     ........R....=..
     2fc:	52000100 00000160 00000194 ea520001     ...R`.........R.
     30c:	f7000001 01000001 02095200 02510000     .........R....Q.
     31c:	00010000 00000052 00000000 00000500     ....R...........
     32c:	00005600 52000600 93570493 00005604     .V.....R..W..V..
     33c:	0000b300 52000300 00c80493 00e90000     .......R........
     34c:	00060000 57049352 00e90493 00f80000     ....R..W........
     35c:	00030000 60049352 97000001 06000001     ....R..`........
     36c:	04935200 97049357 ea000001 03000001     .R..W...........
     37c:	04935200 000001f4 000001f7 93520006     .R............R.
     38c:	04935704 000001f7 00000209 04930005     .W..............
     39c:	09049357 11000002 06000002 04935200     W............R..
     3ac:	00049357 00000000 05000000 c4000000     W...............
     3bc:	02000000 c89f3000 72000000 02000002     .....0.....r....
     3cc:	009f3000 00000000 05000000 56000000     .0.............V
     3dc:	06000000 04935200 56049357 b3000000     .....R..W..V....
     3ec:	03000000 04935200 000000c8 000000e9     .....R..........
     3fc:	93520006 04935704 000000e9 000000f8     ..R..W..........
     40c:	93520003 00016004 00019700 52000600     ..R..`.........R
     41c:	93570493 00019704 0001ea00 52000300     ..W............R
     42c:	01f40493 01f70000 00060000 57049352     ............R..W
     43c:	01f70493 02090000 00050000 93570493     ..............W.
     44c:	00020904 00021100 52000600 93570493     ...........R..W.
     45c:	00000004 00000000 00000500 00005600     .............V..
     46c:	52000600 93570493 00005604 0000b300     ...R..W..V......
     47c:	52000300 00c80493 00e90000 00060000     ...R............
     48c:	57049352 00e90493 00f80000 00030000     R..W............
     49c:	60049352 97000001 06000001 04935200     R..`.........R..
     4ac:	97049357 ea000001 03000001 04935200     W............R..
     4bc:	000001f4 000001f7 93520006 04935704     ..........R..W..
     4cc:	000001f7 00000209 04930005 09049357     ............W...
     4dc:	11000002 06000002 04935200 00049357     .........R..W...
     4ec:	00000000 05000000 23000000 06000000     ...........#....
     4fc:	04935400 23049355 35000000 03000000     .T..U..#...5....
     50c:	04935400 000000c8 000000d7 93540006     .T............T.
     51c:	04935504 000000d7 000000e6 93540003     .U............T.
     52c:	00016004 00016e00 54000600 93550493     .`...n.....T..U.
     53c:	00016e04 00017700 93000500 04935504     .n...w.......U..
     54c:	000001f4 000001fc 93540006 04935504     ..........T..U..
     55c:	000001fc 00000209 93540003 00020904     ..........T.....
     56c:	00020f00 54000600 93550493 00020f04     .......T..U.....
     57c:	00021100 54000300 00000493 00000000     .......T........
     58c:	00150000 00590000 00010000 0000cb56     ......Y.....V...
     59c:	00010100 53000100 00000160 0000019a     .......S`.......
     5ac:	f4530001 02000001 01000002 02095600     ..S..........V..
     5bc:	02110000 00010000 00000053 00000000     ........S.......
     5cc:	00002000 00004d00 5d000100 0000016b     . ...M.....]k...
     5dc:	0000018b 005b0001 00000000 38000000     ......[........8
     5ec:	5c000000 01000000 01745f00 01a50000     ...\....._t.....
     5fc:	00010000 0000005a 00000000 00003b00     ....Z........;..
     60c:	00008200 58000100 00000000 00000000     .......X........
     61c:	00000050 0000006d 6d590001 a8000000     P...m.....Ym....
     62c:	01000000 00005500 00000000 00500000     .....U........P.
     63c:	005c0000 00010000 0000645f 00006b00     ..\....._d...k..
     64c:	5e000100 0000006b 0000007c 7c5c0001     ...^k...|.....\|
     65c:	b0000000 01000000 00005a00 00000000     .........Z......
     66c:	00590000 008e0000 00010000 00000056     ..Y.........V...
     67c:	00000000 00006200 00007c00 5a000100     .....b...|.....Z
     68c:	0000008e 000000ae 00560001 00000000     ..........V.....
     69c:	88000000 99000000 01000000 00995900     .............Y..
     6ac:	00a50000 00010000 00000058 00000000     ........X.......
     6bc:	00008800 00009000 58000100 00000090     ...........X....
     6cc:	000000ab ab570001 b3000000 01000000     ......W.........
     6dc:	00b35400 00bc0000 00010000 00000057     .T..........W...
     6ec:	00000000 0000ae00 0000c400 56000100     ...............V
     6fc:	0000015a 00000160 00560001 00000000     Z...`.....V.....
     70c:	b9000000 bc000000 0a000000 9f007a00     .............z..
     71c:	007b0493 bc04939f c2000000 01000000     ..{.............
     72c:	00005a00 00000000 00b90000 00c40000     .Z..............
     73c:	00010000 0000005b 00000000 00015c00     ....[........\..
     74c:	00016000 53000100 000001f0 000001f4     .`.....S........
     75c:	02530001 09000002 01000002 020c5300     ..S..........S..
     76c:	02110000 00020000 02119f31 02720000     ........1.....r.
     77c:	00010000 00000053 00000000 0000fb00     ....S...........
     78c:	00013100 56000100 00000000 00000000     .1.....V........
     79c:	00000104 0000013f 00550001 00000000     ....?.....U.....
     7ac:	07000000 1c000001 01000001 011c5800     .............X..
     7bc:	015c0000 00010000 00000053 00000000     ..\.....S.......
     7cc:	00010700 00011200 53000100 00000112     ...........S....
     7dc:	0000012b 2b590001 60000001 01000001     +.....Y+...`....
     7ec:	00005800 00000000 01100000 012e0000     .X..............
     7fc:	00010000 00013d57 00014900 52000100     ....W=...I.....R
	...
     814:	00000137 00000142 42570001 54000001     7...B.....WB...T
     824:	03000001 9f7f7700 00000154 00000160     .....w..T...`...
     834:	00570001 00000000 37000000 3a000001     ..W........7...:
     844:	01000001 013f5600 01540000 00010000     .....V?...T.....
     854:	00000055 00000000 00017700 0001f400     U........w......
     864:	55000100 00000000 00000000 00000191     ...U............
     874:	000001ce 00560001 00000000 9a000000     ......V.........
     884:	ae000001 01000001 01ae5800 01e70000     .........X......
     894:	00010000 00000053 00000000 00019a00     ....S...........
     8a4:	0001a500 5d000100 000001a5 000001ac     .......]........
     8b4:	ac5e0001 bc000001 01000001 01bc5a00     ..^..........Z..
     8c4:	01c80000 00010000 00000059 00000000     ........Y.......
     8d4:	0001a300 0001bc00 59000100 000001ce     ...........Y....
     8e4:	000001ed 00560001 00000000 c8000000     ......V.........
     8f4:	d9000001 01000001 01d95800 01e40000     .........X......
     904:	00010000 0001ea59 0001f400 59000100     ....Y..........Y
	...
     91c:	000001c8 000001d0 d0590001 ed000001     ..........Y.....
     92c:	01000001 01ed5700 01f40000 00010000     .....W..........
     93c:	00000056 00000000 00021100 00024500     V............E..
     94c:	55000100 00000000 00000000 0000021a     ...U............
     95c:	0000025a 00570001 00000000 1d000000     Z.....W.........
     96c:	31000002 01000002 02315800 026e0000     ...1.....X1...n.
     97c:	00010000 00000056 00000000 00021d00     ....V...........
     98c:	00022800 5e000100 00000228 0000023f     .(.....^(...?...
     99c:	3f5a0001 72000002 01000002 00005900     ..Z?...r.....Y..
     9ac:	00000000 02260000 023f0000 00010000     ......&...?.....
     9bc:	00025159 00025d00 52000100 00000000     YQ...].....R....
     9cc:	00000000 0000024b 00000256 56580001     ....K...V.....XV
     9dc:	68000002 03000002 9f7f7800 00000268     ...h.....x..h...
     9ec:	00000272 00580001 00000000 4b000000     r.....X........K
     9fc:	4e000002 01000002 02535500 02680000     ...N.....US...h.
     a0c:	00010000 00000055 00000000 00000a00     ....U...........
     a1c:	00005500 5a000100 0000005d 00000080     .U.....Z].......
     a2c:	995a0001 9e000000 01000000 00c05600     ..Z..........V..
     a3c:	00c60000 00010000 0000c656 0000cd00     ........V.......
     a4c:	5b000100 000000cd 00000140 20710002     ...[....@.....q 
     a5c:	00000140 0000015d 4c580001 5d000002     @...].....XL...]
     a6c:	01000002 027d5a00 02b70000 00010000     .....Z}.........
     a7c:	0002d75a 00032300 5a000100 00000326     Z....#.....Z&...
     a8c:	00000349 4c5a0001 54000003 01000003     I.....ZL...T....
     a9c:	00005a00 00000000 000a0000 00180000     .Z..............
     aac:	00050000 939f007a 00000004 00000000     ....z...........
     abc:	00000a00 00001500 5c000100 00000032     ...........\2...
     acc:	0000003d 485c0001 4e000000 01000000     =.....\H...N....
     adc:	005d5c00 007d0000 00010000 0000de5c     .\]...}.....\...
     aec:	00021c00 53000100 0000025d 0000027d     .......S]...}...
     afc:	7d530001 b7000002 01000002 02b75c00     ..S}.........\..
     b0c:	02d70000 00010000 0002d753 0002f300     ........S.......
     b1c:	5c000100 000002f6 000002fe 005c0001     ...\..........\.
     b2c:	00000000 13000000 24000000 05000000     ...........$....
     b3c:	55049300 00000493 00000000 00400000     ...U..........@.
     b4c:	004e0000 00010000 00005d57 00009600     ..N.....W]......
     b5c:	57000100 0000027d 000002a2 d7570001     ...W}.........W.
     b6c:	18000002 01000003 03265700 03590000     .........W&...Y.
     b7c:	00010000 00000057 00000000 00001000     ....W...........
     b8c:	00002400 7a000800 04939f00 00049353     .$.....z....S...
     b9c:	00000000 18000000 27000000 01000000     ...........'....
     bac:	003d5400 004e0000 00010000 00005d54     .T=...N.....T]..
     bbc:	00008000 54000100 00000085 00000099     .......T........
     bcc:	99540001 33000000 01000001 027d5700     ..T....3.....W}.
     bdc:	02880000 00010000 0002d754 00031e00     ........T.......
     bec:	54000100 00000326 00000332 00540001     ...T&...2.....T.
     bfc:	00000000 1b000000 35000000 01000000     ...........5....
     c0c:	003d5200 004b0000 00010000 00005d52     .R=...K.....R]..
     c1c:	00007700 52000100 00000099 00000231     .w.....R....1...
     c2c:	4c540001 4f000002 01000002 025d5200     ..TL...O.....R].
     c3c:	027d0000 00010000 00027d54 00028000     ..}.....T}......
     c4c:	52000100 000002b7 000002d7 d7540001     ...R..........T.
     c5c:	dc000002 01000002 00005200 00000000     .........R......
     c6c:	001e0000 00710000 00010000 00008056     ......q.....V...
     c7c:	00009e00 56000100 0000024c 0000025d     .......VL...]...
     c8c:	7d560001 90000002 01000002 02a25600     ..V}.........V..
     c9c:	02b70000 00010000 0002d756 00030300     ........V.......
     cac:	56000100 00000000 00000000 00000063     ...V........c...
     cbc:	00000077 d7520001 dc000002 01000002     w.....R.........
     ccc:	00005200 00000000 00630000 007d0000     .R........c...}.
     cdc:	00010000 0002d75c 0002f300 5c000100     ....\..........\
     cec:	000002f6 000002fe 005c0001 00000000     ..........\.....
     cfc:	6c000000 7d000000 05000000 3b007300     ...l...}.....s.;
     d0c:	02dc9f1c 03060000 00030000 009f7573     ............su..
     d1c:	00000000 71000000 7d000000 03000000     .......q...}....
     d2c:	9f157300 00000000 00000000 00000071     .s..........q...
     d3c:	0000007d 005c0001 00000000 71000000     }.....\........q
     d4c:	77000000 01000000 00005200 00000000     ...w.....R......
     d5c:	00740000 007d0000 00010000 0000005f     ..t...}....._...
     d6c:	00000000 00008d00 0000a400 5f000100     ..............._
	...
     d84:	00000093 000000aa fd750004 00aa9f07     ..........u.....
     d94:	00b00000 00010000 0000bd52 0000cb00     ........R.......
     da4:	52000100 000000cb 00000245 28710002     ...R....E.....q(
     db4:	0000025d 0000027d 28710002 000002b7     ]...}.....q(....
     dc4:	000002d7 28710002 00000000 00000000     ......q(........
     dd4:	00000093 000000a4 9f3b0002 00000000     ..........;.....
     de4:	00000000 00000093 000000a4 005a0001     ..............Z.
     df4:	00000000 96000000 a4000000 01000000     ................
     e04:	00005700 00000000 00990000 00a40000     .W..............
     e14:	00010000 00000054 00000000 0000bb00     ....T...........
     e24:	0000c000 56000100 00000000 00000000     .......V........
     e34:	000000d6 000000ee 007e0003 0000ee9f     ..........~.....
     e44:	00016600 71000500 9f049414 00000000     .f.....q........
     e54:	00000000 000000d9 0000010e 00790003     ..............y.
     e64:	0000009f 00000000 0000de00 00016600     .............f..
     e74:	55000100 00000000 00000000 000000de     ...U............
     e84:	00000166 00530001 00000000 de000000     f.....S.........
     e94:	66000000 01000001 00005300 00000000     ...f.....S......
     ea4:	00de0000 01660000 00010000 00000053     ......f.....S...
     eb4:	00000000 0000de00 00016600 54000100     .........f.....T
	...
     ecc:	000000de 00000166 00550001 00000000     ....f.....U.....
     edc:	de000000 66000000 01000001 00005500     .......f.....U..
     eec:	00000000 00de0000 01660000 00010000     ..........f.....
     efc:	00022255 00023d00 55000100 0000023d     U"...=.....U=...
     f0c:	00000245 5d5c0001 60000002 01000002     E.....\]...`....
     f1c:	02625500 02770000 00010000 00000055     .Ub...w.....U...
     f2c:	00000000 0000e100 0000fa00 5a000100     ...............Z
	...
     f44:	000000e4 0000013c 005b0001 00000000     ....<.....[.....
     f54:	e7000000 0e000000 03000001 9f007900     .............y..
	...
     f6c:	000000e7 0000010b 00720003 00010b9f     ..........r.....
     f7c:	00016600 71000500 9f04941c 00000000     .f.....q........
     f8c:	00000000 000000f1 00000139 005c0001     ........9.....\.
     f9c:	00000000 f4000000 2a000000 01000001     ...........*....
     fac:	01335d00 01660000 00010000 0000005a     .]3...f.....Z...
     fbc:	00000000 0000f700 00011d00 5e000100     ...............^
	...
     fd4:	000000ff 0000011f 1f5f0001 48000001     .........._....H
     fe4:	01000001 00005600 00000000 01040000     .....V..........
     ff4:	011d0000 00010000 00011d58 00016600     ........X....f..
    1004:	5e000100 00000000 00000000 0000010e     ...^............
    1014:	0000012e 00590001 00000000 2c000000     ......Y........,
    1024:	54000001 01000001 00005200 00000000     ...T.....R......
    1034:	01390000 01660000 00020000 00009f30     ..9...f.....0...
    1044:	00000000 01390000 01570000 00010000     ......9...W.....
    1054:	0000005d 00000000 00013c00 00014800     ]........<...H..
    1064:	56000100 00000000 00000000 0000013e     ...V........>...
    1074:	00000154 00520001 00000000 3e000000     T.....R........>
    1084:	4b000001 02000001 4b207100 5d000001     ...K.....q K...]
    1094:	01000001 00005800 00000000 01430000     .....X........C.
    10a4:	01720000 00010000 0001f65e 0001ff00     ..r.....^.......
    10b4:	5d000100 0000025d 0000027d 005e0001     ...]]...}.....^.
    10c4:	00000000 43000000 54000001 01000001     .......C...T....
    10d4:	00005200 00000000 01430000 01540000     .R........C...T.
    10e4:	00010000 00000052 00000000 00014300     ....R........C..
    10f4:	00016600 5e000100 00000000 00000000     .f.....^........
    1104:	0000014b 00000166 007b0006 9f1a0110     K...f.....{.....
	...
    111c:	00000151 00000166 005c0001 00000000     Q...f.....\.....
    112c:	54000000 60000001 01000001 01605200     ...T...`.....R`.
    113c:	01660000 00010000 00000056 00000000     ..f.....V.......
    114c:	00015d00 00016600 5f000100 0000025d     .]...f....._]...
    115c:	00000260 625f0001 70000002 01000002     `....._b...p....
    116c:	02755800 027d0000 00010000 00000058     .Xu...}.....X...
    117c:	00000000 00015d00 00016600 5f000100     .....]...f....._
	...
    1194:	00000166 000001e2 0e560001 22000002     f.........V...."
    11a4:	01000002 02625800 026e0000 00010000     .....Xb...n.....
    11b4:	0002b756 0002ca00 58000100 000002cf     V..........X....
    11c4:	000002d7 00580001 00000000 66000000     ......X........f
    11d4:	11000001 01000002 02145700 02450000     .........W....E.
    11e4:	00010000 00026257 00026900 52000100     ....Wb...i.....R
    11f4:	000002bc 000002c8 00570001 00000000     ..........W.....
    1204:	72000000 14000001 01000002 021f5a00     ...r.........Z..
    1214:	02220000 00010000 00023d5a 00024500     ..".....Z=...E..
    1224:	5d000100 000002b7 000002ba bc5a0001     ...]..........Z.
    1234:	d1000002 01000002 00005a00 00000000     .........Z......
    1244:	017b0000 01860000 00050000 04941471     ..{.........q...
    1254:	0001869f 0001a100 7e000300 00009f00     ...........~....
    1264:	00000000 01890000 01ac0000 00030000     ................
    1274:	009f0078 00000000 8c000000 8e000001     x...............
    1284:	01000001 018e5d00 01bc0000 00020000     .....]..........
    1294:	01bc2071 01cc0000 00010000 0001cc5e     q ..........^...
    12a4:	0001d400 71000200 0001d420 0001d600     .......q .......
    12b4:	5e000100 00000000 00000000 00000191     ...^............
    12c4:	000001ba 005d0001 00000000 94000000     ......].........
    12d4:	f9000001 01000001 00005b00 00000000     .........[......
    12e4:	01970000 01990000 00010000 0001995f     ............_...
    12f4:	0001d600 71000200 0001d614 0001d800     .......q........
    1304:	59000100 00000000 00000000 0000019c     ...Y............
    1314:	000001f0 005f0001 00000000 a1000000     ......_.........
    1324:	b1000001 01000001 00005e00 00000000     .........^......
    1334:	01a60000 01d20000 00010000 00000052     ............R...
    1344:	00000000 0001ac00 0001b300 58000100     ...............X
    1354:	000001b3 000001d8 1c710002 000001d8     ..........q.....
    1364:	000001df 00590001 00000000 e4000000     ......Y.........
    1374:	14000001 01000002 00005a00 00000000     .........Z......
    1384:	01e40000 02140000 00010000 00000054     ............T...
    1394:	00000000 0001e400 00021400 5a000100     ...............Z
	...
    13ac:	000001e4 00000214 00540001 00000000     ..........T.....
    13bc:	e8000000 ff000001 01000001 00005d00     .............]..
    13cc:	00000000 01eb0000 02050000 00010000     ................
    13dc:	0000005e 00000000 0001ed00 00021400     ^...............
    13ec:	30000200 0000009f 00000000 0001ed00     ...0............
    13fc:	00020500 5e000100 00000000 00000000     .......^........
    140c:	000001f6 0000020e 00580001 00000000     ..........X.....
    141c:	f6000000 ff000001 01000001 00005d00     .............]..
    142c:	00000000 01f60000 02140000 00020000     ................
    143c:	00009f30 00000000 01f60000 02110000     0...............
    144c:	00010000 00000057 00000000 0001f600     ....W...........
    145c:	00020e00 58000100 00000000 00000000     .......X........
    146c:	000001f9 00000211 115b0001 14000002     ..........[.....
    147c:	01000002 00005700 00000000 01fc0000     .....W..........
    148c:	02140000 00010000 0000005f 00000000     ........_.......
    149c:	0001ff00 00021400 7d000600 1a011000     ...........}....
    14ac:	0000009f 00000000 00020b00 00021400     ................
    14bc:	56000100 00000000 00000000 0000020e     ...V............
    14cc:	00000214 00580001 00000000 14000000     ......X.........
    14dc:	22000002 01000002 02bc5600 02c30000     ...".....V......
    14ec:	00010000 00000052 00000000 00022e00     ....R...........
    14fc:	00023400 52000100 00000000 00000000     .4.....R........
    150c:	00000231 00000234 34540001 3a000002     1...4.....T4...:
    151c:	06000002 72007400 009f2100 00000000     .....t.r.!......
    152c:	37000000 45000002 01000002 00005d00     ...7...E.....]..
    153c:	00000000 023a0000 02450000 00010000     ......:...E.....
    154c:	0000005c 00000000 00023d00 00024500     \........=...E..
    155c:	5e000100 00000000 00000000 00000252     ...^........R...
    156c:	00000257 9f300004 02570493 025d0000     W.....0...W...].
    157c:	00070000 04939f30 00049353 00000000     ....0...S.......
    158c:	62000000 69000002 01000002 00005200     ...b...i.....R..
    159c:	00000000 02620000 026e0000 00010000     ......b...n.....
    15ac:	00000056 00000000 00026200 00027000     V........b...p..
    15bc:	58000100 00000000 00000000 00000264     ...X........d...
    15cc:	0000027a 00570001 00000000 66000000     z.....W........f
    15dc:	6e000002 01000002 026e5900 027a0000     ...n.....Yn...z.
    15ec:	00010000 00000056 00000000 00026900     ....V........i..
    15fc:	00027300 52000100 00000000 00000000     .s.....R........
    160c:	0000026c 0000027a 005f0001 00000000     l...z....._.....
    161c:	6c000000 70000002 01000002 00005800     ...l...p.....X..
    162c:	00000000 029b0000 02a20000 00050000     ................
    163c:	93530493 00000004 00000000 0002b500     ..S.............
    164c:	0002b700 30000d00 1004939f ffe08080     .......0........
    165c:	04939f07 00000000 00000000 000002bc     ................
    166c:	000002c3 00520001 00000000 bc000000     ......R.........
    167c:	c8000002 01000002 00005700 00000000     .........W......
    168c:	02bc0000 02ca0000 00010000 00000058     ............X...
    169c:	00000000 0002be00 0002d400 56000100     ...............V
	...
    16b4:	000002c0 000002c8 c8590001 d4000002     ..........Y.....
    16c4:	01000002 00005700 00000000 02c30000     .....W..........
    16d4:	02cd0000 00010000 00000052 00000000     ........R.......
    16e4:	0002c600 0002d400 5b000100 00000000     ...........[....
    16f4:	00000000 000002c6 000002ca 00580001     ..............X.
    1704:	00000000 0b000000 1e000003 01000003     ................
    1714:	032d5400 03320000 00010000 00000054     .T-...2.....T...
    1724:	00000000 00030b00 00032300 5a000100     .........#.....Z
    1734:	0000032d 00000349 4c5a0001 54000003     -...I.....ZL...T
    1744:	01000003 00005a00 00000000 03130000     .....Z..........
    1754:	03260000 00050000 1c3b0073 0003329f     ..&.....s.;..2..
    1764:	00035c00 73000300 00009f75 00000000     .\.....su.......
    1774:	03180000 03260000 00030000 009f1573     ......&.....s...
    1784:	00000000 18000000 23000003 01000003     ...........#....
    1794:	00005a00 00000000 03180000 031e0000     .Z..............
    17a4:	00010000 00000054 00000000 00031b00     ....T...........
    17b4:	00032300 5f000100 00000323 00000326     .#....._#...&...
    17c4:	005a0001 00000000 0a000000 10000000     ..Z.............
    17d4:	08000000 9f007600 93530493 00001004     .....v....S.....
    17e4:	00001900 93000500 04935304 00000019     .........S......
    17f4:	00000025 93560006 04935304 00000000     %.....V..S......
    1804:	00000000 00000010 00000074 93540006     ........t.....T.
    1814:	04935504 00000074 0000008b 93540003     .U..t.........T.
    1824:	00008b04 00009400 54000600 93550493     ...........T..U.
    1834:	00009404 00009800 93000500 04935504     .............U..
    1844:	0000009e 000000f5 93540006 04935504     ..........T..U..
    1854:	000000f5 000000fc 04930005 00049355     ............U...
    1864:	00000000 10000000 74000000 06000000     ...........t....
    1874:	04935600 74049353 88000000 03000000     .V..S..t........
    1884:	04935600 00000088 000000fc 93560006     .V............V.
    1894:	04935704 00000000 00000000 00000038     .W..........8...
    18a4:	0000003d 04930005 3d049353 48000000     =.......S..=...H
    18b4:	06000000 04935600 00049353 00000000     .....V..S.......
    18c4:	48000000 9a000000 06000000 10007200     ...H.........r..
    18d4:	9e9f1a01 a0000000 06000000 10007200     .............r..
    18e4:	009f1a01 00000000 48000000 4e000000     ...........H...N
    18f4:	05000000 55049300 004e0493 00590000     .......U..N...Y.
    1904:	00060000 55049354 00000493 00000000     ....T..U........
    1914:	00590000 00ac0000 00060000 01100078     ..Y.........x...
    1924:	00009f1a 00000000 00590000 00610000     ..........Y...a.
    1934:	00050000 93550493 00006104 00006c00     ......U..a...l..
    1944:	54000600 93550493 00000004 00000000     ...T..U.........
    1954:	00006c00 0000fc00 7a000600 1a011000     .l.........z....
    1964:	0000009f 00000000 0000d200 0000e500     ................
    1974:	58000100 00000000 00000000 000000fc     ...X............
    1984:	00000121 30520001 30000001 01000002     !.....R0...0....
    1994:	00005200 00000000 00fc0000 01100000     .R..............
    19a4:	00010000 00013053 00013800 53000100     ....S0...8.....S
    19b4:	0000014d 00000177 d9530001 f6000001     M...w.....S.....
    19c4:	02000001 f69f3000 fe000001 01000001     .....0..........
    19d4:	022d5800 023b0000 00010000 00000058     .X-...;.....X...
    19e4:	00000000 0000fc00 00011300 54000100     ...............T
    19f4:	00000130 0000017a f6540001 fe000001     0...z.....T.....
    1a04:	01000001 022d5400 023b0000 00010000     .....T-...;.....
    1a14:	00000054 00000000 0000fc00 00011000     T...............
    1a24:	55000100 00000130 0000013b 4d550001     ...U0...;.....UM
    1a34:	57000001 01000001 01f65500 01fe0000     ...W.....U......
    1a44:	00010000 00022255 00022d00 57000100     ....U"...-.....W
    1a54:	0000022d 0000023b 00550001 00000000     -...;.....U.....
    1a64:	fc000000 1b000000 01000001 01305600     .............V0.
    1a74:	017a0000 00010000 0001d956 00021d00     ..z.....V.......
    1a84:	56000100 00000000 00000000 000000ff     ...V............
    1a94:	0000011b 00760005 309f254f 91000001     ......v.O%.0....
    1aa4:	05000001 4f007600 01949f25 01ab0000     .....v.O%.......
    1ab4:	00050000 254f0076 0001ae9f 0001c900     ....v.O%........
    1ac4:	76000500 9f254f00 000001cc 000001d9     ...v.O%.........
    1ad4:	00760005 f69f254f fe000001 05000001     ..v.O%..........
    1ae4:	4f007600 00009f25 00000000 01260000     .v.O%.........&.
    1af4:	01300000 00050000 93530493 00000004     ..0.......S.....
    1b04:	00000000 00017400 0001e900 77000600     .....t.........w
    1b14:	1a011000 0000009f 00000000 00017700     .............w..
    1b24:	00019100 56000100 00000194 000001ab     .......V........
    1b34:	ae560001 c9000001 01000001 01cc5600     ..V..........V..
    1b44:	01d90000 00010000 00000056 00000000     ........V.......
    1b54:	00017700 00018b00 55000100 00000194     .w.........U....
    1b64:	000001a0 ae550001 c6000001 01000001     ......U.........
    1b74:	01cc5500 01d60000 00010000 00000055     .U..........U...
    1b84:	00000000 00017700 00018e00 54000100     .....w.........T
    1b94:	00000194 000001a5 ae540001 be000001     ..........T.....
    1ba4:	01000001 01cc5400 01d40000 00010000     .....T..........
    1bb4:	00000054 00000000 00017700 00018000     T........w......
    1bc4:	53000100 00000194 0000019a ae530001     ...S..........S.
    1bd4:	b9000001 01000001 01cc5300 01cf0000     .........S......
    1be4:	00010000 00000053 00000000 00018000     ....S...........
    1bf4:	00018800 53000100 0000019a 000001a3     .......S........
    1c04:	b9530001 c1000001 01000001 00005300     ..S..........S..
    1c14:	00000000 01850000 01940000 00010000     ................
    1c24:	00019d5f 0001ab00 58000100 000001ab     _..........X....
    1c34:	000001ae bc560001 c9000001 01000001     ......V.........
    1c44:	01c95800 01cc0000 00010000 00000056     .X..........V...
    1c54:	00000000 00018b00 00019400 55000100     ...............U
    1c64:	000001a0 000001ae 00550001 00000000     ..........U.....
    1c74:	8e000000 94000001 01000001 00005400     .............T..
    1c84:	00000000 01fe0000 020c0000 00020000     ................
    1c94:	00009f31 00000000 021f0000 022d0000     1.............-.
    1ca4:	00010000 0000005e 00000000 00022d00     ....^........-..
    1cb4:	00023000 52000100 00000000 00000000     .0.....R........
    1cc4:	00000000 00000006 06520001 3b000000     ..........R....;
    1cd4:	01000000 00005500 00000000 00000000     .....U..........
    1ce4:	00410000 00010000 00000053 00000000     ..A.....S.......
    1cf4:	00000000 00004400 54000100 00000061     .....D.....Ta...
    1d04:	00000066 00540001 00000000 18000000     f.....T.........
    1d14:	5d000000 01000000 00615600 007f0000     ...].....Va.....
    1d24:	00010000 00000056 00000000 00002400     ....V........$..
    1d34:	00002d00 78000300 00009f00 00000000     .-.....x........
    1d44:	00270000 00330000 00020000 00339f30     ..'...3.....0.3.
    1d54:	00440000 00010000 00000059 00000000     ..D.....Y.......
    1d64:	00002a00 00004400 30000200 0000009f     .*...D.....0....
    1d74:	00000000 00002a00 00003300 59000100     .....*...3.....Y
	...
    1d8c:	0000002d 00000035 00580001 00000000     -...5.....X.....
    1d9c:	33000000 3b000000 01000000 00005500     ...3...;.....U..
    1dac:	00000000 00330000 00440000 00010000     ......3...D.....
    1dbc:	00006159 00006c00 59000100 00000000     Ya...l.....Y....
    1dcc:	00000000 0000003e 00000044 61520001     ....>...D.....Ra
    1ddc:	6c000000 01000000 006e5200 00790000     ...l.....Rn...y.
    1dec:	00010000 00000052 00000000 00003e00     ....R........>..
    1dfc:	00004c00 55000100 0000004c 00000052     .L.....UL...R...
    1e0c:	55530001 57000000 01000000 00615300     ..SU...W.....Sa.
    1e1c:	00720000 00010000 00007755 00007f00     ..r.....Uw......
    1e2c:	55000100 00000000 00000000 00000044     ...U........D...
    1e3c:	00000047 00530001 00000000 6e000000     G.....S........n
    1e4c:	75000000 01000000 00005900 00000000     ...u.....Y......
    1e5c:	006e0000 00720000 00010000 00000055     ..n...r.....U...
    1e6c:	00000000 00006e00 00007f00 54000100     .....n.........T
	...
    1e84:	00000070 0000007c 00530001 00000000     p...|.....S.....
    1e94:	00000000 05000000 01000000 00055200     .............R..
    1ea4:	00150000 00010000 00000053 00000000     ........S.......
    1eb4:	00001200 00002200 52000100 00000025     .....".....R%...
    1ec4:	00000032 00550001 00000000 15000000     2.....U.........
    1ed4:	32000000 01000000 00005300 00000000     ...2.....S......
    1ee4:	00000000 00050000 00010000 00000552     ............R...
    1ef4:	00003400 53000100 00000000 00000000     .4.....S........
    1f04:	00000025 00000032 00550001 00000000     %...2.....U.....
    1f14:	0d000000 32000000 01000000 00005200     .......2.....R..
	...
    1f2c:	00050000 00010000 00000552 00004200     ........R....B..
    1f3c:	56000100 00000000 00000000 00000000     ...V............
    1f4c:	0000002e 00530001 00000000 00000000     ......S.........
    1f5c:	32000000 01000000 00005400 00000000     ...2.....T......
    1f6c:	00320000 00400000 00010000 00000054     ..2...@.....T...
    1f7c:	00000000 00002400 00003600 52000100     .....$...6.....R
	...

Disassembly of section .xt.prop:

00000000 <.xt.prop>:
       0:	10000c30 00000010 00000001 10000e38     0...........8...
      10:	0000001a 00000082 10000e52 00000007     ........R.......
      20:	000000a2 10000e59 00000003 000000a2     ....Y...........
      30:	10000e5c 0000000b 000000a2 10000e67     \...........g...
      40:	00000000 00000008 10000c40 00000010     ........@.......
      50:	00000001 10000e68 00000000 00002804     ....h........(..
      60:	10000e68 0000000a 00000082 10000e72     h...........r...
      70:	00000000 00002808 10000e74 0000000a     .....(..t.......
      80:	00000082 10000e7e 00000000 00002808     ....~........(..
      90:	10000e80 00000014 00000082 10000e94     ................
      a0:	00000004 000000a2 10000e98 00000000     ................
      b0:	00000008 10000e98 00000011 000000a2     ................
      c0:	10000ea9 00000006 000000a2 10000eaf     ................
      d0:	00000000 00000008 10000c50 0000000c     ........P.......
      e0:	00000001 10000eb0 00000000 00002804     .............(..
      f0:	10000eb0 0000004c 00000082 10000efc     ....L...........
     100:	00000007 000000a2 10000f03 00000000     ................
     110:	00002808 10000f04 00000018 00000082     .(..............
     120:	10000f1c 0000000c 000000a2 10000f28     ............(...
     130:	00000005 00000092 10000f2d 00000000     ........-.......
     140:	00000008 10000f2d 00000012 000000a2     ....-...........
     150:	10000f3f 00000001 00000008 10000f40     ?...........@...
     160:	00000004 000000a2 10000f44 00000000     ........D.......
     170:	00000008 10000f44 00000028 000000a2     ....D...(.......
     180:	10000f6c 00000007 000000a2 10000f73     l...........s...
     190:	00000000 00002808 10000f74 0000008c     .....(..t.......
     1a0:	00000082 10001000 00000032 000000a2     ........2.......
     1b0:	10001032 00000007 000000a2 10001039     2...........9...
     1c0:	00000000 00000008 10001039 00000017     ........9.......
     1d0:	000000a2 10001050 00000008 000000a2     ....P...........
     1e0:	10001058 00000002 000000a2 1000105a     X...........Z...
     1f0:	00000000 00000008 10000c5c 00000030     ........\...0...
     200:	00000001 10001060 00000000 00002804     ....`........(..
     210:	10001060 00000026 00000082 10001086     `...&...........
     220:	00000010 000000b2 10001096 0000000d     ................
     230:	00000092 100010a3 0000003c 00000092     ........<.......
     240:	100010df 00000000 00002808 100010e0     .........(......
     250:	00000026 00000082 10001106 00000002     &...............
     260:	000000a2 10001108 00000000 00002808     .............(..
     270:	10001108 0000002a 00000082 10001132     ....*.......2...
     280:	00000002 000000a2 10001134 00000000     ........4.......
     290:	00002808 10001134 0000003c 00000082     .(..4...<.......
     2a0:	10001170 00000020 00000092 10001190     p... ...........
     2b0:	00000000 00000008 10001190 00000003     ................
     2c0:	000000a2 10001193 00000020 000000a2     ........ .......
     2d0:	100011b3 00000002 000000b2 100011b5     ................
     2e0:	00000000 00000008 10000c8c 00000048     ............H...
     2f0:	00000001 100011b8 00000000 00002804     .............(..
     300:	100011b8 00000021 00000082 100011d9     ....!...........
     310:	00000000 00000008 100011d9 0000000d     ................
     320:	000000a2 100011e6 00000019 000000a2     ................
     330:	100011ff 00000001 00000008 10001200     ................
     340:	00000012 000000a2 10001212 00000002     ................
     350:	00000008 10001214 0000000a 000000a2     ................
     360:	1000121e 00000019 000000a2 10001237     ............7...
     370:	00000001 00000008 10001238 00000011     ........8.......
     380:	000000a2 10001249 00000000 00000008     ....I...........
     390:	10001249 0000000b 000000a2 10001254     I...........T...
     3a0:	00000019 000000a2 1000126d 00000000     ........m.......
     3b0:	00000008 1000126d 00000002 000000a2     ....m...........
     3c0:	1000126f 00000000 00002808 10001270     o........(..p...
     3d0:	00000016 00000082 10001286 00000007     ................
     3e0:	000000a2 1000128d 00000006 000000a2     ................
     3f0:	10001293 00000001 00000008 10001294     ................
     400:	00000008 000000a2 1000129c 00000002     ................
     410:	000000a2 1000129e 00000000 00000008     ................
     420:	1000129e 00000025 000000a2 100012c3     ....%...........
     430:	00000001 00000008 100012c4 00000021     ............!...
     440:	000000a2 100012e5 00000000 00000008     ................
     450:	100012e5 00000008 00000082 100012ed     ................
     460:	00000000 00000008 100012ed 00000003     ................
     470:	000000a2 100012f0 00000009 000000a2     ................
     480:	100012f9 00000000 00000008 100012f9     ................
     490:	00000015 000000a2 1000130e 00000000     ................
     4a0:	00000008 1000130e 00000009 00000082     ................
     4b0:	10001317 00000000 00000008 10001317     ................
     4c0:	00000009 00000082 10001320 00000000     ........ .......
     4d0:	00000008 10001320 00000006 00000082     .... ...........
     4e0:	10001326 00000002 000000a2 10001328     &...........(...
     4f0:	00000002 000000a2 1000132a 00000018     ........*.......
     500:	000000a2 10001342 00000000 00002808     ....B........(..
     510:	10001344 00000016 00000082 1000135a     D...........Z...
     520:	00000002 00000008 1000135c 00000034     ........\...4...
     530:	000000a2 10001390 00000000 00000008     ................
     540:	10001390 0000000d 000000a2 1000139d     ................
     550:	00000000 00000008 1000139d 0000000b     ................
     560:	000000a2 100013a8 00000005 000000a2     ................
     570:	100013ad 0000001f 000000a2 100013cc     ................
     580:	00000005 000000a2 100013d1 00000002     ................
     590:	000000a2 100013d3 00000000 00002808     .............(..
     5a0:	100013d4 00000014 00000082 100013e8     ................
     5b0:	00000008 000000a2 100013f0 00000000     ................
     5c0:	00000008 100013f0 00000035 000000a2     ........5.......
     5d0:	10001425 00000001 00000008 10001426     %...........&...
     5e0:	0000001e 00000082 10001444 00000000     ........D.......
     5f0:	00000008 10001444 00000010 00000082     ....D...........
     600:	10001454 0000000a 000000a2 1000145e     T...........^...
     610:	00000000 00000008 1000145e 00000010     ........^.......
     620:	00000082 1000146e 0000000a 000000a2     ....n...........
     630:	10001478 00000001 00000008 10001479     x...........y...
     640:	0000000d 00000082 10001486 00000008     ................
     650:	000000a2 1000148e 00000007 000000a2     ................
     660:	10001495 0000000f 000000a2 100014a4     ................
     670:	00000002 000000a2 100014a6 00000002     ................
     680:	00000008 100014a8 00000003 000000a2     ................
     690:	100014ab 00000000 00002808 100014ac     .........(......
     6a0:	00000011 00000082 100014bd 00000000     ................
     6b0:	00002808 100014c0 00000012 00000082     .(..............
     6c0:	100014d2 00000002 00000008 100014d4     ................
     6d0:	0000000a 000000a2 100014de 00000000     ................
     6e0:	00002808 100014e0 00000012 00000082     .(..............
     6f0:	100014f2 00000000 00002808 100014f4     .........(......
     700:	00000013 00000082 10001507 00000000     ................
     710:	00002808 10001508 00000005 00000082     .(..............
     720:	1000150d 00000000 00002808 10001510     .........(......
     730:	00000012 00000082 10001522 00000002     ........".......
     740:	00000008 10001524 0000000a 000000a2     ....$...........
     750:	1000152e 0000001f 000000a2 1000154d     ............M...
     760:	00000000 00000008 1000154d 00000002     ........M.......
     770:	000000a2 1000154f 00000000 00000008     ....O...........
     780:	10024160 00000028 00002804 10000cd4     `A..(....(......
     790:	00000004 00000001 10001550 00000000     ........P.......
     7a0:	00002804 10001550 0000000d 00000082     .(..P...........
     7b0:	1000155d 00000000 00000008 10000cd8     ]...............
     7c0:	00000008 00000001 10001560 00000000     ........`.......
     7d0:	00002804 10001560 0000001a 00000082     .(..`...........
     7e0:	1000157a 00000000 00002808 1000157c     z........(..|...
     7f0:	0000000a 00000082 10001586 00000000     ................
     800:	00002808 10001588 0000000c 00000082     .(..............
     810:	10001594 00000000 00002808 10001594     .........(......
     820:	0000003e 00000082 100015d2 00000000     >...............
     830:	00002808 100015d4 0000004b 00000082     .(......K.......
     840:	1000161f 00000000 00002808 10001620     .........(.. ...
     850:	00000039 00000082 10001659 00000000     9.......Y.......
     860:	00000008 10000ce0 00000008 00000001     ................
     870:	1000165c 00000000 00002804 1000165c     \........(..\...
     880:	00000027 00000082 10001683 00000000     '...............
     890:	00002808 10001684 00000019 00000082     .(..............
     8a0:	1000169d 00000000 00000008 1000169d     ................
     8b0:	00000057 000000a2 100016f4 00000024     W...........$...
     8c0:	000000a2 10001718 00000000 00002808     .............(..
     8d0:	10001718 00000015 00000082 1000172d     ............-...
     8e0:	00000000 00000008 1000172d 0000005b     ........-...[...
     8f0:	000000a2 10001788 00000024 000000a2     ........$.......
     900:	100017ac 00000000 00002808 100017ac     .........(......
     910:	00000016 00000082 100017c2 00000003     ................
     920:	00000008 100017c5 0000005f 000000a2     ........_.......
     930:	10001824 00000024 000000a2 10001848     $...$.......H...
     940:	00000000 00002808 10001848 00000011     .....(..H.......
     950:	00000082 10001859 00000000 00000008     ....Y...........
     960:	10001859 00000018 000000a2 10001871     Y...........q...
     970:	0000001b 000000a2 1000188c 00000000     ................
     980:	00000008 1000188c 00000050 000000a2     ........P.......
     990:	100018dc 00000028 000000a2 10001904     ....(...........
     9a0:	0000000a 000000a2 1000190e 00000003     ................
     9b0:	00000008 10001911 00000033 000000a2     ........3.......
     9c0:	10001944 00000046 000000a2 1000198a     D...F...........
     9d0:	00000000 00000008 10000ce8 00000008     ................
     9e0:	00000001 1000198c 00000000 00002804     .............(..
     9f0:	1000198c 0000002a 00000082 100019b6     ....*...........
     a00:	00000000 00002808 100019b8 00000046     .....(......F...
     a10:	00000082 100019fe 00000000 00002808     .............(..
     a20:	10001a00 00000064 00000082 10001a64     ....d.......d...
     a30:	00000000 00002808 10001a64 0000002e     .....(..d.......
     a40:	00000082 10001a92 00000000 00002808     .............(..
     a50:	10001a94 0000002b 00000082 10001abf     ....+...........
     a60:	00000000 00002808 10001ac0 0000002f     .....(....../...
     a70:	00000082 10001aef 00000000 00002808     .............(..
     a80:	10001af0 00000032 00000082 10001b22     ....2......."...
     a90:	00000000 00002808 10001b24 0000002e     .....(..$.......
     aa0:	00000082 10001b52 00000000 00002808     ....R........(..
     ab0:	10001b54 0000002e 00000082 10001b82     T...............
     ac0:	00000000 00000008 10000cf0 00000004     ................
     ad0:	00000001 10001b90 00000000 00002804     .............(..
     ae0:	10001b90 0000000a 00000082 10001b9a     ................
     af0:	00000000 00002808 10001b9c 0000001f     .....(..........
     b00:	00000082 10001bbb 00000000 00002808     .............(..
     b10:	10001bbc 00000021 00000082 10001bdd     ....!...........
     b20:	00000000 00002808 10001be0 0000004e     .....(......N...
     b30:	00000082 10001c2e 00000000 00000008     ................
     b40:	10001c2e 00000002 000000a2 10001c30     ............0...
     b50:	00000008 000000a2 10001c38 00000000     ........8.......
     b60:	00002808 10001c38 00000034 00000082     .(..8...4.......
     b70:	10001c6c 00000002 000000a2 10001c6e     l...........n...
     b80:	00000020 000000a2 10001c8e 00000000      ...............
     b90:	00002808 10001c90 0000003a 00000082     .(......:.......
     ba0:	10001cca 00000000 00000008 10001cca     ................
     bb0:	0000000e 000000a2 10001cd8 00000008     ................
     bc0:	000000a2 10001ce0 00000000 00002808     .............(..
     bd0:	10001ce0 0000000a 00000082 10001cea     ................
     be0:	00000000 00002808 10001cec 0000000a     .....(..........
     bf0:	00000082 10001cf6 00000000 00002808     .............(..
     c00:	10001cf8 00000018 00000082 10001d10     ................
     c10:	00000002 000000a2 10001d12 00000001     ................
     c20:	00000008 10001d13 00000005 000000a2     ................
     c30:	10001d18 00000009 000000a2 10001d21     ............!...
     c40:	00000003 00000092 10001d24 00000000     ........$.......
     c50:	00000008 10000cf4 00000008 00000001     ................
     c60:	10001d24 00000000 00002804 10001d24     $........(..$...
     c70:	0000002c 00000082 10001d50 00000000     ,.......P.......
     c80:	00002808 10001d50 00000024 00000082     .(..P...$.......
     c90:	10001d74 00000000 00002808 10001d74     t........(..t...
     ca0:	0000000f 00000082 10001d83 00000000     ................
     cb0:	00002808 10001d84 00000014 00000082     .(..............
     cc0:	10001d98 00000005 000000a2 10001d9d     ................
     cd0:	00000000 00002808 10001da0 0000000c     .....(..........
     ce0:	00000082 10001dac 00000000 00002808     .............(..
     cf0:	10001dac 00000010 00000082 10001dbc     ................
     d00:	00000002 000000a2 10001dbe 00000000     ................
     d10:	00002808 10001dc0 00000018 00000082     .(..............
     d20:	10001dd8 00000001 00000008 10001dd9     ................
     d30:	00000007 000000a2 10001de0 0000001c     ................
     d40:	000000a2 10001dfc 0000000b 000000a2     ................
     d50:	10001e07 00000002 00000008 10001e09     ................
     d60:	00000007 000000a2 10001e10 0000001d     ................
     d70:	000000a2 10001e2d 00000001 00000008     ....-...........
     d80:	10001e2e 00000002 000000a2 10001e30     ............0...
     d90:	00000009 000000a2 10001e39 00000000     ........9.......
     da0:	00000008 10001e39 00000007 000000a2     ....9...........
     db0:	10001e40 0000001a 000000a2 10001e5a     @...........Z...
     dc0:	00000004 000000a2 10001e5e 00000002     ........^.......
     dd0:	000000a2 10001e60 00000001 00000008     ....`...........
     de0:	10001e61 00000007 000000a2 10001e68     a...........h...
     df0:	00000007 000000a2 10001e6f 00000002     ........o.......
     e00:	00000008 10001e71 00000007 000000a2     ....q...........
     e10:	10001e78 0000001c 000000a2 10001e94     x...............
     e20:	00000000 00000008 10001e94 00000004     ................
     e30:	000000a2 10001e98 00000000 00002808     .............(..
     e40:	10001e98 0000000a 00000082 10001ea2     ................
     e50:	00000000 00000008 10001ea2 00000007     ................
     e60:	000000a2 10001ea9 0000001e 000000a2     ................
     e70:	10001ec7 00000001 00000008 10001ec8     ................
     e80:	00000004 000000a2 10001ecc 00000000     ................
     e90:	00002808 10001ecc 0000001b 00000082     .(..............
     ea0:	10001ee7 00000000 00000008 10001ee7     ................
     eb0:	00000008 00000082 10001eef 00000000     ................
     ec0:	00000008 10001eef 00000008 00000082     ................
     ed0:	10001ef7 00000000 00000008 10001ef7     ................
     ee0:	00000008 00000082 10001eff 00000000     ................
     ef0:	00000008 10001eff 00000008 00000082     ................
     f00:	10001f07 00000000 00000008 10001f07     ................
     f10:	0000000d 00000082 10001f14 00000000     ................
     f20:	00000008 10001f14 00000008 00000082     ................
     f30:	10001f1c 00000010 000000a2 10001f2c     ............,...
     f40:	00000007 000000a2 10001f33 00000000     ........3.......
     f50:	00000008 10001f33 00000008 00000082     ....3...........
     f60:	10001f3b 00000000 00000008 10001f3b     ;...........;...
     f70:	00000008 00000082 10001f43 00000000     ........C.......
     f80:	00000008 10001f43 00000005 00000082     ....C...........
     f90:	10001f48 00000011 000000a2 10001f59     H...........Y...
     fa0:	00000000 00000008 10001f59 00000008     ........Y.......
     fb0:	00000082 10001f61 00000000 00000008     ....a...........
     fc0:	10001f61 00000008 00000082 10001f69     a...........i...
     fd0:	00000000 00002808 10001f6c 0000002c     .....(..l...,...
     fe0:	00000082 10001f98 00000002 000000a2     ................
     ff0:	10001f9a 00000000 00000008 10001f9a     ................
    1000:	0000000b 000000a2 10001fa5 00000000     ................
    1010:	00002808 10001fa8 00000018 00000082     .(..............
    1020:	10001fc0 00000000 00000008 10001fc0     ................
    1030:	00000005 00000082 10001fc5 0000000f     ................
    1040:	000000a2 10001fd4 00000002 000000a2     ................
    1050:	10001fd6 00000002 00000008 10001fd8     ................
    1060:	00000008 00000082 10001fe0 00000000     ................
    1070:	00000008 10001fe0 00000008 00000082     ................
    1080:	10001fe8 00000000 00000008 10001fe8     ................
    1090:	00000008 00000082 10001ff0 00000000     ................
    10a0:	00000008 10001ff0 00000005 00000082     ................
    10b0:	10001ff5 0000000f 000000a2 10002004     ............. ..
    10c0:	00000000 00000008 10002004 00000008     ......... ......
    10d0:	00000082 1000200c 00000000 00000008     ..... ..........
    10e0:	1000200c 00000008 00000082 10002014     . ........... ..
    10f0:	00000000 00002808 10002014 00000052     .....(... ..R...
    1100:	00000082 10002066 00000002 000000a2     ....f ..........
    1110:	10002068 00000001 00000008 10002069     h ..........i ..
    1120:	0000000b 000000a2 10002074 00000000     ........t ......
    1130:	00002808 10002074 0000001f 00000082     .(..t ..........
    1140:	10002093 00000000 00000008 10024198     . ...........A..
    1150:	00000034 00002804 10000cfc 00000008     4....(..........
    1160:	00000001 100020a0 00000000 00002804     ..... .......(..
    1170:	100020a0 0000000e 00000082 100020ae     . ........... ..
    1180:	00000003 00000008 100020b1 00000023     ......... ..#...
    1190:	000000a2 100020d4 00000005 000000a2     ..... ..........
    11a0:	100020d9 00000003 00000092 100020dc     . ........... ..
    11b0:	00000000 00002808 100020dc 00000016     .....(... ......
    11c0:	00000082 100020f2 00000000 00002808     ..... .......(..
    11d0:	100020f4 00000011 00000082 10002105     . ...........!..
    11e0:	00000049 000000a2 1000214e 00000000     I.......N!......
    11f0:	00000008 1000214e 0000002c 000000a2     ....N!..,.......
    1200:	1000217a 0000000a 000000a2 10002184     z!...........!..
    1210:	00000005 000000a2 10002189 00000003     .........!......
    1220:	00000092 1000218c 00000000 00002808     .....!.......(..
    1230:	1000218c 00000024 00000082 100021b0     .!..$........!..
    1240:	00000000 00002808 100021b0 00000030     .....(...!..0...
    1250:	00000082 100021e0 00000000 00002808     .....!.......(..
    1260:	100021e0 00000012 00000082 100021f2     .!...........!..
    1270:	00000000 00000008 10000d04 00000004     ................
    1280:	00000001 100021f4 00000000 00002804     .....!.......(..
    1290:	100021f4 00000005 00000082 100021f9     .!...........!..
    12a0:	00000000 00002808 100021fc 00000014     .....(...!......
    12b0:	00000082 10002210 00000000 00000008     ....."..........
    12c0:	10000d08 00000038 00000001 10002210     ....8........"..
    12d0:	00000000 00002804 10002210 00000038     .....(..."..8...
    12e0:	00000082 10002248 00000000 00002808     ....H".......(..
    12f0:	10002248 00000020 00000082 10002268     H".. .......h"..
    1300:	00000002 000000a2 1000226a 00000000     ........j"......
    1310:	00002808 1000226c 0000003a 00000082     .(..l"..:.......
    1320:	100022a6 0000000a 000000a2 100022b0     ."..........."..
    1330:	00000002 000000a2 100022b2 00000000     ........."......
    1340:	00002808 100022b4 0000002a 00000082     .(..."..*.......
    1350:	100022de 00000002 000000a2 100022e0     ."..........."..
    1360:	00000000 00002808 100022e0 0000000e     .....(..."......
    1370:	00000082 100022ee 00000000 00002808     .....".......(..
    1380:	100022f0 0000000e 00000082 100022fe     ."..........."..
    1390:	00000000 00002808 10002300 0000000d     .....(...#......
    13a0:	00000082 1000230d 0000000a 000000a2     .....#..........
    13b0:	10002317 00000003 00000092 1000231a     .#...........#..
    13c0:	00000000 00000008 1000231a 00000007     .........#......
    13d0:	000000a2 10002321 00000000 00002808     ....!#.......(..
    13e0:	10002324 00000024 00000082 10002348     $#..$.......H#..
    13f0:	0000000a 000000a2 10002352 00000003     ........R#......
    1400:	00000092 10002355 00000000 00000008     ....U#..........
    1410:	10002355 0000002b 000000a2 10002380     U#..+........#..
    1420:	00000000 00002808 10002380 0000000d     .....(...#......
    1430:	00000082 1000238d 0000000a 000000a2     .....#..........
    1440:	10002397 00000003 00000092 1000239a     .#...........#..
    1450:	00000000 00000008 1000239a 0000002b     .........#..+...
    1460:	000000a2 100023c5 00000000 00002808     .....#.......(..
    1470:	100023c8 00000025 00000082 100023ed     .#..%........#..
    1480:	0000000a 000000a2 100023f7 00000003     .........#......
    1490:	00000092 100023fa 00000000 00000008     .....#..........
    14a0:	100023fa 0000002b 000000a2 10002425     .#..+.......%$..
    14b0:	00000000 00002808 10002428 00000024     .....(..($..$...
    14c0:	00000082 1000244c 0000000a 000000a2     ....L$..........
    14d0:	10002456 00000003 00000092 10002459     V$..........Y$..
    14e0:	00000000 00000008 10002459 0000002b     ........Y$..+...
    14f0:	000000a2 10002484 00000000 00002808     .....$.......(..
    1500:	10002484 0000001d 00000082 100024a1     .$...........$..
    1510:	0000000a 000000a2 100024ab 00000003     .........$......
    1520:	00000092 100024ae 00000002 00000008     .....$..........
    1530:	100024b0 00000029 000000a2 100024d9     .$..)........$..
    1540:	0000000a 000000a2 100024e3 00000003     .........$......
    1550:	00000092 100024e6 00000000 00000008     .....$..........
    1560:	100024e6 0000003b 000000a2 10002521     .$..;.......!%..
    1570:	0000000a 000000a2 1000252b 00000009     ........+%......
    1580:	000000a2 10002534 00000000 00000008     ....4%..........
    1590:	10024050 00000000 00003804 10005420     P@.......8.. T..
    15a0:	00000000 00002804 10005420 00000012     .....(.. T......
    15b0:	00000082 10005432 00000022 000000a2     ....2T..".......
    15c0:	10005454 00000005 000000a2 10005459     TT..........YT..
    15d0:	00000003 00000092 1000545c 00000000     ........\T......
    15e0:	00002808 1000545c 00000012 00000082     .(..\T..........
    15f0:	1000546e 00000022 000000a2 10005490     nT.."........T..
    1600:	00000005 000000a2 10005495 00000003     .........T......
    1610:	00000092 10005498 00000000 00002808     .....T.......(..
    1620:	10005498 00000012 00000082 100054aa     .T...........T..
    1630:	00000022 000000a2 100054cc 00000005     "........T......
    1640:	000000a2 100054d1 00000003 00000092     .....T..........
    1650:	100054d4 00000000 00002808 100054d4     .T.......(...T..
    1660:	00000012 00000082 100054e6 00000022     .........T.."...
    1670:	000000a2 10005508 00000005 000000a2     .....U..........
    1680:	1000550d 00000003 00000092 10005510     .U...........U..
    1690:	00000000 00000008 10000d40 0000000c     ........@.......
    16a0:	00000001 10002540 00000000 00002804     ....@%.......(..
    16b0:	10002540 00000023 00000082 10002563     @%..#.......c%..
    16c0:	00000000 00002808 10002564 000000d1     .....(..d%......
    16d0:	00000082 10002635 00000027 000000a2     ....5&..'.......
    16e0:	1000265c 00000057 000000a2 100026b3     \&..W........&..
    16f0:	00000001 00000008 100026b4 00000006     .........&......
    1700:	000000a2 100026ba 0000003f 000000a2     .....&..?.......
    1710:	100026f9 00000000 00000008 100026f9     .&...........&..
    1720:	0000006c 000000a2 10002765 00000029     l.......e'..)...
    1730:	000000a2 1000278e 0000004a 000000a2     .....'..J.......
    1740:	100027d8 00000022 000000a2 100027fa     .'.."........'..
    1750:	00000002 000000a2 100027fc 00000000     .........'......
    1760:	00002808 100027fc 00000015 00000082     .(...'..........
    1770:	10002811 00000000 00002808 10002814     .(.......(...(..
    1780:	00000082 00000082 10002896 00000000     .........(......
    1790:	00000008 10002896 00000004 000000a2     .....(..........
    17a0:	1000289a 0000001f 000000a2 100028b9     .(...........(..
    17b0:	0000002b 000000a2 100028e4 00000055     +........(..U...
    17c0:	000000a2 10002939 00000015 000000a2     ....9)..........
    17d0:	1000294e 000000b9 000000a2 10002a07     N)...........*..
    17e0:	00000000 00000008 10002a07 00000007     .........*......
    17f0:	00000082 10002a0e 00000000 00000008     .....*..........
    1800:	10002a0e 00000007 00000082 10002a15     .*...........*..
    1810:	00000000 00000008 10002a15 00000007     .........*......
    1820:	00000082 10002a1c 00000000 00000008     .....*..........
    1830:	10002a1c 00000009 00000082 10002a25     .*..........%*..
    1840:	00000000 00000008 10002a25 00000009     ........%*......
    1850:	00000082 10002a2e 00000000 00000008     .....*..........
    1860:	10002a2e 00000022 000000a2 10002a50     .*..".......P*..
    1870:	0000002a 000000a2 10002a7a 00000070     *.......z*..p...
    1880:	000000a2 10002aea 00000003 00000008     .....*..........
    1890:	10002aed 0000000f 000000a2 10002afc     .*...........*..
    18a0:	00000016 000000a2 10002b12 00000000     .........+......
    18b0:	00000008 10002b12 00000012 000000a2     .....+..........
    18c0:	10002b24 00000030 000001a6 10002b54     $+..0.......T+..
    18d0:	00000003 00000092 10002b57 00000000     ........W+......
    18e0:	00000008 10002b57 00000025 000000a2     ....W+..%.......
    18f0:	10002b7c 00000002 000000a2 10002b7e     |+..........~+..
    1900:	00000000 00002808 10002b80 00000005     .....(...+......
    1910:	00000082 10002b85 00000000 00000008     .....+..........
    1920:	10000d4c 0000002c 00000001 10002b90     L...,........+..
    1930:	00000000 00002804 10002b90 0000001a     .....(...+......
    1940:	00000082 10002baa 00000000 00000008     .....+..........
    1950:	10002baa 0000000d 000000a2 10002bb7     .+...........+..
    1960:	00000001 00000008 10002bb8 0000000f     .........+......
    1970:	000000a2 10002bc7 00000001 00000008     .....+..........
    1980:	10002bc8 00000010 000000a2 10002bd8     .+...........+..
    1990:	00000000 00000008 10002bd8 0000000e     .........+......
    19a0:	000000a2 10002be6 00000002 00000008     .....+..........
    19b0:	10002be8 00000006 000000a2 10002bee     .+...........+..
    19c0:	00000089 000000a2 10002c77 00000001     ........w,......
    19d0:	00000008 10002c78 00000005 000000a2     ....x,..........
    19e0:	10002c7d 00000006 000000a2 10002c83     },...........,..
    19f0:	00000000 00002808 10002c84 00000017     .....(...,......
    1a00:	00000082 10002c9b 00000000 00002808     .....,.......(..
    1a10:	10002c9c 00000016 00000082 10002cb2     .,...........,..
    1a20:	00000003 00000008 10002cb5 00000002     .........,......
    1a30:	000000a2 10002cb7 0000000b 000000a2     .....,..........
    1a40:	10002cc2 0000005e 000000a2 10002d20     .,..^....... -..
    1a50:	00000018 000000a2 10002d38 00000023     ........8-..#...
    1a60:	000000a2 10002d5b 00000000 00000008     ....[-..........
    1a70:	10002d5b 00000002 000000a2 10002d5d     [-..........]-..
    1a80:	00000000 00002808 10002d60 0000001c     .....(..`-......
    1a90:	00000082 10002d7c 0000000f 000000a2     ....|-..........
    1aa0:	10002d8b 00000003 00000092 10002d8e     .-...........-..
    1ab0:	00000002 00000008 10002d90 0000000f     .........-......
    1ac0:	000000a2 10002d9f 00000000 00002808     .....-.......(..
    1ad0:	10002da0 00000018 00000082 10002db8     .-...........-..
    1ae0:	00000000 00002808 10002db8 0000001a     .....(...-......
    1af0:	00000082 10002dd2 00000000 00000008     .....-..........
    1b00:	10002dd2 0000000d 000000a2 10002ddf     .-...........-..
    1b10:	00000001 00000008 10002de0 0000000f     .........-......
    1b20:	000000a2 10002def 00000001 00000008     .....-..........
    1b30:	10002df0 00000010 000000a2 10002e00     .-..............
    1b40:	00000000 00000008 10002e00 0000000e     ................
    1b50:	000000a2 10002e0e 00000002 00000008     ................
    1b60:	10002e10 00000006 000000a2 10002e16     ................
    1b70:	0000001b 000000a2 10002e31 00000016     ........1.......
    1b80:	000000a2 10002e47 00000000 00000008     ....G...........
    1b90:	10002e47 00000013 000000a2 10002e5a     G...........Z...
    1ba0:	00000030 000001a6 10002e8a 00000003     0...............
    1bb0:	00000092 10002e8d 00000000 00000008     ................
    1bc0:	10002e8d 00000013 000000a2 10002ea0     ................
    1bd0:	0000000f 000000a2 10002eaf 00000003     ................
    1be0:	00000092 10002eb2 00000000 00000008     ................
    1bf0:	10002eb2 00000003 000000a2 10002eb5     ................
    1c00:	000000d1 000000a2 10002f86 00000000     ........./......
    1c10:	00002808 10002f88 00000012 00000082     .(.../..........
    1c20:	10002f9a 00000083 000000a2 1000301d     ./...........0..
    1c30:	00000003 00000092 10003020 00000000     ........ 0......
    1c40:	00000008 10003020 00000019 000000a2     .... 0..........
    1c50:	10003039 00000018 000000a2 10003051     90..........Q0..
    1c60:	00000000 00000008 10003051 00000011     ........Q0......
    1c70:	000000a2 10003062 00000030 000001a6     ....b0..0.......
    1c80:	10003092 00000003 00000092 10003095     .0...........0..
    1c90:	00000000 00000008 10003095 00000013     .........0......
    1ca0:	000000a2 100030a8 0000000f 000000a2     .....0..........
    1cb0:	100030b7 00000003 00000092 100030ba     .0...........0..
    1cc0:	00000000 00000008 100030ba 00000003     .........0......
    1cd0:	000000a2 100030bd 0000007f 000000a2     .....0..........
    1ce0:	1000313c 00000000 00000008 10000d78     <1..........x...
    1cf0:	00000024 00000001 10003140 00000000     $.......@1......
    1d00:	00002804 10003140 00000005 00000082     .(..@1..........
    1d10:	10003145 00000000 00002808 10003148     E1.......(..H1..
    1d20:	00000020 00000082 10003168 00000008      .......h1......
    1d30:	000000a2 10003170 00000000 00002808     ....p1.......(..
    1d40:	10003170 00000036 00000082 100031a6     p1..6........1..
    1d50:	00000002 00000008 100031a8 00000011     .........1......
    1d60:	000000a2 100031b9 0000000f 000000a2     .....1..........
    1d70:	100031c8 0000003e 000000a2 10003206     .1..>........2..
    1d80:	00000000 00002808 10003208 00000030     .....(...2..0...
    1d90:	00000082 10003238 00000000 00000008     ....82..........
    1da0:	10003238 00000013 000000a2 1000324b     82..........K2..
    1db0:	00000000 00002808 1000324c 00000017     .....(..L2......
    1dc0:	00000082 10003263 00000001 00000008     ....c2..........
    1dd0:	10003264 0000000c 000000a2 10003270     d2..........p2..
    1de0:	00000000 00002808 10003270 00000029     .....(..p2..)...
    1df0:	00000082 10003299 0000000b 000000a2     .....2..........
    1e00:	100032a4 0000000c 000000a2 100032b0     .2...........2..
    1e10:	00000014 000000a2 100032c4 00000001     .........2......
    1e20:	00000008 100032c5 00000007 000000a2     .....2..........
    1e30:	100032cc 00000006 000000a2 100032d2     .2...........2..
    1e40:	00000000 00002808 100032d4 0000004a     .....(...2..J...
    1e50:	00000082 1000331e 0000001e 000000a2     .....3..........
    1e60:	1000333c 00000022 000000a2 1000335e     <3..".......^3..
    1e70:	00000000 00000008 1000335e 00000009     ........^3......
    1e80:	000000a2 10003367 00000002 00000008     ....g3..........
    1e90:	10003369 00000017 000000a2 10003380     i3...........3..
    1ea0:	00000025 000000a2 100033a5 00000023     %........3..#...
    1eb0:	000000a2 100033c8 0000000a 000000a2     .....3..........
    1ec0:	100033d2 00000000 00002808 100033d4     .3.......(...3..
    1ed0:	0000000d 00000082 100033e1 00000000     .........3......
    1ee0:	00002808 100033e4 0000001a 00000082     .(...3..........
    1ef0:	100033fe 0000003c 00000092 1000343a     .3..<.......:4..
    1f00:	00000000 00002808 1000343c 00000031     .....(..<4..1...
    1f10:	00000082 1000346d 00000021 000000a2     ....m4..!.......
    1f20:	1000348e 00000002 000000a2 10003490     .4...........4..
    1f30:	00000000 00002808 10003490 00000035     .....(...4..5...
    1f40:	00000082 100034c5 0000000f 000000a2     .....4..........
    1f50:	100034d4 00000016 000000a2 100034ea     .4...........4..
    1f60:	0000001e 000000a2 10003508 00000000     .........5......
    1f70:	00000008 10003508 00000009 000000a2     .....5..........
    1f80:	10003511 00000000 00000008 10003511     .5...........5..
    1f90:	00000006 000000a2 10003517 00000008     .........5......
    1fa0:	000000a2 1000351f 00000000 00002808     .....5.......(..
    1fb0:	10003520 0000002e 00000082 1000354e      5..........N5..
    1fc0:	00000002 000000a2 10003550 00000000     ........P5......
    1fd0:	00002808 10003550 00000039 00000082     .(..P5..9.......
    1fe0:	10003589 0000000a 000000a2 10003593     .5...........5..
    1ff0:	00000003 00000092 10003596 00000000     .........5......
    2000:	00000008 10003596 00000009 000000a2     .....5..........
    2010:	1000359f 00000001 00000008 100035a0     .5...........5..
    2020:	00000006 000000a2 100035a6 00000000     .........5......
    2030:	00000008 100035a6 00000006 000000a2     .....5..........
    2040:	100035ac 00000019 000000a2 100035c5     .5...........5..
    2050:	00000000 00002808 100035c8 0000002a     .....(...5..*...
    2060:	00000082 100035f2 00000000 00000008     .....5..........
    2070:	100035f2 00000006 000000a2 100035f8     .5...........5..
    2080:	00000008 000000a2 10003600 0000003a     .........6..:...
    2090:	000000a2 1000363a 00000019 000000a2     ....:6..........
    20a0:	10003653 00000000 00000008 10003653     S6..........S6..
    20b0:	00000012 000000a2 10003665 00000000     ........e6......
    20c0:	00000008 10003665 00000002 000000a2     ....e6..........
    20d0:	10003667 00000000 00002808 10003668     g6.......(..h6..
    20e0:	00000033 00000082 1000369b 00000000     3........6......
    20f0:	00000008 1000369b 00000003 000000a2     .....6..........
    2100:	1000369e 0000001b 000000a2 100036b9     .6...........6..
    2110:	0000003b 000000a2 100036f4 0000000a     ;........6......
    2120:	000000a2 100036fe 00000003 00000092     .....6..........
    2130:	10003701 00000000 00000008 10003701     .7...........7..
    2140:	00000006 000000a2 10003707 00000000     .........7......
    2150:	00000008 10003707 00000005 000000a2     .....7..........
    2160:	1000370c 00000011 000000a2 1000371d     .7...........7..
    2170:	00000001 00000008 1000371e 00000002     .........7......
    2180:	000000a2 10003720 0000000d 000000a2     .... 7..........
    2190:	1000372d 00000000 00000008 10005510     -7...........U..
    21a0:	00000000 00002804 10005510 00000024     .....(...U..$...
    21b0:	00000082 10005534 00000000 00002808     ....4U.......(..
    21c0:	10005534 00000090 00000082 100055c4     4U...........U..
    21d0:	00000002 000000a2 100055c6 00000000     .........U......
    21e0:	00002808 100055c8 0000008e 00000082     .(...U..........
    21f0:	10005656 00000002 000000a2 10005658     VV..........XV..
    2200:	00000000 00002808 10005658 0000000a     .....(..XV......
    2210:	00000082 10005662 00000014 000000a2     ....bV..........
    2220:	10005676 00000000 00000008 10000d9c     vV..............
    2230:	00000010 00000001 10003730 00000000     ........07......
    2240:	00002804 10003730 00000008 00000082     .(..07..........
    2250:	10003738 00000000 00002808 10003738     87.......(..87..
    2260:	00000006 00000082 1000373e 0000000a     ........>7......
    2270:	000000a2 10003748 00000003 00000092     ....H7..........
    2280:	1000374b 00000000 00000008 1000374b     K7..........K7..
    2290:	00000002 000000a2 1000374d 00000004     ........M7......
    22a0:	000000a2 10003751 00000000 00002808     ....Q7.......(..
    22b0:	10003754 0000000f 00000082 10003763     T7..........c7..
    22c0:	00000000 00002808 10003764 0000000d     .....(..d7......
    22d0:	00000082 10003771 00000000 00002808     ....q7.......(..
    22e0:	10003774 00000038 00000082 100037ac     t7..8........7..
    22f0:	00000000 00000008 100037ac 0000001b     .........7......
    2300:	000000a2 100037c7 00000000 00000008     .....7..........
    2310:	100037c7 00000027 000000a2 100037ee     .7..'........7..
    2320:	00000002 000000a2 100037f0 00000000     .........7......
    2330:	00002808 100037f0 0000000d 00000082     .(...7..........
    2340:	100037fd 0000000a 000000a2 10003807     .7...........8..
    2350:	00000003 00000092 1000380a 00000000     .........8......
    2360:	00000008 1000380a 0000000b 000000a2     .....8..........
    2370:	10003815 00000024 000000a2 10003839     .8..$.......98..
    2380:	00000000 00000008 10003839 00000009     ........98......
    2390:	000000a2 10003842 00000000 00000008     ....B8..........
    23a0:	10003842 00000002 000000a2 10003844     B8..........D8..
    23b0:	0000002f 000000a2 10003873 00000000     /.......s8......
    23c0:	00000008 10003873 00000011 000000a2     ....s8..........
    23d0:	10003884 00000000 00000008 10003884     .8...........8..
    23e0:	00000002 000000a2 10003886 00000029     .........8..)...
    23f0:	000000a2 100038af 00000002 00000008     .....8..........
    2400:	100038b1 00000030 000000a2 100038e1     .8..0........8..
    2410:	00000000 00002808 100038e4 0000000e     .....(...8......
    2420:	00000082 100038f2 00000013 000000a2     .....8..........
    2430:	10003905 00000000 00000008 10003905     .9...........9..
    2440:	00000012 000000a2 10003917 00000030     .........9..0...
    2450:	000001a6 10003947 00000003 00000092     ....G9..........
    2460:	1000394a 00000000 00000008 1000394a     J9..........J9..
    2470:	0000001a 000000a2 10003964 00000000     ........d9......
    2480:	00002808 10003964 00000008 00000082     .(..d9..........
    2490:	1000396c 00000019 000000a2 10003985     l9...........9..
    24a0:	00000002 000000a2 10003987 00000000     .........9......
    24b0:	00000008 10005678 00000000 00002804     ....xV.......(..
    24c0:	10005678 0000000e 00000082 10005686     xV...........V..
    24d0:	00000000 00002808 10005688 0000000e     .....(...V......
    24e0:	00000082 10005696 00000000 00000008     .....V..........
    24f0:	10000dac 00000008 00000001 10003990     .............9..
    2500:	00000000 00002804 10003990 0000000f     .....(...9......
    2510:	00000082 1000399f 00000000 00002808     .....9.......(..
    2520:	100039a0 0000000f 00000082 100039af     .9...........9..
    2530:	00000000 00002808 100039b0 0000000f     .....(...9......
    2540:	00000082 100039bf 00000000 00002808     .....9.......(..
    2550:	100039c0 00000011 00000082 100039d1     .9...........9..
    2560:	00000003 00000092 100039d4 00000000     .........9......
    2570:	00000008 100039d4 00000015 000000a2     .....9..........
    2580:	100039e9 0000000a 000000a2 100039f3     .9...........9..
    2590:	00000000 00002808 100039f4 00000015     .....(...9......
    25a0:	00000082 10003a09 00000000 00002808     .....:.......(..
    25b0:	10003a0c 00000012 00000082 10003a1e     .:...........:..
    25c0:	00000000 00002808 10003a20 00000010     .....(.. :......
    25d0:	00000082 10003a30 00000000 00000008     ....0:..........
    25e0:	10000db4 00000018 00000001 10003a30     ............0:..
    25f0:	00000000 00002804 10003a30 00000059     .....(..0:..Y...
    2600:	00000082 10003a89 00000027 000000a2     .....:..'.......
    2610:	10003ab0 00000002 000000a2 10003ab2     .:...........:..
    2620:	00000000 00002808 10003ab4 00000054     .....(...:..T...
    2630:	00000082 10003b08 00000002 000000a2     .....;..........
    2640:	10003b0a 00000000 00002808 10003b0c     .;.......(...;..
    2650:	00000095 00000082 10003ba1 0000001f     .........;......
    2660:	000000a2 10003bc0 00000002 000000a2     .....;..........
    2670:	10003bc2 00000000 00002808 10003bc4     .;.......(...;..
    2680:	00000081 00000082 10003c45 0000001f     ........E<......
    2690:	000000a2 10003c64 00000002 000000a2     ....d<..........
    26a0:	10003c66 00000000 00002808 10003c68     f<.......(..h<..
    26b0:	00000060 00000082 10003cc8 00000002     `........<......
    26c0:	000000a2 10003cca 00000000 00002808     .....<.......(..
    26d0:	10003ccc 0000002e 00000082 10003cfa     .<...........<..
    26e0:	00000000 00000008 10003cfa 00000007     .........<......
    26f0:	000000a2 10003d01 0000001f 000000a2     .....=..........
    2700:	10003d20 00000002 000000a2 10003d22      =.........."=..
    2710:	00000000 00000008 10003d22 00000045     ........"=..E...
    2720:	000000a2 10003d67 00000000 00002808     ....g=.......(..
    2730:	10003d68 00000024 00000082 10003d8c     h=..$........=..
    2740:	0000000a 000000a2 10003d96 00000002     .........=......
    2750:	00000008 10003d98 00000020 000000a2     .....=.. .......
    2760:	10003db8 00000000 00000008 10003db8     .=...........=..
    2770:	0000000e 000000a2 10003dc6 0000001e     .........=......
    2780:	000000a2 10003de4 00000000 00002808     .....=.......(..
    2790:	10003de4 00000016 00000082 10003dfa     .=...........=..
    27a0:	00000011 000000a2 10003e0b 00000009     .........>......
    27b0:	000000a2 10003e14 00000003 00000092     .....>..........
    27c0:	10003e17 00000000 00000008 10003e17     .>...........>..
    27d0:	00000002 000000a2 10003e19 00000000     .........>......
    27e0:	00002808 10003e1c 00000018 00000082     .(...>..........
    27f0:	10003e34 00000000 00002808 10003e34     4>.......(..4>..
    2800:	00000025 00000082 10003e59 00000009     %.......Y>......
    2810:	000000a2 10003e62 00000000 00000008     ....b>..........
    2820:	10003e62 0000000b 000000a2 10003e6d     b>..........m>..
    2830:	00000000 00000008 10003e6d 00000007     ........m>......
    2840:	000000a2 10003e74 0000000c 000000a2     ....t>..........
    2850:	10003e80 00000019 000000a2 10003e99     .>...........>..
    2860:	00000000 00002808 10003e9c 0000001c     .....(...>......
    2870:	00000082 10003eb8 00000002 000000a2     .....>..........
    2880:	10003eba 00000001 00000008 10003ebb     .>...........>..
    2890:	00000023 000000a2 10003ede 0000002a     #........>..*...
    28a0:	000000a2 10003f08 00000059 000000a2     .....?..Y.......
    28b0:	10003f61 00000010 000000a2 10003f71     a?..........q?..
    28c0:	00000003 00000092 10003f74 00000000     ........t?......
    28d0:	00000008 10003f74 00000051 000000a2     ....t?..Q.......
    28e0:	10003fc5 00000000 00002808 10003fc8     .?.......(...?..
    28f0:	00000012 00000082 10003fda 00000000     .........?......
    2900:	00000008 100245f8 00000000 00004804     .....E.......H..
    2910:	10000dcc 00000008 00000001 10003fdc     .............?..
    2920:	00000000 00002804 10003fdc 00000048     .....(...?..H...
    2930:	00000082 10004024 00000000 00002808     ....$@.......(..
    2940:	10004024 0000001a 00000082 1000403e     $@..........>@..
    2950:	00000002 00000008 10004040 0000001f     ........@@......
    2960:	000000a2 1000405f 00000000 00002808     ...._@.......(..
    2970:	10004060 0000001e 00000082 1000407e     `@..........~@..
    2980:	00000000 00000008 10000dd4 00000004     ................
    2990:	00000001 10004080 00000000 00002804     .....@.......(..
    29a0:	10004080 00000088 00000082 10004108     .@...........A..
    29b0:	00000005 000000a2 1000410d 00000003     .........A......
    29c0:	00000092 10004110 00000000 00000008     .....A..........
    29d0:	10004110 00000000 00002804 10004110     .A.......(...A..
    29e0:	00000022 00000082 10004132 00000000     ".......2A......
    29f0:	00000008 10004132 00000027 000000a2     ....2A..'.......
    2a00:	10004159 0000002b 000000a2 10004184     YA..+........A..
    2a10:	00000000 00000008 10004184 00000014     .........A......
    2a20:	000000a2 10004198 00000010 000000a2     .....A..........
    2a30:	100041a8 0000001b 000000a2 100041c3     .A...........A..
    2a40:	00000001 00000008 100041c4 00000014     .........A......
    2a50:	000000a2 100041d8 00000027 000000a2     .....A..'.......
    2a60:	100041ff 00000001 00000008 10004200     .A...........B..
    2a70:	00000008 000000a2 10004208 0000001b     .........B......
    2a80:	000000a2 10004223 00000001 00000008     ....#B..........
    2a90:	10004224 00000002 000000a2 10004226     $B..........&B..
    2aa0:	00000000 00000008 10004228 00000000     ........(B......
    2ab0:	00002804 10004228 0000001f 00000082     .(..(B..........
    2ac0:	10004247 00000000 00002808 10004248     GB.......(..HB..
    2ad0:	0000001f 00000082 10004267 00000000     ........gB......
    2ae0:	00000008 10004268 00000000 00002804     ....hB.......(..
    2af0:	10004268 00000017 00000082 1000427f     hB...........B..
    2b00:	00000000 00000008 10000dd8 00000004     ................
    2b10:	00000001 10004280 00000000 00002804     .....B.......(..
    2b20:	10004280 00000024 00000082 100042a4     .B..$........B..
    2b30:	00000016 000000a2 100042ba 00000000     .........B......
    2b40:	00000008 100042ba 00000012 000000a2     .....B..........
    2b50:	100042cc 00000030 000001a6 100042fc     .B..0........B..
    2b60:	00000003 00000092 100042ff 00000001     .........B......
    2b70:	00000008 10004300 0000004d 000000a2     .....C..M.......
    2b80:	1000434d 0000001b 000000a2 10004368     MC..........hC..
    2b90:	00000000 00002808 10004368 00000018     .....(..hC......
    2ba0:	00000082 10004380 00000000 00000008     .....C..........
    2bb0:	10004380 0000000b 000000a2 1000438b     .C...........C..
    2bc0:	00000014 000000a2 1000439f 00000001     .........C......
    2bd0:	00000008 100043a0 00000016 000000a2     .....C..........
    2be0:	100043b6 00000008 000000a2 100043be     .C...........C..
    2bf0:	00000008 000000a2 100043c6 00000016     .........C......
    2c00:	000000a2 100043dc 00000001 00000008     .....C..........
    2c10:	100043dd 00000013 000000a2 100043f0     .C...........C..
    2c20:	00000030 000001a6 10004420 00000003     0....... D......
    2c30:	00000092 10004423 00000000 00000008     ....#D..........
    2c40:	10004423 00000002 000000a2 10004425     #D..........%D..
    2c50:	00000000 00000008 00000000 00000008     ................
    2c60:	00000082 00000008 00000000 00000008     ................
    2c70:	10000bc0 00000014 00000001 10000af8     ................
    2c80:	00000004 00000001 10000b38 00000008     ........8.......
    2c90:	00000001 10000ab8 00000008 00000001     ................
    2ca0:	10000a38 00000008 00000001 10000ddc     8...............
    2cb0:	00000004 00000001 10004428 00000008     ........(D......
    2cc0:	00002804 10004430 0000000d 00000082     .(..0D..........
    2cd0:	1000443d 0000000a 000000a2 10004447     =D..........GD..
    2ce0:	00000000 00000008 10024c20 00000004     ........ L......
    2cf0:	00003804 10024c2c 00000004 00003804     .8..,L.......8..
    2d00:	10000bd4 00000020 00002882 10000bf4     .... ....(......
    2d10:	00000028 00000082 10000c1c 00000000     (...............
    2d20:	00000008 10000c1c 00000005 000000a2     ................
    2d30:	10000c21 00000000 00000008 10000b00     !...............
    2d40:	00000014 00000082 10000b14 00000007     ................
    2d50:	000000a2 10000b1b 00000000 00000008     ................
    2d60:	10000b80 00000025 00000082 10000ac0     ....%...........
    2d70:	00000025 00000082 10000a40 00000025     %.......@...%...
    2d80:	00000082 100056ad 0000000d 00000022     .....V......"...
    2d90:	100056ba 00000002 00000012 100056bc     .V...........V..
    2da0:	00000000 00002808 100056bc 00000012     .....(...V......
    2db0:	00000022 100056ce 00000019 00000022     "....V......"...
    2dc0:	100056e7 00000000 00002808 100056e8     .V.......(...V..
    2dd0:	0000000c 00000002 100056f4 00000022     .........V.."...
    2de0:	00000022 10005716 0000000f 00000012     "....W..........
    2df0:	10005725 0000000b 00000022 10005730     %W......"...0W..
    2e00:	00000000 00002808 10005730 00000010     .....(..0W......
    2e10:	00000022 10005740 00000000 00000008     "...@W..........
    2e20:	10005740 0000000f 00000022 1000574f     @W......"...OW..
    2e30:	00000000 00000008 1000574f 00000006     ........OW......
    2e40:	00000022 10005755 00000002 00000022     "...UW......"...
    2e50:	10005757 00000000 00002808 10005758     WW.......(..XW..
    2e60:	00000033 00000022 1000578b 00000017     3..."....W......
    2e70:	00000012 100057a2 00000010 00000022     .....W......"...
    2e80:	100057b2 0000000a 00000022 100057bc     .W......"....W..
    2e90:	00000000 00000008 100057bc 00000015     .........W......
    2ea0:	00000022 100057d1 00000000 00000008     "....W..........
    2eb0:	100057d1 00000008 00000022 100057d9     .W......"....W..
    2ec0:	00000000 00000008 100057ed 00000008     .........W......
    2ed0:	00000022 100057f5 00000002 00000012     "....W..........
    2ee0:	100057f7 00000000 00002808 100057f8     .W.......(...W..
    2ef0:	0000000d 00000022 10005805 0000000e     ...."....X......
    2f00:	00000022 10005813 00000000 00002808     "....X.......(..
    2f10:	10005814 0000001a 00000002 1000582e     .X...........X..
    2f20:	00000011 00000022 1000583f 00000009     ...."...?X......
    2f30:	00000012 10005848 00000007 00000022     ....HX......"...
    2f40:	1000584f 00000008 00000022 10005857     OX......"...WX..
    2f50:	00000006 00000022 1000585d 00000002     ...."...]X......
    2f60:	00000022 1000585f 00000000 00000008     "..._X..........
    2f70:	10000de0 0000000c 00000001 10004448     ............HD..
    2f80:	00000025 00000022 1000446d 00000000     %..."...mD......
    2f90:	00000008 1000446d 00000019 00000022     ....mD......"...
    2fa0:	10004486 00000002 00000008 10004488     .D...........D..
    2fb0:	00000009 00000022 10004491 00000000     ...."....D......
    2fc0:	00000008 10004491 00000024 00000022     .....D..$..."...
    2fd0:	100044b5 00000000 00000008 100044b5     .D...........D..
    2fe0:	00000019 00000022 100044ce 00000002     ...."....D......
    2ff0:	00000008 100044d0 00000009 00000022     .....D......"...
    3000:	100044d9 00000000 00000008 100044d9     .D...........D..
    3010:	0000000b 00000022 100044e4 00000002     ...."....D......
    3020:	00000008 100044e6 00000007 00000022     .....D......"...
    3030:	100044ed 0000000b 00000022 100044f8     .D......"....D..
    3040:	00000004 00000022 100044fc 00000017     ...."....D......
    3050:	00000022 10004513 00000002 00000008     "....E..........
    3060:	10004515 0000000b 00000022 10004520     .E......"... E..
    3070:	00000009 00000022 10004529 00000000     ...."...)E......
    3080:	00002808 1000452c 00000018 00000002     .(..,E..........
    3090:	10004544 00000003 00000022 10004547     DE......"...GE..
    30a0:	0000002e 00000022 10004575 00000014     ...."...uE......
    30b0:	00000022 10004589 0000000c 00000022     "....E......"...
    30c0:	10004595 0000000b 00000022 100045a0     .E......"....E..
    30d0:	0000000a 00000022 100045aa 00000007     ...."....E......
    30e0:	00000022 100045b1 00000010 00000022     "....E......"...
    30f0:	100045c1 0000000b 00000022 100045cc     .E......"....E..
    3100:	0000000d 00000022 100045d9 00000010     ...."....E......
    3110:	00000022 100045e9 0000000c 00000022     "....E......"...
    3120:	100045f5 0000000c 00000022 10004601     .E......"....F..
    3130:	0000000f 00000022 10004610 00000011     ...."....F......
    3140:	00000022 10004621 00000010 00000022     "...!F......"...
    3150:	10004631 00000013 00000022 10004644     1F......"...DF..
    3160:	00000018 00000022 1000465c 0000000c     ...."...\F......
    3170:	00000022 10004668 00000005 00000022     "...hF......"...
    3180:	1000466d 00000009 00000022 10004676     mF......"...vF..
    3190:	00000002 00000022 10004678 00000000     ...."...xF......
    31a0:	00000008 10004678 00000009 00000022     ....xF......"...
    31b0:	10004681 00000000 00000008 10004681     .F...........F..
    31c0:	00000005 00000022 10004686 00000002     ...."....F......
    31d0:	00000008 10004688 0000000d 00000022     .....F......"...
    31e0:	10004695 00000000 00000008 10004695     .F...........F..
    31f0:	00000017 00000022 100046ac 00000000     ...."....F......
    3200:	00000008 100046ac 00000011 00000022     .....F......"...
    3210:	100046bd 0000000d 00000022 100046ca     .F......"....F..
    3220:	00000002 00000008 100046cc 0000000b     .........F......
    3230:	00000022 100046d7 00000000 00000008     "....F..........
    3240:	100046d8 00000000 00002804 100046d8     .F.......(...F..
    3250:	00000034 00000002 1000470c 0000000d     4........G......
    3260:	00000022 10004719 00000002 00000022     "....G......"...
    3270:	1000471b 00000001 00000008 1000471c     .G...........G..
    3280:	00000009 00000022 10004725 00000000     ...."...%G......
    3290:	00000008 10004725 00000008 00000022     ....%G......"...
    32a0:	1000472d 00000006 00000022 10004733     -G......"...3G..
    32b0:	00000002 00000008 10004735 00000003     ........5G......
    32c0:	00000022 10004738 00000007 00000022     "...8G......"...
    32d0:	1000473f 00000001 00000008 10004740     ?G..........@G..
    32e0:	00000006 00000022 10004746 00000002     ...."...FG......
    32f0:	00000008 10004748 00000005 00000022     ....HG......"...
    3300:	1000474d 00000000 00000008 10005860     MG..........`X..
    3310:	00000000 00002804 10005860 0000000a     .....(..`X......
    3320:	00000002 1000586a 00000000 00002808     ....jX.......(..
    3330:	1000586c 0000000b 00000002 10005877     lX..........wX..
    3340:	00000022 00000022 10005899 00000000     "..."....X......
    3350:	00000008 10005899 00000004 00000022     .....X......"...
    3360:	1000589d 00000000 00000008 10004750     .X..........PG..
    3370:	00000000 00002804 10004750 0000001b     .....(..PG......
    3380:	00000082 1000476b 00000000 00000008     ....kG..........
    3390:	1000476c 00000000 00002804 1000476c     lG.......(..lG..
    33a0:	00000079 00000082 100047e5 0000002c     y........G..,...
    33b0:	000000a2 10004811 0000001d 000000a2     .....H..........
    33c0:	1000482e 00000002 000000a2 10004830     .H..........0H..
    33d0:	00000004 000000a2 10004834 00000000     ........4H......
    33e0:	00000008 10004834 00000030 00000082     ....4H..0.......
    33f0:	10004864 00000030 000000a2 10004894     dH..0........H..
    3400:	0000002c 000000a2 100048c0 0000000c     ,........H......
    3410:	000000a2 100048cc 00000000 00000008     .....H..........
    3420:	100048cc 00000059 000000a2 10004925     .H..Y.......%I..
    3430:	0000002b 000000a2 10004950 0000000f     +.......PI......
    3440:	000000a2 1000495f 00000000 00000008     ...._I..........
    3450:	10004960 00000012 000000a2 10004972     `I..........rI..
    3460:	00000000 00000008 10004975 00000008     ........uI......
    3470:	000000a2 1000497d 0000002b 000000a2     ....}I..+.......
    3480:	100049a8 0000002c 000000a2 100049d4     .I..,........I..
    3490:	0000000a 000000a2 100049de 00000000     .........I......
    34a0:	00000008 10000dec 00000008 00000001     ................
    34b0:	100049e0 00000000 00002804 100049e0     .I.......(...I..
    34c0:	0000003a 00000082 10004a1a 00000000     :........J......
    34d0:	00000008 10004a1d 00000011 000000a2     .....J..........
    34e0:	10004a2e 0000000a 000000a2 10004a38     .J..........8J..
    34f0:	00000003 00000008 10004a3d 00000020     ........=J.. ...
    3500:	000000a2 10004a5d 00000003 000000a2     ....]J..........
    3510:	10004a60 00000030 000000a2 10004a90     `J..0........J..
    3520:	00000010 000000a2 10004aa0 000000a6     .........J......
    3530:	000000a2 10004b46 000000ae 000000a2     ....FK..........
    3540:	10004bf4 0000000e 000000a2 10004c02     .K...........L..
    3550:	00000023 000000a2 10004c25 00000006     #.......%L......
    3560:	000000a2 10004c2b 00000000 00000008     ....+L..........
    3570:	10004c2c 0000000f 00000082 10004c3b     ,L..........;L..
    3580:	00000000 00000008 10004c3d 00000003     ........=L......
    3590:	00000082 10004c40 0000001a 000000a2     ....@L..........
    35a0:	10004c5a 00000003 00000092 10004c5d     ZL..........]L..
    35b0:	00000000 00000008 10004c5d 00000025     ........]L..%...
    35c0:	000000a2 10004c82 00000000 00000008     .....L..........
    35d0:	10004c82 00000015 000000a2 10004c97     .L...........L..
    35e0:	00000000 00000008 10004c97 00000003     .........L......
    35f0:	00000082 10004c9a 0000001a 000000a2     .....L..........
    3600:	10004cb4 00000003 00000092 10004cb7     .L...........L..
    3610:	00000000 00000008 10004cb7 0000001f     .........L......
    3620:	000000a2 10004cd6 00000000 00000008     .....L..........
    3630:	10004cd6 00000008 000000a2 10004cde     .L...........L..
    3640:	00000008 000000a2 10004ce6 00000020     .........L.. ...
    3650:	000000a2 10004d06 00000000 00000008     .....M..........
    3660:	10004d06 00000007 000000a2 10004d0d     .M...........M..
    3670:	00000000 00000008 10004d0d 0000001f     .........M......
    3680:	000000a2 10004d2c 00000000 00000008     ....,M..........
    3690:	10004d2c 00000008 000000a2 10004d34     ,M..........4M..
    36a0:	00000008 000000a2 10004d3c 00000000     ........<M......
    36b0:	00000008 100058a0 00000000 00002804     .....X.......(..
    36c0:	100058a0 00000019 00000002 100058b9     .X...........X..
    36d0:	00000013 00000022 100058cc 00000009     ...."....X......
    36e0:	00000022 100058d5 00000000 00000008     "....X..........
    36f0:	10004d3c 00000000 00002804 10004d3c     <M.......(..<M..
    3700:	00000025 00000082 10004d61 00000023     %.......aM..#...
    3710:	000000a2 10004d84 00000011 000000a2     .....M..........
    3720:	10004d95 00000013 000000a2 10004da8     .M...........M..
    3730:	00000019 000000a2 10004dc1 0000000f     .........M......
    3740:	000000a2 10004dd0 00000004 000000a2     .....M..........
    3750:	10004dd4 00000006 000000a2 10004dda     .M...........M..
    3760:	00000000 00000008 10004dda 00000017     .........M......
    3770:	000000a2 10004df1 00000017 000000a2     .....M..........
    3780:	10004e08 00000002 000000a2 10004e0a     .N...........N..
    3790:	00000000 00000008 10004e0a 0000002e     .........N......
    37a0:	000000a2 10004e38 00000000 00002808     ....8N.......(..
    37b0:	10004e38 00000014 00000082 10004e4c     8N..........LN..
    37c0:	0000001f 000000a2 10004e6b 00000001     ........kN......
    37d0:	00000008 10004e6c 0000001d 000000a2     ....lN..........
    37e0:	10004e89 00000000 00000008 10004e89     .N...........N..
    37f0:	00000027 000000a2 10004eb0 00000020     '........N.. ...
    3800:	000000a2 10004ed0 00000000 00000008     .....N..........
    3810:	10004ed0 0000001a 000000a2 10004eea     .N...........N..
    3820:	00000000 00000008 10004eea 0000001e     .........N......
    3830:	000000a2 10004f08 00000000 00000008     .....O..........
    3840:	10004f08 0000000d 000000a2 10004f15     .O...........O..
    3850:	0000001b 000000a2 10004f30 00000002     ........0O......
    3860:	00000008 10004f32 00000008 000000a2     ....2O..........
    3870:	10004f3a 0000000e 000000a2 10004f48     :O..........HO..
    3880:	00000009 000000a2 10004f51 00000000     ........QO......
    3890:	00000008 10004f51 00000018 000000a2     ....QO..........
    38a0:	10004f69 0000000e 000000a2 10004f77     iO..........wO..
    38b0:	00000000 00000008 100058e0 00000000     .........X......
    38c0:	00002804 100058e0 00000021 00000082     .(...X..!.......
    38d0:	10005901 00000023 000000a2 10005924     .Y..#.......$Y..
    38e0:	00000011 000000a2 10005935 00000000     ........5Y......
    38f0:	00000008 10005935 00000005 000000a2     ....5Y..........
    3900:	1000593a 00000003 000000a2 1000593d     :Y..........=Y..
    3910:	00000002 000000a2 1000593f 00000002     ........?Y......
    3920:	00000008 10005941 0000000b 00000082     ....AY..........
    3930:	1000594c 00000010 000000a2 1000595c     LY..........\Y..
    3940:	00000003 00000092 1000595f 00000000     ........_Y......
    3950:	00000008 10000a68 00000008 00000082     ....h...........
    3960:	10000a70 00000003 000000a2 10000a73     p...........s...
    3970:	00000000 00000008 10000000 00000003     ................
    3980:	00000082 10000003 00000000 00002808     .............(..
    3990:	10000004 0000003c 00002801 10000044     ....<....(..D...
    39a0:	00000014 00002804 10000058 00000008     .....(..X.......
    39b0:	000000a2 10000060 0000002a 000000a2     ....`...*.......
    39c0:	1000008a 00000000 00003808 10000090     .........8......
    39d0:	0000000c 000000a2 1000009c 00000010     ................
    39e0:	000000a2 100000ac 0000001d 000000a2     ................
    39f0:	100000c9 00000000 00003808 100000d0     .........8......
    3a00:	00000032 000000a2 10000102 00000000     2...............
    3a10:	00000008 10000104 00000015 000000a2     ................
    3a20:	10000119 00000029 000000a2 10000142     ....).......B...
    3a30:	0000001e 000000a2 10000160 00000005     ........`.......
    3a40:	000000a2 10000165 0000000b 000000a2     ....e...........
    3a50:	10000170 0000000e 000000a2 1000017e     p...........~...
    3a60:	00000000 00000008 10000181 00000006     ................
    3a70:	000000a2 10000187 0000002d 000000a2     ........-.......
    3a80:	10000df4 00000008 00000001 10004f78     ............xO..
    3a90:	00000000 00002804 10004f78 00000032     .....(..xO..2...
    3aa0:	00000082 10004faa 00000002 000000a2     .....O..........
    3ab0:	10004fac 00000000 00000008 10004fac     .O...........O..
    3ac0:	00000000 00002804 10004fac 00000032     .....(...O..2...
    3ad0:	00000082 10004fde 00000002 000000a2     .....O..........
    3ae0:	10004fe0 00000000 00000008 10000dfc     .O..............
    3af0:	00000008 00000001 10004fe0 00000000     .........O......
    3b00:	00002804 10004fe0 0000002b 00000082     .(...O..+.......
    3b10:	1000500b 00000001 00000008 1000500c     .P...........P..
    3b20:	00000004 000000a2 10005010 00000010     .........P......
    3b30:	000000a2 10005020 00000002 000000a2     .... P..........
    3b40:	10005022 00000000 00000008 10000e04     "P..............
    3b50:	00000008 00000001 10005024 00000018     ........$P......
    3b60:	00000082 1000503c 00000027 000000a2     ....<P..'.......
    3b70:	10005063 00000006 00000186 10005069     cP..........iP..
    3b80:	00000007 00000082 10005070 00000000     ........pP......
    3b90:	00000008 10005070 00000014 00000082     ....pP..........
    3ba0:	10005084 00000000 00002808 10005084     .P.......(...P..
    3bb0:	00000008 00000082 1000508c 00000003     .........P......
    3bc0:	00000186 1000508f 00000002 00000082     .....P..........
    3bd0:	10005091 00000003 00000186 10005094     .P...........P..
    3be0:	00000002 00000082 10005096 00000003     .........P......
    3bf0:	00000186 10005099 00000004 00000082     .....P..........
    3c00:	1000509d 00000000 00000008 1000509d     .P...........P..
    3c10:	00000008 000000a2 100050a5 00000000     .........P......
    3c20:	00000008 10000330 00000003 00000082     ....0...........
    3c30:	10000333 00000000 00002808 10000334     3........(..4...
    3c40:	00000004 00000001 10000338 00000012     ........8.......
    3c50:	000000a2 1000034a 00000000 00000008     ....J...........
    3c60:	1000034d 00000003 000000a2 10000350     M...........P...
    3c70:	00000006 000000a2 10000356 00000000     ........V.......
    3c80:	00000008 10000a80 00000003 00000082     ................
    3c90:	10000a83 00000000 00000008 10000800     ................
    3ca0:	0000000f 00000186 1000080f 00000000     ................
    3cb0:	0000290c 10000810 0000001e 00000186     .)..............
    3cc0:	1000082e 00000000 0000010c 10000840     ............@...
    3cd0:	0000000f 000001a6 1000084f 00000000     ........O.......
    3ce0:	0000290c 10000850 0000001e 000001a6     .)..P...........
    3cf0:	1000086e 00000000 0000010c 10000880     n...............
    3d00:	0000001e 00000186 1000089e 00000000     ................
    3d10:	0000010c 100008c0 0000001e 000001a6     ................
    3d20:	100008de 00000000 0000010c 10000900     ................
    3d30:	0000002a 00000186 1000092a 00000000     *.......*.......
    3d40:	0000010c 10000940 0000002a 000000a2     ....@...*.......
    3d50:	1000096a 00000000 00000008 10000980     j...............
    3d60:	00000006 00000082 10000986 00000000     ................
    3d70:	00000008 100009c0 00000006 00000082     ................
    3d80:	100009c6 00000000 00000008 10000a00     ................
    3d90:	00000006 00000082 10000a06 00000000     ................
    3da0:	00000008 10000e0c 0000000c 00000001     ................
    3db0:	100050a8 00000024 00000082 100050cc     .P..$........P..
    3dc0:	00000003 00000186 100050cf 00000012     .........P......
    3dd0:	00000082 100050e1 00000003 00000186     .....P..........
    3de0:	100050e4 00000014 00000082 100050f8     .P...........P..
    3df0:	00000037 000000a2 1000512f 00000003     7......./Q......
    3e00:	00000186 10005132 00000016 00000082     ....2Q..........
    3e10:	10005148 00000014 000000a2 1000515c     HQ..........\Q..
    3e20:	00000000 00000008 1000515c 00000009     ........\Q......
    3e30:	00000082 10005165 00000000 00000008     ....eQ..........
    3e40:	10000e18 00000008 00000001 10005168     ............hQ..
    3e50:	00000024 00000082 1000518c 00000003     $........Q......
    3e60:	00000186 1000518f 0000004e 00000082     .....Q..N.......
    3e70:	100051dd 00000000 00000008 100051dd     .Q...........Q..
    3e80:	00000009 00000082 100051e6 00000000     .........Q......
    3e90:	00000008 10000e20 00000010 00000001     .... ...........
    3ea0:	100051e8 00000034 00000082 1000521c     .Q..4........R..
    3eb0:	000000a4 000000a2 100052c0 00000051     .........R..Q...
    3ec0:	000000a2 10005311 00000000 00000008     .....S..........
    3ed0:	10000e30 00000008 00000001 10005314     0............S..
    3ee0:	0000001e 00000082 10005332 00000003     ........2S......
    3ef0:	00000186 10005335 00000016 00000082     ....5S..........
    3f00:	1000534b 00000003 00000186 1000534e     KS..........NS..
    3f10:	00000006 00000082 10005354 00000018     ........TS......
    3f20:	000000a2 1000536c 00000050 000000a2     ....lS..P.......
    3f30:	100053bc 00000003 00000186 100053bf     .S...........S..
    3f40:	0000000d 00000082 100053cc 00000017     .........S......
    3f50:	000000a2 100053e3 00000001 00000008     .....S..........
    3f60:	100053e4 00000015 000000a2 100053f9     .S...........S..
    3f70:	00000003 00000186 100053fc 00000018     .........S......
    3f80:	00000082 10005414 00000000 00000008     .....T..........
    3f90:	10005960 00000018 00000082 10005978     `Y..........xY..
    3fa0:	00000000 00000008 10005978 00000000     ........xY......
    3fb0:	00002804 10005978 00000008 00000082     .(..xY..........
    3fc0:	10005980 00000000 00002808 10005980     .Y.......(...Y..
    3fd0:	0000000d 00000082 1000598d 00000000     .........Y......
    3fe0:	00000008 1000598d 0000000b 000000a2     .....Y..........
    3ff0:	10005998 00000000 00000008 10005998     .Y...........Y..
    4000:	00000002 00000082 1000599a 00000000     .........Y......
    4010:	00002808 1000599c 0000000a 00000082     .(...Y..........
    4020:	100059a6 00000002 00000008 100059a8     .Y...........Y..
    4030:	00000008 000000a2 100059b0 00000000     .........Y......
    4040:	00000008 100059b0 00000004 00000082     .....Y..........
    4050:	100059b4 00000000 00000008              .Y..........

Disassembly of section .xt.lit:

00000000 <.xt.lit>:
   0:	10000c30 00000010 10000c40 00000010     0.......@.......
  10:	10000c50 0000000c 10000c5c 00000030     P.......\...0...
  20:	10000c8c 00000048 10000cd4 00000004     ....H...........
  30:	10000cd8 00000008 10000ce0 00000008     ................
  40:	10000ce8 00000008 10000cf0 00000004     ................
  50:	10000cf4 00000008 10000cfc 00000008     ................
  60:	10000d04 00000004 10000d08 00000038     ............8...
  70:	10000d40 0000000c 10000d4c 0000002c     @.......L...,...
  80:	10000d78 00000024 10000d9c 00000010     x...$...........
  90:	10000dac 00000008 10000db4 00000018     ................
  a0:	10000dcc 00000008 10000dd4 00000004     ................
  b0:	10000dd8 00000004 10000bc0 00000014     ................
  c0:	10000af8 00000004 10000b38 00000008     ........8.......
  d0:	10000ab8 00000008 10000a38 00000008     ........8.......
  e0:	10000ddc 00000004 10000de0 0000000c     ................
  f0:	10000dec 00000008 10000004 0000003c     ............<...
 100:	10000df4 00000008 10000dfc 00000008     ................
 110:	10000e04 00000008 10000334 00000004     ........4.......
 120:	10000e0c 0000000c 10000e18 00000008     ................
 130:	10000e20 00000010 10000e30 00000008      .......0.......

Disassembly of section .xtensa.info:

00000000 <.xtensa.info>:
   0:	0000000c 000001d0 00000001 6e657458     ............Xten
  10:	495f6173 006f666e 435f5748 49464e4f     sa_Info.HW_CONFI
  20:	30444947 6378303d 39303030 0a363832     GID0=0xc0009286.
  30:	435f5748 49464e4f 31444947 3278303d     HW_CONFIGID1=0x2
  40:	30613461 0a393237 4c495542 4e555f44     a4a0729.BUILD_UN
  50:	45555149 3d44495f 30307830 38636130     IQUE_ID=0x000ac8
  60:	410a3361 303d4942 4553550a 5342415f     a3.ABI=0.USE_ABS
  70:	54554c4f 494c5f45 41524554 303d534c     OLUTE_LITERALS=0
  80:	5f57530a 414f4c46 474e4954 494f505f     .SW_FLOATING_POI
  90:	415f544e 303d4942 5f57480a 53524556     NT_ABI=0.HW_VERS
  a0:	3d4e4f49 37584c22 392e312e 57480a22     ION="LX7.1.9".HW
  b0:	4e494d5f 5245565f 4e4f4953 4a414d5f     _MIN_VERSION_MAJ
  c0:	323d524f 0a303138 4d5f5748 565f4e49     OR=2810.HW_MIN_V
  d0:	49535245 4d5f4e4f 524f4e49 0a30393d     ERSION_MINOR=90.
  e0:	4d5f5748 565f5841 49535245 4d5f4e4f     HW_MAX_VERSION_M
  f0:	524f4a41 3138323d 57480a30 58414d5f     AJOR=2810.HW_MAX
 100:	5245565f 4e4f4953 4e494d5f 393d524f     _VERSION_MINOR=9
 110:	45520a30 5341454c 414e5f45 223d454d     0.RELEASE_NAME="
 120:	322d4a52 2e333230 520a2232 41454c45     RJ-2023.2".RELEA
 130:	565f4553 49535245 223d4e4f 302e3531     SE_VERSION="15.0
 140:	520a2232 41454c45 4d5f4553 524f4a41     2".RELEASE_MAJOR
 150:	3078303d 33303030 0a636161 454c4552     =0x00003aac.RELE
 160:	5f455341 4f4e494d 0a303d52 45524f43     ASE_MINOR=0.CORE
 170:	4d414e5f 48223d45 525f4357 4c5f5343     _NAME="HWC_RCS_L
 180:	0a223758 45435845 4f495450 52415f4e     X7".EXCEPTION_AR
 190:	323d4843 4549540a 4548435f 55534b43     CH=2.TIE_CHECKSU
 1a0:	3d305f4d 49540a30 48435f45 534b4345     M_0=0.TIE_CHECKS
 1b0:	315f4d55 540a303d 435f4549 4b434548     UM_1=0.TIE_CHECK
 1c0:	5f4d5553 0a303d32 5f454954 43454843     SUM_2=0.TIE_CHEC
 1d0:	4d55534b 303d335f 4b44540a 5441505f     KSUM_3=0.TDK_PAT
 1e0:	22223d48 0000000a                       H=""....

Disassembly of section .comment:

00000000 <.comment>:
   0:	6e657458 6f546173 2d736c6f 302e3531     XtensaTools-15.0
  10:	6c632032 20676e61 73726576 206e6f69     2 clang version 
  20:	302e3531                                 15.0.7.
