Archive member included to satisfy reference by file (symbol)

/nfs/site/disks/xne_abc_fe_002/fw_tools/RJ-2023.2-linux/HWC_RCS_LX7_0p5_RJ2/xtensa-elf/lib//libc.a(memcpy.o)
                              /nfs/site/disks/zsc14.xne_abc_fe_001/users/chandrbi/emulval_0p8_17Jun/abc_emul-srvrgen4/src/rcs_fw/out/rx/hw/com_queue.o (memcpy)
/nfs/site/disks/xne_abc_fe_002/fw_tools/RJ-2023.2-linux/HWC_RCS_LX7_0p5_RJ2/xtensa-elf/lib//libc.a(memset.o)
                              /nfs/site/disks/zsc14.xne_abc_fe_001/users/chandrbi/emulval_0p8_17Jun/abc_emul-srvrgen4/src/rcs_fw/out/rx/hw/com_error.o (memset)
/nfs/site/disks/xne_abc_fe_002/fw_tools/RJ-2023.2-linux/HWC_RCS_LX7_0p5_RJ2/xtensa-elf/lib/xcc//libgcc.a(_muldf3.o)
                              /nfs/site/disks/zsc14.xne_abc_fe_001/users/chandrbi/emulval_0p8_17Jun/abc_emul-srvrgen4/src/rcs_fw/out/rx/hw/com_swg.o (__muldf3)
/nfs/site/disks/xne_abc_fe_002/fw_tools/RJ-2023.2-linux/HWC_RCS_LX7_0p5_RJ2/xtensa-elf/lib/xcc//libgcc.a(_fixunsdfdi.o)
                              /nfs/site/disks/zsc14.xne_abc_fe_001/users/chandrbi/emulval_0p8_17Jun/abc_emul-srvrgen4/src/rcs_fw/out/rx/hw/com_swg.o (__fixunsdfdi)
/nfs/site/disks/xne_abc_fe_002/fw_tools/RJ-2023.2-linux/HWC_RCS_LX7_0p5_RJ2/xtensa-elf/lib/xcc//libgcc.a(_floatsidf.o)
                              /nfs/site/disks/zsc14.xne_abc_fe_001/users/chandrbi/emulval_0p8_17Jun/abc_emul-srvrgen4/src/rcs_fw/out/rx/hw/com_swg.o (__floatunsidf)
/nfs/site/disks/xne_abc_fe_002/fw_tools/RJ-2023.2-linux/HWC_RCS_LX7_0p5_RJ2/xtensa-elf/lib/xcc//libgcc.a(_muldi3.o)
                              /nfs/site/disks/zsc14.xne_abc_fe_001/users/chandrbi/emulval_0p8_17Jun/abc_emul-srvrgen4/src/rcs_fw/out/rx/hw/com_swg.o (__muldi3)
/nfs/site/disks/xne_abc_fe_002/fw_tools/RJ-2023.2-linux/HWC_RCS_LX7_0p5_RJ2/xtensa-elf/lib/xcc//libgcc.a(_udivdi3.o)
                              /nfs/site/disks/zsc14.xne_abc_fe_001/users/chandrbi/emulval_0p8_17Jun/abc_emul-srvrgen4/src/rcs_fw/out/rx/hw/com_swg.o (__udivdi3)
/nfs/site/disks/xne_abc_fe_002/fw_tools/RJ-2023.2-linux/HWC_RCS_LX7_0p5_RJ2/xtensa-elf/lib/xcc//libgcc.a(softfloat_div_df.o)
                              /nfs/site/disks/zsc14.xne_abc_fe_001/users/chandrbi/emulval_0p8_17Jun/abc_emul-srvrgen4/src/rcs_fw/out/rx/hw/com_swg.o (__divdf3)
/nfs/site/disks/xne_abc_fe_002/fw_tools/RJ-2023.2-linux/HWC_RCS_LX7_0p5_RJ2/xtensa-elf/lib/xcc//libgcc.a(_umulsidi3.o)
                              /nfs/site/disks/xne_abc_fe_002/fw_tools/RJ-2023.2-linux/HWC_RCS_LX7_0p5_RJ2/xtensa-elf/lib/xcc//libgcc.a(_muldi3.o) (__umulsidi3)
/nfs/site/disks/xne_abc_fe_002/fw_tools/RJ-2023.2-linux/HWC_RCS_LX7_0p5_RJ2/xtensa-elf/lib/xcc//libgcc.a(softfloat_cmn.o)
                              /nfs/site/disks/xne_abc_fe_002/fw_tools/RJ-2023.2-linux/HWC_RCS_LX7_0p5_RJ2/xtensa-elf/lib/xcc//libgcc.a(softfloat_div_df.o) (__float_exception_flags)
/nfs/site/disks/xne_abc_fe_002/fw_tools/RJ-2023.2-linux/HWC_RCS_LX7_0p5_RJ2/xtensa-elf/lib/xcc//libgcc.a(softfloat_cmn_df.o)
                              /nfs/site/disks/xne_abc_fe_002/fw_tools/RJ-2023.2-linux/HWC_RCS_LX7_0p5_RJ2/xtensa-elf/lib/xcc//libgcc.a(softfloat_div_df.o) (__propagateFloat64NaN)
/nfs/site/disks/xne_abc_fe_002/fw_tools/RJ-2023.2-linux/HWC_RCS_LX7_0p5_RJ2/xtensa-elf/lib/xcc//libgcc.a(softfloat_cmn_div.o)
                              /nfs/site/disks/xne_abc_fe_002/fw_tools/RJ-2023.2-linux/HWC_RCS_LX7_0p5_RJ2/xtensa-elf/lib/xcc//libgcc.a(softfloat_div_df.o) (__estimateDiv64To32)
/nfs/site/disks/xne_abc_fe_002/fw_tools/RJ-2023.2-linux/HWC_RCS_LX7_0p5_RJ2/xtensa-elf/arch/lib//libhandlers-board.a(debug-vector.o)
                              /nfs/site/disks/xne_abc_fe_002/fw_tools/RJ-2023.2-linux/HWC_RCS_LX7_0p5_RJ2/xtensa-elf/arch/lib/_vectors.o (_DebugExceptionVector)
/nfs/site/disks/xne_abc_fe_002/fw_tools/RJ-2023.2-linux/HWC_RCS_LX7_0p5_RJ2/xtensa-elf/arch/lib//libhandlers-board.a(reset-vector-unpack.o)
                              (_ResetVector)
/nfs/site/disks/xne_abc_fe_002/fw_tools/RJ-2023.2-linux/HWC_RCS_LX7_0p5_RJ2/xtensa-elf/arch/lib//libhandlers-board.a(memctl_default.o)
                              /nfs/site/disks/xne_abc_fe_002/fw_tools/RJ-2023.2-linux/HWC_RCS_LX7_0p5_RJ2/xtensa-elf/arch/lib//libhandlers-board.a(reset-vector-unpack.o) (__memctl_default)
/nfs/site/disks/xne_abc_fe_002/fw_tools/RJ-2023.2-linux/HWC_RCS_LX7_0p5_RJ2/xtensa-elf/arch/lib//libhandlers-board.a(xtos-interrupt-enable.o)
                              /nfs/site/disks/zsc14.xne_abc_fe_001/users/chandrbi/emulval_0p8_17Jun/abc_emul-srvrgen4/src/rcs_fw/out/rx/hw/com_isr.o (xtos_interrupt_enable)
/nfs/site/disks/xne_abc_fe_002/fw_tools/RJ-2023.2-linux/HWC_RCS_LX7_0p5_RJ2/xtensa-elf/arch/lib//libhandlers-board.a(xtos-interrupt-disable.o)
                              /nfs/site/disks/zsc14.xne_abc_fe_001/users/chandrbi/emulval_0p8_17Jun/abc_emul-srvrgen4/src/rcs_fw/out/rx/hw/com_isr.o (xtos_interrupt_disable)
/nfs/site/disks/xne_abc_fe_002/fw_tools/RJ-2023.2-linux/HWC_RCS_LX7_0p5_RJ2/xtensa-elf/arch/lib//libhandlers-board.a(xtos-set-inthandler.o)
                              /nfs/site/disks/zsc14.xne_abc_fe_001/users/chandrbi/emulval_0p8_17Jun/abc_emul-srvrgen4/src/rcs_fw/out/rx/hw/com_isr.o (xtos_set_interrupt_handler)
/nfs/site/disks/xne_abc_fe_002/fw_tools/RJ-2023.2-linux/HWC_RCS_LX7_0p5_RJ2/xtensa-elf/arch/lib//libhandlers-board.a(exc-syscall-handler.o)
                              /nfs/site/disks/zsc14.xne_abc_fe_001/users/chandrbi/emulval_0p8_17Jun/abc_emul-srvrgen4/src/rcs_fw/out/rx/hw/custom_vectors.o (_xtos_syscall_handler)
/nfs/site/disks/xne_abc_fe_002/fw_tools/RJ-2023.2-linux/HWC_RCS_LX7_0p5_RJ2/xtensa-elf/arch/lib//libhandlers-board.a(memerror-vector-S--vector-.o)
                              /nfs/site/disks/xne_abc_fe_002/fw_tools/RJ-2023.2-linux/HWC_RCS_LX7_0p5_RJ2/xtensa-elf/arch/lib/_vectors.o (_MemErrorVector)
/nfs/site/disks/xne_abc_fe_002/fw_tools/RJ-2023.2-linux/HWC_RCS_LX7_0p5_RJ2/xtensa-elf/arch/lib//libhandlers-board.a(nmi-vector.o)
                              /nfs/site/disks/xne_abc_fe_002/fw_tools/RJ-2023.2-linux/HWC_RCS_LX7_0p5_RJ2/xtensa-elf/arch/lib/_vectors.o (_NMIExceptionVector)
/nfs/site/disks/xne_abc_fe_002/fw_tools/RJ-2023.2-linux/HWC_RCS_LX7_0p5_RJ2/xtensa-elf/arch/lib//libhandlers-board.a(window-vectors.o)
                              /nfs/site/disks/xne_abc_fe_002/fw_tools/RJ-2023.2-linux/HWC_RCS_LX7_0p5_RJ2/xtensa-elf/arch/lib/_vectors.o (_WindowOverflow4)
/nfs/site/disks/xne_abc_fe_002/fw_tools/RJ-2023.2-linux/HWC_RCS_LX7_0p5_RJ2/xtensa-elf/arch/lib//libhandlers-board.a(int-vector-level2.o)
                              /nfs/site/disks/xne_abc_fe_002/fw_tools/RJ-2023.2-linux/HWC_RCS_LX7_0p5_RJ2/xtensa-elf/arch/lib/_vectors.o (_Level2Vector)
/nfs/site/disks/xne_abc_fe_002/fw_tools/RJ-2023.2-linux/HWC_RCS_LX7_0p5_RJ2/xtensa-elf/arch/lib//libhandlers-board.a(int-vector-level3.o)
                              /nfs/site/disks/xne_abc_fe_002/fw_tools/RJ-2023.2-linux/HWC_RCS_LX7_0p5_RJ2/xtensa-elf/arch/lib/_vectors.o (_Level3Vector)
/nfs/site/disks/xne_abc_fe_002/fw_tools/RJ-2023.2-linux/HWC_RCS_LX7_0p5_RJ2/xtensa-elf/arch/lib//libhandlers-board.a(int-vector-level4.o)
                              /nfs/site/disks/xne_abc_fe_002/fw_tools/RJ-2023.2-linux/HWC_RCS_LX7_0p5_RJ2/xtensa-elf/arch/lib/_vectors.o (_Level4Vector)
/nfs/site/disks/xne_abc_fe_002/fw_tools/RJ-2023.2-linux/HWC_RCS_LX7_0p5_RJ2/xtensa-elf/arch/lib//libhandlers-board.a(int-handler-level2.o)
                              /nfs/site/disks/xne_abc_fe_002/fw_tools/RJ-2023.2-linux/HWC_RCS_LX7_0p5_RJ2/xtensa-elf/arch/lib//libhandlers-board.a(int-vector-level2.o) (_Level2FromVector)
/nfs/site/disks/xne_abc_fe_002/fw_tools/RJ-2023.2-linux/HWC_RCS_LX7_0p5_RJ2/xtensa-elf/arch/lib//libhandlers-board.a(int-handler-level3.o)
                              /nfs/site/disks/xne_abc_fe_002/fw_tools/RJ-2023.2-linux/HWC_RCS_LX7_0p5_RJ2/xtensa-elf/arch/lib//libhandlers-board.a(int-vector-level3.o) (_Level3FromVector)
/nfs/site/disks/xne_abc_fe_002/fw_tools/RJ-2023.2-linux/HWC_RCS_LX7_0p5_RJ2/xtensa-elf/arch/lib//libhandlers-board.a(int-handler-level4.o)
                              /nfs/site/disks/xne_abc_fe_002/fw_tools/RJ-2023.2-linux/HWC_RCS_LX7_0p5_RJ2/xtensa-elf/arch/lib//libhandlers-board.a(int-vector-level4.o) (_Level4FromVector)
/nfs/site/disks/xne_abc_fe_002/fw_tools/RJ-2023.2-linux/HWC_RCS_LX7_0p5_RJ2/xtensa-elf/arch/lib//libhandlers-board.a(int-lowpri-dispatcher.o)
                              /nfs/site/disks/zsc14.xne_abc_fe_001/users/chandrbi/emulval_0p8_17Jun/abc_emul-srvrgen4/src/rcs_fw/out/rx/hw/custom_vectors.o (_xtos_l1int_handler)
/nfs/site/disks/xne_abc_fe_002/fw_tools/RJ-2023.2-linux/HWC_RCS_LX7_0p5_RJ2/xtensa-elf/arch/lib//libhandlers-board.a(exc-return.o)
                              /nfs/site/disks/xne_abc_fe_002/fw_tools/RJ-2023.2-linux/HWC_RCS_LX7_0p5_RJ2/xtensa-elf/arch/lib//libhandlers-board.a(int-lowpri-dispatcher.o) (_xtos_return_from_exc)
/nfs/site/disks/xne_abc_fe_002/fw_tools/RJ-2023.2-linux/HWC_RCS_LX7_0p5_RJ2/xtensa-elf/arch/lib//libhal.a(clock.o)
                              /nfs/site/disks/zsc14.xne_abc_fe_001/users/chandrbi/emulval_0p8_17Jun/abc_emul-srvrgen4/src/rcs_fw/out/rx/hw/com_boot.o (xthal_set_ccompare)
/nfs/site/disks/xne_abc_fe_002/fw_tools/RJ-2023.2-linux/HWC_RCS_LX7_0p5_RJ2/xtensa-elf/arch/lib//libhal.a(cache_asm--hw_configid0.o)
                              /nfs/site/disks/xne_abc_fe_002/fw_tools/RJ-2023.2-linux/HWC_RCS_LX7_0p5_RJ2/xtensa-elf/arch/lib/_vectors.o (xthals_hw_configid0)
/nfs/site/disks/xne_abc_fe_002/fw_tools/RJ-2023.2-linux/HWC_RCS_LX7_0p5_RJ2/xtensa-elf/arch/lib//libhal.a(cache_asm--hw_configid1.o)
                              /nfs/site/disks/xne_abc_fe_002/fw_tools/RJ-2023.2-linux/HWC_RCS_LX7_0p5_RJ2/xtensa-elf/arch/lib/_vectors.o (xthals_hw_configid1)
/nfs/site/disks/xne_abc_fe_002/fw_tools/RJ-2023.2-linux/HWC_RCS_LX7_0p5_RJ2/xtensa-elf/arch/lib//libhal.a(cache_asm--release_major.o)
                              /nfs/site/disks/xne_abc_fe_002/fw_tools/RJ-2023.2-linux/HWC_RCS_LX7_0p5_RJ2/xtensa-elf/arch/lib/_vectors.o (xthals_release_major)
/nfs/site/disks/xne_abc_fe_002/fw_tools/RJ-2023.2-linux/HWC_RCS_LX7_0p5_RJ2/xtensa-elf/arch/lib//libhal.a(cache_asm--release_minor.o)
                              /nfs/site/disks/xne_abc_fe_002/fw_tools/RJ-2023.2-linux/HWC_RCS_LX7_0p5_RJ2/xtensa-elf/arch/lib/_vectors.o (xthals_release_minor)
/nfs/site/disks/xne_abc_fe_002/fw_tools/RJ-2023.2-linux/HWC_RCS_LX7_0p5_RJ2/xtensa-elf/arch/lib//libhal.a(const--intlevel.o)
                              /nfs/site/disks/xne_abc_fe_002/fw_tools/RJ-2023.2-linux/HWC_RCS_LX7_0p5_RJ2/xtensa-elf/arch/lib//libhandlers-board.a(xtos-set-inthandler.o) (Xthal_intlevel)

Discarded input sections

 .ResetVector.literal
                0x00000000        0x0 /nfs/site/disks/xne_abc_fe_002/fw_tools/RJ-2023.2-linux/HWC_RCS_LX7_0p5_RJ2/xtensa-elf/arch/lib//libhandlers-board.a(reset-vector-unpack.o)

Linker script and memory map

LOAD /nfs/site/disks/xne_abc_fe_002/fw_tools/RJ-2023.2-linux/HWC_RCS_LX7_0p5_RJ2/xtensa-elf/arch/lib/crt1-tiny.o
LOAD /nfs/site/disks/xne_abc_fe_002/fw_tools/RJ-2023.2-linux/HWC_RCS_LX7_0p5_RJ2/xtensa-elf/arch/lib/_sharedvectors.o
LOAD /nfs/site/disks/xne_abc_fe_002/fw_tools/RJ-2023.2-linux/HWC_RCS_LX7_0p5_RJ2/xtensa-elf/arch/lib/_vectors.o
LOAD /nfs/site/disks/zsc14.xne_abc_fe_001/users/chandrbi/emulval_0p8_17Jun/abc_emul-srvrgen4/src/rcs_fw/out/rx/hw/com_tables.o
LOAD /nfs/site/disks/zsc14.xne_abc_fe_001/users/chandrbi/emulval_0p8_17Jun/abc_emul-srvrgen4/src/rcs_fw/out/rx/hw/rx_tables.o
LOAD /nfs/site/disks/zsc14.xne_abc_fe_001/users/chandrbi/emulval_0p8_17Jun/abc_emul-srvrgen4/src/rcs_fw/out/rx/hw/fw_ver.o
LOAD /nfs/site/disks/zsc14.xne_abc_fe_001/users/chandrbi/emulval_0p8_17Jun/abc_emul-srvrgen4/src/rcs_fw/out/rx/hw/com_print.o
LOAD /nfs/site/disks/zsc14.xne_abc_fe_001/users/chandrbi/emulval_0p8_17Jun/abc_emul-srvrgen4/src/rcs_fw/out/rx/hw/com_assert.o
LOAD /nfs/site/disks/zsc14.xne_abc_fe_001/users/chandrbi/emulval_0p8_17Jun/abc_emul-srvrgen4/src/rcs_fw/out/rx/hw/com_heap.o
LOAD /nfs/site/disks/zsc14.xne_abc_fe_001/users/chandrbi/emulval_0p8_17Jun/abc_emul-srvrgen4/src/rcs_fw/out/rx/hw/com_trax.o
LOAD /nfs/site/disks/zsc14.xne_abc_fe_001/users/chandrbi/emulval_0p8_17Jun/abc_emul-srvrgen4/src/rcs_fw/out/rx/hw/com_isr.o
LOAD /nfs/site/disks/zsc14.xne_abc_fe_001/users/chandrbi/emulval_0p8_17Jun/abc_emul-srvrgen4/src/rcs_fw/out/rx/hw/com_platform.o
LOAD /nfs/site/disks/zsc14.xne_abc_fe_001/users/chandrbi/emulval_0p8_17Jun/abc_emul-srvrgen4/src/rcs_fw/out/rx/hw/com_bfn.o
LOAD /nfs/site/disks/zsc14.xne_abc_fe_001/users/chandrbi/emulval_0p8_17Jun/abc_emul-srvrgen4/src/rcs_fw/out/rx/hw/com_trace_buffer.o
LOAD /nfs/site/disks/zsc14.xne_abc_fe_001/users/chandrbi/emulval_0p8_17Jun/abc_emul-srvrgen4/src/rcs_fw/out/rx/hw/com_error.o
LOAD /nfs/site/disks/zsc14.xne_abc_fe_001/users/chandrbi/emulval_0p8_17Jun/abc_emul-srvrgen4/src/rcs_fw/out/rx/hw/com_timing.o
LOAD /nfs/site/disks/zsc14.xne_abc_fe_001/users/chandrbi/emulval_0p8_17Jun/abc_emul-srvrgen4/src/rcs_fw/out/rx/hw/com_fsm.o
LOAD /nfs/site/disks/zsc14.xne_abc_fe_001/users/chandrbi/emulval_0p8_17Jun/abc_emul-srvrgen4/src/rcs_fw/out/rx/hw/com_boot.o
LOAD /nfs/site/disks/zsc14.xne_abc_fe_001/users/chandrbi/emulval_0p8_17Jun/abc_emul-srvrgen4/src/rcs_fw/out/rx/hw/com_lock.o
LOAD /nfs/site/disks/zsc14.xne_abc_fe_001/users/chandrbi/emulval_0p8_17Jun/abc_emul-srvrgen4/src/rcs_fw/out/rx/hw/com_idma.o
LOAD /nfs/site/disks/zsc14.xne_abc_fe_001/users/chandrbi/emulval_0p8_17Jun/abc_emul-srvrgen4/src/rcs_fw/out/rx/hw/com_exception.o
LOAD /nfs/site/disks/zsc14.xne_abc_fe_001/users/chandrbi/emulval_0p8_17Jun/abc_emul-srvrgen4/src/rcs_fw/out/rx/hw/com_swg.o
LOAD /nfs/site/disks/zsc14.xne_abc_fe_001/users/chandrbi/emulval_0p8_17Jun/abc_emul-srvrgen4/src/rcs_fw/out/rx/hw/com_memory.o
LOAD /nfs/site/disks/zsc14.xne_abc_fe_001/users/chandrbi/emulval_0p8_17Jun/abc_emul-srvrgen4/src/rcs_fw/out/rx/hw/com_gpdma.o
LOAD /nfs/site/disks/zsc14.xne_abc_fe_001/users/chandrbi/emulval_0p8_17Jun/abc_emul-srvrgen4/src/rcs_fw/out/rx/hw/com_event.o
LOAD /nfs/site/disks/zsc14.xne_abc_fe_001/users/chandrbi/emulval_0p8_17Jun/abc_emul-srvrgen4/src/rcs_fw/out/rx/hw/com_queue.o
LOAD /nfs/site/disks/zsc14.xne_abc_fe_001/users/chandrbi/emulval_0p8_17Jun/abc_emul-srvrgen4/src/rcs_fw/out/rx/hw/com_msg_handler_utils.o
LOAD /nfs/site/disks/zsc14.xne_abc_fe_001/users/chandrbi/emulval_0p8_17Jun/abc_emul-srvrgen4/src/rcs_fw/out/rx/hw/com_shared_memory_read_write.o
LOAD /nfs/site/disks/zsc14.xne_abc_fe_001/users/chandrbi/emulval_0p8_17Jun/abc_emul-srvrgen4/src/rcs_fw/out/rx/hw/com_shared_memory.o
LOAD /nfs/site/disks/zsc14.xne_abc_fe_001/users/chandrbi/emulval_0p8_17Jun/abc_emul-srvrgen4/src/rcs_fw/out/rx/hw/rx_msg_handler.o
LOAD /nfs/site/disks/zsc14.xne_abc_fe_001/users/chandrbi/emulval_0p8_17Jun/abc_emul-srvrgen4/src/rcs_fw/out/rx/hw/rx_adc_cfg.o
LOAD /nfs/site/disks/zsc14.xne_abc_fe_001/users/chandrbi/emulval_0p8_17Jun/abc_emul-srvrgen4/src/rcs_fw/out/rx/hw/rx_main.o
LOAD /nfs/site/disks/zsc14.xne_abc_fe_001/users/chandrbi/emulval_0p8_17Jun/abc_emul-srvrgen4/src/rcs_fw/out/rx/hw/rx_lineup.o
LOAD /nfs/site/disks/zsc14.xne_abc_fe_001/users/chandrbi/emulval_0p8_17Jun/abc_emul-srvrgen4/src/rcs_fw/out/rx/hw/rx_gain.o
LOAD /nfs/site/disks/zsc14.xne_abc_fe_001/users/chandrbi/emulval_0p8_17Jun/abc_emul-srvrgen4/src/rcs_fw/out/rx/hw/rx_daco.o
LOAD /nfs/site/disks/zsc14.xne_abc_fe_001/users/chandrbi/emulval_0p8_17Jun/abc_emul-srvrgen4/src/rcs_fw/out/rx/hw/rx_v2d.o
LOAD /nfs/site/disks/zsc14.xne_abc_fe_001/users/chandrbi/emulval_0p8_17Jun/abc_emul-srvrgen4/src/rcs_fw/out/rx/hw/com_bootrom.o
LOAD /nfs/site/disks/zsc14.xne_abc_fe_001/users/chandrbi/emulval_0p8_17Jun/abc_emul-srvrgen4/src/rcs_fw/out/rx/hw/custom_vectors.o
LOAD /nfs/site/disks/xne_abc_fe_002/fw_tools/RJ-2023.2-linux/HWC_RCS_LX7_0p5_RJ2/xtensa-elf/lib//libc.a
LOAD /nfs/site/disks/xne_abc_fe_002/fw_tools/RJ-2023.2-linux/HWC_RCS_LX7_0p5_RJ2/xtensa-elf/arch/lib//libreftb.a
LOAD /nfs/site/disks/xne_abc_fe_002/fw_tools/RJ-2023.2-linux/HWC_RCS_LX7_0p5_RJ2/xtensa-elf/lib//libm.a
LOAD /nfs/site/disks/xne_abc_fe_002/fw_tools/RJ-2023.2-linux/HWC_RCS_LX7_0p5_RJ2/xtensa-elf/lib//libstdc++.a
LOAD /nfs/site/disks/xne_abc_fe_002/fw_tools/RJ-2023.2-linux/HWC_RCS_LX7_0p5_RJ2/xtensa-elf/lib//libm.a
LOAD /nfs/site/disks/xne_abc_fe_002/fw_tools/RJ-2023.2-linux/HWC_RCS_LX7_0p5_RJ2/xtensa-elf/lib/xcc//libgcc.a
LOAD /nfs/site/disks/xne_abc_fe_002/fw_tools/RJ-2023.2-linux/HWC_RCS_LX7_0p5_RJ2/xtensa-elf/lib//libc.a
LOAD /nfs/site/disks/xne_abc_fe_002/fw_tools/RJ-2023.2-linux/HWC_RCS_LX7_0p5_RJ2/xtensa-elf/arch/lib//libhandlers-board.a
LOAD /nfs/site/disks/xne_abc_fe_002/fw_tools/RJ-2023.2-linux/HWC_RCS_LX7_0p5_RJ2/xtensa-elf/arch/lib//libhal.a
LOAD /nfs/site/disks/xne_abc_fe_002/fw_tools/RJ-2023.2-linux/HWC_RCS_LX7_0p5_RJ2/xtensa-elf/lib/xcc//libgcc.a
                0x00000000                _memmap_mem_srom_start = 0x0
                0x00020000                _memmap_mem_srom_end = 0x20000
                0x10000000                _memmap_mem_iram0_start = 0x10000000
                0x10020000                _memmap_mem_iram0_end = 0x10020000
                0x10020000                _memmap_mem_dram0_start = 0x10020000
                0x10040000                _memmap_mem_dram0_end = 0x10040000
                0x00200000                _memmap_mem_sram_start = 0x200000
                0x00240000                _memmap_mem_sram_end = 0x240000
                0x00000000                _memmap_seg_srom0_start = 0x0
                0x00020000                _memmap_seg_srom0_max = 0x20000
                0x00200000                _memmap_seg_sram0_0_start = 0x200000
                0x00204000                _memmap_seg_sram0_0_max = 0x204000
                0x00204000                _memmap_seg_sram0_1_start = 0x204000
                0x00210000                _memmap_seg_sram0_1_max = 0x210000
                0x00210000                _memmap_seg_sram0_2_start = 0x210000
                0x00218000                _memmap_seg_sram0_2_max = 0x218000
                0x00218000                _memmap_seg_sram0_3_start = 0x218000
                0x00220000                _memmap_seg_sram0_3_max = 0x220000
                0x00220000                _memmap_seg_sram0_4_start = 0x220000
                0x00228000                _memmap_seg_sram0_4_max = 0x228000
                0x00228000                _memmap_seg_sram0_5_start = 0x228000
                0x00230000                _memmap_seg_sram0_5_max = 0x230000
                0x00230000                _memmap_seg_sram0_6_start = 0x230000
                0x0023ffeb                _memmap_seg_sram0_6_max = 0x23ffeb
                0x0023ffec                _memmap_seg_sram0_7_start = 0x23ffec
                0x0023fff0                _memmap_seg_sram0_7_max = 0x23fff0
                0x0023fff0                _memmap_seg_sram0_8_start = 0x23fff0
                0x0023fff4                _memmap_seg_sram0_8_max = 0x23fff4
                0x0023fff4                _memmap_seg_sram0_9_start = 0x23fff4
                0x0023fff8                _memmap_seg_sram0_9_max = 0x23fff8
                0x0023fff8                _memmap_seg_sram0_10_start = 0x23fff8
                0x0023fffc                _memmap_seg_sram0_10_max = 0x23fffc
                0x0023fffc                _memmap_seg_sram0_11_start = 0x23fffc
                0x00240000                _memmap_seg_sram0_11_max = 0x240000
                0x10000000                _memmap_seg_iram0_0_start = 0x10000000
                0x10000300                _memmap_seg_iram0_0_max = 0x10000300
                0x10000300                _memmap_seg_iram0_1_start = 0x10000300
                0x10000330                _memmap_seg_iram0_1_max = 0x10000330
                0x10000330                _memmap_seg_iram0_2_start = 0x10000330
                0x100004b0                _memmap_seg_iram0_2_max = 0x100004b0
                0x10000800                _memmap_seg_iram0_4_start = 0x10000800
                0x10000978                _memmap_seg_iram0_4_max = 0x10000978
                0x10000978                _memmap_seg_iram0_5_start = 0x10000978
                0x10000980                _memmap_seg_iram0_5_max = 0x10000980
                0x10000980                _memmap_seg_iram0_6_start = 0x10000980
                0x100009b8                _memmap_seg_iram0_6_max = 0x100009b8
                0x100009b8                _memmap_seg_iram0_7_start = 0x100009b8
                0x100009c0                _memmap_seg_iram0_7_max = 0x100009c0
                0x100009c0                _memmap_seg_iram0_8_start = 0x100009c0
                0x100009f8                _memmap_seg_iram0_8_max = 0x100009f8
                0x100009f8                _memmap_seg_iram0_9_start = 0x100009f8
                0x10000a00                _memmap_seg_iram0_9_max = 0x10000a00
                0x10000a00                _memmap_seg_iram0_10_start = 0x10000a00
                0x10000a38                _memmap_seg_iram0_10_max = 0x10000a38
                0x10000a38                _memmap_seg_iram0_11_start = 0x10000a38
                0x10000a40                _memmap_seg_iram0_11_max = 0x10000a40
                0x10000a40                _memmap_seg_iram0_12_start = 0x10000a40
                0x10000a78                _memmap_seg_iram0_12_max = 0x10000a78
                0x10000a78                _memmap_seg_iram0_13_start = 0x10000a78
                0x10000a80                _memmap_seg_iram0_13_max = 0x10000a80
                0x10000a80                _memmap_seg_iram0_14_start = 0x10000a80
                0x10000ab8                _memmap_seg_iram0_14_max = 0x10000ab8
                0x10000ab8                _memmap_seg_iram0_15_start = 0x10000ab8
                0x10000ac0                _memmap_seg_iram0_15_max = 0x10000ac0
                0x10000ac0                _memmap_seg_iram0_16_start = 0x10000ac0
                0x10000af8                _memmap_seg_iram0_16_max = 0x10000af8
                0x10000af8                _memmap_seg_iram0_17_start = 0x10000af8
                0x10000b00                _memmap_seg_iram0_17_max = 0x10000b00
                0x10000b00                _memmap_seg_iram0_18_start = 0x10000b00
                0x10000b38                _memmap_seg_iram0_18_max = 0x10000b38
                0x10000b38                _memmap_seg_iram0_19_start = 0x10000b38
                0x10000b80                _memmap_seg_iram0_19_max = 0x10000b80
                0x10000b80                _memmap_seg_iram0_20_start = 0x10000b80
                0x10000bc0                _memmap_seg_iram0_20_max = 0x10000bc0
                0x10000bc0                _memmap_seg_iram0_21_start = 0x10000bc0
                0x10020000                _memmap_seg_iram0_21_max = 0x10020000
                0x10020000                _memmap_seg_dram0_0_start = 0x10020000
                0x10024000                _memmap_seg_dram0_0_max = 0x10024000
                0x10024000                _memmap_seg_dram0_1_start = 0x10024000
                0x1003d000                _memmap_seg_dram0_1_max = 0x1003d000
                0x00000000                _rom_store_table = 0x0
                [!provide]                        PROVIDE (_memmap_reset_vector = 0x10000000)
                0x10000800                PROVIDE (_memmap_vecbase_reset = 0x10000800)
                0x00000001                _memmap_cacheattr_wb_base = 0x1
                0x00000003                _memmap_cacheattr_wt_base = 0x3
                0x00000004                _memmap_cacheattr_bp_base = 0x4
                0xfffffff0                _memmap_cacheattr_unused_mask = 0xfffffff0
                0x44444441                _memmap_cacheattr_wb_trapnull = 0x44444441
                0x44444441                _memmap_cacheattr_wba_trapnull = 0x44444441
                0x44444442                _memmap_cacheattr_wbna_trapnull = 0x44444442
                0x44444443                _memmap_cacheattr_wt_trapnull = 0x44444443
                0x44444444                _memmap_cacheattr_bp_trapnull = 0x44444444
                0x00000001                _memmap_cacheattr_wb_strict = 0x1
                0x00000003                _memmap_cacheattr_wt_strict = 0x3
                0x00000004                _memmap_cacheattr_bp_strict = 0x4
                0x44444441                _memmap_cacheattr_wb_allvalid = 0x44444441
                0x44444443                _memmap_cacheattr_wt_allvalid = 0x44444443
                0x44444444                _memmap_cacheattr_bp_allvalid = 0x44444444
                0x00000001                _memmap_region_map = 0x1
                0x44444444                PROVIDE (_memmap_cacheattr_reset = _memmap_cacheattr_bp_trapnull)

.srom.text      0x00000000        0x8
                0x00000000                _srom_text_start = ABSOLUTE (.)
 *(.srom.text)
 .srom.text     0x00000000        0x8 /nfs/site/disks/zsc14.xne_abc_fe_001/users/chandrbi/emulval_0p8_17Jun/abc_emul-srvrgen4/src/rcs_fw/out/rx/hw/com_bootrom.o
                0x00000000                __BootRom
                0x00000008                . = ALIGN (0x4)
                0x00000008                _srom_text_end = ABSOLUTE (.)

.srom.rodata    0x00000008        0x0
                0x00000008                _srom_rodata_start = ABSOLUTE (.)
 *(.srom.rodata)
                0x00000008                . = ALIGN (0x4)
                0x00000008                _srom_rodata_end = ABSOLUTE (.)

.srom.literal   0x00000008        0x0
                0x00000008                _srom_literal_start = ABSOLUTE (.)
 *(.srom.literal)
                0x00000008                . = ALIGN (0x4)
                0x00000008                _srom_literal_end = ABSOLUTE (.)
                0x00000008                _memmap_seg_srom0_end = ALIGN (0x8)
                0x00000008                _memmap_mem_srom_max = ABSOLUTE (.)

.sram.system_status.data
                0x00200000        0x0
                0x00200000                _sram_system_status_data_start = ABSOLUTE (.)
 *(.sram.system_status.data)
                0x00200000                . = ALIGN (0x4)
                0x00200000                _sram_system_status_data_end = ABSOLUTE (.)
                0x00200000                _memmap_seg_sram0_0_end = ALIGN (0x8)

.sram.table.data
                0x00204000        0x0
                0x00204000                _sram_table_data_start = ABSOLUTE (.)
 *(.sram.table.data)
                0x00204000                . = ALIGN (0x4)
                0x00204000                _sram_table_data_end = ABSOLUTE (.)
                0x00204000                _memmap_seg_sram0_1_end = ALIGN (0x8)

.sram.ax.rw     0x00210000        0x0
                0x00210000                _sram_ax_rw_start = ABSOLUTE (.)
 *(.sram.ax.rw)
                0x00210000                . = ALIGN (0x4)
                0x00210000                _sram_ax_rw_end = ABSOLUTE (.)
                0x00210000                _memmap_seg_sram0_2_end = ALIGN (0x8)

.sram.rx.rw     0x00218000        0x0
                0x00218000                _sram_rx_rw_start = ABSOLUTE (.)
 *(.sram.rx.rw)
                0x00218000                . = ALIGN (0x4)
                0x00218000                _sram_rx_rw_end = ABSOLUTE (.)
                0x00218000                _memmap_seg_sram0_3_end = ALIGN (0x8)

.sram.tx.rw     0x00220000        0x0
                0x00220000                _sram_tx_rw_start = ABSOLUTE (.)
 *(.sram.tx.rw)
                0x00220000                . = ALIGN (0x4)
                0x00220000                _sram_tx_rw_end = ABSOLUTE (.)
                0x00220000                _memmap_seg_sram0_4_end = ALIGN (0x8)

.sram.cal.rw    0x00228000        0x0
                0x00228000                _sram_cal_rw_start = ABSOLUTE (.)
 *(.sram.cal.rw)
                0x00228000                . = ALIGN (0x4)
                0x00228000                _sram_cal_rw_end = ABSOLUTE (.)
                0x00228000                _memmap_seg_sram0_5_end = ALIGN (0x8)

.sram.reserved  0x00230000        0x0
                0x00230000                _sram_reserved_start = ABSOLUTE (.)
 *(.sram.reserved)
                0x00230000                . = ALIGN (0x4)
                0x00230000                _sram_reserved_end = ABSOLUTE (.)
                0x00230000                _memmap_seg_sram0_6_end = ALIGN (0x8)

.sram.ax.flag   0x0023ffec        0x0
                0x0023ffec                _sram_ax_flag_start = ABSOLUTE (.)
 *(.sram.ax.flag)
                0x0023ffec                . = ALIGN (0x4)
                0x0023ffec                _sram_ax_flag_end = ABSOLUTE (.)
                0x0023fff0                _memmap_seg_sram0_7_end = ALIGN (0x8)

.sram.tx.flag   0x0023fff0        0x0
                0x0023fff0                _sram_tx_flag_start = ABSOLUTE (.)
 *(.sram.tx.flag)
                0x0023fff0                . = ALIGN (0x4)
                0x0023fff0                _sram_tx_flag_end = ABSOLUTE (.)
                0x0023fff0                _memmap_seg_sram0_8_end = ALIGN (0x8)

.sram.rx.flag   0x0023fff4        0x0
                0x0023fff4                _sram_rx_flag_start = ABSOLUTE (.)
 *(.sram.rx.flag)
                0x0023fff4                . = ALIGN (0x4)
                0x0023fff4                _sram_rx_flag_end = ABSOLUTE (.)
                0x0023fff8                _memmap_seg_sram0_9_end = ALIGN (0x8)

.sram.cal.flag  0x0023fff8        0x0
                0x0023fff8                _sram_cal_flag_start = ABSOLUTE (.)
 *(.sram.cal.flag)
                0x0023fff8                . = ALIGN (0x4)
                0x0023fff8                _sram_cal_flag_end = ABSOLUTE (.)
                0x0023fff8                _memmap_seg_sram0_10_end = ALIGN (0x8)

.sram.com.flag  0x0023fffc        0x0
                0x0023fffc                _sram_com_flag_start = ABSOLUTE (.)
 *(.sram.com.flag)
                0x0023fffc                . = ALIGN (0x4)
                0x0023fffc                _sram_com_flag_end = ABSOLUTE (.)
                0x00240000                _memmap_seg_sram0_11_end = ALIGN (0x8)
                0x0023fffc                _memmap_mem_sram_max = ABSOLUTE (.)

.ResetVector.text
                0x10000000      0x1b4
                0x10000000                _ResetVector_text_start = ABSOLUTE (.)
 *(.ResetVector.text)
 .ResetVector.text
                0x10000000      0x1b4 /nfs/site/disks/xne_abc_fe_002/fw_tools/RJ-2023.2-linux/HWC_RCS_LX7_0p5_RJ2/xtensa-elf/arch/lib//libhandlers-board.a(reset-vector-unpack.o)
                0x10000000                _ResetVector
                0x10000044                _xtos_mpu_attribs
                0x10000058                _ResetHandler
                0x100001b4                . = ALIGN (0x4)
                0x100001b4                _ResetVector_text_end = ABSOLUTE (.)

.ResetHandler.text
                0x100001b4        0x0
                0x100001b4                _ResetHandler_text_start = ABSOLUTE (.)
 *(.ResetHandler.literal .ResetHandler.text)
                0x100001b4                . = ALIGN (0x4)
                0x100001b4                _ResetHandler_text_end = ABSOLUTE (.)
                0x100001b8                _memmap_seg_iram0_0_end = ALIGN (0x8)

.MemoryExceptionVector.literal
                0x10000300        0x0
                0x10000300                _MemoryExceptionVector_literal_start = ABSOLUTE (.)
 *(.MemoryExceptionVector.literal)
 .MemoryExceptionVector.literal
                0x10000300        0x0 /nfs/site/disks/xne_abc_fe_002/fw_tools/RJ-2023.2-linux/HWC_RCS_LX7_0p5_RJ2/xtensa-elf/arch/lib//libhandlers-board.a(memerror-vector-S--vector-.o)
                0x10000300                . = ALIGN (0x4)
                0x10000300                _MemoryExceptionVector_literal_end = ABSOLUTE (.)
                0x10000300                _memmap_seg_iram0_1_end = ALIGN (0x8)

.MemoryExceptionVector.text
                0x10000330       0x28
                0x10000330                _MemoryExceptionVector_text_start = ABSOLUTE (.)
 *(.MemoryExceptionVector.text)
 .MemoryExceptionVector.text
                0x10000330       0x26 /nfs/site/disks/xne_abc_fe_002/fw_tools/RJ-2023.2-linux/HWC_RCS_LX7_0p5_RJ2/xtensa-elf/arch/lib//libhandlers-board.a(memerror-vector-S--vector-.o)
                0x10000330                _MemErrorVector
                0x10000358                . = ALIGN (0x4)
 *fill*         0x10000356        0x2 
                0x10000358                _MemoryExceptionVector_text_end = ABSOLUTE (.)
                0x10000358                _memmap_seg_iram0_2_end = ALIGN (0x8)

.WindowVectors.text
                0x10000800      0x16c
                0x10000800                _WindowVectors_text_start = ABSOLUTE (.)
 *(.WindowVectors.text)
 .WindowVectors.text
                0x10000800      0x16a /nfs/site/disks/xne_abc_fe_002/fw_tools/RJ-2023.2-linux/HWC_RCS_LX7_0p5_RJ2/xtensa-elf/arch/lib//libhandlers-board.a(window-vectors.o)
                0x10000800                _WindowOverflow4
                0x10000810                _xtos_alloca_handler
                0x10000840                _WindowUnderflow4
                0x10000880                _WindowOverflow8
                0x100008c0                _WindowUnderflow8
                0x10000900                _WindowOverflow12
                0x10000940                _WindowUnderflow12
                0x1000096c                . = ALIGN (0x4)
 *fill*         0x1000096a        0x2 
                0x1000096c                _WindowVectors_text_end = ABSOLUTE (.)
                0x10000970                _memmap_seg_iram0_4_end = ALIGN (0x8)

.Level2InterruptVector.literal
                0x10000978        0x0
                0x10000978                _Level2InterruptVector_literal_start = ABSOLUTE (.)
 *(.Level2InterruptVector.literal)
                0x10000978                . = ALIGN (0x4)
                0x10000978                _Level2InterruptVector_literal_end = ABSOLUTE (.)
                0x10000978                _memmap_seg_iram0_5_end = ALIGN (0x8)

.Level2InterruptVector.text
                0x10000980        0x8
                0x10000980                _Level2InterruptVector_text_start = ABSOLUTE (.)
 *(.Level2InterruptVector.text)
 .Level2InterruptVector.text
                0x10000980        0x6 /nfs/site/disks/xne_abc_fe_002/fw_tools/RJ-2023.2-linux/HWC_RCS_LX7_0p5_RJ2/xtensa-elf/arch/lib//libhandlers-board.a(int-vector-level2.o)
                0x10000980                _Level2Vector
                0x10000988                . = ALIGN (0x4)
 *fill*         0x10000986        0x2 
                0x10000988                _Level2InterruptVector_text_end = ABSOLUTE (.)
                0x10000988                _memmap_seg_iram0_6_end = ALIGN (0x8)

.Level3InterruptVector.literal
                0x100009b8        0x0
                0x100009b8                _Level3InterruptVector_literal_start = ABSOLUTE (.)
 *(.Level3InterruptVector.literal)
                0x100009b8                . = ALIGN (0x4)
                0x100009b8                _Level3InterruptVector_literal_end = ABSOLUTE (.)
                0x100009b8                _memmap_seg_iram0_7_end = ALIGN (0x8)

.Level3InterruptVector.text
                0x100009c0        0x8
                0x100009c0                _Level3InterruptVector_text_start = ABSOLUTE (.)
 *(.Level3InterruptVector.text)
 .Level3InterruptVector.text
                0x100009c0        0x6 /nfs/site/disks/xne_abc_fe_002/fw_tools/RJ-2023.2-linux/HWC_RCS_LX7_0p5_RJ2/xtensa-elf/arch/lib//libhandlers-board.a(int-vector-level3.o)
                0x100009c0                _Level3Vector
                0x100009c8                . = ALIGN (0x4)
 *fill*         0x100009c6        0x2 
                0x100009c8                _Level3InterruptVector_text_end = ABSOLUTE (.)
                0x100009c8                _memmap_seg_iram0_8_end = ALIGN (0x8)

.Level4InterruptVector.literal
                0x100009f8        0x0
                0x100009f8                _Level4InterruptVector_literal_start = ABSOLUTE (.)
 *(.Level4InterruptVector.literal)
                0x100009f8                . = ALIGN (0x4)
                0x100009f8                _Level4InterruptVector_literal_end = ABSOLUTE (.)
                0x100009f8                _memmap_seg_iram0_9_end = ALIGN (0x8)

.Level4InterruptVector.text
                0x10000a00        0x8
                0x10000a00                _Level4InterruptVector_text_start = ABSOLUTE (.)
 *(.Level4InterruptVector.text)
 .Level4InterruptVector.text
                0x10000a00        0x6 /nfs/site/disks/xne_abc_fe_002/fw_tools/RJ-2023.2-linux/HWC_RCS_LX7_0p5_RJ2/xtensa-elf/arch/lib//libhandlers-board.a(int-vector-level4.o)
                0x10000a00                _Level4Vector
                0x10000a08                . = ALIGN (0x4)
 *fill*         0x10000a06        0x2 
                0x10000a08                _Level4InterruptVector_text_end = ABSOLUTE (.)
                0x10000a08                _memmap_seg_iram0_10_end = ALIGN (0x8)

.DebugExceptionVector.literal
                0x10000a38        0x8
                0x10000a38                _DebugExceptionVector_literal_start = ABSOLUTE (.)
 *(.DebugExceptionVector.literal)
 .DebugExceptionVector.literal
                0x10000a38        0x8 /nfs/site/disks/zsc14.xne_abc_fe_001/users/chandrbi/emulval_0p8_17Jun/abc_emul-srvrgen4/src/rcs_fw/out/rx/hw/custom_vectors.o
                0x10000a40                . = ALIGN (0x4)
                0x10000a40                _DebugExceptionVector_literal_end = ABSOLUTE (.)
                0x10000a40                _memmap_seg_iram0_11_end = ALIGN (0x8)

.DebugExceptionVector.text
                0x10000a40       0x34
                0x10000a40                _DebugExceptionVector_text_start = ABSOLUTE (.)
 *(.DebugExceptionVector.text)
 .DebugExceptionVector.text
                0x10000a40       0x25 /nfs/site/disks/zsc14.xne_abc_fe_001/users/chandrbi/emulval_0p8_17Jun/abc_emul-srvrgen4/src/rcs_fw/out/rx/hw/custom_vectors.o
 *fill*         0x10000a65        0x3 
 .DebugExceptionVector.text
                0x10000a68        0xb /nfs/site/disks/xne_abc_fe_002/fw_tools/RJ-2023.2-linux/HWC_RCS_LX7_0p5_RJ2/xtensa-elf/arch/lib//libhandlers-board.a(debug-vector.o)
                0x10000a68                _DebugExceptionVector
                0x10000a74                . = ALIGN (0x4)
 *fill*         0x10000a73        0x1 
                0x10000a74                _DebugExceptionVector_text_end = ABSOLUTE (.)
                0x10000a78                _memmap_seg_iram0_12_end = ALIGN (0x8)

.NMIExceptionVector.literal
                0x10000a78        0x0
                0x10000a78                _NMIExceptionVector_literal_start = ABSOLUTE (.)
 *(.NMIExceptionVector.literal)
                0x10000a78                . = ALIGN (0x4)
                0x10000a78                _NMIExceptionVector_literal_end = ABSOLUTE (.)
                0x10000a78                _memmap_seg_iram0_13_end = ALIGN (0x8)

.NMIExceptionVector.text
                0x10000a80        0x4
                0x10000a80                _NMIExceptionVector_text_start = ABSOLUTE (.)
 *(.NMIExceptionVector.text)
 .NMIExceptionVector.text
                0x10000a80        0x3 /nfs/site/disks/xne_abc_fe_002/fw_tools/RJ-2023.2-linux/HWC_RCS_LX7_0p5_RJ2/xtensa-elf/arch/lib//libhandlers-board.a(nmi-vector.o)
                0x10000a80                _NMIExceptionVector
                0x10000a84                . = ALIGN (0x4)
 *fill*         0x10000a83        0x1 
                0x10000a84                _NMIExceptionVector_text_end = ABSOLUTE (.)
                0x10000a88                _memmap_seg_iram0_14_end = ALIGN (0x8)

.KernelExceptionVector.literal
                0x10000ab8        0x8
                0x10000ab8                _KernelExceptionVector_literal_start = ABSOLUTE (.)
 *(.KernelExceptionVector.literal)
 .KernelExceptionVector.literal
                0x10000ab8        0x8 /nfs/site/disks/zsc14.xne_abc_fe_001/users/chandrbi/emulval_0p8_17Jun/abc_emul-srvrgen4/src/rcs_fw/out/rx/hw/custom_vectors.o
                0x10000ac0                . = ALIGN (0x4)
                0x10000ac0                _KernelExceptionVector_literal_end = ABSOLUTE (.)
                0x10000ac0                _memmap_seg_iram0_15_end = ALIGN (0x8)

.KernelExceptionVector.text
                0x10000ac0       0x28
                0x10000ac0                _KernelExceptionVector_text_start = ABSOLUTE (.)
 *(.KernelExceptionVector.text)
 .KernelExceptionVector.text
                0x10000ac0       0x25 /nfs/site/disks/zsc14.xne_abc_fe_001/users/chandrbi/emulval_0p8_17Jun/abc_emul-srvrgen4/src/rcs_fw/out/rx/hw/custom_vectors.o
                0x10000ac0                _KernelExceptionVector
                0x10000ae8                . = ALIGN (0x4)
 *fill*         0x10000ae5        0x3 
                0x10000ae8                _KernelExceptionVector_text_end = ABSOLUTE (.)
                0x10000ae8                _memmap_seg_iram0_16_end = ALIGN (0x8)

.UserExceptionVector.literal
                0x10000af8        0x4
                0x10000af8                _UserExceptionVector_literal_start = ABSOLUTE (.)
 *(.UserExceptionVector.literal)
 .UserExceptionVector.literal
                0x10000af8        0x4 /nfs/site/disks/zsc14.xne_abc_fe_001/users/chandrbi/emulval_0p8_17Jun/abc_emul-srvrgen4/src/rcs_fw/out/rx/hw/custom_vectors.o
                0x10000afc                . = ALIGN (0x4)
                0x10000afc                _UserExceptionVector_literal_end = ABSOLUTE (.)
                0x10000b00                _memmap_seg_iram0_17_end = ALIGN (0x8)

.UserExceptionVector.text
                0x10000b00       0x1c
                0x10000b00                _UserExceptionVector_text_start = ABSOLUTE (.)
 *(.UserExceptionVector.text)
 .UserExceptionVector.text
                0x10000b00       0x1b /nfs/site/disks/zsc14.xne_abc_fe_001/users/chandrbi/emulval_0p8_17Jun/abc_emul-srvrgen4/src/rcs_fw/out/rx/hw/custom_vectors.o
                0x10000b00                _UserExceptionVector
                0x10000b1c                . = ALIGN (0x4)
 *fill*         0x10000b1b        0x1 
                0x10000b1c                _UserExceptionVector_text_end = ABSOLUTE (.)
                0x10000b20                _memmap_seg_iram0_18_end = ALIGN (0x8)

.DoubleExceptionVector.literal
                0x10000b38        0x8
                0x10000b38                _DoubleExceptionVector_literal_start = ABSOLUTE (.)
 *(.DoubleExceptionVector.literal)
 .DoubleExceptionVector.literal
                0x10000b38        0x8 /nfs/site/disks/zsc14.xne_abc_fe_001/users/chandrbi/emulval_0p8_17Jun/abc_emul-srvrgen4/src/rcs_fw/out/rx/hw/custom_vectors.o
                0x10000b40                . = ALIGN (0x4)
                0x10000b40                _DoubleExceptionVector_literal_end = ABSOLUTE (.)
                0x10000b40                _memmap_seg_iram0_19_end = ALIGN (0x8)

.DoubleExceptionVector.text
                0x10000b80       0x28
                0x10000b80                _DoubleExceptionVector_text_start = ABSOLUTE (.)
 *(.DoubleExceptionVector.text)
 .DoubleExceptionVector.text
                0x10000b80       0x25 /nfs/site/disks/zsc14.xne_abc_fe_001/users/chandrbi/emulval_0p8_17Jun/abc_emul-srvrgen4/src/rcs_fw/out/rx/hw/custom_vectors.o
                0x10000b80                _DoubleExceptionVector
                0x10000ba8                . = ALIGN (0x4)
 *fill*         0x10000ba5        0x3 
                0x10000ba8                _DoubleExceptionVector_text_end = ABSOLUTE (.)
                0x10000ba8                _memmap_seg_iram0_20_end = ALIGN (0x8)

.iram0.text     0x10000bc0       0x64
                0x10000bc0                _iram0_text_start = ABSOLUTE (.)
 *(.iram0.literal .iram.literal .iram.text.literal .iram0.text .iram.text)
 .iram0.literal
                0x10000bc0       0x14 /nfs/site/disks/zsc14.xne_abc_fe_001/users/chandrbi/emulval_0p8_17Jun/abc_emul-srvrgen4/src/rcs_fw/out/rx/hw/custom_vectors.o
 .iram0.text    0x10000bd4       0x4d /nfs/site/disks/zsc14.xne_abc_fe_001/users/chandrbi/emulval_0p8_17Jun/abc_emul-srvrgen4/src/rcs_fw/out/rx/hw/custom_vectors.o
                0x10000bf4                _user_exception_11_handler
                0x10000c24                . = ALIGN (0x4)
 *fill*         0x10000c21        0x3 
                0x10000c24                _iram0_text_end = ABSOLUTE (.)

.text           0x10000c30     0x4d84
                0x10000c30                _stext = .
                0x10000c30                _text_start = ABSOLUTE (.)
 *(.entry.text)
 *(.init.literal)
 *(.init)
 *(.literal.sort.* SORT_BY_NAME(.text.sort.*))
 *(.literal.keepsort.* SORT_BY_NAME(.text.keepsort.*) .literal.keep.* .text.keep.* .literal.*personality* .text.*personality*)
 *(.literal .text .literal.* .text.* .stub .gnu.warning .gnu.linkonce.literal.* .gnu.linkonce.t.*.literal .gnu.linkonce.t.*)
 .literal       0x10000c30       0x10 /nfs/site/disks/xne_abc_fe_002/fw_tools/RJ-2023.2-linux/HWC_RCS_LX7_0p5_RJ2/xtensa-elf/arch/lib/crt1-tiny.o
                                         0x14 (size before relaxing)
 .literal       0x10000c40       0x10 /nfs/site/disks/zsc14.xne_abc_fe_001/users/chandrbi/emulval_0p8_17Jun/abc_emul-srvrgen4/src/rcs_fw/out/rx/hw/com_print.o
                                         0x14 (size before relaxing)
 .literal       0x10000c50        0xc /nfs/site/disks/zsc14.xne_abc_fe_001/users/chandrbi/emulval_0p8_17Jun/abc_emul-srvrgen4/src/rcs_fw/out/rx/hw/com_heap.o
                                         0x24 (size before relaxing)
 .literal       0x10000c5c       0x30 /nfs/site/disks/zsc14.xne_abc_fe_001/users/chandrbi/emulval_0p8_17Jun/abc_emul-srvrgen4/src/rcs_fw/out/rx/hw/com_trax.o
                                         0x4c (size before relaxing)
 .literal       0x10000c8c       0x48 /nfs/site/disks/zsc14.xne_abc_fe_001/users/chandrbi/emulval_0p8_17Jun/abc_emul-srvrgen4/src/rcs_fw/out/rx/hw/com_isr.o
                                         0x84 (size before relaxing)
 .literal       0x10000cd4        0x4 /nfs/site/disks/zsc14.xne_abc_fe_001/users/chandrbi/emulval_0p8_17Jun/abc_emul-srvrgen4/src/rcs_fw/out/rx/hw/com_platform.o
 .literal       0x10000cd8        0x8 /nfs/site/disks/zsc14.xne_abc_fe_001/users/chandrbi/emulval_0p8_17Jun/abc_emul-srvrgen4/src/rcs_fw/out/rx/hw/com_bfn.o
                                         0x18 (size before relaxing)
 .literal       0x10000ce0        0x8 /nfs/site/disks/zsc14.xne_abc_fe_001/users/chandrbi/emulval_0p8_17Jun/abc_emul-srvrgen4/src/rcs_fw/out/rx/hw/com_trace_buffer.o
                                         0x48 (size before relaxing)
 .literal       0x10000ce8        0x8 /nfs/site/disks/zsc14.xne_abc_fe_001/users/chandrbi/emulval_0p8_17Jun/abc_emul-srvrgen4/src/rcs_fw/out/rx/hw/com_error.o
                                         0x28 (size before relaxing)
 .literal       0x10000cf0        0x4 /nfs/site/disks/zsc14.xne_abc_fe_001/users/chandrbi/emulval_0p8_17Jun/abc_emul-srvrgen4/src/rcs_fw/out/rx/hw/com_timing.o
                                          0x8 (size before relaxing)
 .literal       0x10000cf4        0x8 /nfs/site/disks/zsc14.xne_abc_fe_001/users/chandrbi/emulval_0p8_17Jun/abc_emul-srvrgen4/src/rcs_fw/out/rx/hw/com_fsm.o
 .literal       0x10000cfc        0x8 /nfs/site/disks/zsc14.xne_abc_fe_001/users/chandrbi/emulval_0p8_17Jun/abc_emul-srvrgen4/src/rcs_fw/out/rx/hw/com_boot.o
                                          0xc (size before relaxing)
 .literal       0x10000d04        0x4 /nfs/site/disks/zsc14.xne_abc_fe_001/users/chandrbi/emulval_0p8_17Jun/abc_emul-srvrgen4/src/rcs_fw/out/rx/hw/com_lock.o
                                          0x8 (size before relaxing)
 .literal       0x10000d08       0x38 /nfs/site/disks/zsc14.xne_abc_fe_001/users/chandrbi/emulval_0p8_17Jun/abc_emul-srvrgen4/src/rcs_fw/out/rx/hw/com_idma.o
                                         0xd4 (size before relaxing)
 .literal       0x10000d40        0xc /nfs/site/disks/zsc14.xne_abc_fe_001/users/chandrbi/emulval_0p8_17Jun/abc_emul-srvrgen4/src/rcs_fw/out/rx/hw/com_swg.o
                                         0x24 (size before relaxing)
 .literal       0x10000d4c       0x2c /nfs/site/disks/zsc14.xne_abc_fe_001/users/chandrbi/emulval_0p8_17Jun/abc_emul-srvrgen4/src/rcs_fw/out/rx/hw/com_gpdma.o
                                         0xa4 (size before relaxing)
 .literal       0x10000d78       0x24 /nfs/site/disks/zsc14.xne_abc_fe_001/users/chandrbi/emulval_0p8_17Jun/abc_emul-srvrgen4/src/rcs_fw/out/rx/hw/com_event.o
                                         0x9c (size before relaxing)
 .literal       0x10000d9c       0x10 /nfs/site/disks/zsc14.xne_abc_fe_001/users/chandrbi/emulval_0p8_17Jun/abc_emul-srvrgen4/src/rcs_fw/out/rx/hw/com_msg_handler_utils.o
                                         0x20 (size before relaxing)
 .literal       0x10000dac        0x8 /nfs/site/disks/zsc14.xne_abc_fe_001/users/chandrbi/emulval_0p8_17Jun/abc_emul-srvrgen4/src/rcs_fw/out/rx/hw/com_shared_memory.o
                                         0x20 (size before relaxing)
 .literal       0x10000db4       0x18 /nfs/site/disks/zsc14.xne_abc_fe_001/users/chandrbi/emulval_0p8_17Jun/abc_emul-srvrgen4/src/rcs_fw/out/rx/hw/rx_msg_handler.o
                                         0x3c (size before relaxing)
 .literal       0x10000dcc        0x8 /nfs/site/disks/zsc14.xne_abc_fe_001/users/chandrbi/emulval_0p8_17Jun/abc_emul-srvrgen4/src/rcs_fw/out/rx/hw/rx_adc_cfg.o
                                         0x14 (size before relaxing)
 .literal       0x10000dd4        0x4 /nfs/site/disks/zsc14.xne_abc_fe_001/users/chandrbi/emulval_0p8_17Jun/abc_emul-srvrgen4/src/rcs_fw/out/rx/hw/rx_main.o
                                          0x8 (size before relaxing)
 .literal       0x10000dd8        0x0 /nfs/site/disks/zsc14.xne_abc_fe_001/users/chandrbi/emulval_0p8_17Jun/abc_emul-srvrgen4/src/rcs_fw/out/rx/hw/rx_lineup.o
                                          0x8 (size before relaxing)
 .literal       0x10000dd8        0x0 /nfs/site/disks/zsc14.xne_abc_fe_001/users/chandrbi/emulval_0p8_17Jun/abc_emul-srvrgen4/src/rcs_fw/out/rx/hw/rx_gain.o
                                         0x10 (size before relaxing)
 .literal       0x10000dd8        0x0 /nfs/site/disks/zsc14.xne_abc_fe_001/users/chandrbi/emulval_0p8_17Jun/abc_emul-srvrgen4/src/rcs_fw/out/rx/hw/rx_daco.o
                                          0x4 (size before relaxing)
 .literal       0x10000dd8        0x4 /nfs/site/disks/zsc14.xne_abc_fe_001/users/chandrbi/emulval_0p8_17Jun/abc_emul-srvrgen4/src/rcs_fw/out/rx/hw/rx_v2d.o
                                         0x14 (size before relaxing)
 .literal       0x10000ddc        0x4 /nfs/site/disks/zsc14.xne_abc_fe_001/users/chandrbi/emulval_0p8_17Jun/abc_emul-srvrgen4/src/rcs_fw/out/rx/hw/custom_vectors.o
                                          0x8 (size before relaxing)
 .literal       0x10000de0        0xc /nfs/site/disks/xne_abc_fe_002/fw_tools/RJ-2023.2-linux/HWC_RCS_LX7_0p5_RJ2/xtensa-elf/lib/xcc//libgcc.a(_muldf3.o)
 .literal       0x10000dec        0x0 /nfs/site/disks/xne_abc_fe_002/fw_tools/RJ-2023.2-linux/HWC_RCS_LX7_0p5_RJ2/xtensa-elf/lib/xcc//libgcc.a(_fixunsdfdi.o)
                                          0x4 (size before relaxing)
 .literal       0x10000dec        0x0 /nfs/site/disks/xne_abc_fe_002/fw_tools/RJ-2023.2-linux/HWC_RCS_LX7_0p5_RJ2/xtensa-elf/lib/xcc//libgcc.a(_muldi3.o)
                                          0x4 (size before relaxing)
 .literal       0x10000dec        0x0 /nfs/site/disks/xne_abc_fe_002/fw_tools/RJ-2023.2-linux/HWC_RCS_LX7_0p5_RJ2/xtensa-elf/lib/xcc//libgcc.a(_udivdi3.o)
                                          0x4 (size before relaxing)
 .literal       0x10000dec        0x8 /nfs/site/disks/xne_abc_fe_002/fw_tools/RJ-2023.2-linux/HWC_RCS_LX7_0p5_RJ2/xtensa-elf/lib/xcc//libgcc.a(softfloat_div_df.o)
                                         0x1c (size before relaxing)
 .literal       0x10000df4        0x0 /nfs/site/disks/xne_abc_fe_002/fw_tools/RJ-2023.2-linux/HWC_RCS_LX7_0p5_RJ2/xtensa-elf/lib/xcc//libgcc.a(softfloat_cmn_df.o)
                                         0x18 (size before relaxing)
 .literal       0x10000df4        0x8 /nfs/site/disks/xne_abc_fe_002/fw_tools/RJ-2023.2-linux/HWC_RCS_LX7_0p5_RJ2/xtensa-elf/arch/lib//libhandlers-board.a(xtos-interrupt-enable.o)
 .literal       0x10000dfc        0x0 /nfs/site/disks/xne_abc_fe_002/fw_tools/RJ-2023.2-linux/HWC_RCS_LX7_0p5_RJ2/xtensa-elf/arch/lib//libhandlers-board.a(xtos-interrupt-disable.o)
                                          0x8 (size before relaxing)
 .literal       0x10000dfc        0x8 /nfs/site/disks/xne_abc_fe_002/fw_tools/RJ-2023.2-linux/HWC_RCS_LX7_0p5_RJ2/xtensa-elf/arch/lib//libhandlers-board.a(xtos-set-inthandler.o)
                                          0xc (size before relaxing)
 .literal       0x10000e04        0x8 /nfs/site/disks/xne_abc_fe_002/fw_tools/RJ-2023.2-linux/HWC_RCS_LX7_0p5_RJ2/xtensa-elf/arch/lib//libhandlers-board.a(exc-syscall-handler.o)
                                          0xc (size before relaxing)
 .literal       0x10000e0c        0xc /nfs/site/disks/xne_abc_fe_002/fw_tools/RJ-2023.2-linux/HWC_RCS_LX7_0p5_RJ2/xtensa-elf/arch/lib//libhandlers-board.a(int-handler-level2.o)
                                         0x1c (size before relaxing)
 .literal       0x10000e18        0x8 /nfs/site/disks/xne_abc_fe_002/fw_tools/RJ-2023.2-linux/HWC_RCS_LX7_0p5_RJ2/xtensa-elf/arch/lib//libhandlers-board.a(int-handler-level3.o)
                                         0x14 (size before relaxing)
 .literal       0x10000e20       0x10 /nfs/site/disks/xne_abc_fe_002/fw_tools/RJ-2023.2-linux/HWC_RCS_LX7_0p5_RJ2/xtensa-elf/arch/lib//libhandlers-board.a(int-handler-level4.o)
                                         0x1c (size before relaxing)
 .literal       0x10000e30        0x8 /nfs/site/disks/xne_abc_fe_002/fw_tools/RJ-2023.2-linux/HWC_RCS_LX7_0p5_RJ2/xtensa-elf/arch/lib//libhandlers-board.a(int-lowpri-dispatcher.o)
                                         0x2c (size before relaxing)
 .text          0x10000e38       0x2f /nfs/site/disks/xne_abc_fe_002/fw_tools/RJ-2023.2-linux/HWC_RCS_LX7_0p5_RJ2/xtensa-elf/arch/lib/crt1-tiny.o
                                         0x32 (size before relaxing)
                0x10000e38                _start
 *fill*         0x10000e67        0x1 
 .text          0x10000e68       0x47 /nfs/site/disks/zsc14.xne_abc_fe_001/users/chandrbi/emulval_0p8_17Jun/abc_emul-srvrgen4/src/rcs_fw/out/rx/hw/com_print.o
                0x10000e68                com_set_print_level
                0x10000e74                com_get_print_level
                0x10000e80                com_test_FW
 *fill*         0x10000eaf        0x1 
 .text          0x10000eb0      0x1aa /nfs/site/disks/zsc14.xne_abc_fe_001/users/chandrbi/emulval_0p8_17Jun/abc_emul-srvrgen4/src/rcs_fw/out/rx/hw/com_heap.o
                0x10000eb0                com_heap_create
                0x10000f04                com_calloc
                0x10000f74                com_free
 *fill*         0x1000105a        0x6 
 .text          0x10001060      0x155 /nfs/site/disks/zsc14.xne_abc_fe_001/users/chandrbi/emulval_0p8_17Jun/abc_emul-srvrgen4/src/rcs_fw/out/rx/hw/com_trax.o
                0x10001060                com_trax_init
                0x100010e0                com_trax_stop
                0x10001108                com_trax_start
                0x10001134                com_trax_store_trace
 *fill*         0x100011b5        0x3 
 .text          0x100011b8      0x397 /nfs/site/disks/zsc14.xne_abc_fe_001/users/chandrbi/emulval_0p8_17Jun/abc_emul-srvrgen4/src/rcs_fw/out/rx/hw/com_isr.o
                0x100011b8                com_edge_irq_handler
                0x10001270                com_isr_event
                0x10001344                com_isr_interrupt_enable
                0x100013d4                com_isr_interrupt_disable
                0x100014ac                com_isr_ext_int
                0x100014c0                com_mb_isr_trigger
                0x100014e0                com_mb_isr_clear
                0x100014f4                com_unhandled_interrupt
                0x10001508                com_isr_init
 *fill*         0x1000154f        0x1 
 .text          0x10001550        0xd /nfs/site/disks/zsc14.xne_abc_fe_001/users/chandrbi/emulval_0p8_17Jun/abc_emul-srvrgen4/src/rcs_fw/out/rx/hw/com_platform.o
                0x10001550                com_get_chip_mode
 *fill*         0x1000155d        0x3 
 .text          0x10001560       0xf9 /nfs/site/disks/zsc14.xne_abc_fe_001/users/chandrbi/emulval_0p8_17Jun/abc_emul-srvrgen4/src/rcs_fw/out/rx/hw/com_bfn.o
                0x10001560                com_bfn_set_clk_sel
                0x1000157c                com_bfn_get_live_time
                0x10001588                com_bfn_get_live_time_full
                0x10001594                com_bfn_add_time
                0x100015d4                com_bfn_add_time_full
                0x10001620                com_bfn_sub_time
 *fill*         0x10001659        0x3 
 .text          0x1000165c      0x32e /nfs/site/disks/zsc14.xne_abc_fe_001/users/chandrbi/emulval_0p8_17Jun/abc_emul-srvrgen4/src/rcs_fw/out/rx/hw/com_trace_buffer.o
                0x1000165c                get_com_trace_bfn_cpu_offset
                0x10001684                com_func_ts_trace_buffer
                0x10001718                com_msg_trace_buffer
                0x100017ac                com_err_code_trace_buffer
                0x10001848                com_debug_trace_buffer
 *fill*         0x1000198a        0x2 
 .text          0x1000198c      0x1f6 /nfs/site/disks/zsc14.xne_abc_fe_001/users/chandrbi/emulval_0p8_17Jun/abc_emul-srvrgen4/src/rcs_fw/out/rx/hw/com_error.o
                0x1000198c                com_send_rb_e_INVALID_OPCODE_ERR
                0x100019b8                com_send_rb_e_MSG_TIMING_ERR
                0x10001a00                com_send_rb_e_EXCEPTION_ERR
                0x10001a64                com_send_rb_e_EVENT_HANDLER_ERR
                0x10001a94                com_send_rb_e_IRQ_ERR
                0x10001ac0                com_send_rb_e_FSM_TRANSITION_ERR
                0x10001af0                com_send_rb_e_QUAD_FSM_TRANSITION_ERR
                0x10001b24                com_send_rb_e_BOOT_ERR
                0x10001b54                com_send_rb_e_CONFIG_MSG_ERR
 *fill*         0x10001b82        0xe 
 .text          0x10001b90      0x194 /nfs/site/disks/zsc14.xne_abc_fe_001/users/chandrbi/emulval_0p8_17Jun/abc_emul-srvrgen4/src/rcs_fw/out/rx/hw/com_timing.o
                0x10001b90                com_timing_get_current_bfn_time
                0x10001b9c                com_timing_is_bfn1_earlier_bfn2
                0x10001bbc                com_timing_is_bfn1_earlier_or_equal_bfn2
                0x10001be0                com_timing_convert_ticks_to_bfn_epoch
                0x10001c38                com_timing_convert_bfn_to_ticks_epoch
                0x10001c90                com_timing_increment_epoch
                0x10001ce0                com_timing_get_current_epoch
                0x10001cec                com_timing_set_current_epoch
                0x10001cf8                com_timing_wait_ns
 .text          0x10001d24      0x36f /nfs/site/disks/zsc14.xne_abc_fe_001/users/chandrbi/emulval_0p8_17Jun/abc_emul-srvrgen4/src/rcs_fw/out/rx/hw/com_fsm.o
                0x10001d24                com_fsm_init
                0x10001d50                com_fsm_quad_init
                0x10001d74                com_fsm_quad_get_status
                0x10001d84                com_fsm_quad_update_status
                0x10001da0                com_fsm_get_status
                0x10001dac                com_fsm_update_status
                0x10001dc0                com_fsm_transition_check_quadmask_transition
                0x10001e98                com_fsm_transition_quadmask
                0x10001ecc                com_fsm_quad_transition
                0x10001f6c                com_fsm_transition_run
                0x10001fa8                com_fsm_transition
                0x10002014                com_fsm_transition_off_stop
                0x10002074                com_fsm_off_mode_check
 *fill*         0x10002093        0xd 
 .text          0x100020a0      0x152 /nfs/site/disks/zsc14.xne_abc_fe_001/users/chandrbi/emulval_0p8_17Jun/abc_emul-srvrgen4/src/rcs_fw/out/rx/hw/com_boot.o
                0x100020a0                core_fw_mismatch_check
                0x100020dc                com_get_fw_version
                0x100020f4                core_sync_up
                0x1000218c                dbg_n_trace
                0x100021b0                com_boot_init
 *fill*         0x100021f2        0x2 
 .text          0x100021f4       0x1c /nfs/site/disks/zsc14.xne_abc_fe_001/users/chandrbi/emulval_0p8_17Jun/abc_emul-srvrgen4/src/rcs_fw/out/rx/hw/com_lock.o
                0x100021f4                com_lock_init
                0x100021fc                com_lock_boundary_check_init
 .text          0x10002210      0x324 /nfs/site/disks/zsc14.xne_abc_fe_001/users/chandrbi/emulval_0p8_17Jun/abc_emul-srvrgen4/src/rcs_fw/out/rx/hw/com_idma.o
                0x10002210                com_idma_init
                0x100022b4                com_idma_fill_ctrl
                0x100022e0                com_idma_get_status
                0x100022f0                com_idma_get_last_errcode
                0x10002300                com_idma_wait_done
                0x10002324                com_idma_trans_1d
                0x10002380                com_idma_trans_desc
                0x100023c8                com_idma_trans_2d
                0x10002428                com_idma_broadcast
                0x10002484                com_idma_memcpy
 *fill*         0x10002534        0xc 
 .text          0x10002540      0x645 /nfs/site/disks/zsc14.xne_abc_fe_001/users/chandrbi/emulval_0p8_17Jun/abc_emul-srvrgen4/src/rcs_fw/out/rx/hw/com_swg.o
                0x10002540                sys_clk_khz_get
                0x10002564                com_vha_nco_cfg
                0x100027fc                com_vha_mix_cfg
                0x10002814                com_sys_swg_cfg
                0x10002b80                fb_ant_swg_cfg
 *fill*         0x10002b85        0xb 
 .text          0x10002b90      0x5ac /nfs/site/disks/zsc14.xne_abc_fe_001/users/chandrbi/emulval_0p8_17Jun/abc_emul-srvrgen4/src/rcs_fw/out/rx/hw/com_gpdma.o
                0x10002b90                com_gpdma_rcs_fill_desc
                0x10002c84                com_gpdma_init
                0x10002d60                com_gpdma_rcs_wait
                0x10002da0                com_gpdma_rcs_get_last_errcode
                0x10002db8                com_gpdma_rcs
                0x10002f88                com_gpdma_rcs_desc
 *fill*         0x1000313c        0x4 
 .text          0x10003140      0x5ed /nfs/site/disks/zsc14.xne_abc_fe_001/users/chandrbi/emulval_0p8_17Jun/abc_emul-srvrgen4/src/rcs_fw/out/rx/hw/com_event.o
                0x10003140                com_event_print_event_scheduler
                0x10003148                com_event_pop_next_pending_event
                0x10003170                com_event_schedule_keepalive_event
                0x10003208                com_event_new_event
                0x1000324c                com_event_get_event_p
                0x100032d4                com_event_schedule_event
                0x100033d4                com_event_exit_event_loop
                0x100033e4                com_event_init_events
                0x10003520                com_event_free_event
                0x10003550                com_event_execute_immediate_event
                0x100035c8                com_event_event_loop
 *fill*         0x1000372d        0x3 
 .text          0x10003730      0x257 /nfs/site/disks/zsc14.xne_abc_fe_001/users/chandrbi/emulval_0p8_17Jun/abc_emul-srvrgen4/src/rcs_fw/out/rx/hw/com_msg_handler_utils.o
                0x10003730                com_msg_get_opcode
                0x10003738                com_msg_init_handler
                0x10003754                com_msg_timestamp_init
                0x10003764                com_msg_ref_timestamp_set
                0x10003774                com_msg_check_lead_time
                0x100037f0                com_msg_schedule_macro
                0x100038e4                com_msg_send_readback
                0x10003964                com_msg_init_mb_irq
 *fill*         0x10003987        0x9 
 .text          0x10003990       0xa0 /nfs/site/disks/zsc14.xne_abc_fe_001/users/chandrbi/emulval_0p8_17Jun/abc_emul-srvrgen4/src/rcs_fw/out/rx/hw/com_shared_memory.o
                0x10003990                com_shared_mem_set_sys_status
                0x100039a0                com_shared_mem_get_sys_status
                0x100039b0                com_shared_mem_set_cpu_loop_count
                0x100039c0                com_shared_mem_wait_for_ready
                0x100039f4                com_shared_mem_get_queue_block
                0x10003a0c                com_shared_mem_get_fsm_quad_status_block
                0x10003a20                com_shared_mem_get_fsm_status_block
 .text          0x10003a30      0x5aa /nfs/site/disks/zsc14.xne_abc_fe_001/users/chandrbi/emulval_0p8_17Jun/abc_emul-srvrgen4/src/rcs_fw/out/rx/hw/rx_msg_handler.o
                0x10003a30                ul_spi_on_handler
                0x10003ab4                ul_spi_off_handler
                0x10003b0c                ul_on_handler
                0x10003bc4                ul_update_control_handler
                0x10003c68                ul_off_handler
                0x10003ccc                ul_config_ant_grp_handler
                0x10003d68                ul_warmup_handler
                0x10003fc8                ul_set_time_ref_handler
 *fill*         0x10003fda        0x2 
 .text          0x10003fdc       0xa2 /nfs/site/disks/zsc14.xne_abc_fe_001/users/chandrbi/emulval_0p8_17Jun/abc_emul-srvrgen4/src/rcs_fw/out/rx/hw/rx_adc_cfg.o
                0x10003fdc                rx_adc_cal_isr_initialize
                0x10004060                boot_ana
 *fill*         0x1000407e        0x2 
 .text          0x10004080       0x90 /nfs/site/disks/zsc14.xne_abc_fe_001/users/chandrbi/emulval_0p8_17Jun/abc_emul-srvrgen4/src/rcs_fw/out/rx/hw/rx_main.o
                0x10004080                main
 .text          0x10004110      0x116 /nfs/site/disks/zsc14.xne_abc_fe_001/users/chandrbi/emulval_0p8_17Jun/abc_emul-srvrgen4/src/rcs_fw/out/rx/hw/rx_lineup.o
                0x10004110                rx_lineup_cfg
 *fill*         0x10004226        0x2 
 .text          0x10004228       0x3f /nfs/site/disks/zsc14.xne_abc_fe_001/users/chandrbi/emulval_0p8_17Jun/abc_emul-srvrgen4/src/rcs_fw/out/rx/hw/rx_gain.o
                0x10004228                rx_gain_fbsys_cfg
                0x10004248                rx_gain_trxsys_cfg
 *fill*         0x10004267        0x1 
 .text          0x10004268       0x17 /nfs/site/disks/zsc14.xne_abc_fe_001/users/chandrbi/emulval_0p8_17Jun/abc_emul-srvrgen4/src/rcs_fw/out/rx/hw/rx_daco.o
                0x10004268                rx_daco_clear
 *fill*         0x1000427f        0x1 
 .text          0x10004280      0x1a5 /nfs/site/disks/zsc14.xne_abc_fe_001/users/chandrbi/emulval_0p8_17Jun/abc_emul-srvrgen4/src/rcs_fw/out/rx/hw/rx_v2d.o
                0x10004280                rx_v2d_cfg_seq
                0x10004368                rx_v2d_en
 *fill*         0x10004425        0x3 
 .text          0x10004428       0x1f /nfs/site/disks/zsc14.xne_abc_fe_001/users/chandrbi/emulval_0p8_17Jun/abc_emul-srvrgen4/src/rcs_fw/out/rx/hw/custom_vectors.o
                0x10004428                xtos_unhandled_interrupt
                0x10004430                __reset_hook
 *fill*         0x10004447        0x1 
 .text          0x10004448      0x28f /nfs/site/disks/xne_abc_fe_002/fw_tools/RJ-2023.2-linux/HWC_RCS_LX7_0p5_RJ2/xtensa-elf/lib/xcc//libgcc.a(_muldf3.o)
                0x1000452c                __muldf3
 *fill*         0x100046d7        0x1 
 .text          0x100046d8       0x75 /nfs/site/disks/xne_abc_fe_002/fw_tools/RJ-2023.2-linux/HWC_RCS_LX7_0p5_RJ2/xtensa-elf/lib/xcc//libgcc.a(_fixunsdfdi.o)
                0x100046d8                __fixunsdfdi
 *fill*         0x1000474d        0x3 
 .text          0x10004750       0x1b /nfs/site/disks/xne_abc_fe_002/fw_tools/RJ-2023.2-linux/HWC_RCS_LX7_0p5_RJ2/xtensa-elf/lib/xcc//libgcc.a(_muldi3.o)
                0x10004750                __muldi3
 *fill*         0x1000476b        0x1 
 .text          0x1000476c      0x272 /nfs/site/disks/xne_abc_fe_002/fw_tools/RJ-2023.2-linux/HWC_RCS_LX7_0p5_RJ2/xtensa-elf/lib/xcc//libgcc.a(_udivdi3.o)
                0x1000476c                __udivdi3
 *fill*         0x100049de        0x2 
 .text          0x100049e0      0x35c /nfs/site/disks/xne_abc_fe_002/fw_tools/RJ-2023.2-linux/HWC_RCS_LX7_0p5_RJ2/xtensa-elf/lib/xcc//libgcc.a(softfloat_div_df.o)
                0x100049e0                __divdf3
 .text          0x10004d3c      0x23b /nfs/site/disks/xne_abc_fe_002/fw_tools/RJ-2023.2-linux/HWC_RCS_LX7_0p5_RJ2/xtensa-elf/lib/xcc//libgcc.a(softfloat_cmn_df.o)
                0x10004d3c                __propagateFloat64NaN
                0x10004e38                __roundAndPackFloat64
 *fill*         0x10004f77        0x1 
 .text          0x10004f78       0x34 /nfs/site/disks/xne_abc_fe_002/fw_tools/RJ-2023.2-linux/HWC_RCS_LX7_0p5_RJ2/xtensa-elf/arch/lib//libhandlers-board.a(xtos-interrupt-enable.o)
                0x10004f78                xtos_interrupt_enable
 .text          0x10004fac       0x34 /nfs/site/disks/xne_abc_fe_002/fw_tools/RJ-2023.2-linux/HWC_RCS_LX7_0p5_RJ2/xtensa-elf/arch/lib//libhandlers-board.a(xtos-interrupt-disable.o)
                0x10004fac                xtos_interrupt_disable
 .text          0x10004fe0       0x42 /nfs/site/disks/xne_abc_fe_002/fw_tools/RJ-2023.2-linux/HWC_RCS_LX7_0p5_RJ2/xtensa-elf/arch/lib//libhandlers-board.a(xtos-set-inthandler.o)
                0x10004fe0                xtos_set_interrupt_handler
 *fill*         0x10005022        0x2 
 .text          0x10005024       0x81 /nfs/site/disks/xne_abc_fe_002/fw_tools/RJ-2023.2-linux/HWC_RCS_LX7_0p5_RJ2/xtensa-elf/arch/lib//libhandlers-board.a(exc-syscall-handler.o)
                0x10005024                _xtos_syscall_handler
                0x10005063                _SyscallException
 *fill*         0x100050a5        0x3 
 .text          0x100050a8       0xbd /nfs/site/disks/xne_abc_fe_002/fw_tools/RJ-2023.2-linux/HWC_RCS_LX7_0p5_RJ2/xtensa-elf/arch/lib//libhandlers-board.a(int-handler-level2.o)
                0x100050a8                _Level2FromVector
 *fill*         0x10005165        0x3 
 .text          0x10005168       0x7e /nfs/site/disks/xne_abc_fe_002/fw_tools/RJ-2023.2-linux/HWC_RCS_LX7_0p5_RJ2/xtensa-elf/arch/lib//libhandlers-board.a(int-handler-level3.o)
                0x10005168                _Level3FromVector
 *fill*         0x100051e6        0x2 
 .text          0x100051e8      0x129 /nfs/site/disks/xne_abc_fe_002/fw_tools/RJ-2023.2-linux/HWC_RCS_LX7_0p5_RJ2/xtensa-elf/arch/lib//libhandlers-board.a(int-handler-level4.o)
                0x100051e8                _Level4FromVector
 *fill*         0x10005311        0x3 
 .text          0x10005314      0x100 /nfs/site/disks/xne_abc_fe_002/fw_tools/RJ-2023.2-linux/HWC_RCS_LX7_0p5_RJ2/xtensa-elf/arch/lib//libhandlers-board.a(int-lowpri-dispatcher.o)
                0x10005314                _xtos_l1int_handler
                0x10005332                _LevelOneInterrupt
 .text          0x10005414        0x0 /nfs/site/disks/xne_abc_fe_002/fw_tools/RJ-2023.2-linux/HWC_RCS_LX7_0p5_RJ2/xtensa-elf/arch/lib/_sharedvectors.o
 .text          0x10005414        0x0 /nfs/site/disks/xne_abc_fe_002/fw_tools/RJ-2023.2-linux/HWC_RCS_LX7_0p5_RJ2/xtensa-elf/arch/lib/_vectors.o
 .text          0x10005414        0x0 /nfs/site/disks/zsc14.xne_abc_fe_001/users/chandrbi/emulval_0p8_17Jun/abc_emul-srvrgen4/src/rcs_fw/out/rx/hw/com_tables.o
 .text          0x10005414        0x0 /nfs/site/disks/zsc14.xne_abc_fe_001/users/chandrbi/emulval_0p8_17Jun/abc_emul-srvrgen4/src/rcs_fw/out/rx/hw/rx_tables.o
 .text          0x10005414        0x0 /nfs/site/disks/zsc14.xne_abc_fe_001/users/chandrbi/emulval_0p8_17Jun/abc_emul-srvrgen4/src/rcs_fw/out/rx/hw/fw_ver.o
 *fill*         0x10005414        0x0 
 .text          0x10005414        0x0 /nfs/site/disks/zsc14.xne_abc_fe_001/users/chandrbi/emulval_0p8_17Jun/abc_emul-srvrgen4/src/rcs_fw/out/rx/hw/com_assert.o
 *fill*         0x10005414        0x0 
 *fill*         0x10005414        0x0 
 *fill*         0x10005414        0x0 
 *fill*         0x10005414        0x0 
 *fill*         0x10005414        0x0 
 *fill*         0x10005414        0x0 
 *fill*         0x10005414        0x0 
 *fill*         0x10005414        0x0 
 *fill*         0x10005414        0x0 
 *fill*         0x10005414        0x0 
 *fill*         0x10005414        0x0 
 *fill*         0x10005414        0x0 
 *fill*         0x10005414        0x0 
 *fill*         0x10005414        0x0 
 *fill*         0x10005414        0x0 
 .literal       0x10005414        0x0 /nfs/site/disks/zsc14.xne_abc_fe_001/users/chandrbi/emulval_0p8_17Jun/abc_emul-srvrgen4/src/rcs_fw/out/rx/hw/com_exception.o
 *fill*         0x10005414        0xc 
 .text          0x10005420       0xf0 /nfs/site/disks/zsc14.xne_abc_fe_001/users/chandrbi/emulval_0p8_17Jun/abc_emul-srvrgen4/src/rcs_fw/out/rx/hw/com_exception.o
                0x10005420                com_cpu_user_exception
                0x1000545c                com_cpu_kernel_exception
                0x10005498                com_cpu_double_exception
                0x100054d4                com_cpu_debug_exception
 *fill*         0x10005510        0x0 
 .text          0x10005510        0x0 /nfs/site/disks/zsc14.xne_abc_fe_001/users/chandrbi/emulval_0p8_17Jun/abc_emul-srvrgen4/src/rcs_fw/out/rx/hw/com_memory.o
 *fill*         0x10005510        0x0 
 *fill*         0x10005510        0x0 
 *fill*         0x10005510        0x0 
 *fill*         0x10005510        0x0 
 .literal       0x10005510        0x0 /nfs/site/disks/zsc14.xne_abc_fe_001/users/chandrbi/emulval_0p8_17Jun/abc_emul-srvrgen4/src/rcs_fw/out/rx/hw/com_queue.o
 .text          0x10005510      0x166 /nfs/site/disks/zsc14.xne_abc_fe_001/users/chandrbi/emulval_0p8_17Jun/abc_emul-srvrgen4/src/rcs_fw/out/rx/hw/com_queue.o
                0x10005510                com_queue_init
                0x10005534                com_queue_insert
                0x100055c8                com_queue_read
                0x10005658                com_queue_dump
 *fill*         0x10005676        0x0 
 *fill*         0x10005676        0x0 
 *fill*         0x10005676        0x2 
 .literal       0x10005678        0x0 /nfs/site/disks/zsc14.xne_abc_fe_001/users/chandrbi/emulval_0p8_17Jun/abc_emul-srvrgen4/src/rcs_fw/out/rx/hw/com_shared_memory_read_write.o
 .text          0x10005678       0x1e /nfs/site/disks/zsc14.xne_abc_fe_001/users/chandrbi/emulval_0p8_17Jun/abc_emul-srvrgen4/src/rcs_fw/out/rx/hw/com_shared_memory_read_write.o
                0x10005678                com_shared_mem_write
                0x10005688                com_shared_mem_read
 *fill*         0x10005696        0x0 
 *fill*         0x10005696        0x0 
 *fill*         0x10005696        0x0 
 *fill*         0x10005696        0x0 
 *fill*         0x10005696        0x0 
 *fill*         0x10005696        0x0 
 *fill*         0x10005696        0x0 
 *fill*         0x10005696        0x0 
 *fill*         0x10005696        0x0 
 .text          0x10005696        0x0 /nfs/site/disks/zsc14.xne_abc_fe_001/users/chandrbi/emulval_0p8_17Jun/abc_emul-srvrgen4/src/rcs_fw/out/rx/hw/com_bootrom.o
 *fill*         0x10005696        0x0 
 *fill*         0x10005696        0x2 
 .literal       0x10005698        0x0 /nfs/site/disks/xne_abc_fe_002/fw_tools/RJ-2023.2-linux/HWC_RCS_LX7_0p5_RJ2/xtensa-elf/lib//libc.a(memcpy.o)
 *fill*         0x10005698        0x8 
 .text          0x100056a0      0x139 /nfs/site/disks/xne_abc_fe_002/fw_tools/RJ-2023.2-linux/HWC_RCS_LX7_0p5_RJ2/xtensa-elf/lib//libc.a(memcpy.o)
                0x100056e8                memcpy
 *fill*         0x100057d9        0x3 
 .literal       0x100057dc        0x0 /nfs/site/disks/xne_abc_fe_002/fw_tools/RJ-2023.2-linux/HWC_RCS_LX7_0p5_RJ2/xtensa-elf/lib//libc.a(memset.o)
 *fill*         0x100057dc        0x4 
 .text          0x100057e0       0x7f /nfs/site/disks/xne_abc_fe_002/fw_tools/RJ-2023.2-linux/HWC_RCS_LX7_0p5_RJ2/xtensa-elf/lib//libc.a(memset.o)
                0x10005814                memset
 *fill*         0x1000585f        0x0 
 *fill*         0x1000585f        0x0 
 *fill*         0x1000585f        0x1 
 .text          0x10005860       0x3d /nfs/site/disks/xne_abc_fe_002/fw_tools/RJ-2023.2-linux/HWC_RCS_LX7_0p5_RJ2/xtensa-elf/lib/xcc//libgcc.a(_floatsidf.o)
                0x10005860                __floatunsidf
                0x1000586c                __floatsidf
 *fill*         0x1000589d        0x0 
 *fill*         0x1000589d        0x0 
 *fill*         0x1000589d        0x0 
 *fill*         0x1000589d        0x3 
 .text          0x100058a0       0x35 /nfs/site/disks/xne_abc_fe_002/fw_tools/RJ-2023.2-linux/HWC_RCS_LX7_0p5_RJ2/xtensa-elf/lib/xcc//libgcc.a(_umulsidi3.o)
                0x100058a0                __umulsidi3
 .text          0x100058d5        0x0 /nfs/site/disks/xne_abc_fe_002/fw_tools/RJ-2023.2-linux/HWC_RCS_LX7_0p5_RJ2/xtensa-elf/lib/xcc//libgcc.a(softfloat_cmn.o)
 *fill*         0x100058d5        0x0 
 *fill*         0x100058d5        0x3 
 .literal       0x100058d8        0x0 /nfs/site/disks/xne_abc_fe_002/fw_tools/RJ-2023.2-linux/HWC_RCS_LX7_0p5_RJ2/xtensa-elf/lib/xcc//libgcc.a(softfloat_cmn_div.o)
 *fill*         0x100058d8        0x8 
 .text          0x100058e0       0x7f /nfs/site/disks/xne_abc_fe_002/fw_tools/RJ-2023.2-linux/HWC_RCS_LX7_0p5_RJ2/xtensa-elf/lib/xcc//libgcc.a(softfloat_cmn_div.o)
                0x100058e0                __estimateDiv64To32
 .text          0x1000595f        0x0 /nfs/site/disks/xne_abc_fe_002/fw_tools/RJ-2023.2-linux/HWC_RCS_LX7_0p5_RJ2/xtensa-elf/arch/lib//libhandlers-board.a(debug-vector.o)
 .text          0x1000595f        0x0 /nfs/site/disks/xne_abc_fe_002/fw_tools/RJ-2023.2-linux/HWC_RCS_LX7_0p5_RJ2/xtensa-elf/arch/lib//libhandlers-board.a(reset-vector-unpack.o)
 .text          0x1000595f        0x0 /nfs/site/disks/xne_abc_fe_002/fw_tools/RJ-2023.2-linux/HWC_RCS_LX7_0p5_RJ2/xtensa-elf/arch/lib//libhandlers-board.a(memctl_default.o)
 *fill*         0x1000595f        0x0 
 *fill*         0x1000595f        0x0 
 .text          0x1000595f        0x0 /nfs/site/disks/xne_abc_fe_002/fw_tools/RJ-2023.2-linux/HWC_RCS_LX7_0p5_RJ2/xtensa-elf/arch/lib//libhandlers-board.a(memerror-vector-S--vector-.o)
 .text          0x1000595f        0x0 /nfs/site/disks/xne_abc_fe_002/fw_tools/RJ-2023.2-linux/HWC_RCS_LX7_0p5_RJ2/xtensa-elf/arch/lib//libhandlers-board.a(nmi-vector.o)
 .text          0x1000595f        0x0 /nfs/site/disks/xne_abc_fe_002/fw_tools/RJ-2023.2-linux/HWC_RCS_LX7_0p5_RJ2/xtensa-elf/arch/lib//libhandlers-board.a(window-vectors.o)
 .text          0x1000595f        0x0 /nfs/site/disks/xne_abc_fe_002/fw_tools/RJ-2023.2-linux/HWC_RCS_LX7_0p5_RJ2/xtensa-elf/arch/lib//libhandlers-board.a(int-vector-level2.o)
 .text          0x1000595f        0x0 /nfs/site/disks/xne_abc_fe_002/fw_tools/RJ-2023.2-linux/HWC_RCS_LX7_0p5_RJ2/xtensa-elf/arch/lib//libhandlers-board.a(int-vector-level3.o)
 .text          0x1000595f        0x0 /nfs/site/disks/xne_abc_fe_002/fw_tools/RJ-2023.2-linux/HWC_RCS_LX7_0p5_RJ2/xtensa-elf/arch/lib//libhandlers-board.a(int-vector-level4.o)
 *fill*         0x1000595f        0x0 
 *fill*         0x1000595f        0x0 
 *fill*         0x1000595f        0x0 
 *fill*         0x1000595f        0x1 
 .text          0x10005960       0x18 /nfs/site/disks/xne_abc_fe_002/fw_tools/RJ-2023.2-linux/HWC_RCS_LX7_0p5_RJ2/xtensa-elf/arch/lib//libhandlers-board.a(exc-return.o)
                0x10005960                _xtos_return_from_exc
 .text          0x10005978       0x3c /nfs/site/disks/xne_abc_fe_002/fw_tools/RJ-2023.2-linux/HWC_RCS_LX7_0p5_RJ2/xtensa-elf/arch/lib//libhal.a(clock.o)
                0x10005978                xthal_get_ccount
                0x10005980                xthal_set_ccompare
                0x1000599c                xthal_get_ccompare
 .text          0x100059b4        0x0 /nfs/site/disks/xne_abc_fe_002/fw_tools/RJ-2023.2-linux/HWC_RCS_LX7_0p5_RJ2/xtensa-elf/arch/lib//libhal.a(cache_asm--hw_configid0.o)
 .text          0x100059b4        0x0 /nfs/site/disks/xne_abc_fe_002/fw_tools/RJ-2023.2-linux/HWC_RCS_LX7_0p5_RJ2/xtensa-elf/arch/lib//libhal.a(cache_asm--hw_configid1.o)
 .text          0x100059b4        0x0 /nfs/site/disks/xne_abc_fe_002/fw_tools/RJ-2023.2-linux/HWC_RCS_LX7_0p5_RJ2/xtensa-elf/arch/lib//libhal.a(cache_asm--release_major.o)
 .text          0x100059b4        0x0 /nfs/site/disks/xne_abc_fe_002/fw_tools/RJ-2023.2-linux/HWC_RCS_LX7_0p5_RJ2/xtensa-elf/arch/lib//libhal.a(cache_asm--release_minor.o)
 .text          0x100059b4        0x0 /nfs/site/disks/xne_abc_fe_002/fw_tools/RJ-2023.2-linux/HWC_RCS_LX7_0p5_RJ2/xtensa-elf/arch/lib//libhal.a(const--intlevel.o)
 *(.fini.literal)
 *(.fini)
 *(.gnu.version)
                0x100059b4                . = ALIGN (0x4)
                0x100059b4                _text_end = ABSOLUTE (.)
                0x100059b4                _etext = .

.clib.text      0x100059b4        0x0
                0x100059b4                _clib_text_start = ABSOLUTE (.)
 *(.clib.literal .clib.text)
                0x100059b4                . = ALIGN (0x4)
                0x100059b4                _clib_text_end = ABSOLUTE (.)

.rtos.text      0x100059b4        0x0
                0x100059b4                _rtos_text_start = ABSOLUTE (.)
 *(.rtos.literal .rtos.text)
 .rtos.text     0x100059b4        0x0 /nfs/site/disks/zsc14.xne_abc_fe_001/users/chandrbi/emulval_0p8_17Jun/abc_emul-srvrgen4/src/rcs_fw/out/rx/hw/custom_vectors.o
                0x100059b4                . = ALIGN (0x4)
                0x100059b4                _rtos_text_end = ABSOLUTE (.)

.note.gnu.build-id
                0x100059b4        0x0
                0x100059b4                _note_gnu_build-id_start = ABSOLUTE (.)
 *(.note.gnu.build-id)
                0x100059b4                . = ALIGN (0x4)
                0x100059b4                _note_gnu_build-id_end = ABSOLUTE (.)
                0x100059b8                _memmap_seg_iram0_21_end = ALIGN (0x8)
                0x100059b4                _memmap_mem_iram0_max = ABSOLUTE (.)

.dram0.com_tables.data
                0x10020000      0x314
                0x10020000                _dram0_com_tables_data_start = ABSOLUTE (.)
 *(.dram0.com_tables.data)
 .dram0.com_tables.data
                0x10020000      0x314 /nfs/site/disks/zsc14.xne_abc_fe_001/users/chandrbi/emulval_0p8_17Jun/abc_emul-srvrgen4/src/rcs_fw/out/rx/hw/com_tables.o
                0x10020000                com_static_data_init
                0x10020314                . = ALIGN (0x4)
                0x10020314                _dram0_com_tables_data_end = ABSOLUTE (.)

.dram0.rx_tables.data
                0x10020314      0x110
                0x10020314                _dram0_rx_tables_data_start = ABSOLUTE (.)
 *(.dram0.rx_tables.data)
 .dram0.rx_tables.data
                0x10020314      0x110 /nfs/site/disks/zsc14.xne_abc_fe_001/users/chandrbi/emulval_0p8_17Jun/abc_emul-srvrgen4/src/rcs_fw/out/rx/hw/rx_tables.o
                0x10020314                rx_static_data_init
                0x10020424                . = ALIGN (0x4)
                0x10020424                _dram0_rx_tables_data_end = ABSOLUTE (.)

.adc_core.data  0x10020424        0x0
                0x10020424                _adc_core_data_start = ABSOLUTE (.)
 *(.adc_core.data)
                0x10020424                . = ALIGN (0x4)
                0x10020424                _adc_core_data_end = ABSOLUTE (.)
                0x10020428                _memmap_seg_dram0_0_end = ALIGN (0x8)

.dram0.rodata   0x10024000       0x30
                0x10024000                _dram0_rodata_start = ABSOLUTE (.)
 *(.dram0.rodata)
 .dram0.rodata  0x10024000       0x30 /nfs/site/disks/zsc14.xne_abc_fe_001/users/chandrbi/emulval_0p8_17Jun/abc_emul-srvrgen4/src/rcs_fw/out/rx/hw/custom_vectors.o
 *(.dram.rodata)
                0x10024030                . = ALIGN (0x4)
                0x10024030                _dram0_rodata_end = ABSOLUTE (.)

.dram0.data     0x10024030       0x30
                0x10024030                _dram0_data_start = ABSOLUTE (.)
 *(.dram0.data)
 .dram0.data    0x10024030       0x30 /nfs/site/disks/zsc14.xne_abc_fe_001/users/chandrbi/emulval_0p8_17Jun/abc_emul-srvrgen4/src/rcs_fw/out/rx/hw/com_idma.o
 *(.dram.data)
                0x10024060                . = ALIGN (0x4)
                0x10024060                _dram0_data_end = ABSOLUTE (.)

.clib.rodata    0x10024060        0x0
                0x10024060                _clib_rodata_start = ABSOLUTE (.)
 *(.clib.rodata)
                0x10024060                . = ALIGN (0x4)
                0x10024060                _clib_rodata_end = ABSOLUTE (.)

.rtos.rodata    0x10024060      0x100
                0x10024060                _rtos_rodata_start = ABSOLUTE (.)
 *(.rtos.rodata)
 .rtos.rodata   0x10024060      0x100 /nfs/site/disks/xne_abc_fe_002/fw_tools/RJ-2023.2-linux/HWC_RCS_LX7_0p5_RJ2/xtensa-elf/arch/lib//libhal.a(const--intlevel.o)
                0x10024060                Xthal_intlevel
                0x10024160                . = ALIGN (0x4)
                0x10024160                _rtos_rodata_end = ABSOLUTE (.)

.rodata         0x10024160      0x100
                0x10024160                _rodata_start = ABSOLUTE (.)
 *(.rodata)
 .rodata        0x10024160       0x38 /nfs/site/disks/zsc14.xne_abc_fe_001/users/chandrbi/emulval_0p8_17Jun/abc_emul-srvrgen4/src/rcs_fw/out/rx/hw/com_isr.o
 .rodata        0x10024198       0x5c /nfs/site/disks/zsc14.xne_abc_fe_001/users/chandrbi/emulval_0p8_17Jun/abc_emul-srvrgen4/src/rcs_fw/out/rx/hw/com_fsm.o
 .rodata        0x100241f4       0x18 /nfs/site/disks/zsc14.xne_abc_fe_001/users/chandrbi/emulval_0p8_17Jun/abc_emul-srvrgen4/src/rcs_fw/out/rx/hw/com_swg.o
 *fill*         0x1002420c        0x4 
 .rodata        0x10024210       0x28 /nfs/site/disks/zsc14.xne_abc_fe_001/users/chandrbi/emulval_0p8_17Jun/abc_emul-srvrgen4/src/rcs_fw/out/rx/hw/com_gpdma.o
 *fill*         0x10024238        0x8 
 .rodata        0x10024240       0x10 /nfs/site/disks/zsc14.xne_abc_fe_001/users/chandrbi/emulval_0p8_17Jun/abc_emul-srvrgen4/src/rcs_fw/out/rx/hw/rx_adc_cfg.o
                0x10024240                p_adc_cpu
 *(SORT_BY_NAME(.rodata.sort.*))
 *(SORT_BY_NAME(.rodata.keepsort.*) .rodata.keep.*)
 *(.rodata.*)
 .rodata.cst8   0x10024250        0x8 /nfs/site/disks/zsc14.xne_abc_fe_001/users/chandrbi/emulval_0p8_17Jun/abc_emul-srvrgen4/src/rcs_fw/out/rx/hw/com_gpdma.o
 *(.gnu.linkonce.r.*)
 *(.rodata1)
                0x10024258                __XT_EXCEPTION_TABLE__ = ABSOLUTE (.)
 *(.xt_except_table)
 *(.gcc_except_table)
 *(.gnu.linkonce.e.*)
 *(.gnu.version_r)
                [!provide]                        PROVIDE (__eh_frame_start = .)
 *(.eh_frame)
                [!provide]                        PROVIDE (__eh_frame_end = .)
 *crtbegin.o(.ctors)
 *(EXCLUDE_FILE(*crtend.o) .ctors)
 *(SORT_BY_NAME(.ctors.*))
 *(.ctors)
 *crtbegin.o(.dtors)
 *(EXCLUDE_FILE(*crtend.o) .dtors)
 *(SORT_BY_NAME(.dtors.*))
 *(.dtors)
                0x10024258                __XT_EXCEPTION_DESCS__ = ABSOLUTE (.)
 *(.xt_except_desc)
 *(.gnu.linkonce.h.*)
                0x10024258                __XT_EXCEPTION_DESCS_END__ = ABSOLUTE (.)
 *(.xt_except_desc_end)
 *(.dynamic)
 *(.gnu.version_d)
                0x10024258                . = ALIGN (0x4)
                0x10024258                _bss_table_start = ABSOLUTE (.)
                0x10024258        0x4 LONG 0x10024e30 _bss_start
                0x1002425c        0x4 LONG 0x10026250 _bss_end
                0x10024260                _bss_table_end = ABSOLUTE (.)
                0x10024260                . = ALIGN (0x4)
                0x10024260                _rodata_end = ABSOLUTE (.)

.clib.data      0x10024260        0x0
                0x10024260                _clib_data_start = ABSOLUTE (.)
 *(.clib.data)
 .clib.data     0x10024260        0x0 /nfs/site/disks/xne_abc_fe_002/fw_tools/RJ-2023.2-linux/HWC_RCS_LX7_0p5_RJ2/xtensa-elf/lib//libc.a(memcpy.o)
 .clib.data     0x10024260        0x0 /nfs/site/disks/xne_abc_fe_002/fw_tools/RJ-2023.2-linux/HWC_RCS_LX7_0p5_RJ2/xtensa-elf/lib//libc.a(memset.o)
                0x10024260                . = ALIGN (0x4)
                0x10024260                _clib_data_end = ABSOLUTE (.)

.clib.percpu.data
                0x10024260        0x0
                0x10024260                _clib_percpu_data_start = ABSOLUTE (.)
 *(.clib.percpu.data)
                0x10024260                . = ALIGN (0x4)
                0x10024260                _clib_percpu_data_end = ABSOLUTE (.)

.rtos.percpu.data
                0x10024260        0x8
                0x10024260                _rtos_percpu_data_start = ABSOLUTE (.)
 *(.rtos.percpu.data)
 .rtos.percpu.data
                0x10024260        0x0 /nfs/site/disks/xne_abc_fe_002/fw_tools/RJ-2023.2-linux/HWC_RCS_LX7_0p5_RJ2/xtensa-elf/arch/lib//libhandlers-board.a(debug-vector.o)
 .rtos.percpu.data
                0x10024260        0x4 /nfs/site/disks/xne_abc_fe_002/fw_tools/RJ-2023.2-linux/HWC_RCS_LX7_0p5_RJ2/xtensa-elf/arch/lib//libhandlers-board.a(reset-vector-unpack.o)
 .rtos.percpu.data
                0x10024264        0x0 /nfs/site/disks/xne_abc_fe_002/fw_tools/RJ-2023.2-linux/HWC_RCS_LX7_0p5_RJ2/xtensa-elf/arch/lib//libhandlers-board.a(memctl_default.o)
 .rtos.percpu.data
                0x10024264        0x0 /nfs/site/disks/xne_abc_fe_002/fw_tools/RJ-2023.2-linux/HWC_RCS_LX7_0p5_RJ2/xtensa-elf/arch/lib//libhandlers-board.a(xtos-interrupt-enable.o)
 .rtos.percpu.data
                0x10024264        0x0 /nfs/site/disks/xne_abc_fe_002/fw_tools/RJ-2023.2-linux/HWC_RCS_LX7_0p5_RJ2/xtensa-elf/arch/lib//libhandlers-board.a(xtos-interrupt-disable.o)
 .rtos.percpu.data
                0x10024264        0x0 /nfs/site/disks/xne_abc_fe_002/fw_tools/RJ-2023.2-linux/HWC_RCS_LX7_0p5_RJ2/xtensa-elf/arch/lib//libhandlers-board.a(xtos-set-inthandler.o)
 .rtos.percpu.data
                0x10024264        0x0 /nfs/site/disks/xne_abc_fe_002/fw_tools/RJ-2023.2-linux/HWC_RCS_LX7_0p5_RJ2/xtensa-elf/arch/lib//libhandlers-board.a(exc-syscall-handler.o)
 .rtos.percpu.data
                0x10024264        0x0 /nfs/site/disks/xne_abc_fe_002/fw_tools/RJ-2023.2-linux/HWC_RCS_LX7_0p5_RJ2/xtensa-elf/arch/lib//libhandlers-board.a(memerror-vector-S--vector-.o)
 .rtos.percpu.data
                0x10024264        0x0 /nfs/site/disks/xne_abc_fe_002/fw_tools/RJ-2023.2-linux/HWC_RCS_LX7_0p5_RJ2/xtensa-elf/arch/lib//libhandlers-board.a(nmi-vector.o)
 .rtos.percpu.data
                0x10024264        0x0 /nfs/site/disks/xne_abc_fe_002/fw_tools/RJ-2023.2-linux/HWC_RCS_LX7_0p5_RJ2/xtensa-elf/arch/lib//libhandlers-board.a(window-vectors.o)
 .rtos.percpu.data
                0x10024264        0x0 /nfs/site/disks/xne_abc_fe_002/fw_tools/RJ-2023.2-linux/HWC_RCS_LX7_0p5_RJ2/xtensa-elf/arch/lib//libhandlers-board.a(int-vector-level2.o)
 .rtos.percpu.data
                0x10024264        0x0 /nfs/site/disks/xne_abc_fe_002/fw_tools/RJ-2023.2-linux/HWC_RCS_LX7_0p5_RJ2/xtensa-elf/arch/lib//libhandlers-board.a(int-vector-level3.o)
 .rtos.percpu.data
                0x10024264        0x0 /nfs/site/disks/xne_abc_fe_002/fw_tools/RJ-2023.2-linux/HWC_RCS_LX7_0p5_RJ2/xtensa-elf/arch/lib//libhandlers-board.a(int-vector-level4.o)
 .rtos.percpu.data
                0x10024264        0x0 /nfs/site/disks/xne_abc_fe_002/fw_tools/RJ-2023.2-linux/HWC_RCS_LX7_0p5_RJ2/xtensa-elf/arch/lib//libhandlers-board.a(int-handler-level2.o)
 .rtos.percpu.data
                0x10024264        0x0 /nfs/site/disks/xne_abc_fe_002/fw_tools/RJ-2023.2-linux/HWC_RCS_LX7_0p5_RJ2/xtensa-elf/arch/lib//libhandlers-board.a(int-handler-level3.o)
 .rtos.percpu.data
                0x10024264        0x4 /nfs/site/disks/xne_abc_fe_002/fw_tools/RJ-2023.2-linux/HWC_RCS_LX7_0p5_RJ2/xtensa-elf/arch/lib//libhandlers-board.a(int-handler-level4.o)
                0x10024264                _Pri_4_HandlerAddress
 .rtos.percpu.data
                0x10024268        0x0 /nfs/site/disks/xne_abc_fe_002/fw_tools/RJ-2023.2-linux/HWC_RCS_LX7_0p5_RJ2/xtensa-elf/arch/lib//libhandlers-board.a(int-lowpri-dispatcher.o)
 .rtos.percpu.data
                0x10024268        0x0 /nfs/site/disks/xne_abc_fe_002/fw_tools/RJ-2023.2-linux/HWC_RCS_LX7_0p5_RJ2/xtensa-elf/arch/lib//libhandlers-board.a(exc-return.o)
                0x10024268                . = ALIGN (0x4)
                0x10024268                _rtos_percpu_data_end = ABSOLUTE (.)

.rtos.data      0x10024268        0x0
                0x10024268                _rtos_data_start = ABSOLUTE (.)
 *(.rtos.data)
 .rtos.data     0x10024268        0x0 /nfs/site/disks/xne_abc_fe_002/fw_tools/RJ-2023.2-linux/HWC_RCS_LX7_0p5_RJ2/xtensa-elf/arch/lib//libhal.a(clock.o)
 .rtos.data     0x10024268        0x0 /nfs/site/disks/xne_abc_fe_002/fw_tools/RJ-2023.2-linux/HWC_RCS_LX7_0p5_RJ2/xtensa-elf/arch/lib//libhal.a(cache_asm--hw_configid0.o)
 .rtos.data     0x10024268        0x0 /nfs/site/disks/xne_abc_fe_002/fw_tools/RJ-2023.2-linux/HWC_RCS_LX7_0p5_RJ2/xtensa-elf/arch/lib//libhal.a(cache_asm--hw_configid1.o)
 .rtos.data     0x10024268        0x0 /nfs/site/disks/xne_abc_fe_002/fw_tools/RJ-2023.2-linux/HWC_RCS_LX7_0p5_RJ2/xtensa-elf/arch/lib//libhal.a(cache_asm--release_major.o)
 .rtos.data     0x10024268        0x0 /nfs/site/disks/xne_abc_fe_002/fw_tools/RJ-2023.2-linux/HWC_RCS_LX7_0p5_RJ2/xtensa-elf/arch/lib//libhal.a(cache_asm--release_minor.o)
 .rtos.data     0x10024268        0x0 /nfs/site/disks/xne_abc_fe_002/fw_tools/RJ-2023.2-linux/HWC_RCS_LX7_0p5_RJ2/xtensa-elf/arch/lib//libhal.a(const--intlevel.o)
                0x10024268                . = ALIGN (0x4)
                0x10024268                _rtos_data_end = ABSOLUTE (.)

.data           0x10024270      0xbc0
                0x10024270                _data_start = ABSOLUTE (.)
 *(.data)
 .data          0x10024270        0x0 /nfs/site/disks/xne_abc_fe_002/fw_tools/RJ-2023.2-linux/HWC_RCS_LX7_0p5_RJ2/xtensa-elf/arch/lib/crt1-tiny.o
 .data          0x10024270        0x0 /nfs/site/disks/xne_abc_fe_002/fw_tools/RJ-2023.2-linux/HWC_RCS_LX7_0p5_RJ2/xtensa-elf/arch/lib/_sharedvectors.o
 .data          0x10024270        0x0 /nfs/site/disks/xne_abc_fe_002/fw_tools/RJ-2023.2-linux/HWC_RCS_LX7_0p5_RJ2/xtensa-elf/arch/lib/_vectors.o
 .data          0x10024270        0x0 /nfs/site/disks/zsc14.xne_abc_fe_001/users/chandrbi/emulval_0p8_17Jun/abc_emul-srvrgen4/src/rcs_fw/out/rx/hw/com_tables.o
 .data          0x10024270        0x0 /nfs/site/disks/zsc14.xne_abc_fe_001/users/chandrbi/emulval_0p8_17Jun/abc_emul-srvrgen4/src/rcs_fw/out/rx/hw/rx_tables.o
 .data          0x10024270        0x4 /nfs/site/disks/zsc14.xne_abc_fe_001/users/chandrbi/emulval_0p8_17Jun/abc_emul-srvrgen4/src/rcs_fw/out/rx/hw/fw_ver.o
                0x10024270                ver_fw
 .data          0x10024274        0x4 /nfs/site/disks/zsc14.xne_abc_fe_001/users/chandrbi/emulval_0p8_17Jun/abc_emul-srvrgen4/src/rcs_fw/out/rx/hw/com_print.o
 .data          0x10024278        0x0 /nfs/site/disks/zsc14.xne_abc_fe_001/users/chandrbi/emulval_0p8_17Jun/abc_emul-srvrgen4/src/rcs_fw/out/rx/hw/com_assert.o
 .data          0x10024278        0x0 /nfs/site/disks/zsc14.xne_abc_fe_001/users/chandrbi/emulval_0p8_17Jun/abc_emul-srvrgen4/src/rcs_fw/out/rx/hw/com_heap.o
 .data          0x10024278        0x0 /nfs/site/disks/zsc14.xne_abc_fe_001/users/chandrbi/emulval_0p8_17Jun/abc_emul-srvrgen4/src/rcs_fw/out/rx/hw/com_trax.o
 *fill*         0x10024278        0x8 
 .data          0x10024280      0x1e4 /nfs/site/disks/zsc14.xne_abc_fe_001/users/chandrbi/emulval_0p8_17Jun/abc_emul-srvrgen4/src/rcs_fw/out/rx/hw/com_isr.o
                0x10024280                direct_irq_config
                0x100242c0                aggr_irq_config
                0x10024428                reg3_data
                0x10024434                reg4_data
                0x10024440                reg5_data
                0x1002444c                reg10_data
                0x10024458                reg13_data
 .data          0x10024464        0x0 /nfs/site/disks/zsc14.xne_abc_fe_001/users/chandrbi/emulval_0p8_17Jun/abc_emul-srvrgen4/src/rcs_fw/out/rx/hw/com_platform.o
 .data          0x10024464        0x0 /nfs/site/disks/zsc14.xne_abc_fe_001/users/chandrbi/emulval_0p8_17Jun/abc_emul-srvrgen4/src/rcs_fw/out/rx/hw/com_bfn.o
 .data          0x10024464        0x0 /nfs/site/disks/zsc14.xne_abc_fe_001/users/chandrbi/emulval_0p8_17Jun/abc_emul-srvrgen4/src/rcs_fw/out/rx/hw/com_trace_buffer.o
 .data          0x10024464        0x0 /nfs/site/disks/zsc14.xne_abc_fe_001/users/chandrbi/emulval_0p8_17Jun/abc_emul-srvrgen4/src/rcs_fw/out/rx/hw/com_error.o
 .data          0x10024464        0x0 /nfs/site/disks/zsc14.xne_abc_fe_001/users/chandrbi/emulval_0p8_17Jun/abc_emul-srvrgen4/src/rcs_fw/out/rx/hw/com_timing.o
 .data          0x10024464        0x0 /nfs/site/disks/zsc14.xne_abc_fe_001/users/chandrbi/emulval_0p8_17Jun/abc_emul-srvrgen4/src/rcs_fw/out/rx/hw/com_fsm.o
 .data          0x10024464        0x4 /nfs/site/disks/zsc14.xne_abc_fe_001/users/chandrbi/emulval_0p8_17Jun/abc_emul-srvrgen4/src/rcs_fw/out/rx/hw/com_boot.o
 .data          0x10024468        0x0 /nfs/site/disks/zsc14.xne_abc_fe_001/users/chandrbi/emulval_0p8_17Jun/abc_emul-srvrgen4/src/rcs_fw/out/rx/hw/com_lock.o
 .data          0x10024468        0x4 /nfs/site/disks/zsc14.xne_abc_fe_001/users/chandrbi/emulval_0p8_17Jun/abc_emul-srvrgen4/src/rcs_fw/out/rx/hw/com_idma.o
 .data          0x1002446c        0x0 /nfs/site/disks/zsc14.xne_abc_fe_001/users/chandrbi/emulval_0p8_17Jun/abc_emul-srvrgen4/src/rcs_fw/out/rx/hw/com_exception.o
 .data          0x1002446c        0x0 /nfs/site/disks/zsc14.xne_abc_fe_001/users/chandrbi/emulval_0p8_17Jun/abc_emul-srvrgen4/src/rcs_fw/out/rx/hw/com_swg.o
 .data          0x1002446c        0x0 /nfs/site/disks/zsc14.xne_abc_fe_001/users/chandrbi/emulval_0p8_17Jun/abc_emul-srvrgen4/src/rcs_fw/out/rx/hw/com_memory.o
 *fill*         0x1002446c        0x4 
 .data          0x10024470       0x30 /nfs/site/disks/zsc14.xne_abc_fe_001/users/chandrbi/emulval_0p8_17Jun/abc_emul-srvrgen4/src/rcs_fw/out/rx/hw/com_gpdma.o
 .data          0x100244a0       0x18 /nfs/site/disks/zsc14.xne_abc_fe_001/users/chandrbi/emulval_0p8_17Jun/abc_emul-srvrgen4/src/rcs_fw/out/rx/hw/com_event.o
 .data          0x100244b8        0x0 /nfs/site/disks/zsc14.xne_abc_fe_001/users/chandrbi/emulval_0p8_17Jun/abc_emul-srvrgen4/src/rcs_fw/out/rx/hw/com_queue.o
 .data          0x100244b8        0x0 /nfs/site/disks/zsc14.xne_abc_fe_001/users/chandrbi/emulval_0p8_17Jun/abc_emul-srvrgen4/src/rcs_fw/out/rx/hw/com_msg_handler_utils.o
 .data          0x100244b8        0x0 /nfs/site/disks/zsc14.xne_abc_fe_001/users/chandrbi/emulval_0p8_17Jun/abc_emul-srvrgen4/src/rcs_fw/out/rx/hw/com_shared_memory_read_write.o
 .data          0x100244b8        0x4 /nfs/site/disks/zsc14.xne_abc_fe_001/users/chandrbi/emulval_0p8_17Jun/abc_emul-srvrgen4/src/rcs_fw/out/rx/hw/com_shared_memory.o
                0x100244b8                p_system_data
 *fill*         0x100244bc        0x4 
 .data          0x100244c0      0x150 /nfs/site/disks/zsc14.xne_abc_fe_001/users/chandrbi/emulval_0p8_17Jun/abc_emul-srvrgen4/src/rcs_fw/out/rx/hw/rx_msg_handler.o
                0x100244c0                rx_hdlr_lut
                0x10024600                rx_msg_irq_hdlr_map
 .data          0x10024610        0x0 /nfs/site/disks/zsc14.xne_abc_fe_001/users/chandrbi/emulval_0p8_17Jun/abc_emul-srvrgen4/src/rcs_fw/out/rx/hw/rx_adc_cfg.o
 .data          0x10024610        0x0 /nfs/site/disks/zsc14.xne_abc_fe_001/users/chandrbi/emulval_0p8_17Jun/abc_emul-srvrgen4/src/rcs_fw/out/rx/hw/rx_main.o
 .data          0x10024610        0x0 /nfs/site/disks/zsc14.xne_abc_fe_001/users/chandrbi/emulval_0p8_17Jun/abc_emul-srvrgen4/src/rcs_fw/out/rx/hw/rx_lineup.o
 .data          0x10024610        0x0 /nfs/site/disks/zsc14.xne_abc_fe_001/users/chandrbi/emulval_0p8_17Jun/abc_emul-srvrgen4/src/rcs_fw/out/rx/hw/rx_gain.o
 .data          0x10024610      0x610 /nfs/site/disks/zsc14.xne_abc_fe_001/users/chandrbi/emulval_0p8_17Jun/abc_emul-srvrgen4/src/rcs_fw/out/rx/hw/rx_daco.o
                0x10024610                rx_daco
 .data          0x10024c20        0x0 /nfs/site/disks/zsc14.xne_abc_fe_001/users/chandrbi/emulval_0p8_17Jun/abc_emul-srvrgen4/src/rcs_fw/out/rx/hw/rx_v2d.o
 .data          0x10024c20        0x0 /nfs/site/disks/zsc14.xne_abc_fe_001/users/chandrbi/emulval_0p8_17Jun/abc_emul-srvrgen4/src/rcs_fw/out/rx/hw/com_bootrom.o
 .data          0x10024c20      0x210 /nfs/site/disks/zsc14.xne_abc_fe_001/users/chandrbi/emulval_0p8_17Jun/abc_emul-srvrgen4/src/rcs_fw/out/rx/hw/custom_vectors.o
                0x10024c20                exception_11_cnt
                0x10024c28                _xtos_intstruct
                0x10024c28                xtos_enabled
                0x10024c2c                xtos_vpri_enabled
                0x10024c30                xtos_interrupt_table
                0x10024d30                xtos_interrupt_mask_table
 .data          0x10024e30        0x0 /nfs/site/disks/xne_abc_fe_002/fw_tools/RJ-2023.2-linux/HWC_RCS_LX7_0p5_RJ2/xtensa-elf/lib/xcc//libgcc.a(_muldf3.o)
 .data          0x10024e30        0x0 /nfs/site/disks/xne_abc_fe_002/fw_tools/RJ-2023.2-linux/HWC_RCS_LX7_0p5_RJ2/xtensa-elf/lib/xcc//libgcc.a(_fixunsdfdi.o)
 .data          0x10024e30        0x0 /nfs/site/disks/xne_abc_fe_002/fw_tools/RJ-2023.2-linux/HWC_RCS_LX7_0p5_RJ2/xtensa-elf/lib/xcc//libgcc.a(_floatsidf.o)
 .data          0x10024e30        0x0 /nfs/site/disks/xne_abc_fe_002/fw_tools/RJ-2023.2-linux/HWC_RCS_LX7_0p5_RJ2/xtensa-elf/lib/xcc//libgcc.a(_muldi3.o)
 .data          0x10024e30        0x0 /nfs/site/disks/xne_abc_fe_002/fw_tools/RJ-2023.2-linux/HWC_RCS_LX7_0p5_RJ2/xtensa-elf/lib/xcc//libgcc.a(_udivdi3.o)
 .data          0x10024e30        0x0 /nfs/site/disks/xne_abc_fe_002/fw_tools/RJ-2023.2-linux/HWC_RCS_LX7_0p5_RJ2/xtensa-elf/lib/xcc//libgcc.a(softfloat_div_df.o)
 .data          0x10024e30        0x0 /nfs/site/disks/xne_abc_fe_002/fw_tools/RJ-2023.2-linux/HWC_RCS_LX7_0p5_RJ2/xtensa-elf/lib/xcc//libgcc.a(_umulsidi3.o)
 .data          0x10024e30        0x0 /nfs/site/disks/xne_abc_fe_002/fw_tools/RJ-2023.2-linux/HWC_RCS_LX7_0p5_RJ2/xtensa-elf/lib/xcc//libgcc.a(softfloat_cmn.o)
 .data          0x10024e30        0x0 /nfs/site/disks/xne_abc_fe_002/fw_tools/RJ-2023.2-linux/HWC_RCS_LX7_0p5_RJ2/xtensa-elf/lib/xcc//libgcc.a(softfloat_cmn_df.o)
 .data          0x10024e30        0x0 /nfs/site/disks/xne_abc_fe_002/fw_tools/RJ-2023.2-linux/HWC_RCS_LX7_0p5_RJ2/xtensa-elf/lib/xcc//libgcc.a(softfloat_cmn_div.o)
 *(SORT_BY_NAME(.data.sort.*))
 *(SORT_BY_NAME(.data.keepsort.*) .data.keep.*)
 *(.data.*)
 *(.gnu.linkonce.d.*)
 *(.gnu.linkonce.d.*personality*)
 *(.data1)
 *(.sdata)
 *(.sdata.*)
 *(.gnu.linkonce.s.*)
 *(.sdata2)
 *(.sdata2.*)
 *(.gnu.linkonce.s2.*)
 *(.jcr)
                0x10024e30                . = ALIGN (0x4)
                0x10024e30                _data_end = ABSOLUTE (.)

__llvm_prf_names
                0x10024e30        0x0
                0x10024e30                __llvm_prf_names_start = ABSOLUTE (.)
 *(__llvm_prf_names)
                0x10024e30                . = ALIGN (0x4)
                0x10024e30                __llvm_prf_names_end = ABSOLUTE (.)

.bss            0x10024e30     0x1420
                0x10024e30                . = ALIGN (0x8)
                0x10024e30                _bss_start = ABSOLUTE (.)
 *(.dynsbss)
 *(.sbss)
 *(.sbss.*)
 *(.gnu.linkonce.sb.*)
 *(.scommon)
 *(.sbss2)
 *(.sbss2.*)
 *(.gnu.linkonce.sb2.*)
 *(.dynbss)
 *(.bss)
 .bss           0x10024e30        0x0 /nfs/site/disks/xne_abc_fe_002/fw_tools/RJ-2023.2-linux/HWC_RCS_LX7_0p5_RJ2/xtensa-elf/arch/lib/crt1-tiny.o
 .bss           0x10024e30        0x0 /nfs/site/disks/xne_abc_fe_002/fw_tools/RJ-2023.2-linux/HWC_RCS_LX7_0p5_RJ2/xtensa-elf/arch/lib/_sharedvectors.o
 .bss           0x10024e30        0x0 /nfs/site/disks/xne_abc_fe_002/fw_tools/RJ-2023.2-linux/HWC_RCS_LX7_0p5_RJ2/xtensa-elf/arch/lib/_vectors.o
 .bss           0x10024e30        0x0 /nfs/site/disks/zsc14.xne_abc_fe_001/users/chandrbi/emulval_0p8_17Jun/abc_emul-srvrgen4/src/rcs_fw/out/rx/hw/com_tables.o
 .bss           0x10024e30        0x0 /nfs/site/disks/zsc14.xne_abc_fe_001/users/chandrbi/emulval_0p8_17Jun/abc_emul-srvrgen4/src/rcs_fw/out/rx/hw/rx_tables.o
 .bss           0x10024e30        0x0 /nfs/site/disks/zsc14.xne_abc_fe_001/users/chandrbi/emulval_0p8_17Jun/abc_emul-srvrgen4/src/rcs_fw/out/rx/hw/fw_ver.o
 .bss           0x10024e30        0x4 /nfs/site/disks/zsc14.xne_abc_fe_001/users/chandrbi/emulval_0p8_17Jun/abc_emul-srvrgen4/src/rcs_fw/out/rx/hw/com_print.o
 .bss           0x10024e34        0x0 /nfs/site/disks/zsc14.xne_abc_fe_001/users/chandrbi/emulval_0p8_17Jun/abc_emul-srvrgen4/src/rcs_fw/out/rx/hw/com_assert.o
 .bss           0x10024e34       0x2c /nfs/site/disks/zsc14.xne_abc_fe_001/users/chandrbi/emulval_0p8_17Jun/abc_emul-srvrgen4/src/rcs_fw/out/rx/hw/com_heap.o
 .bss           0x10024e60        0x1 /nfs/site/disks/zsc14.xne_abc_fe_001/users/chandrbi/emulval_0p8_17Jun/abc_emul-srvrgen4/src/rcs_fw/out/rx/hw/com_trax.o
 *fill*         0x10024e61        0xf 
 .bss           0x10024e70      0x620 /nfs/site/disks/zsc14.xne_abc_fe_001/users/chandrbi/emulval_0p8_17Jun/abc_emul-srvrgen4/src/rcs_fw/out/rx/hw/com_isr.o
                0x10024e70                reg4_irq_config
                0x10024ec0                reg10_irq_config
                0x10024f40                reg13_irq_config
                0x10024fe0                reg5_irq_config
                0x100250b0                reg3_irq_config
                0x10025190                edge_irq_reg0_handler_map
                0x10025290                edge_irq_reg1_handler_map
                0x10025390                edge_irq_reg2_handler_map
 .bss           0x10025490        0x0 /nfs/site/disks/zsc14.xne_abc_fe_001/users/chandrbi/emulval_0p8_17Jun/abc_emul-srvrgen4/src/rcs_fw/out/rx/hw/com_platform.o
 .bss           0x10025490        0x4 /nfs/site/disks/zsc14.xne_abc_fe_001/users/chandrbi/emulval_0p8_17Jun/abc_emul-srvrgen4/src/rcs_fw/out/rx/hw/com_bfn.o
 .bss           0x10025494        0x8 /nfs/site/disks/zsc14.xne_abc_fe_001/users/chandrbi/emulval_0p8_17Jun/abc_emul-srvrgen4/src/rcs_fw/out/rx/hw/com_trace_buffer.o
                0x10025494                com_trace_bfn_cpu_offset
 .bss           0x1002549c        0x0 /nfs/site/disks/zsc14.xne_abc_fe_001/users/chandrbi/emulval_0p8_17Jun/abc_emul-srvrgen4/src/rcs_fw/out/rx/hw/com_error.o
 .bss           0x1002549c        0x8 /nfs/site/disks/zsc14.xne_abc_fe_001/users/chandrbi/emulval_0p8_17Jun/abc_emul-srvrgen4/src/rcs_fw/out/rx/hw/com_timing.o
                0x1002549c                g_com_timing_epoch
                0x100254a0                g_com_timing_prev_tick
 .bss           0x100254a4        0x0 /nfs/site/disks/zsc14.xne_abc_fe_001/users/chandrbi/emulval_0p8_17Jun/abc_emul-srvrgen4/src/rcs_fw/out/rx/hw/com_fsm.o
 .bss           0x100254a4        0x0 /nfs/site/disks/zsc14.xne_abc_fe_001/users/chandrbi/emulval_0p8_17Jun/abc_emul-srvrgen4/src/rcs_fw/out/rx/hw/com_boot.o
 .bss           0x100254a4        0x8 /nfs/site/disks/zsc14.xne_abc_fe_001/users/chandrbi/emulval_0p8_17Jun/abc_emul-srvrgen4/src/rcs_fw/out/rx/hw/com_lock.o
                0x100254a4                com_shm_lock_first_addr
                0x100254a8                com_shm_lock_last_addr
 .bss           0x100254ac        0xc /nfs/site/disks/zsc14.xne_abc_fe_001/users/chandrbi/emulval_0p8_17Jun/abc_emul-srvrgen4/src/rcs_fw/out/rx/hw/com_idma.o
 .bss           0x100254b8        0x0 /nfs/site/disks/zsc14.xne_abc_fe_001/users/chandrbi/emulval_0p8_17Jun/abc_emul-srvrgen4/src/rcs_fw/out/rx/hw/com_exception.o
 .bss           0x100254b8        0x0 /nfs/site/disks/zsc14.xne_abc_fe_001/users/chandrbi/emulval_0p8_17Jun/abc_emul-srvrgen4/src/rcs_fw/out/rx/hw/com_swg.o
 .bss           0x100254b8        0x0 /nfs/site/disks/zsc14.xne_abc_fe_001/users/chandrbi/emulval_0p8_17Jun/abc_emul-srvrgen4/src/rcs_fw/out/rx/hw/com_memory.o
 .bss           0x100254b8        0x0 /nfs/site/disks/zsc14.xne_abc_fe_001/users/chandrbi/emulval_0p8_17Jun/abc_emul-srvrgen4/src/rcs_fw/out/rx/hw/com_gpdma.o
 *fill*         0x100254b8        0x8 
 .bss           0x100254c0      0x7f0 /nfs/site/disks/zsc14.xne_abc_fe_001/users/chandrbi/emulval_0p8_17Jun/abc_emul-srvrgen4/src/rcs_fw/out/rx/hw/com_event.o
 .bss           0x10025cb0        0x0 /nfs/site/disks/zsc14.xne_abc_fe_001/users/chandrbi/emulval_0p8_17Jun/abc_emul-srvrgen4/src/rcs_fw/out/rx/hw/com_queue.o
 .bss           0x10025cb0       0x40 /nfs/site/disks/zsc14.xne_abc_fe_001/users/chandrbi/emulval_0p8_17Jun/abc_emul-srvrgen4/src/rcs_fw/out/rx/hw/com_msg_handler_utils.o
 .bss           0x10025cf0        0x0 /nfs/site/disks/zsc14.xne_abc_fe_001/users/chandrbi/emulval_0p8_17Jun/abc_emul-srvrgen4/src/rcs_fw/out/rx/hw/com_shared_memory_read_write.o
 .bss           0x10025cf0        0x0 /nfs/site/disks/zsc14.xne_abc_fe_001/users/chandrbi/emulval_0p8_17Jun/abc_emul-srvrgen4/src/rcs_fw/out/rx/hw/com_shared_memory.o
 .bss           0x10025cf0        0x0 /nfs/site/disks/zsc14.xne_abc_fe_001/users/chandrbi/emulval_0p8_17Jun/abc_emul-srvrgen4/src/rcs_fw/out/rx/hw/rx_msg_handler.o
 .bss           0x10025cf0        0x0 /nfs/site/disks/zsc14.xne_abc_fe_001/users/chandrbi/emulval_0p8_17Jun/abc_emul-srvrgen4/src/rcs_fw/out/rx/hw/rx_adc_cfg.o
 .bss           0x10025cf0        0x0 /nfs/site/disks/zsc14.xne_abc_fe_001/users/chandrbi/emulval_0p8_17Jun/abc_emul-srvrgen4/src/rcs_fw/out/rx/hw/rx_main.o
 .bss           0x10025cf0        0x0 /nfs/site/disks/zsc14.xne_abc_fe_001/users/chandrbi/emulval_0p8_17Jun/abc_emul-srvrgen4/src/rcs_fw/out/rx/hw/rx_lineup.o
 .bss           0x10025cf0        0x0 /nfs/site/disks/zsc14.xne_abc_fe_001/users/chandrbi/emulval_0p8_17Jun/abc_emul-srvrgen4/src/rcs_fw/out/rx/hw/rx_gain.o
 .bss           0x10025cf0        0x0 /nfs/site/disks/zsc14.xne_abc_fe_001/users/chandrbi/emulval_0p8_17Jun/abc_emul-srvrgen4/src/rcs_fw/out/rx/hw/rx_daco.o
 .bss           0x10025cf0        0x0 /nfs/site/disks/zsc14.xne_abc_fe_001/users/chandrbi/emulval_0p8_17Jun/abc_emul-srvrgen4/src/rcs_fw/out/rx/hw/rx_v2d.o
 .bss           0x10025cf0        0x0 /nfs/site/disks/zsc14.xne_abc_fe_001/users/chandrbi/emulval_0p8_17Jun/abc_emul-srvrgen4/src/rcs_fw/out/rx/hw/com_bootrom.o
 .bss           0x10025cf0        0x0 /nfs/site/disks/zsc14.xne_abc_fe_001/users/chandrbi/emulval_0p8_17Jun/abc_emul-srvrgen4/src/rcs_fw/out/rx/hw/custom_vectors.o
 .bss           0x10025cf0        0x0 /nfs/site/disks/xne_abc_fe_002/fw_tools/RJ-2023.2-linux/HWC_RCS_LX7_0p5_RJ2/xtensa-elf/lib/xcc//libgcc.a(_muldf3.o)
 .bss           0x10025cf0        0x0 /nfs/site/disks/xne_abc_fe_002/fw_tools/RJ-2023.2-linux/HWC_RCS_LX7_0p5_RJ2/xtensa-elf/lib/xcc//libgcc.a(_fixunsdfdi.o)
 .bss           0x10025cf0        0x0 /nfs/site/disks/xne_abc_fe_002/fw_tools/RJ-2023.2-linux/HWC_RCS_LX7_0p5_RJ2/xtensa-elf/lib/xcc//libgcc.a(_floatsidf.o)
 .bss           0x10025cf0        0x0 /nfs/site/disks/xne_abc_fe_002/fw_tools/RJ-2023.2-linux/HWC_RCS_LX7_0p5_RJ2/xtensa-elf/lib/xcc//libgcc.a(_muldi3.o)
 .bss           0x10025cf0        0x0 /nfs/site/disks/xne_abc_fe_002/fw_tools/RJ-2023.2-linux/HWC_RCS_LX7_0p5_RJ2/xtensa-elf/lib/xcc//libgcc.a(_udivdi3.o)
 .bss           0x10025cf0        0x0 /nfs/site/disks/xne_abc_fe_002/fw_tools/RJ-2023.2-linux/HWC_RCS_LX7_0p5_RJ2/xtensa-elf/lib/xcc//libgcc.a(softfloat_div_df.o)
 .bss           0x10025cf0        0x0 /nfs/site/disks/xne_abc_fe_002/fw_tools/RJ-2023.2-linux/HWC_RCS_LX7_0p5_RJ2/xtensa-elf/lib/xcc//libgcc.a(_umulsidi3.o)
 .bss           0x10025cf0        0x1 /nfs/site/disks/xne_abc_fe_002/fw_tools/RJ-2023.2-linux/HWC_RCS_LX7_0p5_RJ2/xtensa-elf/lib/xcc//libgcc.a(softfloat_cmn.o)
                0x10025cf0                __float_exception_flags
 .bss           0x10025cf1        0x0 /nfs/site/disks/xne_abc_fe_002/fw_tools/RJ-2023.2-linux/HWC_RCS_LX7_0p5_RJ2/xtensa-elf/lib/xcc//libgcc.a(softfloat_cmn_df.o)
 .bss           0x10025cf1        0x0 /nfs/site/disks/xne_abc_fe_002/fw_tools/RJ-2023.2-linux/HWC_RCS_LX7_0p5_RJ2/xtensa-elf/lib/xcc//libgcc.a(softfloat_cmn_div.o)
 *(SORT_BY_NAME(.bss.sort.*))
 *(SORT_BY_NAME(.bss.keepsort.*) .bss.keep.*)
 *(.bss.*)
 *(.gnu.linkonce.b.*)
 *(COMMON)
 *(.clib.bss)
 .clib.bss      0x10025cf1        0x0 /nfs/site/disks/xne_abc_fe_002/fw_tools/RJ-2023.2-linux/HWC_RCS_LX7_0p5_RJ2/xtensa-elf/lib//libc.a(memcpy.o)
 .clib.bss      0x10025cf1        0x0 /nfs/site/disks/xne_abc_fe_002/fw_tools/RJ-2023.2-linux/HWC_RCS_LX7_0p5_RJ2/xtensa-elf/lib//libc.a(memset.o)
 *(.clib.percpu.bss)
 *(.rtos.percpu.bss)
 .rtos.percpu.bss
                0x10025cf1        0x0 /nfs/site/disks/xne_abc_fe_002/fw_tools/RJ-2023.2-linux/HWC_RCS_LX7_0p5_RJ2/xtensa-elf/arch/lib//libhandlers-board.a(debug-vector.o)
 .rtos.percpu.bss
                0x10025cf1        0x0 /nfs/site/disks/xne_abc_fe_002/fw_tools/RJ-2023.2-linux/HWC_RCS_LX7_0p5_RJ2/xtensa-elf/arch/lib//libhandlers-board.a(reset-vector-unpack.o)
 .rtos.percpu.bss
                0x10025cf1        0x0 /nfs/site/disks/xne_abc_fe_002/fw_tools/RJ-2023.2-linux/HWC_RCS_LX7_0p5_RJ2/xtensa-elf/arch/lib//libhandlers-board.a(memctl_default.o)
 .rtos.percpu.bss
                0x10025cf1        0x0 /nfs/site/disks/xne_abc_fe_002/fw_tools/RJ-2023.2-linux/HWC_RCS_LX7_0p5_RJ2/xtensa-elf/arch/lib//libhandlers-board.a(xtos-interrupt-enable.o)
 .rtos.percpu.bss
                0x10025cf1        0x0 /nfs/site/disks/xne_abc_fe_002/fw_tools/RJ-2023.2-linux/HWC_RCS_LX7_0p5_RJ2/xtensa-elf/arch/lib//libhandlers-board.a(xtos-interrupt-disable.o)
 .rtos.percpu.bss
                0x10025cf1        0x0 /nfs/site/disks/xne_abc_fe_002/fw_tools/RJ-2023.2-linux/HWC_RCS_LX7_0p5_RJ2/xtensa-elf/arch/lib//libhandlers-board.a(xtos-set-inthandler.o)
 .rtos.percpu.bss
                0x10025cf1        0x0 /nfs/site/disks/xne_abc_fe_002/fw_tools/RJ-2023.2-linux/HWC_RCS_LX7_0p5_RJ2/xtensa-elf/arch/lib//libhandlers-board.a(exc-syscall-handler.o)
 .rtos.percpu.bss
                0x10025cf1        0x0 /nfs/site/disks/xne_abc_fe_002/fw_tools/RJ-2023.2-linux/HWC_RCS_LX7_0p5_RJ2/xtensa-elf/arch/lib//libhandlers-board.a(memerror-vector-S--vector-.o)
 .rtos.percpu.bss
                0x10025cf1        0x0 /nfs/site/disks/xne_abc_fe_002/fw_tools/RJ-2023.2-linux/HWC_RCS_LX7_0p5_RJ2/xtensa-elf/arch/lib//libhandlers-board.a(nmi-vector.o)
 .rtos.percpu.bss
                0x10025cf1        0x0 /nfs/site/disks/xne_abc_fe_002/fw_tools/RJ-2023.2-linux/HWC_RCS_LX7_0p5_RJ2/xtensa-elf/arch/lib//libhandlers-board.a(window-vectors.o)
 .rtos.percpu.bss
                0x10025cf1        0x0 /nfs/site/disks/xne_abc_fe_002/fw_tools/RJ-2023.2-linux/HWC_RCS_LX7_0p5_RJ2/xtensa-elf/arch/lib//libhandlers-board.a(int-vector-level2.o)
 .rtos.percpu.bss
                0x10025cf1        0x0 /nfs/site/disks/xne_abc_fe_002/fw_tools/RJ-2023.2-linux/HWC_RCS_LX7_0p5_RJ2/xtensa-elf/arch/lib//libhandlers-board.a(int-vector-level3.o)
 .rtos.percpu.bss
                0x10025cf1        0x0 /nfs/site/disks/xne_abc_fe_002/fw_tools/RJ-2023.2-linux/HWC_RCS_LX7_0p5_RJ2/xtensa-elf/arch/lib//libhandlers-board.a(int-vector-level4.o)
 .rtos.percpu.bss
                0x10025cf1        0x0 /nfs/site/disks/xne_abc_fe_002/fw_tools/RJ-2023.2-linux/HWC_RCS_LX7_0p5_RJ2/xtensa-elf/arch/lib//libhandlers-board.a(int-handler-level2.o)
 .rtos.percpu.bss
                0x10025cf1        0x0 /nfs/site/disks/xne_abc_fe_002/fw_tools/RJ-2023.2-linux/HWC_RCS_LX7_0p5_RJ2/xtensa-elf/arch/lib//libhandlers-board.a(int-handler-level3.o)
 *fill*         0x10025cf1        0xf 
 .rtos.percpu.bss
                0x10025d00      0x54c /nfs/site/disks/xne_abc_fe_002/fw_tools/RJ-2023.2-linux/HWC_RCS_LX7_0p5_RJ2/xtensa-elf/arch/lib//libhandlers-board.a(int-handler-level4.o)
                0x10025d00                _Pri_4_Stack
                0x10026100                _Pri_4_SaveArea
 .rtos.percpu.bss
                0x1002624c        0x0 /nfs/site/disks/xne_abc_fe_002/fw_tools/RJ-2023.2-linux/HWC_RCS_LX7_0p5_RJ2/xtensa-elf/arch/lib//libhandlers-board.a(int-lowpri-dispatcher.o)
 .rtos.percpu.bss
                0x1002624c        0x0 /nfs/site/disks/xne_abc_fe_002/fw_tools/RJ-2023.2-linux/HWC_RCS_LX7_0p5_RJ2/xtensa-elf/arch/lib//libhandlers-board.a(exc-return.o)
 *(.rtos.bss)
 .rtos.bss      0x1002624c        0x0 /nfs/site/disks/xne_abc_fe_002/fw_tools/RJ-2023.2-linux/HWC_RCS_LX7_0p5_RJ2/xtensa-elf/arch/lib//libhal.a(clock.o)
 .rtos.bss      0x1002624c        0x0 /nfs/site/disks/xne_abc_fe_002/fw_tools/RJ-2023.2-linux/HWC_RCS_LX7_0p5_RJ2/xtensa-elf/arch/lib//libhal.a(cache_asm--hw_configid0.o)
 .rtos.bss      0x1002624c        0x0 /nfs/site/disks/xne_abc_fe_002/fw_tools/RJ-2023.2-linux/HWC_RCS_LX7_0p5_RJ2/xtensa-elf/arch/lib//libhal.a(cache_asm--hw_configid1.o)
 .rtos.bss      0x1002624c        0x0 /nfs/site/disks/xne_abc_fe_002/fw_tools/RJ-2023.2-linux/HWC_RCS_LX7_0p5_RJ2/xtensa-elf/arch/lib//libhal.a(cache_asm--release_major.o)
 .rtos.bss      0x1002624c        0x0 /nfs/site/disks/xne_abc_fe_002/fw_tools/RJ-2023.2-linux/HWC_RCS_LX7_0p5_RJ2/xtensa-elf/arch/lib//libhal.a(cache_asm--release_minor.o)
 .rtos.bss      0x1002624c        0x0 /nfs/site/disks/xne_abc_fe_002/fw_tools/RJ-2023.2-linux/HWC_RCS_LX7_0p5_RJ2/xtensa-elf/arch/lib//libhal.a(const--intlevel.o)
 *(.dram0.bss)
                0x10026250                . = ALIGN (0x8)
 *fill*         0x1002624c        0x4 
                0x10026250                _bss_end = ABSOLUTE (.)
                0x10026250                _memmap_seg_dram0_1_end = ALIGN (0x8)
                0x1003d000                _end = 0x1003d000
                [!provide]                        PROVIDE (end = 0x1003d000)
                0x1003f000                _heap_sentry = 0x1003f000
                0x1003f000                _stack_sentry = 0x1003f000
                0x10040000                PROVIDE (__stack = 0x10040000)
                0x10026250                _memmap_mem_dram0_max = ABSOLUTE (.)

.debug
 *(.debug)

.line
 *(.line)

.debug_srcinfo
 *(.debug_srcinfo)

.debug_sfnames
 *(.debug_sfnames)

.debug_aranges  0x00000000      0x2c0
 *(.debug_aranges)
 .debug_aranges
                0x00000000       0x20 /nfs/site/disks/xne_abc_fe_002/fw_tools/RJ-2023.2-linux/HWC_RCS_LX7_0p5_RJ2/xtensa-elf/arch/lib/crt1-tiny.o
 .debug_aranges
                0x00000020       0x20 /nfs/site/disks/xne_abc_fe_002/fw_tools/RJ-2023.2-linux/HWC_RCS_LX7_0p5_RJ2/xtensa-elf/lib//libc.a(memcpy.o)
 .debug_aranges
                0x00000040       0x20 /nfs/site/disks/xne_abc_fe_002/fw_tools/RJ-2023.2-linux/HWC_RCS_LX7_0p5_RJ2/xtensa-elf/lib//libc.a(memset.o)
 .debug_aranges
                0x00000060       0x20 /nfs/site/disks/xne_abc_fe_002/fw_tools/RJ-2023.2-linux/HWC_RCS_LX7_0p5_RJ2/xtensa-elf/lib/xcc//libgcc.a(_muldf3.o)
 .debug_aranges
                0x00000080       0x20 /nfs/site/disks/xne_abc_fe_002/fw_tools/RJ-2023.2-linux/HWC_RCS_LX7_0p5_RJ2/xtensa-elf/lib/xcc//libgcc.a(_fixunsdfdi.o)
 .debug_aranges
                0x000000a0       0x20 /nfs/site/disks/xne_abc_fe_002/fw_tools/RJ-2023.2-linux/HWC_RCS_LX7_0p5_RJ2/xtensa-elf/lib/xcc//libgcc.a(_floatsidf.o)
 .debug_aranges
                0x000000c0       0x20 /nfs/site/disks/xne_abc_fe_002/fw_tools/RJ-2023.2-linux/HWC_RCS_LX7_0p5_RJ2/xtensa-elf/lib/xcc//libgcc.a(_umulsidi3.o)
 .debug_aranges
                0x000000e0       0x20 /nfs/site/disks/xne_abc_fe_002/fw_tools/RJ-2023.2-linux/HWC_RCS_LX7_0p5_RJ2/xtensa-elf/arch/lib//libhandlers-board.a(debug-vector.o)
 .debug_aranges
                0x00000100       0x20 /nfs/site/disks/xne_abc_fe_002/fw_tools/RJ-2023.2-linux/HWC_RCS_LX7_0p5_RJ2/xtensa-elf/arch/lib//libhandlers-board.a(reset-vector-unpack.o)
 .debug_aranges
                0x00000120       0x20 /nfs/site/disks/xne_abc_fe_002/fw_tools/RJ-2023.2-linux/HWC_RCS_LX7_0p5_RJ2/xtensa-elf/arch/lib//libhandlers-board.a(exc-syscall-handler.o)
 .debug_aranges
                0x00000140       0x20 /nfs/site/disks/xne_abc_fe_002/fw_tools/RJ-2023.2-linux/HWC_RCS_LX7_0p5_RJ2/xtensa-elf/arch/lib//libhandlers-board.a(memerror-vector-S--vector-.o)
 .debug_aranges
                0x00000160       0x20 /nfs/site/disks/xne_abc_fe_002/fw_tools/RJ-2023.2-linux/HWC_RCS_LX7_0p5_RJ2/xtensa-elf/arch/lib//libhandlers-board.a(nmi-vector.o)
 .debug_aranges
                0x00000180       0x20 /nfs/site/disks/xne_abc_fe_002/fw_tools/RJ-2023.2-linux/HWC_RCS_LX7_0p5_RJ2/xtensa-elf/arch/lib//libhandlers-board.a(window-vectors.o)
 .debug_aranges
                0x000001a0       0x20 /nfs/site/disks/xne_abc_fe_002/fw_tools/RJ-2023.2-linux/HWC_RCS_LX7_0p5_RJ2/xtensa-elf/arch/lib//libhandlers-board.a(int-vector-level2.o)
 .debug_aranges
                0x000001c0       0x20 /nfs/site/disks/xne_abc_fe_002/fw_tools/RJ-2023.2-linux/HWC_RCS_LX7_0p5_RJ2/xtensa-elf/arch/lib//libhandlers-board.a(int-vector-level3.o)
 .debug_aranges
                0x000001e0       0x20 /nfs/site/disks/xne_abc_fe_002/fw_tools/RJ-2023.2-linux/HWC_RCS_LX7_0p5_RJ2/xtensa-elf/arch/lib//libhandlers-board.a(int-vector-level4.o)
 .debug_aranges
                0x00000200       0x20 /nfs/site/disks/xne_abc_fe_002/fw_tools/RJ-2023.2-linux/HWC_RCS_LX7_0p5_RJ2/xtensa-elf/arch/lib//libhandlers-board.a(int-handler-level2.o)
 .debug_aranges
                0x00000220       0x20 /nfs/site/disks/xne_abc_fe_002/fw_tools/RJ-2023.2-linux/HWC_RCS_LX7_0p5_RJ2/xtensa-elf/arch/lib//libhandlers-board.a(int-handler-level3.o)
 .debug_aranges
                0x00000240       0x20 /nfs/site/disks/xne_abc_fe_002/fw_tools/RJ-2023.2-linux/HWC_RCS_LX7_0p5_RJ2/xtensa-elf/arch/lib//libhandlers-board.a(int-handler-level4.o)
 .debug_aranges
                0x00000260       0x20 /nfs/site/disks/xne_abc_fe_002/fw_tools/RJ-2023.2-linux/HWC_RCS_LX7_0p5_RJ2/xtensa-elf/arch/lib//libhandlers-board.a(int-lowpri-dispatcher.o)
 .debug_aranges
                0x00000280       0x20 /nfs/site/disks/xne_abc_fe_002/fw_tools/RJ-2023.2-linux/HWC_RCS_LX7_0p5_RJ2/xtensa-elf/arch/lib//libhandlers-board.a(exc-return.o)
 .debug_aranges
                0x000002a0       0x20 /nfs/site/disks/xne_abc_fe_002/fw_tools/RJ-2023.2-linux/HWC_RCS_LX7_0p5_RJ2/xtensa-elf/arch/lib//libhal.a(clock.o)

.debug_ranges   0x00000000      0x330
 *(.debug_ranges)
 .debug_ranges  0x00000000       0x78 /nfs/site/disks/xne_abc_fe_002/fw_tools/RJ-2023.2-linux/HWC_RCS_LX7_0p5_RJ2/xtensa-elf/lib/xcc//libgcc.a(_udivdi3.o)
 .debug_ranges  0x00000078      0x280 /nfs/site/disks/xne_abc_fe_002/fw_tools/RJ-2023.2-linux/HWC_RCS_LX7_0p5_RJ2/xtensa-elf/lib/xcc//libgcc.a(softfloat_div_df.o)
 .debug_ranges  0x000002f8       0x38 /nfs/site/disks/xne_abc_fe_002/fw_tools/RJ-2023.2-linux/HWC_RCS_LX7_0p5_RJ2/xtensa-elf/lib/xcc//libgcc.a(softfloat_cmn_df.o)

.debug_pubnames
 *(.debug_pubnames)

.debug_info     0x00000000     0x247f
 *(.debug_info)
 .debug_info    0x00000000       0x26 /nfs/site/disks/xne_abc_fe_002/fw_tools/RJ-2023.2-linux/HWC_RCS_LX7_0p5_RJ2/xtensa-elf/arch/lib/crt1-tiny.o
 .debug_info    0x00000026       0x26 /nfs/site/disks/xne_abc_fe_002/fw_tools/RJ-2023.2-linux/HWC_RCS_LX7_0p5_RJ2/xtensa-elf/lib//libc.a(memcpy.o)
 .debug_info    0x0000004c       0x26 /nfs/site/disks/xne_abc_fe_002/fw_tools/RJ-2023.2-linux/HWC_RCS_LX7_0p5_RJ2/xtensa-elf/lib//libc.a(memset.o)
 .debug_info    0x00000072       0x26 /nfs/site/disks/xne_abc_fe_002/fw_tools/RJ-2023.2-linux/HWC_RCS_LX7_0p5_RJ2/xtensa-elf/lib/xcc//libgcc.a(_muldf3.o)
 .debug_info    0x00000098       0x26 /nfs/site/disks/xne_abc_fe_002/fw_tools/RJ-2023.2-linux/HWC_RCS_LX7_0p5_RJ2/xtensa-elf/lib/xcc//libgcc.a(_fixunsdfdi.o)
 .debug_info    0x000000be       0x26 /nfs/site/disks/xne_abc_fe_002/fw_tools/RJ-2023.2-linux/HWC_RCS_LX7_0p5_RJ2/xtensa-elf/lib/xcc//libgcc.a(_floatsidf.o)
 .debug_info    0x000000e4      0x119 /nfs/site/disks/xne_abc_fe_002/fw_tools/RJ-2023.2-linux/HWC_RCS_LX7_0p5_RJ2/xtensa-elf/lib/xcc//libgcc.a(_muldi3.o)
 .debug_info    0x000001fd      0x53d /nfs/site/disks/xne_abc_fe_002/fw_tools/RJ-2023.2-linux/HWC_RCS_LX7_0p5_RJ2/xtensa-elf/lib/xcc//libgcc.a(_udivdi3.o)
 .debug_info    0x0000073a      0xea6 /nfs/site/disks/xne_abc_fe_002/fw_tools/RJ-2023.2-linux/HWC_RCS_LX7_0p5_RJ2/xtensa-elf/lib/xcc//libgcc.a(softfloat_div_df.o)
 .debug_info    0x000015e0       0x26 /nfs/site/disks/xne_abc_fe_002/fw_tools/RJ-2023.2-linux/HWC_RCS_LX7_0p5_RJ2/xtensa-elf/lib/xcc//libgcc.a(_umulsidi3.o)
 .debug_info    0x00001606       0x42 /nfs/site/disks/xne_abc_fe_002/fw_tools/RJ-2023.2-linux/HWC_RCS_LX7_0p5_RJ2/xtensa-elf/lib/xcc//libgcc.a(softfloat_cmn.o)
 .debug_info    0x00001648      0x5f0 /nfs/site/disks/xne_abc_fe_002/fw_tools/RJ-2023.2-linux/HWC_RCS_LX7_0p5_RJ2/xtensa-elf/lib/xcc//libgcc.a(softfloat_cmn_df.o)
 .debug_info    0x00001c38      0x319 /nfs/site/disks/xne_abc_fe_002/fw_tools/RJ-2023.2-linux/HWC_RCS_LX7_0p5_RJ2/xtensa-elf/lib/xcc//libgcc.a(softfloat_cmn_div.o)
 .debug_info    0x00001f51       0x26 /nfs/site/disks/xne_abc_fe_002/fw_tools/RJ-2023.2-linux/HWC_RCS_LX7_0p5_RJ2/xtensa-elf/arch/lib//libhandlers-board.a(debug-vector.o)
 .debug_info    0x00001f77       0x26 /nfs/site/disks/xne_abc_fe_002/fw_tools/RJ-2023.2-linux/HWC_RCS_LX7_0p5_RJ2/xtensa-elf/arch/lib//libhandlers-board.a(reset-vector-unpack.o)
 .debug_info    0x00001f9d       0xa6 /nfs/site/disks/xne_abc_fe_002/fw_tools/RJ-2023.2-linux/HWC_RCS_LX7_0p5_RJ2/xtensa-elf/arch/lib//libhandlers-board.a(xtos-interrupt-enable.o)
 .debug_info    0x00002043       0xa6 /nfs/site/disks/xne_abc_fe_002/fw_tools/RJ-2023.2-linux/HWC_RCS_LX7_0p5_RJ2/xtensa-elf/arch/lib//libhandlers-board.a(xtos-interrupt-disable.o)
 .debug_info    0x000020e9      0x14e /nfs/site/disks/xne_abc_fe_002/fw_tools/RJ-2023.2-linux/HWC_RCS_LX7_0p5_RJ2/xtensa-elf/arch/lib//libhandlers-board.a(xtos-set-inthandler.o)
 .debug_info    0x00002237       0x26 /nfs/site/disks/xne_abc_fe_002/fw_tools/RJ-2023.2-linux/HWC_RCS_LX7_0p5_RJ2/xtensa-elf/arch/lib//libhandlers-board.a(exc-syscall-handler.o)
 .debug_info    0x0000225d       0x26 /nfs/site/disks/xne_abc_fe_002/fw_tools/RJ-2023.2-linux/HWC_RCS_LX7_0p5_RJ2/xtensa-elf/arch/lib//libhandlers-board.a(memerror-vector-S--vector-.o)
 .debug_info    0x00002283       0x26 /nfs/site/disks/xne_abc_fe_002/fw_tools/RJ-2023.2-linux/HWC_RCS_LX7_0p5_RJ2/xtensa-elf/arch/lib//libhandlers-board.a(nmi-vector.o)
 .debug_info    0x000022a9       0x26 /nfs/site/disks/xne_abc_fe_002/fw_tools/RJ-2023.2-linux/HWC_RCS_LX7_0p5_RJ2/xtensa-elf/arch/lib//libhandlers-board.a(window-vectors.o)
 .debug_info    0x000022cf       0x26 /nfs/site/disks/xne_abc_fe_002/fw_tools/RJ-2023.2-linux/HWC_RCS_LX7_0p5_RJ2/xtensa-elf/arch/lib//libhandlers-board.a(int-vector-level2.o)
 .debug_info    0x000022f5       0x26 /nfs/site/disks/xne_abc_fe_002/fw_tools/RJ-2023.2-linux/HWC_RCS_LX7_0p5_RJ2/xtensa-elf/arch/lib//libhandlers-board.a(int-vector-level3.o)
 .debug_info    0x0000231b       0x26 /nfs/site/disks/xne_abc_fe_002/fw_tools/RJ-2023.2-linux/HWC_RCS_LX7_0p5_RJ2/xtensa-elf/arch/lib//libhandlers-board.a(int-vector-level4.o)
 .debug_info    0x00002341       0x26 /nfs/site/disks/xne_abc_fe_002/fw_tools/RJ-2023.2-linux/HWC_RCS_LX7_0p5_RJ2/xtensa-elf/arch/lib//libhandlers-board.a(int-handler-level2.o)
 .debug_info    0x00002367       0x26 /nfs/site/disks/xne_abc_fe_002/fw_tools/RJ-2023.2-linux/HWC_RCS_LX7_0p5_RJ2/xtensa-elf/arch/lib//libhandlers-board.a(int-handler-level3.o)
 .debug_info    0x0000238d       0x26 /nfs/site/disks/xne_abc_fe_002/fw_tools/RJ-2023.2-linux/HWC_RCS_LX7_0p5_RJ2/xtensa-elf/arch/lib//libhandlers-board.a(int-handler-level4.o)
 .debug_info    0x000023b3       0x26 /nfs/site/disks/xne_abc_fe_002/fw_tools/RJ-2023.2-linux/HWC_RCS_LX7_0p5_RJ2/xtensa-elf/arch/lib//libhandlers-board.a(int-lowpri-dispatcher.o)
 .debug_info    0x000023d9       0x26 /nfs/site/disks/xne_abc_fe_002/fw_tools/RJ-2023.2-linux/HWC_RCS_LX7_0p5_RJ2/xtensa-elf/arch/lib//libhandlers-board.a(exc-return.o)
 .debug_info    0x000023ff       0x26 /nfs/site/disks/xne_abc_fe_002/fw_tools/RJ-2023.2-linux/HWC_RCS_LX7_0p5_RJ2/xtensa-elf/arch/lib//libhal.a(clock.o)
 .debug_info    0x00002425       0x5a /nfs/site/disks/xne_abc_fe_002/fw_tools/RJ-2023.2-linux/HWC_RCS_LX7_0p5_RJ2/xtensa-elf/arch/lib//libhal.a(const--intlevel.o)

.debug_abbrev   0x00000000      0x9ac
 *(.debug_abbrev)
 .debug_abbrev  0x00000000       0x14 /nfs/site/disks/xne_abc_fe_002/fw_tools/RJ-2023.2-linux/HWC_RCS_LX7_0p5_RJ2/xtensa-elf/arch/lib/crt1-tiny.o
 .debug_abbrev  0x00000014       0x14 /nfs/site/disks/xne_abc_fe_002/fw_tools/RJ-2023.2-linux/HWC_RCS_LX7_0p5_RJ2/xtensa-elf/lib//libc.a(memcpy.o)
 .debug_abbrev  0x00000028       0x14 /nfs/site/disks/xne_abc_fe_002/fw_tools/RJ-2023.2-linux/HWC_RCS_LX7_0p5_RJ2/xtensa-elf/lib//libc.a(memset.o)
 .debug_abbrev  0x0000003c       0x14 /nfs/site/disks/xne_abc_fe_002/fw_tools/RJ-2023.2-linux/HWC_RCS_LX7_0p5_RJ2/xtensa-elf/lib/xcc//libgcc.a(_muldf3.o)
 .debug_abbrev  0x00000050       0x14 /nfs/site/disks/xne_abc_fe_002/fw_tools/RJ-2023.2-linux/HWC_RCS_LX7_0p5_RJ2/xtensa-elf/lib/xcc//libgcc.a(_fixunsdfdi.o)
 .debug_abbrev  0x00000064       0x14 /nfs/site/disks/xne_abc_fe_002/fw_tools/RJ-2023.2-linux/HWC_RCS_LX7_0p5_RJ2/xtensa-elf/lib/xcc//libgcc.a(_floatsidf.o)
 .debug_abbrev  0x00000078       0x9f /nfs/site/disks/xne_abc_fe_002/fw_tools/RJ-2023.2-linux/HWC_RCS_LX7_0p5_RJ2/xtensa-elf/lib/xcc//libgcc.a(_muldi3.o)
 .debug_abbrev  0x00000117       0xfa /nfs/site/disks/xne_abc_fe_002/fw_tools/RJ-2023.2-linux/HWC_RCS_LX7_0p5_RJ2/xtensa-elf/lib/xcc//libgcc.a(_udivdi3.o)
 .debug_abbrev  0x00000211      0x1a2 /nfs/site/disks/xne_abc_fe_002/fw_tools/RJ-2023.2-linux/HWC_RCS_LX7_0p5_RJ2/xtensa-elf/lib/xcc//libgcc.a(softfloat_div_df.o)
 .debug_abbrev  0x000003b3       0x14 /nfs/site/disks/xne_abc_fe_002/fw_tools/RJ-2023.2-linux/HWC_RCS_LX7_0p5_RJ2/xtensa-elf/lib/xcc//libgcc.a(_umulsidi3.o)
 .debug_abbrev  0x000003c7       0x39 /nfs/site/disks/xne_abc_fe_002/fw_tools/RJ-2023.2-linux/HWC_RCS_LX7_0p5_RJ2/xtensa-elf/lib/xcc//libgcc.a(softfloat_cmn.o)
 .debug_abbrev  0x00000400      0x1b9 /nfs/site/disks/xne_abc_fe_002/fw_tools/RJ-2023.2-linux/HWC_RCS_LX7_0p5_RJ2/xtensa-elf/lib/xcc//libgcc.a(softfloat_cmn_df.o)
 .debug_abbrev  0x000005b9       0xc9 /nfs/site/disks/xne_abc_fe_002/fw_tools/RJ-2023.2-linux/HWC_RCS_LX7_0p5_RJ2/xtensa-elf/lib/xcc//libgcc.a(softfloat_cmn_div.o)
 .debug_abbrev  0x00000682       0x14 /nfs/site/disks/xne_abc_fe_002/fw_tools/RJ-2023.2-linux/HWC_RCS_LX7_0p5_RJ2/xtensa-elf/arch/lib//libhandlers-board.a(debug-vector.o)
 .debug_abbrev  0x00000696       0x14 /nfs/site/disks/xne_abc_fe_002/fw_tools/RJ-2023.2-linux/HWC_RCS_LX7_0p5_RJ2/xtensa-elf/arch/lib//libhandlers-board.a(reset-vector-unpack.o)
 .debug_abbrev  0x000006aa       0x71 /nfs/site/disks/xne_abc_fe_002/fw_tools/RJ-2023.2-linux/HWC_RCS_LX7_0p5_RJ2/xtensa-elf/arch/lib//libhandlers-board.a(xtos-interrupt-enable.o)
 .debug_abbrev  0x0000071b       0x71 /nfs/site/disks/xne_abc_fe_002/fw_tools/RJ-2023.2-linux/HWC_RCS_LX7_0p5_RJ2/xtensa-elf/arch/lib//libhandlers-board.a(xtos-interrupt-disable.o)
 .debug_abbrev  0x0000078c       0xc1 /nfs/site/disks/xne_abc_fe_002/fw_tools/RJ-2023.2-linux/HWC_RCS_LX7_0p5_RJ2/xtensa-elf/arch/lib//libhandlers-board.a(xtos-set-inthandler.o)
 .debug_abbrev  0x0000084d       0x14 /nfs/site/disks/xne_abc_fe_002/fw_tools/RJ-2023.2-linux/HWC_RCS_LX7_0p5_RJ2/xtensa-elf/arch/lib//libhandlers-board.a(exc-syscall-handler.o)
 .debug_abbrev  0x00000861       0x14 /nfs/site/disks/xne_abc_fe_002/fw_tools/RJ-2023.2-linux/HWC_RCS_LX7_0p5_RJ2/xtensa-elf/arch/lib//libhandlers-board.a(memerror-vector-S--vector-.o)
 .debug_abbrev  0x00000875       0x14 /nfs/site/disks/xne_abc_fe_002/fw_tools/RJ-2023.2-linux/HWC_RCS_LX7_0p5_RJ2/xtensa-elf/arch/lib//libhandlers-board.a(nmi-vector.o)
 .debug_abbrev  0x00000889       0x14 /nfs/site/disks/xne_abc_fe_002/fw_tools/RJ-2023.2-linux/HWC_RCS_LX7_0p5_RJ2/xtensa-elf/arch/lib//libhandlers-board.a(window-vectors.o)
 .debug_abbrev  0x0000089d       0x14 /nfs/site/disks/xne_abc_fe_002/fw_tools/RJ-2023.2-linux/HWC_RCS_LX7_0p5_RJ2/xtensa-elf/arch/lib//libhandlers-board.a(int-vector-level2.o)
 .debug_abbrev  0x000008b1       0x14 /nfs/site/disks/xne_abc_fe_002/fw_tools/RJ-2023.2-linux/HWC_RCS_LX7_0p5_RJ2/xtensa-elf/arch/lib//libhandlers-board.a(int-vector-level3.o)
 .debug_abbrev  0x000008c5       0x14 /nfs/site/disks/xne_abc_fe_002/fw_tools/RJ-2023.2-linux/HWC_RCS_LX7_0p5_RJ2/xtensa-elf/arch/lib//libhandlers-board.a(int-vector-level4.o)
 .debug_abbrev  0x000008d9       0x14 /nfs/site/disks/xne_abc_fe_002/fw_tools/RJ-2023.2-linux/HWC_RCS_LX7_0p5_RJ2/xtensa-elf/arch/lib//libhandlers-board.a(int-handler-level2.o)
 .debug_abbrev  0x000008ed       0x14 /nfs/site/disks/xne_abc_fe_002/fw_tools/RJ-2023.2-linux/HWC_RCS_LX7_0p5_RJ2/xtensa-elf/arch/lib//libhandlers-board.a(int-handler-level3.o)
 .debug_abbrev  0x00000901       0x14 /nfs/site/disks/xne_abc_fe_002/fw_tools/RJ-2023.2-linux/HWC_RCS_LX7_0p5_RJ2/xtensa-elf/arch/lib//libhandlers-board.a(int-handler-level4.o)
 .debug_abbrev  0x00000915       0x14 /nfs/site/disks/xne_abc_fe_002/fw_tools/RJ-2023.2-linux/HWC_RCS_LX7_0p5_RJ2/xtensa-elf/arch/lib//libhandlers-board.a(int-lowpri-dispatcher.o)
 .debug_abbrev  0x00000929       0x14 /nfs/site/disks/xne_abc_fe_002/fw_tools/RJ-2023.2-linux/HWC_RCS_LX7_0p5_RJ2/xtensa-elf/arch/lib//libhandlers-board.a(exc-return.o)
 .debug_abbrev  0x0000093d       0x14 /nfs/site/disks/xne_abc_fe_002/fw_tools/RJ-2023.2-linux/HWC_RCS_LX7_0p5_RJ2/xtensa-elf/arch/lib//libhal.a(clock.o)
 .debug_abbrev  0x00000951       0x5b /nfs/site/disks/xne_abc_fe_002/fw_tools/RJ-2023.2-linux/HWC_RCS_LX7_0p5_RJ2/xtensa-elf/arch/lib//libhal.a(const--intlevel.o)

.debug_line     0x00000000     0x4056
 *(.debug_line)
 .debug_line    0x00000000       0xe6 /nfs/site/disks/xne_abc_fe_002/fw_tools/RJ-2023.2-linux/HWC_RCS_LX7_0p5_RJ2/xtensa-elf/arch/lib/crt1-tiny.o
 .debug_line    0x000000e6      0x348 /nfs/site/disks/xne_abc_fe_002/fw_tools/RJ-2023.2-linux/HWC_RCS_LX7_0p5_RJ2/xtensa-elf/lib//libc.a(memcpy.o)
 .debug_line    0x0000042e      0x180 /nfs/site/disks/xne_abc_fe_002/fw_tools/RJ-2023.2-linux/HWC_RCS_LX7_0p5_RJ2/xtensa-elf/lib//libc.a(memset.o)
 .debug_line    0x000005ae      0x60d /nfs/site/disks/xne_abc_fe_002/fw_tools/RJ-2023.2-linux/HWC_RCS_LX7_0p5_RJ2/xtensa-elf/lib/xcc//libgcc.a(_muldf3.o)
 .debug_line    0x00000bbb      0x197 /nfs/site/disks/xne_abc_fe_002/fw_tools/RJ-2023.2-linux/HWC_RCS_LX7_0p5_RJ2/xtensa-elf/lib/xcc//libgcc.a(_fixunsdfdi.o)
 .debug_line    0x00000d52      0x11f /nfs/site/disks/xne_abc_fe_002/fw_tools/RJ-2023.2-linux/HWC_RCS_LX7_0p5_RJ2/xtensa-elf/lib/xcc//libgcc.a(_floatsidf.o)
 .debug_line    0x00000e71       0xd8 /nfs/site/disks/xne_abc_fe_002/fw_tools/RJ-2023.2-linux/HWC_RCS_LX7_0p5_RJ2/xtensa-elf/lib/xcc//libgcc.a(_muldi3.o)
 .debug_line    0x00000f49      0x34b /nfs/site/disks/xne_abc_fe_002/fw_tools/RJ-2023.2-linux/HWC_RCS_LX7_0p5_RJ2/xtensa-elf/lib/xcc//libgcc.a(_udivdi3.o)
 .debug_line    0x00001294      0x84a /nfs/site/disks/xne_abc_fe_002/fw_tools/RJ-2023.2-linux/HWC_RCS_LX7_0p5_RJ2/xtensa-elf/lib/xcc//libgcc.a(softfloat_div_df.o)
 .debug_line    0x00001ade      0x115 /nfs/site/disks/xne_abc_fe_002/fw_tools/RJ-2023.2-linux/HWC_RCS_LX7_0p5_RJ2/xtensa-elf/lib/xcc//libgcc.a(_umulsidi3.o)
 .debug_line    0x00001bf3       0xb0 /nfs/site/disks/xne_abc_fe_002/fw_tools/RJ-2023.2-linux/HWC_RCS_LX7_0p5_RJ2/xtensa-elf/lib/xcc//libgcc.a(softfloat_cmn.o)
 .debug_line    0x00001ca3      0x4b2 /nfs/site/disks/xne_abc_fe_002/fw_tools/RJ-2023.2-linux/HWC_RCS_LX7_0p5_RJ2/xtensa-elf/lib/xcc//libgcc.a(softfloat_cmn_df.o)
 .debug_line    0x00002155      0x1ae /nfs/site/disks/xne_abc_fe_002/fw_tools/RJ-2023.2-linux/HWC_RCS_LX7_0p5_RJ2/xtensa-elf/lib/xcc//libgcc.a(softfloat_cmn_div.o)
 .debug_line    0x00002303       0xa5 /nfs/site/disks/xne_abc_fe_002/fw_tools/RJ-2023.2-linux/HWC_RCS_LX7_0p5_RJ2/xtensa-elf/arch/lib//libhandlers-board.a(debug-vector.o)
 .debug_line    0x000023a8      0x27a /nfs/site/disks/xne_abc_fe_002/fw_tools/RJ-2023.2-linux/HWC_RCS_LX7_0p5_RJ2/xtensa-elf/arch/lib//libhandlers-board.a(reset-vector-unpack.o)
 .debug_line    0x00002622      0x233 /nfs/site/disks/xne_abc_fe_002/fw_tools/RJ-2023.2-linux/HWC_RCS_LX7_0p5_RJ2/xtensa-elf/arch/lib//libhandlers-board.a(xtos-interrupt-enable.o)
 .debug_line    0x00002855      0x23e /nfs/site/disks/xne_abc_fe_002/fw_tools/RJ-2023.2-linux/HWC_RCS_LX7_0p5_RJ2/xtensa-elf/arch/lib//libhandlers-board.a(xtos-interrupt-disable.o)
 .debug_line    0x00002a93      0x295 /nfs/site/disks/xne_abc_fe_002/fw_tools/RJ-2023.2-linux/HWC_RCS_LX7_0p5_RJ2/xtensa-elf/arch/lib//libhandlers-board.a(xtos-set-inthandler.o)
 .debug_line    0x00002d28      0x1bb /nfs/site/disks/xne_abc_fe_002/fw_tools/RJ-2023.2-linux/HWC_RCS_LX7_0p5_RJ2/xtensa-elf/arch/lib//libhandlers-board.a(exc-syscall-handler.o)
 .debug_line    0x00002ee3       0xcd /nfs/site/disks/xne_abc_fe_002/fw_tools/RJ-2023.2-linux/HWC_RCS_LX7_0p5_RJ2/xtensa-elf/arch/lib//libhandlers-board.a(memerror-vector-S--vector-.o)
 .debug_line    0x00002fb0       0x91 /nfs/site/disks/xne_abc_fe_002/fw_tools/RJ-2023.2-linux/HWC_RCS_LX7_0p5_RJ2/xtensa-elf/arch/lib//libhandlers-board.a(nmi-vector.o)
 .debug_line    0x00003041      0x26a /nfs/site/disks/xne_abc_fe_002/fw_tools/RJ-2023.2-linux/HWC_RCS_LX7_0p5_RJ2/xtensa-elf/arch/lib//libhandlers-board.a(window-vectors.o)
 .debug_line    0x000032ab       0x97 /nfs/site/disks/xne_abc_fe_002/fw_tools/RJ-2023.2-linux/HWC_RCS_LX7_0p5_RJ2/xtensa-elf/arch/lib//libhandlers-board.a(int-vector-level2.o)
 .debug_line    0x00003342       0x97 /nfs/site/disks/xne_abc_fe_002/fw_tools/RJ-2023.2-linux/HWC_RCS_LX7_0p5_RJ2/xtensa-elf/arch/lib//libhandlers-board.a(int-vector-level3.o)
 .debug_line    0x000033d9       0x97 /nfs/site/disks/xne_abc_fe_002/fw_tools/RJ-2023.2-linux/HWC_RCS_LX7_0p5_RJ2/xtensa-elf/arch/lib//libhandlers-board.a(int-vector-level4.o)
 .debug_line    0x00003470      0x1e1 /nfs/site/disks/xne_abc_fe_002/fw_tools/RJ-2023.2-linux/HWC_RCS_LX7_0p5_RJ2/xtensa-elf/arch/lib//libhandlers-board.a(int-handler-level2.o)
 .debug_line    0x00003651      0x17b /nfs/site/disks/xne_abc_fe_002/fw_tools/RJ-2023.2-linux/HWC_RCS_LX7_0p5_RJ2/xtensa-elf/arch/lib//libhandlers-board.a(int-handler-level3.o)
 .debug_line    0x000037cc      0x339 /nfs/site/disks/xne_abc_fe_002/fw_tools/RJ-2023.2-linux/HWC_RCS_LX7_0p5_RJ2/xtensa-elf/arch/lib//libhandlers-board.a(int-handler-level4.o)
 .debug_line    0x00003b05      0x27a /nfs/site/disks/xne_abc_fe_002/fw_tools/RJ-2023.2-linux/HWC_RCS_LX7_0p5_RJ2/xtensa-elf/arch/lib//libhandlers-board.a(int-lowpri-dispatcher.o)
 .debug_line    0x00003d7f       0xc8 /nfs/site/disks/xne_abc_fe_002/fw_tools/RJ-2023.2-linux/HWC_RCS_LX7_0p5_RJ2/xtensa-elf/arch/lib//libhandlers-board.a(exc-return.o)
 .debug_line    0x00003e47      0x104 /nfs/site/disks/xne_abc_fe_002/fw_tools/RJ-2023.2-linux/HWC_RCS_LX7_0p5_RJ2/xtensa-elf/arch/lib//libhal.a(clock.o)
 .debug_line    0x00003f4b      0x10b /nfs/site/disks/xne_abc_fe_002/fw_tools/RJ-2023.2-linux/HWC_RCS_LX7_0p5_RJ2/xtensa-elf/arch/lib//libhal.a(const--intlevel.o)

.debug_frame    0x00000000      0x154
 *(.debug_frame)
 .debug_frame   0x00000000       0x28 /nfs/site/disks/xne_abc_fe_002/fw_tools/RJ-2023.2-linux/HWC_RCS_LX7_0p5_RJ2/xtensa-elf/lib/xcc//libgcc.a(_muldi3.o)
 .debug_frame   0x00000028       0x28 /nfs/site/disks/xne_abc_fe_002/fw_tools/RJ-2023.2-linux/HWC_RCS_LX7_0p5_RJ2/xtensa-elf/lib/xcc//libgcc.a(_udivdi3.o)
 .debug_frame   0x00000050       0x28 /nfs/site/disks/xne_abc_fe_002/fw_tools/RJ-2023.2-linux/HWC_RCS_LX7_0p5_RJ2/xtensa-elf/lib/xcc//libgcc.a(softfloat_div_df.o)
 .debug_frame   0x00000078       0x3c /nfs/site/disks/xne_abc_fe_002/fw_tools/RJ-2023.2-linux/HWC_RCS_LX7_0p5_RJ2/xtensa-elf/lib/xcc//libgcc.a(softfloat_cmn_df.o)
 .debug_frame   0x000000b4       0x28 /nfs/site/disks/xne_abc_fe_002/fw_tools/RJ-2023.2-linux/HWC_RCS_LX7_0p5_RJ2/xtensa-elf/lib/xcc//libgcc.a(softfloat_cmn_div.o)
 .debug_frame   0x000000dc       0x28 /nfs/site/disks/xne_abc_fe_002/fw_tools/RJ-2023.2-linux/HWC_RCS_LX7_0p5_RJ2/xtensa-elf/arch/lib//libhandlers-board.a(xtos-interrupt-enable.o)
 .debug_frame   0x00000104       0x28 /nfs/site/disks/xne_abc_fe_002/fw_tools/RJ-2023.2-linux/HWC_RCS_LX7_0p5_RJ2/xtensa-elf/arch/lib//libhandlers-board.a(xtos-interrupt-disable.o)
 .debug_frame   0x0000012c       0x28 /nfs/site/disks/xne_abc_fe_002/fw_tools/RJ-2023.2-linux/HWC_RCS_LX7_0p5_RJ2/xtensa-elf/arch/lib//libhandlers-board.a(xtos-set-inthandler.o)

.debug_str      0x00000000     0x1278
 *(.debug_str)
 .debug_str     0x00000000       0xd0 /nfs/site/disks/xne_abc_fe_002/fw_tools/RJ-2023.2-linux/HWC_RCS_LX7_0p5_RJ2/xtensa-elf/arch/lib/crt1-tiny.o
 .debug_str     0x000000d0       0xc7 /nfs/site/disks/xne_abc_fe_002/fw_tools/RJ-2023.2-linux/HWC_RCS_LX7_0p5_RJ2/xtensa-elf/lib//libc.a(memcpy.o)
                                         0xd3 (size before relaxing)
 .debug_str     0x00000197       0x53 /nfs/site/disks/xne_abc_fe_002/fw_tools/RJ-2023.2-linux/HWC_RCS_LX7_0p5_RJ2/xtensa-elf/lib//libc.a(memset.o)
                                         0xd3 (size before relaxing)
 .debug_str     0x000001ea       0xdf /nfs/site/disks/xne_abc_fe_002/fw_tools/RJ-2023.2-linux/HWC_RCS_LX7_0p5_RJ2/xtensa-elf/lib/xcc//libgcc.a(_muldf3.o)
                                         0xeb (size before relaxing)
 .debug_str     0x000002c9       0xeb /nfs/site/disks/xne_abc_fe_002/fw_tools/RJ-2023.2-linux/HWC_RCS_LX7_0p5_RJ2/xtensa-elf/lib/xcc//libgcc.a(_fixunsdfdi.o)
 .debug_str     0x000002c9       0xeb /nfs/site/disks/xne_abc_fe_002/fw_tools/RJ-2023.2-linux/HWC_RCS_LX7_0p5_RJ2/xtensa-elf/lib/xcc//libgcc.a(_floatsidf.o)
 .debug_str     0x000002c9       0xbe /nfs/site/disks/xne_abc_fe_002/fw_tools/RJ-2023.2-linux/HWC_RCS_LX7_0p5_RJ2/xtensa-elf/lib/xcc//libgcc.a(_muldi3.o)
                                        0x15a (size before relaxing)
 .debug_str     0x00000387       0x79 /nfs/site/disks/xne_abc_fe_002/fw_tools/RJ-2023.2-linux/HWC_RCS_LX7_0p5_RJ2/xtensa-elf/lib/xcc//libgcc.a(_udivdi3.o)
                                        0x1d4 (size before relaxing)
 .debug_str     0x00000400      0x35a /nfs/site/disks/xne_abc_fe_002/fw_tools/RJ-2023.2-linux/HWC_RCS_LX7_0p5_RJ2/xtensa-elf/lib/xcc//libgcc.a(softfloat_div_df.o)
                                        0x428 (size before relaxing)
 .debug_str     0x0000075a       0x71 /nfs/site/disks/xne_abc_fe_002/fw_tools/RJ-2023.2-linux/HWC_RCS_LX7_0p5_RJ2/xtensa-elf/lib/xcc//libgcc.a(_umulsidi3.o)
                                         0xec (size before relaxing)
 .debug_str     0x000007cb       0x95 /nfs/site/disks/xne_abc_fe_002/fw_tools/RJ-2023.2-linux/HWC_RCS_LX7_0p5_RJ2/xtensa-elf/lib/xcc//libgcc.a(softfloat_cmn.o)
                                        0x13c (size before relaxing)
 .debug_str     0x00000860      0x1d8 /nfs/site/disks/xne_abc_fe_002/fw_tools/RJ-2023.2-linux/HWC_RCS_LX7_0p5_RJ2/xtensa-elf/lib/xcc//libgcc.a(softfloat_cmn_df.o)
                                        0x3d5 (size before relaxing)
 .debug_str     0x00000a38       0x9b /nfs/site/disks/xne_abc_fe_002/fw_tools/RJ-2023.2-linux/HWC_RCS_LX7_0p5_RJ2/xtensa-elf/lib/xcc//libgcc.a(softfloat_cmn_div.o)
                                        0x1d9 (size before relaxing)
 .debug_str     0x00000ad3       0x63 /nfs/site/disks/xne_abc_fe_002/fw_tools/RJ-2023.2-linux/HWC_RCS_LX7_0p5_RJ2/xtensa-elf/arch/lib//libhandlers-board.a(debug-vector.o)
                                         0xd8 (size before relaxing)
 .debug_str     0x00000b36       0x68 /nfs/site/disks/xne_abc_fe_002/fw_tools/RJ-2023.2-linux/HWC_RCS_LX7_0p5_RJ2/xtensa-elf/arch/lib//libhandlers-board.a(reset-vector-unpack.o)
                                         0xdd (size before relaxing)
 .debug_str     0x00000b9e       0xab /nfs/site/disks/xne_abc_fe_002/fw_tools/RJ-2023.2-linux/HWC_RCS_LX7_0p5_RJ2/xtensa-elf/arch/lib//libhandlers-board.a(xtos-interrupt-enable.o)
                                        0x154 (size before relaxing)
 .debug_str     0x00000c49       0x7f /nfs/site/disks/xne_abc_fe_002/fw_tools/RJ-2023.2-linux/HWC_RCS_LX7_0p5_RJ2/xtensa-elf/arch/lib//libhandlers-board.a(xtos-interrupt-disable.o)
                                        0x156 (size before relaxing)
 .debug_str     0x00000cc8       0xd3 /nfs/site/disks/xne_abc_fe_002/fw_tools/RJ-2023.2-linux/HWC_RCS_LX7_0p5_RJ2/xtensa-elf/arch/lib//libhandlers-board.a(xtos-set-inthandler.o)
                                        0x1a7 (size before relaxing)
 .debug_str     0x00000d9b       0x6a /nfs/site/disks/xne_abc_fe_002/fw_tools/RJ-2023.2-linux/HWC_RCS_LX7_0p5_RJ2/xtensa-elf/arch/lib//libhandlers-board.a(exc-syscall-handler.o)
                                         0xdf (size before relaxing)
 .debug_str     0x00000e05       0x66 /nfs/site/disks/xne_abc_fe_002/fw_tools/RJ-2023.2-linux/HWC_RCS_LX7_0p5_RJ2/xtensa-elf/arch/lib//libhandlers-board.a(memerror-vector-S--vector-.o)
                                         0xdb (size before relaxing)
 .debug_str     0x00000e6b       0x61 /nfs/site/disks/xne_abc_fe_002/fw_tools/RJ-2023.2-linux/HWC_RCS_LX7_0p5_RJ2/xtensa-elf/arch/lib//libhandlers-board.a(nmi-vector.o)
                                         0xd6 (size before relaxing)
 .debug_str     0x00000ecc       0x65 /nfs/site/disks/xne_abc_fe_002/fw_tools/RJ-2023.2-linux/HWC_RCS_LX7_0p5_RJ2/xtensa-elf/arch/lib//libhandlers-board.a(window-vectors.o)
                                         0xda (size before relaxing)
 .debug_str     0x00000f31       0x61 /nfs/site/disks/xne_abc_fe_002/fw_tools/RJ-2023.2-linux/HWC_RCS_LX7_0p5_RJ2/xtensa-elf/arch/lib//libhandlers-board.a(int-vector-level2.o)
                                         0xd6 (size before relaxing)
 .debug_str     0x00000f92       0xd6 /nfs/site/disks/xne_abc_fe_002/fw_tools/RJ-2023.2-linux/HWC_RCS_LX7_0p5_RJ2/xtensa-elf/arch/lib//libhandlers-board.a(int-vector-level3.o)
 .debug_str     0x00000f92       0xd6 /nfs/site/disks/xne_abc_fe_002/fw_tools/RJ-2023.2-linux/HWC_RCS_LX7_0p5_RJ2/xtensa-elf/arch/lib//libhandlers-board.a(int-vector-level4.o)
 .debug_str     0x00000f92       0x6c /nfs/site/disks/xne_abc_fe_002/fw_tools/RJ-2023.2-linux/HWC_RCS_LX7_0p5_RJ2/xtensa-elf/arch/lib//libhandlers-board.a(int-handler-level2.o)
                                         0xe1 (size before relaxing)
 .debug_str     0x00000ffe       0xe1 /nfs/site/disks/xne_abc_fe_002/fw_tools/RJ-2023.2-linux/HWC_RCS_LX7_0p5_RJ2/xtensa-elf/arch/lib//libhandlers-board.a(int-handler-level3.o)
 .debug_str     0x00000ffe       0x6d /nfs/site/disks/xne_abc_fe_002/fw_tools/RJ-2023.2-linux/HWC_RCS_LX7_0p5_RJ2/xtensa-elf/arch/lib//libhandlers-board.a(int-handler-level4.o)
                                         0xe2 (size before relaxing)
 .debug_str     0x0000106b       0x6c /nfs/site/disks/xne_abc_fe_002/fw_tools/RJ-2023.2-linux/HWC_RCS_LX7_0p5_RJ2/xtensa-elf/arch/lib//libhandlers-board.a(int-lowpri-dispatcher.o)
                                         0xe1 (size before relaxing)
 .debug_str     0x000010d7       0x61 /nfs/site/disks/xne_abc_fe_002/fw_tools/RJ-2023.2-linux/HWC_RCS_LX7_0p5_RJ2/xtensa-elf/arch/lib//libhandlers-board.a(exc-return.o)
                                         0xd6 (size before relaxing)
 .debug_str     0x00001138       0xbe /nfs/site/disks/xne_abc_fe_002/fw_tools/RJ-2023.2-linux/HWC_RCS_LX7_0p5_RJ2/xtensa-elf/arch/lib//libhal.a(clock.o)
                                         0xca (size before relaxing)
 .debug_str     0x000011f6       0x82 /nfs/site/disks/xne_abc_fe_002/fw_tools/RJ-2023.2-linux/HWC_RCS_LX7_0p5_RJ2/xtensa-elf/arch/lib//libhal.a(const--intlevel.o)
                                        0x120 (size before relaxing)

.debug_loc      0x00000000     0x1f94
 *(.debug_loc)
 .debug_loc     0x00000000       0xb5 /nfs/site/disks/xne_abc_fe_002/fw_tools/RJ-2023.2-linux/HWC_RCS_LX7_0p5_RJ2/xtensa-elf/lib/xcc//libgcc.a(_muldi3.o)
 .debug_loc     0x000000b5      0x964 /nfs/site/disks/xne_abc_fe_002/fw_tools/RJ-2023.2-linux/HWC_RCS_LX7_0p5_RJ2/xtensa-elf/lib/xcc//libgcc.a(_udivdi3.o)
 .debug_loc     0x00000a19      0xdb6 /nfs/site/disks/xne_abc_fe_002/fw_tools/RJ-2023.2-linux/HWC_RCS_LX7_0p5_RJ2/xtensa-elf/lib/xcc//libgcc.a(softfloat_div_df.o)
 .debug_loc     0x000017cf      0x4f5 /nfs/site/disks/xne_abc_fe_002/fw_tools/RJ-2023.2-linux/HWC_RCS_LX7_0p5_RJ2/xtensa-elf/lib/xcc//libgcc.a(softfloat_cmn_df.o)
 .debug_loc     0x00001cc4      0x1d3 /nfs/site/disks/xne_abc_fe_002/fw_tools/RJ-2023.2-linux/HWC_RCS_LX7_0p5_RJ2/xtensa-elf/lib/xcc//libgcc.a(softfloat_cmn_div.o)
 .debug_loc     0x00001e97       0x4f /nfs/site/disks/xne_abc_fe_002/fw_tools/RJ-2023.2-linux/HWC_RCS_LX7_0p5_RJ2/xtensa-elf/arch/lib//libhandlers-board.a(xtos-interrupt-enable.o)
 .debug_loc     0x00001ee6       0x44 /nfs/site/disks/xne_abc_fe_002/fw_tools/RJ-2023.2-linux/HWC_RCS_LX7_0p5_RJ2/xtensa-elf/arch/lib//libhandlers-board.a(xtos-interrupt-disable.o)
 .debug_loc     0x00001f2a       0x6a /nfs/site/disks/xne_abc_fe_002/fw_tools/RJ-2023.2-linux/HWC_RCS_LX7_0p5_RJ2/xtensa-elf/arch/lib//libhandlers-board.a(xtos-set-inthandler.o)

.debug_macinfo
 *(.debug_macinfo)

.debug_weaknames
 *(.debug_weaknames)

.debug_funcnames
 *(.debug_funcnames)

.debug_typenames
 *(.debug_typenames)

.debug_varnames
 *(.debug_varnames)

.debug.xt.map
 *(.debug.xt.map)

.xt.insn
 *(.xt.insn)
 *(.gnu.linkonce.x.*)

.xt.prop        0x00000000     0x405c
 *(.xt.prop)
 .xt.prop       0x00000000       0x48 /nfs/site/disks/xne_abc_fe_002/fw_tools/RJ-2023.2-linux/HWC_RCS_LX7_0p5_RJ2/xtensa-elf/arch/lib/crt1-tiny.o
 .xt.prop       0x00000048       0x90 /nfs/site/disks/zsc14.xne_abc_fe_001/users/chandrbi/emulval_0p8_17Jun/abc_emul-srvrgen4/src/rcs_fw/out/rx/hw/com_print.o
                                         0x9c (size before relaxing)
 .xt.prop       0x000000d8      0x120 /nfs/site/disks/zsc14.xne_abc_fe_001/users/chandrbi/emulval_0p8_17Jun/abc_emul-srvrgen4/src/rcs_fw/out/rx/hw/com_heap.o
                                        0x12c (size before relaxing)
 .xt.prop       0x000001f8       0xf0 /nfs/site/disks/zsc14.xne_abc_fe_001/users/chandrbi/emulval_0p8_17Jun/abc_emul-srvrgen4/src/rcs_fw/out/rx/hw/com_trax.o
                                         0xfc (size before relaxing)
 .xt.prop       0x000002e8      0x4a4 /nfs/site/disks/zsc14.xne_abc_fe_001/users/chandrbi/emulval_0p8_17Jun/abc_emul-srvrgen4/src/rcs_fw/out/rx/hw/com_isr.o
                                        0x4bc (size before relaxing)
 .xt.prop       0x0000078c       0x30 /nfs/site/disks/zsc14.xne_abc_fe_001/users/chandrbi/emulval_0p8_17Jun/abc_emul-srvrgen4/src/rcs_fw/out/rx/hw/com_platform.o
 .xt.prop       0x000007bc       0xa8 /nfs/site/disks/zsc14.xne_abc_fe_001/users/chandrbi/emulval_0p8_17Jun/abc_emul-srvrgen4/src/rcs_fw/out/rx/hw/com_bfn.o
                                         0xb4 (size before relaxing)
 .xt.prop       0x00000864      0x174 /nfs/site/disks/zsc14.xne_abc_fe_001/users/chandrbi/emulval_0p8_17Jun/abc_emul-srvrgen4/src/rcs_fw/out/rx/hw/com_trace_buffer.o
                                        0x180 (size before relaxing)
 .xt.prop       0x000009d8       0xf0 /nfs/site/disks/zsc14.xne_abc_fe_001/users/chandrbi/emulval_0p8_17Jun/abc_emul-srvrgen4/src/rcs_fw/out/rx/hw/com_error.o
 .xt.prop       0x00000ac8      0x18c /nfs/site/disks/zsc14.xne_abc_fe_001/users/chandrbi/emulval_0p8_17Jun/abc_emul-srvrgen4/src/rcs_fw/out/rx/hw/com_timing.o
 .xt.prop       0x00000c54      0x504 /nfs/site/disks/zsc14.xne_abc_fe_001/users/chandrbi/emulval_0p8_17Jun/abc_emul-srvrgen4/src/rcs_fw/out/rx/hw/com_fsm.o
 .xt.prop       0x00001158      0x120 /nfs/site/disks/zsc14.xne_abc_fe_001/users/chandrbi/emulval_0p8_17Jun/abc_emul-srvrgen4/src/rcs_fw/out/rx/hw/com_boot.o
 .xt.prop       0x00001278       0x48 /nfs/site/disks/zsc14.xne_abc_fe_001/users/chandrbi/emulval_0p8_17Jun/abc_emul-srvrgen4/src/rcs_fw/out/rx/hw/com_lock.o
                                         0x54 (size before relaxing)
 .xt.prop       0x000012c0      0x2dc /nfs/site/disks/zsc14.xne_abc_fe_001/users/chandrbi/emulval_0p8_17Jun/abc_emul-srvrgen4/src/rcs_fw/out/rx/hw/com_idma.o
                                        0x2e8 (size before relaxing)
 .xt.prop       0x0000159c       0xfc /nfs/site/disks/zsc14.xne_abc_fe_001/users/chandrbi/emulval_0p8_17Jun/abc_emul-srvrgen4/src/rcs_fw/out/rx/hw/com_exception.o
                                        0x108 (size before relaxing)
 .xt.prop       0x00001698      0x288 /nfs/site/disks/zsc14.xne_abc_fe_001/users/chandrbi/emulval_0p8_17Jun/abc_emul-srvrgen4/src/rcs_fw/out/rx/hw/com_swg.o
 .xt.prop       0x00001920      0x3cc /nfs/site/disks/zsc14.xne_abc_fe_001/users/chandrbi/emulval_0p8_17Jun/abc_emul-srvrgen4/src/rcs_fw/out/rx/hw/com_gpdma.o
 .xt.prop       0x00001cec      0x4b0 /nfs/site/disks/zsc14.xne_abc_fe_001/users/chandrbi/emulval_0p8_17Jun/abc_emul-srvrgen4/src/rcs_fw/out/rx/hw/com_event.o
                                        0x4c8 (size before relaxing)
 .xt.prop       0x0000219c       0x90 /nfs/site/disks/zsc14.xne_abc_fe_001/users/chandrbi/emulval_0p8_17Jun/abc_emul-srvrgen4/src/rcs_fw/out/rx/hw/com_queue.o
                                         0x9c (size before relaxing)
 .xt.prop       0x0000222c      0x288 /nfs/site/disks/zsc14.xne_abc_fe_001/users/chandrbi/emulval_0p8_17Jun/abc_emul-srvrgen4/src/rcs_fw/out/rx/hw/com_msg_handler_utils.o
                                        0x294 (size before relaxing)
 .xt.prop       0x000024b4       0x3c /nfs/site/disks/zsc14.xne_abc_fe_001/users/chandrbi/emulval_0p8_17Jun/abc_emul-srvrgen4/src/rcs_fw/out/rx/hw/com_shared_memory_read_write.o
                                         0x48 (size before relaxing)
 .xt.prop       0x000024f0       0xf0 /nfs/site/disks/zsc14.xne_abc_fe_001/users/chandrbi/emulval_0p8_17Jun/abc_emul-srvrgen4/src/rcs_fw/out/rx/hw/com_shared_memory.o
 .xt.prop       0x000025e0      0x330 /nfs/site/disks/zsc14.xne_abc_fe_001/users/chandrbi/emulval_0p8_17Jun/abc_emul-srvrgen4/src/rcs_fw/out/rx/hw/rx_msg_handler.o
 .xt.prop       0x00002910       0x78 /nfs/site/disks/zsc14.xne_abc_fe_001/users/chandrbi/emulval_0p8_17Jun/abc_emul-srvrgen4/src/rcs_fw/out/rx/hw/rx_adc_cfg.o
 .xt.prop       0x00002988       0x48 /nfs/site/disks/zsc14.xne_abc_fe_001/users/chandrbi/emulval_0p8_17Jun/abc_emul-srvrgen4/src/rcs_fw/out/rx/hw/rx_main.o
 .xt.prop       0x000029d0       0xd8 /nfs/site/disks/zsc14.xne_abc_fe_001/users/chandrbi/emulval_0p8_17Jun/abc_emul-srvrgen4/src/rcs_fw/out/rx/hw/rx_lineup.o
                                         0xe4 (size before relaxing)
 .xt.prop       0x00002aa8       0x3c /nfs/site/disks/zsc14.xne_abc_fe_001/users/chandrbi/emulval_0p8_17Jun/abc_emul-srvrgen4/src/rcs_fw/out/rx/hw/rx_gain.o
                                         0x48 (size before relaxing)
 .xt.prop       0x00002ae4       0x24 /nfs/site/disks/zsc14.xne_abc_fe_001/users/chandrbi/emulval_0p8_17Jun/abc_emul-srvrgen4/src/rcs_fw/out/rx/hw/rx_daco.o
                                         0x30 (size before relaxing)
 .xt.prop       0x00002b08      0x150 /nfs/site/disks/zsc14.xne_abc_fe_001/users/chandrbi/emulval_0p8_17Jun/abc_emul-srvrgen4/src/rcs_fw/out/rx/hw/rx_v2d.o
 .xt.prop       0x00002c58       0x18 /nfs/site/disks/zsc14.xne_abc_fe_001/users/chandrbi/emulval_0p8_17Jun/abc_emul-srvrgen4/src/rcs_fw/out/rx/hw/com_bootrom.o
 .xt.prop       0x00002c70      0x114 /nfs/site/disks/zsc14.xne_abc_fe_001/users/chandrbi/emulval_0p8_17Jun/abc_emul-srvrgen4/src/rcs_fw/out/rx/hw/custom_vectors.o
 .xt.prop       0x00002d84      0x144 /nfs/site/disks/xne_abc_fe_002/fw_tools/RJ-2023.2-linux/HWC_RCS_LX7_0p5_RJ2/xtensa-elf/lib//libc.a(memcpy.o)
                                        0x150 (size before relaxing)
 .xt.prop       0x00002ec8       0xa8 /nfs/site/disks/xne_abc_fe_002/fw_tools/RJ-2023.2-linux/HWC_RCS_LX7_0p5_RJ2/xtensa-elf/lib//libc.a(memset.o)
                                         0xb4 (size before relaxing)
 .xt.prop       0x00002f70      0x2d0 /nfs/site/disks/xne_abc_fe_002/fw_tools/RJ-2023.2-linux/HWC_RCS_LX7_0p5_RJ2/xtensa-elf/lib/xcc//libgcc.a(_muldf3.o)
 .xt.prop       0x00003240       0xcc /nfs/site/disks/xne_abc_fe_002/fw_tools/RJ-2023.2-linux/HWC_RCS_LX7_0p5_RJ2/xtensa-elf/lib/xcc//libgcc.a(_fixunsdfdi.o)
                                         0xd8 (size before relaxing)
 .xt.prop       0x0000330c       0x60 /nfs/site/disks/xne_abc_fe_002/fw_tools/RJ-2023.2-linux/HWC_RCS_LX7_0p5_RJ2/xtensa-elf/lib/xcc//libgcc.a(_floatsidf.o)
 .xt.prop       0x0000336c       0x24 /nfs/site/disks/xne_abc_fe_002/fw_tools/RJ-2023.2-linux/HWC_RCS_LX7_0p5_RJ2/xtensa-elf/lib/xcc//libgcc.a(_muldi3.o)
                                         0x30 (size before relaxing)
 .xt.prop       0x00003390      0x114 /nfs/site/disks/xne_abc_fe_002/fw_tools/RJ-2023.2-linux/HWC_RCS_LX7_0p5_RJ2/xtensa-elf/lib/xcc//libgcc.a(_udivdi3.o)
                                        0x120 (size before relaxing)
 .xt.prop       0x000034a4      0x210 /nfs/site/disks/xne_abc_fe_002/fw_tools/RJ-2023.2-linux/HWC_RCS_LX7_0p5_RJ2/xtensa-elf/lib/xcc//libgcc.a(softfloat_div_df.o)
 .xt.prop       0x000036b4       0x3c /nfs/site/disks/xne_abc_fe_002/fw_tools/RJ-2023.2-linux/HWC_RCS_LX7_0p5_RJ2/xtensa-elf/lib/xcc//libgcc.a(_umulsidi3.o)
 .xt.prop       0x000036f0      0x1c8 /nfs/site/disks/xne_abc_fe_002/fw_tools/RJ-2023.2-linux/HWC_RCS_LX7_0p5_RJ2/xtensa-elf/lib/xcc//libgcc.a(softfloat_cmn_df.o)
                                        0x1d4 (size before relaxing)
 .xt.prop       0x000038b8       0x9c /nfs/site/disks/xne_abc_fe_002/fw_tools/RJ-2023.2-linux/HWC_RCS_LX7_0p5_RJ2/xtensa-elf/lib/xcc//libgcc.a(softfloat_cmn_div.o)
                                         0xa8 (size before relaxing)
 .xt.prop       0x00003954       0x24 /nfs/site/disks/xne_abc_fe_002/fw_tools/RJ-2023.2-linux/HWC_RCS_LX7_0p5_RJ2/xtensa-elf/arch/lib//libhandlers-board.a(debug-vector.o)
 .xt.prop       0x00003978      0x108 /nfs/site/disks/xne_abc_fe_002/fw_tools/RJ-2023.2-linux/HWC_RCS_LX7_0p5_RJ2/xtensa-elf/arch/lib//libhandlers-board.a(reset-vector-unpack.o)
 .xt.prop       0x00003a80       0x3c /nfs/site/disks/xne_abc_fe_002/fw_tools/RJ-2023.2-linux/HWC_RCS_LX7_0p5_RJ2/xtensa-elf/arch/lib//libhandlers-board.a(xtos-interrupt-enable.o)
 .xt.prop       0x00003abc       0x30 /nfs/site/disks/xne_abc_fe_002/fw_tools/RJ-2023.2-linux/HWC_RCS_LX7_0p5_RJ2/xtensa-elf/arch/lib//libhandlers-board.a(xtos-interrupt-disable.o)
                                         0x3c (size before relaxing)
 .xt.prop       0x00003aec       0x60 /nfs/site/disks/xne_abc_fe_002/fw_tools/RJ-2023.2-linux/HWC_RCS_LX7_0p5_RJ2/xtensa-elf/arch/lib//libhandlers-board.a(xtos-set-inthandler.o)
 .xt.prop       0x00003b4c       0xd8 /nfs/site/disks/xne_abc_fe_002/fw_tools/RJ-2023.2-linux/HWC_RCS_LX7_0p5_RJ2/xtensa-elf/arch/lib//libhandlers-board.a(exc-syscall-handler.o)
 .xt.prop       0x00003c24       0x60 /nfs/site/disks/xne_abc_fe_002/fw_tools/RJ-2023.2-linux/HWC_RCS_LX7_0p5_RJ2/xtensa-elf/arch/lib//libhandlers-board.a(memerror-vector-S--vector-.o)
 .xt.prop       0x00003c84       0x18 /nfs/site/disks/xne_abc_fe_002/fw_tools/RJ-2023.2-linux/HWC_RCS_LX7_0p5_RJ2/xtensa-elf/arch/lib//libhandlers-board.a(nmi-vector.o)
 .xt.prop       0x00003c9c       0xc0 /nfs/site/disks/xne_abc_fe_002/fw_tools/RJ-2023.2-linux/HWC_RCS_LX7_0p5_RJ2/xtensa-elf/arch/lib//libhandlers-board.a(window-vectors.o)
                                         0xfc (size before relaxing)
 .xt.prop       0x00003d5c       0x18 /nfs/site/disks/xne_abc_fe_002/fw_tools/RJ-2023.2-linux/HWC_RCS_LX7_0p5_RJ2/xtensa-elf/arch/lib//libhandlers-board.a(int-vector-level2.o)
 .xt.prop       0x00003d74       0x18 /nfs/site/disks/xne_abc_fe_002/fw_tools/RJ-2023.2-linux/HWC_RCS_LX7_0p5_RJ2/xtensa-elf/arch/lib//libhandlers-board.a(int-vector-level3.o)
 .xt.prop       0x00003d8c       0x18 /nfs/site/disks/xne_abc_fe_002/fw_tools/RJ-2023.2-linux/HWC_RCS_LX7_0p5_RJ2/xtensa-elf/arch/lib//libhandlers-board.a(int-vector-level4.o)
 .xt.prop       0x00003da4       0x9c /nfs/site/disks/xne_abc_fe_002/fw_tools/RJ-2023.2-linux/HWC_RCS_LX7_0p5_RJ2/xtensa-elf/arch/lib//libhandlers-board.a(int-handler-level2.o)
 .xt.prop       0x00003e40       0x54 /nfs/site/disks/xne_abc_fe_002/fw_tools/RJ-2023.2-linux/HWC_RCS_LX7_0p5_RJ2/xtensa-elf/arch/lib//libhandlers-board.a(int-handler-level3.o)
 .xt.prop       0x00003e94       0x3c /nfs/site/disks/xne_abc_fe_002/fw_tools/RJ-2023.2-linux/HWC_RCS_LX7_0p5_RJ2/xtensa-elf/arch/lib//libhandlers-board.a(int-handler-level4.o)
 .xt.prop       0x00003ed0       0xc0 /nfs/site/disks/xne_abc_fe_002/fw_tools/RJ-2023.2-linux/HWC_RCS_LX7_0p5_RJ2/xtensa-elf/arch/lib//libhandlers-board.a(int-lowpri-dispatcher.o)
 .xt.prop       0x00003f90       0x18 /nfs/site/disks/xne_abc_fe_002/fw_tools/RJ-2023.2-linux/HWC_RCS_LX7_0p5_RJ2/xtensa-elf/arch/lib//libhandlers-board.a(exc-return.o)
 .xt.prop       0x00003fa8       0xb4 /nfs/site/disks/xne_abc_fe_002/fw_tools/RJ-2023.2-linux/HWC_RCS_LX7_0p5_RJ2/xtensa-elf/arch/lib//libhal.a(clock.o)
 *(.xt.prop.*)
 *(.gnu.linkonce.prop.*)

.xt.lit         0x00000000      0x140
 *(.xt.lit)
 .xt.lit        0x00000000        0x8 /nfs/site/disks/xne_abc_fe_002/fw_tools/RJ-2023.2-linux/HWC_RCS_LX7_0p5_RJ2/xtensa-elf/arch/lib/crt1-tiny.o
 .xt.lit        0x00000008        0x8 /nfs/site/disks/zsc14.xne_abc_fe_001/users/chandrbi/emulval_0p8_17Jun/abc_emul-srvrgen4/src/rcs_fw/out/rx/hw/com_print.o
 .xt.lit        0x00000010        0x8 /nfs/site/disks/zsc14.xne_abc_fe_001/users/chandrbi/emulval_0p8_17Jun/abc_emul-srvrgen4/src/rcs_fw/out/rx/hw/com_heap.o
 .xt.lit        0x00000018        0x8 /nfs/site/disks/zsc14.xne_abc_fe_001/users/chandrbi/emulval_0p8_17Jun/abc_emul-srvrgen4/src/rcs_fw/out/rx/hw/com_trax.o
 .xt.lit        0x00000020        0x8 /nfs/site/disks/zsc14.xne_abc_fe_001/users/chandrbi/emulval_0p8_17Jun/abc_emul-srvrgen4/src/rcs_fw/out/rx/hw/com_isr.o
 .xt.lit        0x00000028        0x8 /nfs/site/disks/zsc14.xne_abc_fe_001/users/chandrbi/emulval_0p8_17Jun/abc_emul-srvrgen4/src/rcs_fw/out/rx/hw/com_platform.o
 .xt.lit        0x00000030        0x8 /nfs/site/disks/zsc14.xne_abc_fe_001/users/chandrbi/emulval_0p8_17Jun/abc_emul-srvrgen4/src/rcs_fw/out/rx/hw/com_bfn.o
 .xt.lit        0x00000038        0x8 /nfs/site/disks/zsc14.xne_abc_fe_001/users/chandrbi/emulval_0p8_17Jun/abc_emul-srvrgen4/src/rcs_fw/out/rx/hw/com_trace_buffer.o
 .xt.lit        0x00000040        0x8 /nfs/site/disks/zsc14.xne_abc_fe_001/users/chandrbi/emulval_0p8_17Jun/abc_emul-srvrgen4/src/rcs_fw/out/rx/hw/com_error.o
 .xt.lit        0x00000048        0x8 /nfs/site/disks/zsc14.xne_abc_fe_001/users/chandrbi/emulval_0p8_17Jun/abc_emul-srvrgen4/src/rcs_fw/out/rx/hw/com_timing.o
 .xt.lit        0x00000050        0x8 /nfs/site/disks/zsc14.xne_abc_fe_001/users/chandrbi/emulval_0p8_17Jun/abc_emul-srvrgen4/src/rcs_fw/out/rx/hw/com_fsm.o
 .xt.lit        0x00000058        0x8 /nfs/site/disks/zsc14.xne_abc_fe_001/users/chandrbi/emulval_0p8_17Jun/abc_emul-srvrgen4/src/rcs_fw/out/rx/hw/com_boot.o
 .xt.lit        0x00000060        0x8 /nfs/site/disks/zsc14.xne_abc_fe_001/users/chandrbi/emulval_0p8_17Jun/abc_emul-srvrgen4/src/rcs_fw/out/rx/hw/com_lock.o
 .xt.lit        0x00000068        0x8 /nfs/site/disks/zsc14.xne_abc_fe_001/users/chandrbi/emulval_0p8_17Jun/abc_emul-srvrgen4/src/rcs_fw/out/rx/hw/com_idma.o
 .xt.lit        0x00000070        0x8 /nfs/site/disks/zsc14.xne_abc_fe_001/users/chandrbi/emulval_0p8_17Jun/abc_emul-srvrgen4/src/rcs_fw/out/rx/hw/com_swg.o
 .xt.lit        0x00000078        0x8 /nfs/site/disks/zsc14.xne_abc_fe_001/users/chandrbi/emulval_0p8_17Jun/abc_emul-srvrgen4/src/rcs_fw/out/rx/hw/com_gpdma.o
 .xt.lit        0x00000080        0x8 /nfs/site/disks/zsc14.xne_abc_fe_001/users/chandrbi/emulval_0p8_17Jun/abc_emul-srvrgen4/src/rcs_fw/out/rx/hw/com_event.o
 .xt.lit        0x00000088        0x8 /nfs/site/disks/zsc14.xne_abc_fe_001/users/chandrbi/emulval_0p8_17Jun/abc_emul-srvrgen4/src/rcs_fw/out/rx/hw/com_msg_handler_utils.o
 .xt.lit        0x00000090        0x8 /nfs/site/disks/zsc14.xne_abc_fe_001/users/chandrbi/emulval_0p8_17Jun/abc_emul-srvrgen4/src/rcs_fw/out/rx/hw/com_shared_memory.o
 .xt.lit        0x00000098        0x8 /nfs/site/disks/zsc14.xne_abc_fe_001/users/chandrbi/emulval_0p8_17Jun/abc_emul-srvrgen4/src/rcs_fw/out/rx/hw/rx_msg_handler.o
 .xt.lit        0x000000a0        0x8 /nfs/site/disks/zsc14.xne_abc_fe_001/users/chandrbi/emulval_0p8_17Jun/abc_emul-srvrgen4/src/rcs_fw/out/rx/hw/rx_adc_cfg.o
 .xt.lit        0x000000a8        0x8 /nfs/site/disks/zsc14.xne_abc_fe_001/users/chandrbi/emulval_0p8_17Jun/abc_emul-srvrgen4/src/rcs_fw/out/rx/hw/rx_main.o
 .xt.lit        0x000000b0        0x0 /nfs/site/disks/zsc14.xne_abc_fe_001/users/chandrbi/emulval_0p8_17Jun/abc_emul-srvrgen4/src/rcs_fw/out/rx/hw/rx_lineup.o
                                          0x8 (size before relaxing)
 .xt.lit        0x000000b0        0x0 /nfs/site/disks/zsc14.xne_abc_fe_001/users/chandrbi/emulval_0p8_17Jun/abc_emul-srvrgen4/src/rcs_fw/out/rx/hw/rx_gain.o
                                          0x8 (size before relaxing)
 .xt.lit        0x000000b0        0x0 /nfs/site/disks/zsc14.xne_abc_fe_001/users/chandrbi/emulval_0p8_17Jun/abc_emul-srvrgen4/src/rcs_fw/out/rx/hw/rx_daco.o
                                          0x8 (size before relaxing)
 .xt.lit        0x000000b0        0x8 /nfs/site/disks/zsc14.xne_abc_fe_001/users/chandrbi/emulval_0p8_17Jun/abc_emul-srvrgen4/src/rcs_fw/out/rx/hw/rx_v2d.o
 .xt.lit        0x000000b8       0x30 /nfs/site/disks/zsc14.xne_abc_fe_001/users/chandrbi/emulval_0p8_17Jun/abc_emul-srvrgen4/src/rcs_fw/out/rx/hw/custom_vectors.o
 .xt.lit        0x000000e8        0x8 /nfs/site/disks/xne_abc_fe_002/fw_tools/RJ-2023.2-linux/HWC_RCS_LX7_0p5_RJ2/xtensa-elf/lib/xcc//libgcc.a(_muldf3.o)
 .xt.lit        0x000000f0        0x0 /nfs/site/disks/xne_abc_fe_002/fw_tools/RJ-2023.2-linux/HWC_RCS_LX7_0p5_RJ2/xtensa-elf/lib/xcc//libgcc.a(_fixunsdfdi.o)
                                          0x8 (size before relaxing)
 .xt.lit        0x000000f0        0x0 /nfs/site/disks/xne_abc_fe_002/fw_tools/RJ-2023.2-linux/HWC_RCS_LX7_0p5_RJ2/xtensa-elf/lib/xcc//libgcc.a(_muldi3.o)
                                          0x8 (size before relaxing)
 .xt.lit        0x000000f0        0x0 /nfs/site/disks/xne_abc_fe_002/fw_tools/RJ-2023.2-linux/HWC_RCS_LX7_0p5_RJ2/xtensa-elf/lib/xcc//libgcc.a(_udivdi3.o)
                                          0x8 (size before relaxing)
 .xt.lit        0x000000f0        0x8 /nfs/site/disks/xne_abc_fe_002/fw_tools/RJ-2023.2-linux/HWC_RCS_LX7_0p5_RJ2/xtensa-elf/lib/xcc//libgcc.a(softfloat_div_df.o)
 .xt.lit        0x000000f8        0x0 /nfs/site/disks/xne_abc_fe_002/fw_tools/RJ-2023.2-linux/HWC_RCS_LX7_0p5_RJ2/xtensa-elf/lib/xcc//libgcc.a(softfloat_cmn_df.o)
                                          0x8 (size before relaxing)
 .xt.lit        0x000000f8        0x8 /nfs/site/disks/xne_abc_fe_002/fw_tools/RJ-2023.2-linux/HWC_RCS_LX7_0p5_RJ2/xtensa-elf/arch/lib//libhandlers-board.a(reset-vector-unpack.o)
 .xt.lit        0x00000100        0x8 /nfs/site/disks/xne_abc_fe_002/fw_tools/RJ-2023.2-linux/HWC_RCS_LX7_0p5_RJ2/xtensa-elf/arch/lib//libhandlers-board.a(xtos-interrupt-enable.o)
 .xt.lit        0x00000108        0x0 /nfs/site/disks/xne_abc_fe_002/fw_tools/RJ-2023.2-linux/HWC_RCS_LX7_0p5_RJ2/xtensa-elf/arch/lib//libhandlers-board.a(xtos-interrupt-disable.o)
                                          0x8 (size before relaxing)
 .xt.lit        0x00000108        0x8 /nfs/site/disks/xne_abc_fe_002/fw_tools/RJ-2023.2-linux/HWC_RCS_LX7_0p5_RJ2/xtensa-elf/arch/lib//libhandlers-board.a(xtos-set-inthandler.o)
 .xt.lit        0x00000110        0x8 /nfs/site/disks/xne_abc_fe_002/fw_tools/RJ-2023.2-linux/HWC_RCS_LX7_0p5_RJ2/xtensa-elf/arch/lib//libhandlers-board.a(exc-syscall-handler.o)
 .xt.lit        0x00000118        0x8 /nfs/site/disks/xne_abc_fe_002/fw_tools/RJ-2023.2-linux/HWC_RCS_LX7_0p5_RJ2/xtensa-elf/arch/lib//libhandlers-board.a(memerror-vector-S--vector-.o)
 .xt.lit        0x00000120        0x8 /nfs/site/disks/xne_abc_fe_002/fw_tools/RJ-2023.2-linux/HWC_RCS_LX7_0p5_RJ2/xtensa-elf/arch/lib//libhandlers-board.a(int-handler-level2.o)
 .xt.lit        0x00000128        0x8 /nfs/site/disks/xne_abc_fe_002/fw_tools/RJ-2023.2-linux/HWC_RCS_LX7_0p5_RJ2/xtensa-elf/arch/lib//libhandlers-board.a(int-handler-level3.o)
 .xt.lit        0x00000130        0x8 /nfs/site/disks/xne_abc_fe_002/fw_tools/RJ-2023.2-linux/HWC_RCS_LX7_0p5_RJ2/xtensa-elf/arch/lib//libhandlers-board.a(int-handler-level4.o)
 .xt.lit        0x00000138        0x8 /nfs/site/disks/xne_abc_fe_002/fw_tools/RJ-2023.2-linux/HWC_RCS_LX7_0p5_RJ2/xtensa-elf/arch/lib//libhandlers-board.a(int-lowpri-dispatcher.o)
 *(.xt.lit.*)
 *(.gnu.linkonce.p.*)

.xtensa.info    0x00000000      0x1e8
 *(.xtensa.info)
 .xtensa.info   0x00000000      0x1e8 /nfs/site/disks/xne_abc_fe_002/fw_tools/RJ-2023.2-linux/HWC_RCS_LX7_0p5_RJ2/xtensa-elf/arch/lib/crt1-tiny.o
 .xtensa.info   0x000001e8        0x0 /nfs/site/disks/xne_abc_fe_002/fw_tools/RJ-2023.2-linux/HWC_RCS_LX7_0p5_RJ2/xtensa-elf/arch/lib/_sharedvectors.o
 .xtensa.info   0x000001e8        0x0 /nfs/site/disks/xne_abc_fe_002/fw_tools/RJ-2023.2-linux/HWC_RCS_LX7_0p5_RJ2/xtensa-elf/arch/lib/_vectors.o
 .xtensa.info   0x000001e8        0x0 /nfs/site/disks/zsc14.xne_abc_fe_001/users/chandrbi/emulval_0p8_17Jun/abc_emul-srvrgen4/src/rcs_fw/out/rx/hw/com_tables.o
 .xtensa.info   0x000001e8        0x0 /nfs/site/disks/zsc14.xne_abc_fe_001/users/chandrbi/emulval_0p8_17Jun/abc_emul-srvrgen4/src/rcs_fw/out/rx/hw/rx_tables.o
 .xtensa.info   0x000001e8        0x0 /nfs/site/disks/zsc14.xne_abc_fe_001/users/chandrbi/emulval_0p8_17Jun/abc_emul-srvrgen4/src/rcs_fw/out/rx/hw/fw_ver.o
 .xtensa.info   0x000001e8        0x0 /nfs/site/disks/zsc14.xne_abc_fe_001/users/chandrbi/emulval_0p8_17Jun/abc_emul-srvrgen4/src/rcs_fw/out/rx/hw/com_print.o
 .xtensa.info   0x000001e8        0x0 /nfs/site/disks/zsc14.xne_abc_fe_001/users/chandrbi/emulval_0p8_17Jun/abc_emul-srvrgen4/src/rcs_fw/out/rx/hw/com_assert.o
 .xtensa.info   0x000001e8        0x0 /nfs/site/disks/zsc14.xne_abc_fe_001/users/chandrbi/emulval_0p8_17Jun/abc_emul-srvrgen4/src/rcs_fw/out/rx/hw/com_heap.o
 .xtensa.info   0x000001e8        0x0 /nfs/site/disks/zsc14.xne_abc_fe_001/users/chandrbi/emulval_0p8_17Jun/abc_emul-srvrgen4/src/rcs_fw/out/rx/hw/com_trax.o
 .xtensa.info   0x000001e8        0x0 /nfs/site/disks/zsc14.xne_abc_fe_001/users/chandrbi/emulval_0p8_17Jun/abc_emul-srvrgen4/src/rcs_fw/out/rx/hw/com_isr.o
 .xtensa.info   0x000001e8        0x0 /nfs/site/disks/zsc14.xne_abc_fe_001/users/chandrbi/emulval_0p8_17Jun/abc_emul-srvrgen4/src/rcs_fw/out/rx/hw/com_platform.o
 .xtensa.info   0x000001e8        0x0 /nfs/site/disks/zsc14.xne_abc_fe_001/users/chandrbi/emulval_0p8_17Jun/abc_emul-srvrgen4/src/rcs_fw/out/rx/hw/com_bfn.o
 .xtensa.info   0x000001e8        0x0 /nfs/site/disks/zsc14.xne_abc_fe_001/users/chandrbi/emulval_0p8_17Jun/abc_emul-srvrgen4/src/rcs_fw/out/rx/hw/com_trace_buffer.o
 .xtensa.info   0x000001e8        0x0 /nfs/site/disks/zsc14.xne_abc_fe_001/users/chandrbi/emulval_0p8_17Jun/abc_emul-srvrgen4/src/rcs_fw/out/rx/hw/com_error.o
 .xtensa.info   0x000001e8        0x0 /nfs/site/disks/zsc14.xne_abc_fe_001/users/chandrbi/emulval_0p8_17Jun/abc_emul-srvrgen4/src/rcs_fw/out/rx/hw/com_timing.o
 .xtensa.info   0x000001e8        0x0 /nfs/site/disks/zsc14.xne_abc_fe_001/users/chandrbi/emulval_0p8_17Jun/abc_emul-srvrgen4/src/rcs_fw/out/rx/hw/com_fsm.o
 .xtensa.info   0x000001e8        0x0 /nfs/site/disks/zsc14.xne_abc_fe_001/users/chandrbi/emulval_0p8_17Jun/abc_emul-srvrgen4/src/rcs_fw/out/rx/hw/com_boot.o
 .xtensa.info   0x000001e8        0x0 /nfs/site/disks/zsc14.xne_abc_fe_001/users/chandrbi/emulval_0p8_17Jun/abc_emul-srvrgen4/src/rcs_fw/out/rx/hw/com_lock.o
 .xtensa.info   0x000001e8        0x0 /nfs/site/disks/zsc14.xne_abc_fe_001/users/chandrbi/emulval_0p8_17Jun/abc_emul-srvrgen4/src/rcs_fw/out/rx/hw/com_idma.o
 .xtensa.info   0x000001e8        0x0 /nfs/site/disks/zsc14.xne_abc_fe_001/users/chandrbi/emulval_0p8_17Jun/abc_emul-srvrgen4/src/rcs_fw/out/rx/hw/com_exception.o
 .xtensa.info   0x000001e8        0x0 /nfs/site/disks/zsc14.xne_abc_fe_001/users/chandrbi/emulval_0p8_17Jun/abc_emul-srvrgen4/src/rcs_fw/out/rx/hw/com_swg.o
 .xtensa.info   0x000001e8        0x0 /nfs/site/disks/zsc14.xne_abc_fe_001/users/chandrbi/emulval_0p8_17Jun/abc_emul-srvrgen4/src/rcs_fw/out/rx/hw/com_memory.o
 .xtensa.info   0x000001e8        0x0 /nfs/site/disks/zsc14.xne_abc_fe_001/users/chandrbi/emulval_0p8_17Jun/abc_emul-srvrgen4/src/rcs_fw/out/rx/hw/com_gpdma.o
 .xtensa.info   0x000001e8        0x0 /nfs/site/disks/zsc14.xne_abc_fe_001/users/chandrbi/emulval_0p8_17Jun/abc_emul-srvrgen4/src/rcs_fw/out/rx/hw/com_event.o
 .xtensa.info   0x000001e8        0x0 /nfs/site/disks/zsc14.xne_abc_fe_001/users/chandrbi/emulval_0p8_17Jun/abc_emul-srvrgen4/src/rcs_fw/out/rx/hw/com_queue.o
 .xtensa.info   0x000001e8        0x0 /nfs/site/disks/zsc14.xne_abc_fe_001/users/chandrbi/emulval_0p8_17Jun/abc_emul-srvrgen4/src/rcs_fw/out/rx/hw/com_msg_handler_utils.o
 .xtensa.info   0x000001e8        0x0 /nfs/site/disks/zsc14.xne_abc_fe_001/users/chandrbi/emulval_0p8_17Jun/abc_emul-srvrgen4/src/rcs_fw/out/rx/hw/com_shared_memory_read_write.o
 .xtensa.info   0x000001e8        0x0 /nfs/site/disks/zsc14.xne_abc_fe_001/users/chandrbi/emulval_0p8_17Jun/abc_emul-srvrgen4/src/rcs_fw/out/rx/hw/com_shared_memory.o
 .xtensa.info   0x000001e8        0x0 /nfs/site/disks/zsc14.xne_abc_fe_001/users/chandrbi/emulval_0p8_17Jun/abc_emul-srvrgen4/src/rcs_fw/out/rx/hw/rx_msg_handler.o
 .xtensa.info   0x000001e8        0x0 /nfs/site/disks/zsc14.xne_abc_fe_001/users/chandrbi/emulval_0p8_17Jun/abc_emul-srvrgen4/src/rcs_fw/out/rx/hw/rx_adc_cfg.o
 .xtensa.info   0x000001e8        0x0 /nfs/site/disks/zsc14.xne_abc_fe_001/users/chandrbi/emulval_0p8_17Jun/abc_emul-srvrgen4/src/rcs_fw/out/rx/hw/rx_main.o
 .xtensa.info   0x000001e8        0x0 /nfs/site/disks/zsc14.xne_abc_fe_001/users/chandrbi/emulval_0p8_17Jun/abc_emul-srvrgen4/src/rcs_fw/out/rx/hw/rx_lineup.o
 .xtensa.info   0x000001e8        0x0 /nfs/site/disks/zsc14.xne_abc_fe_001/users/chandrbi/emulval_0p8_17Jun/abc_emul-srvrgen4/src/rcs_fw/out/rx/hw/rx_gain.o
 .xtensa.info   0x000001e8        0x0 /nfs/site/disks/zsc14.xne_abc_fe_001/users/chandrbi/emulval_0p8_17Jun/abc_emul-srvrgen4/src/rcs_fw/out/rx/hw/rx_daco.o
 .xtensa.info   0x000001e8        0x0 /nfs/site/disks/zsc14.xne_abc_fe_001/users/chandrbi/emulval_0p8_17Jun/abc_emul-srvrgen4/src/rcs_fw/out/rx/hw/rx_v2d.o
 .xtensa.info   0x000001e8        0x0 /nfs/site/disks/zsc14.xne_abc_fe_001/users/chandrbi/emulval_0p8_17Jun/abc_emul-srvrgen4/src/rcs_fw/out/rx/hw/com_bootrom.o
 .xtensa.info   0x000001e8        0x0 /nfs/site/disks/zsc14.xne_abc_fe_001/users/chandrbi/emulval_0p8_17Jun/abc_emul-srvrgen4/src/rcs_fw/out/rx/hw/custom_vectors.o
 .xtensa.info   0x000001e8        0x0 /nfs/site/disks/xne_abc_fe_002/fw_tools/RJ-2023.2-linux/HWC_RCS_LX7_0p5_RJ2/xtensa-elf/lib//libc.a(memcpy.o)
 .xtensa.info   0x000001e8        0x0 /nfs/site/disks/xne_abc_fe_002/fw_tools/RJ-2023.2-linux/HWC_RCS_LX7_0p5_RJ2/xtensa-elf/lib//libc.a(memset.o)
 .xtensa.info   0x000001e8        0x0 /nfs/site/disks/xne_abc_fe_002/fw_tools/RJ-2023.2-linux/HWC_RCS_LX7_0p5_RJ2/xtensa-elf/lib/xcc//libgcc.a(_muldf3.o)
 .xtensa.info   0x000001e8        0x0 /nfs/site/disks/xne_abc_fe_002/fw_tools/RJ-2023.2-linux/HWC_RCS_LX7_0p5_RJ2/xtensa-elf/lib/xcc//libgcc.a(_fixunsdfdi.o)
 .xtensa.info   0x000001e8        0x0 /nfs/site/disks/xne_abc_fe_002/fw_tools/RJ-2023.2-linux/HWC_RCS_LX7_0p5_RJ2/xtensa-elf/lib/xcc//libgcc.a(_floatsidf.o)
 .xtensa.info   0x000001e8        0x0 /nfs/site/disks/xne_abc_fe_002/fw_tools/RJ-2023.2-linux/HWC_RCS_LX7_0p5_RJ2/xtensa-elf/lib/xcc//libgcc.a(_muldi3.o)
 .xtensa.info   0x000001e8        0x0 /nfs/site/disks/xne_abc_fe_002/fw_tools/RJ-2023.2-linux/HWC_RCS_LX7_0p5_RJ2/xtensa-elf/lib/xcc//libgcc.a(_udivdi3.o)
 .xtensa.info   0x000001e8        0x0 /nfs/site/disks/xne_abc_fe_002/fw_tools/RJ-2023.2-linux/HWC_RCS_LX7_0p5_RJ2/xtensa-elf/lib/xcc//libgcc.a(softfloat_div_df.o)
 .xtensa.info   0x000001e8        0x0 /nfs/site/disks/xne_abc_fe_002/fw_tools/RJ-2023.2-linux/HWC_RCS_LX7_0p5_RJ2/xtensa-elf/lib/xcc//libgcc.a(_umulsidi3.o)
 .xtensa.info   0x000001e8        0x0 /nfs/site/disks/xne_abc_fe_002/fw_tools/RJ-2023.2-linux/HWC_RCS_LX7_0p5_RJ2/xtensa-elf/lib/xcc//libgcc.a(softfloat_cmn.o)
 .xtensa.info   0x000001e8        0x0 /nfs/site/disks/xne_abc_fe_002/fw_tools/RJ-2023.2-linux/HWC_RCS_LX7_0p5_RJ2/xtensa-elf/lib/xcc//libgcc.a(softfloat_cmn_df.o)
 .xtensa.info   0x000001e8        0x0 /nfs/site/disks/xne_abc_fe_002/fw_tools/RJ-2023.2-linux/HWC_RCS_LX7_0p5_RJ2/xtensa-elf/lib/xcc//libgcc.a(softfloat_cmn_div.o)
 .xtensa.info   0x000001e8        0x0 /nfs/site/disks/xne_abc_fe_002/fw_tools/RJ-2023.2-linux/HWC_RCS_LX7_0p5_RJ2/xtensa-elf/arch/lib//libhandlers-board.a(debug-vector.o)
 .xtensa.info   0x000001e8        0x0 /nfs/site/disks/xne_abc_fe_002/fw_tools/RJ-2023.2-linux/HWC_RCS_LX7_0p5_RJ2/xtensa-elf/arch/lib//libhandlers-board.a(reset-vector-unpack.o)
 .xtensa.info   0x000001e8        0x0 /nfs/site/disks/xne_abc_fe_002/fw_tools/RJ-2023.2-linux/HWC_RCS_LX7_0p5_RJ2/xtensa-elf/arch/lib//libhandlers-board.a(memctl_default.o)
 .xtensa.info   0x000001e8        0x0 /nfs/site/disks/xne_abc_fe_002/fw_tools/RJ-2023.2-linux/HWC_RCS_LX7_0p5_RJ2/xtensa-elf/arch/lib//libhandlers-board.a(xtos-interrupt-enable.o)
 .xtensa.info   0x000001e8        0x0 /nfs/site/disks/xne_abc_fe_002/fw_tools/RJ-2023.2-linux/HWC_RCS_LX7_0p5_RJ2/xtensa-elf/arch/lib//libhandlers-board.a(xtos-interrupt-disable.o)
 .xtensa.info   0x000001e8        0x0 /nfs/site/disks/xne_abc_fe_002/fw_tools/RJ-2023.2-linux/HWC_RCS_LX7_0p5_RJ2/xtensa-elf/arch/lib//libhandlers-board.a(xtos-set-inthandler.o)
 .xtensa.info   0x000001e8        0x0 /nfs/site/disks/xne_abc_fe_002/fw_tools/RJ-2023.2-linux/HWC_RCS_LX7_0p5_RJ2/xtensa-elf/arch/lib//libhandlers-board.a(exc-syscall-handler.o)
 .xtensa.info   0x000001e8        0x0 /nfs/site/disks/xne_abc_fe_002/fw_tools/RJ-2023.2-linux/HWC_RCS_LX7_0p5_RJ2/xtensa-elf/arch/lib//libhandlers-board.a(memerror-vector-S--vector-.o)
 .xtensa.info   0x000001e8        0x0 /nfs/site/disks/xne_abc_fe_002/fw_tools/RJ-2023.2-linux/HWC_RCS_LX7_0p5_RJ2/xtensa-elf/arch/lib//libhandlers-board.a(nmi-vector.o)
 .xtensa.info   0x000001e8        0x0 /nfs/site/disks/xne_abc_fe_002/fw_tools/RJ-2023.2-linux/HWC_RCS_LX7_0p5_RJ2/xtensa-elf/arch/lib//libhandlers-board.a(window-vectors.o)
 .xtensa.info   0x000001e8        0x0 /nfs/site/disks/xne_abc_fe_002/fw_tools/RJ-2023.2-linux/HWC_RCS_LX7_0p5_RJ2/xtensa-elf/arch/lib//libhandlers-board.a(int-vector-level2.o)
 .xtensa.info   0x000001e8        0x0 /nfs/site/disks/xne_abc_fe_002/fw_tools/RJ-2023.2-linux/HWC_RCS_LX7_0p5_RJ2/xtensa-elf/arch/lib//libhandlers-board.a(int-vector-level3.o)
 .xtensa.info   0x000001e8        0x0 /nfs/site/disks/xne_abc_fe_002/fw_tools/RJ-2023.2-linux/HWC_RCS_LX7_0p5_RJ2/xtensa-elf/arch/lib//libhandlers-board.a(int-vector-level4.o)
 .xtensa.info   0x000001e8        0x0 /nfs/site/disks/xne_abc_fe_002/fw_tools/RJ-2023.2-linux/HWC_RCS_LX7_0p5_RJ2/xtensa-elf/arch/lib//libhandlers-board.a(int-handler-level2.o)
 .xtensa.info   0x000001e8        0x0 /nfs/site/disks/xne_abc_fe_002/fw_tools/RJ-2023.2-linux/HWC_RCS_LX7_0p5_RJ2/xtensa-elf/arch/lib//libhandlers-board.a(int-handler-level3.o)
 .xtensa.info   0x000001e8        0x0 /nfs/site/disks/xne_abc_fe_002/fw_tools/RJ-2023.2-linux/HWC_RCS_LX7_0p5_RJ2/xtensa-elf/arch/lib//libhandlers-board.a(int-handler-level4.o)
 .xtensa.info   0x000001e8        0x0 /nfs/site/disks/xne_abc_fe_002/fw_tools/RJ-2023.2-linux/HWC_RCS_LX7_0p5_RJ2/xtensa-elf/arch/lib//libhandlers-board.a(int-lowpri-dispatcher.o)
 .xtensa.info   0x000001e8        0x0 /nfs/site/disks/xne_abc_fe_002/fw_tools/RJ-2023.2-linux/HWC_RCS_LX7_0p5_RJ2/xtensa-elf/arch/lib//libhandlers-board.a(exc-return.o)
 .xtensa.info   0x000001e8        0x0 /nfs/site/disks/xne_abc_fe_002/fw_tools/RJ-2023.2-linux/HWC_RCS_LX7_0p5_RJ2/xtensa-elf/arch/lib//libhal.a(clock.o)
 .xtensa.info   0x000001e8        0x0 /nfs/site/disks/xne_abc_fe_002/fw_tools/RJ-2023.2-linux/HWC_RCS_LX7_0p5_RJ2/xtensa-elf/arch/lib//libhal.a(cache_asm--hw_configid0.o)
 .xtensa.info   0x000001e8        0x0 /nfs/site/disks/xne_abc_fe_002/fw_tools/RJ-2023.2-linux/HWC_RCS_LX7_0p5_RJ2/xtensa-elf/arch/lib//libhal.a(cache_asm--hw_configid1.o)
 .xtensa.info   0x000001e8        0x0 /nfs/site/disks/xne_abc_fe_002/fw_tools/RJ-2023.2-linux/HWC_RCS_LX7_0p5_RJ2/xtensa-elf/arch/lib//libhal.a(cache_asm--release_major.o)
 .xtensa.info   0x000001e8        0x0 /nfs/site/disks/xne_abc_fe_002/fw_tools/RJ-2023.2-linux/HWC_RCS_LX7_0p5_RJ2/xtensa-elf/arch/lib//libhal.a(cache_asm--release_minor.o)
 .xtensa.info   0x000001e8        0x0 /nfs/site/disks/xne_abc_fe_002/fw_tools/RJ-2023.2-linux/HWC_RCS_LX7_0p5_RJ2/xtensa-elf/arch/lib//libhal.a(const--intlevel.o)

.debug.xt.callgraph
 *(.debug.xt.callgraph .debug.xt.callgraph.* .gnu.linkonce.xt.callgraph.*)

.comment        0x00000000       0x27
 *(.comment)
 .comment       0x00000000       0x27 /nfs/site/disks/zsc14.xne_abc_fe_001/users/chandrbi/emulval_0p8_17Jun/abc_emul-srvrgen4/src/rcs_fw/out/rx/hw/com_tables.o
                                         0x28 (size before relaxing)
 .comment       0x00000027       0x28 /nfs/site/disks/zsc14.xne_abc_fe_001/users/chandrbi/emulval_0p8_17Jun/abc_emul-srvrgen4/src/rcs_fw/out/rx/hw/rx_tables.o
 .comment       0x00000027       0x28 /nfs/site/disks/zsc14.xne_abc_fe_001/users/chandrbi/emulval_0p8_17Jun/abc_emul-srvrgen4/src/rcs_fw/out/rx/hw/fw_ver.o
 .comment       0x00000027       0x28 /nfs/site/disks/zsc14.xne_abc_fe_001/users/chandrbi/emulval_0p8_17Jun/abc_emul-srvrgen4/src/rcs_fw/out/rx/hw/com_print.o
 .comment       0x00000027       0x28 /nfs/site/disks/zsc14.xne_abc_fe_001/users/chandrbi/emulval_0p8_17Jun/abc_emul-srvrgen4/src/rcs_fw/out/rx/hw/com_assert.o
 .comment       0x00000027       0x28 /nfs/site/disks/zsc14.xne_abc_fe_001/users/chandrbi/emulval_0p8_17Jun/abc_emul-srvrgen4/src/rcs_fw/out/rx/hw/com_heap.o
 .comment       0x00000027       0x28 /nfs/site/disks/zsc14.xne_abc_fe_001/users/chandrbi/emulval_0p8_17Jun/abc_emul-srvrgen4/src/rcs_fw/out/rx/hw/com_trax.o
 .comment       0x00000027       0x28 /nfs/site/disks/zsc14.xne_abc_fe_001/users/chandrbi/emulval_0p8_17Jun/abc_emul-srvrgen4/src/rcs_fw/out/rx/hw/com_isr.o
 .comment       0x00000027       0x28 /nfs/site/disks/zsc14.xne_abc_fe_001/users/chandrbi/emulval_0p8_17Jun/abc_emul-srvrgen4/src/rcs_fw/out/rx/hw/com_platform.o
 .comment       0x00000027       0x28 /nfs/site/disks/zsc14.xne_abc_fe_001/users/chandrbi/emulval_0p8_17Jun/abc_emul-srvrgen4/src/rcs_fw/out/rx/hw/com_bfn.o
 .comment       0x00000027       0x28 /nfs/site/disks/zsc14.xne_abc_fe_001/users/chandrbi/emulval_0p8_17Jun/abc_emul-srvrgen4/src/rcs_fw/out/rx/hw/com_trace_buffer.o
 .comment       0x00000027       0x28 /nfs/site/disks/zsc14.xne_abc_fe_001/users/chandrbi/emulval_0p8_17Jun/abc_emul-srvrgen4/src/rcs_fw/out/rx/hw/com_error.o
 .comment       0x00000027       0x28 /nfs/site/disks/zsc14.xne_abc_fe_001/users/chandrbi/emulval_0p8_17Jun/abc_emul-srvrgen4/src/rcs_fw/out/rx/hw/com_timing.o
 .comment       0x00000027       0x28 /nfs/site/disks/zsc14.xne_abc_fe_001/users/chandrbi/emulval_0p8_17Jun/abc_emul-srvrgen4/src/rcs_fw/out/rx/hw/com_fsm.o
 .comment       0x00000027       0x28 /nfs/site/disks/zsc14.xne_abc_fe_001/users/chandrbi/emulval_0p8_17Jun/abc_emul-srvrgen4/src/rcs_fw/out/rx/hw/com_boot.o
 .comment       0x00000027       0x28 /nfs/site/disks/zsc14.xne_abc_fe_001/users/chandrbi/emulval_0p8_17Jun/abc_emul-srvrgen4/src/rcs_fw/out/rx/hw/com_lock.o
 .comment       0x00000027       0x28 /nfs/site/disks/zsc14.xne_abc_fe_001/users/chandrbi/emulval_0p8_17Jun/abc_emul-srvrgen4/src/rcs_fw/out/rx/hw/com_idma.o
 .comment       0x00000027       0x28 /nfs/site/disks/zsc14.xne_abc_fe_001/users/chandrbi/emulval_0p8_17Jun/abc_emul-srvrgen4/src/rcs_fw/out/rx/hw/com_exception.o
 .comment       0x00000027       0x28 /nfs/site/disks/zsc14.xne_abc_fe_001/users/chandrbi/emulval_0p8_17Jun/abc_emul-srvrgen4/src/rcs_fw/out/rx/hw/com_swg.o
 .comment       0x00000027       0x28 /nfs/site/disks/zsc14.xne_abc_fe_001/users/chandrbi/emulval_0p8_17Jun/abc_emul-srvrgen4/src/rcs_fw/out/rx/hw/com_memory.o
 .comment       0x00000027       0x28 /nfs/site/disks/zsc14.xne_abc_fe_001/users/chandrbi/emulval_0p8_17Jun/abc_emul-srvrgen4/src/rcs_fw/out/rx/hw/com_gpdma.o
 .comment       0x00000027       0x28 /nfs/site/disks/zsc14.xne_abc_fe_001/users/chandrbi/emulval_0p8_17Jun/abc_emul-srvrgen4/src/rcs_fw/out/rx/hw/com_event.o
 .comment       0x00000027       0x28 /nfs/site/disks/zsc14.xne_abc_fe_001/users/chandrbi/emulval_0p8_17Jun/abc_emul-srvrgen4/src/rcs_fw/out/rx/hw/com_queue.o
 .comment       0x00000027       0x28 /nfs/site/disks/zsc14.xne_abc_fe_001/users/chandrbi/emulval_0p8_17Jun/abc_emul-srvrgen4/src/rcs_fw/out/rx/hw/com_msg_handler_utils.o
 .comment       0x00000027       0x28 /nfs/site/disks/zsc14.xne_abc_fe_001/users/chandrbi/emulval_0p8_17Jun/abc_emul-srvrgen4/src/rcs_fw/out/rx/hw/com_shared_memory_read_write.o
 .comment       0x00000027       0x28 /nfs/site/disks/zsc14.xne_abc_fe_001/users/chandrbi/emulval_0p8_17Jun/abc_emul-srvrgen4/src/rcs_fw/out/rx/hw/com_shared_memory.o
 .comment       0x00000027       0x28 /nfs/site/disks/zsc14.xne_abc_fe_001/users/chandrbi/emulval_0p8_17Jun/abc_emul-srvrgen4/src/rcs_fw/out/rx/hw/rx_msg_handler.o
 .comment       0x00000027       0x28 /nfs/site/disks/zsc14.xne_abc_fe_001/users/chandrbi/emulval_0p8_17Jun/abc_emul-srvrgen4/src/rcs_fw/out/rx/hw/rx_adc_cfg.o
 .comment       0x00000027       0x28 /nfs/site/disks/zsc14.xne_abc_fe_001/users/chandrbi/emulval_0p8_17Jun/abc_emul-srvrgen4/src/rcs_fw/out/rx/hw/rx_main.o
 .comment       0x00000027       0x28 /nfs/site/disks/zsc14.xne_abc_fe_001/users/chandrbi/emulval_0p8_17Jun/abc_emul-srvrgen4/src/rcs_fw/out/rx/hw/rx_lineup.o
 .comment       0x00000027       0x28 /nfs/site/disks/zsc14.xne_abc_fe_001/users/chandrbi/emulval_0p8_17Jun/abc_emul-srvrgen4/src/rcs_fw/out/rx/hw/rx_gain.o
 .comment       0x00000027       0x28 /nfs/site/disks/zsc14.xne_abc_fe_001/users/chandrbi/emulval_0p8_17Jun/abc_emul-srvrgen4/src/rcs_fw/out/rx/hw/rx_daco.o
 .comment       0x00000027       0x28 /nfs/site/disks/zsc14.xne_abc_fe_001/users/chandrbi/emulval_0p8_17Jun/abc_emul-srvrgen4/src/rcs_fw/out/rx/hw/rx_v2d.o
 .comment       0x00000027       0x28 /nfs/site/disks/xne_abc_fe_002/fw_tools/RJ-2023.2-linux/HWC_RCS_LX7_0p5_RJ2/xtensa-elf/lib/xcc//libgcc.a(_muldi3.o)
 .comment       0x00000027       0x28 /nfs/site/disks/xne_abc_fe_002/fw_tools/RJ-2023.2-linux/HWC_RCS_LX7_0p5_RJ2/xtensa-elf/lib/xcc//libgcc.a(_udivdi3.o)
 .comment       0x00000027       0x28 /nfs/site/disks/xne_abc_fe_002/fw_tools/RJ-2023.2-linux/HWC_RCS_LX7_0p5_RJ2/xtensa-elf/lib/xcc//libgcc.a(softfloat_div_df.o)
 .comment       0x00000027       0x28 /nfs/site/disks/xne_abc_fe_002/fw_tools/RJ-2023.2-linux/HWC_RCS_LX7_0p5_RJ2/xtensa-elf/lib/xcc//libgcc.a(softfloat_cmn.o)
 .comment       0x00000027       0x28 /nfs/site/disks/xne_abc_fe_002/fw_tools/RJ-2023.2-linux/HWC_RCS_LX7_0p5_RJ2/xtensa-elf/lib/xcc//libgcc.a(softfloat_cmn_df.o)
 .comment       0x00000027       0x28 /nfs/site/disks/xne_abc_fe_002/fw_tools/RJ-2023.2-linux/HWC_RCS_LX7_0p5_RJ2/xtensa-elf/lib/xcc//libgcc.a(softfloat_cmn_div.o)
 .comment       0x00000027       0x28 /nfs/site/disks/xne_abc_fe_002/fw_tools/RJ-2023.2-linux/HWC_RCS_LX7_0p5_RJ2/xtensa-elf/arch/lib//libhandlers-board.a(xtos-interrupt-enable.o)
 .comment       0x00000027       0x28 /nfs/site/disks/xne_abc_fe_002/fw_tools/RJ-2023.2-linux/HWC_RCS_LX7_0p5_RJ2/xtensa-elf/arch/lib//libhandlers-board.a(xtos-interrupt-disable.o)
 .comment       0x00000027       0x28 /nfs/site/disks/xne_abc_fe_002/fw_tools/RJ-2023.2-linux/HWC_RCS_LX7_0p5_RJ2/xtensa-elf/arch/lib//libhandlers-board.a(xtos-set-inthandler.o)
 .comment       0x00000027       0x28 /nfs/site/disks/xne_abc_fe_002/fw_tools/RJ-2023.2-linux/HWC_RCS_LX7_0p5_RJ2/xtensa-elf/arch/lib//libhal.a(const--intlevel.o)

.note.GNU-stack
                0x00000000        0x0
 *(.note.GNU-stack)
 .note.GNU-stack
                0x00000000        0x0 /nfs/site/disks/zsc14.xne_abc_fe_001/users/chandrbi/emulval_0p8_17Jun/abc_emul-srvrgen4/src/rcs_fw/out/rx/hw/com_tables.o
 .note.GNU-stack
                0x00000000        0x0 /nfs/site/disks/zsc14.xne_abc_fe_001/users/chandrbi/emulval_0p8_17Jun/abc_emul-srvrgen4/src/rcs_fw/out/rx/hw/rx_tables.o
 .note.GNU-stack
                0x00000000        0x0 /nfs/site/disks/zsc14.xne_abc_fe_001/users/chandrbi/emulval_0p8_17Jun/abc_emul-srvrgen4/src/rcs_fw/out/rx/hw/fw_ver.o
 .note.GNU-stack
                0x00000000        0x0 /nfs/site/disks/zsc14.xne_abc_fe_001/users/chandrbi/emulval_0p8_17Jun/abc_emul-srvrgen4/src/rcs_fw/out/rx/hw/com_print.o
 .note.GNU-stack
                0x00000000        0x0 /nfs/site/disks/zsc14.xne_abc_fe_001/users/chandrbi/emulval_0p8_17Jun/abc_emul-srvrgen4/src/rcs_fw/out/rx/hw/com_assert.o
 .note.GNU-stack
                0x00000000        0x0 /nfs/site/disks/zsc14.xne_abc_fe_001/users/chandrbi/emulval_0p8_17Jun/abc_emul-srvrgen4/src/rcs_fw/out/rx/hw/com_heap.o
 .note.GNU-stack
                0x00000000        0x0 /nfs/site/disks/zsc14.xne_abc_fe_001/users/chandrbi/emulval_0p8_17Jun/abc_emul-srvrgen4/src/rcs_fw/out/rx/hw/com_trax.o
 .note.GNU-stack
                0x00000000        0x0 /nfs/site/disks/zsc14.xne_abc_fe_001/users/chandrbi/emulval_0p8_17Jun/abc_emul-srvrgen4/src/rcs_fw/out/rx/hw/com_isr.o
 .note.GNU-stack
                0x00000000        0x0 /nfs/site/disks/zsc14.xne_abc_fe_001/users/chandrbi/emulval_0p8_17Jun/abc_emul-srvrgen4/src/rcs_fw/out/rx/hw/com_platform.o
 .note.GNU-stack
                0x00000000        0x0 /nfs/site/disks/zsc14.xne_abc_fe_001/users/chandrbi/emulval_0p8_17Jun/abc_emul-srvrgen4/src/rcs_fw/out/rx/hw/com_bfn.o
 .note.GNU-stack
                0x00000000        0x0 /nfs/site/disks/zsc14.xne_abc_fe_001/users/chandrbi/emulval_0p8_17Jun/abc_emul-srvrgen4/src/rcs_fw/out/rx/hw/com_trace_buffer.o
 .note.GNU-stack
                0x00000000        0x0 /nfs/site/disks/zsc14.xne_abc_fe_001/users/chandrbi/emulval_0p8_17Jun/abc_emul-srvrgen4/src/rcs_fw/out/rx/hw/com_error.o
 .note.GNU-stack
                0x00000000        0x0 /nfs/site/disks/zsc14.xne_abc_fe_001/users/chandrbi/emulval_0p8_17Jun/abc_emul-srvrgen4/src/rcs_fw/out/rx/hw/com_timing.o
 .note.GNU-stack
                0x00000000        0x0 /nfs/site/disks/zsc14.xne_abc_fe_001/users/chandrbi/emulval_0p8_17Jun/abc_emul-srvrgen4/src/rcs_fw/out/rx/hw/com_fsm.o
 .note.GNU-stack
                0x00000000        0x0 /nfs/site/disks/zsc14.xne_abc_fe_001/users/chandrbi/emulval_0p8_17Jun/abc_emul-srvrgen4/src/rcs_fw/out/rx/hw/com_boot.o
 .note.GNU-stack
                0x00000000        0x0 /nfs/site/disks/zsc14.xne_abc_fe_001/users/chandrbi/emulval_0p8_17Jun/abc_emul-srvrgen4/src/rcs_fw/out/rx/hw/com_lock.o
 .note.GNU-stack
                0x00000000        0x0 /nfs/site/disks/zsc14.xne_abc_fe_001/users/chandrbi/emulval_0p8_17Jun/abc_emul-srvrgen4/src/rcs_fw/out/rx/hw/com_idma.o
 .note.GNU-stack
                0x00000000        0x0 /nfs/site/disks/zsc14.xne_abc_fe_001/users/chandrbi/emulval_0p8_17Jun/abc_emul-srvrgen4/src/rcs_fw/out/rx/hw/com_exception.o
 .note.GNU-stack
                0x00000000        0x0 /nfs/site/disks/zsc14.xne_abc_fe_001/users/chandrbi/emulval_0p8_17Jun/abc_emul-srvrgen4/src/rcs_fw/out/rx/hw/com_swg.o
 .note.GNU-stack
                0x00000000        0x0 /nfs/site/disks/zsc14.xne_abc_fe_001/users/chandrbi/emulval_0p8_17Jun/abc_emul-srvrgen4/src/rcs_fw/out/rx/hw/com_memory.o
 .note.GNU-stack
                0x00000000        0x0 /nfs/site/disks/zsc14.xne_abc_fe_001/users/chandrbi/emulval_0p8_17Jun/abc_emul-srvrgen4/src/rcs_fw/out/rx/hw/com_gpdma.o
 .note.GNU-stack
                0x00000000        0x0 /nfs/site/disks/zsc14.xne_abc_fe_001/users/chandrbi/emulval_0p8_17Jun/abc_emul-srvrgen4/src/rcs_fw/out/rx/hw/com_event.o
 .note.GNU-stack
                0x00000000        0x0 /nfs/site/disks/zsc14.xne_abc_fe_001/users/chandrbi/emulval_0p8_17Jun/abc_emul-srvrgen4/src/rcs_fw/out/rx/hw/com_queue.o
 .note.GNU-stack
                0x00000000        0x0 /nfs/site/disks/zsc14.xne_abc_fe_001/users/chandrbi/emulval_0p8_17Jun/abc_emul-srvrgen4/src/rcs_fw/out/rx/hw/com_msg_handler_utils.o
 .note.GNU-stack
                0x00000000        0x0 /nfs/site/disks/zsc14.xne_abc_fe_001/users/chandrbi/emulval_0p8_17Jun/abc_emul-srvrgen4/src/rcs_fw/out/rx/hw/com_shared_memory_read_write.o
 .note.GNU-stack
                0x00000000        0x0 /nfs/site/disks/zsc14.xne_abc_fe_001/users/chandrbi/emulval_0p8_17Jun/abc_emul-srvrgen4/src/rcs_fw/out/rx/hw/com_shared_memory.o
 .note.GNU-stack
                0x00000000        0x0 /nfs/site/disks/zsc14.xne_abc_fe_001/users/chandrbi/emulval_0p8_17Jun/abc_emul-srvrgen4/src/rcs_fw/out/rx/hw/rx_msg_handler.o
 .note.GNU-stack
                0x00000000        0x0 /nfs/site/disks/zsc14.xne_abc_fe_001/users/chandrbi/emulval_0p8_17Jun/abc_emul-srvrgen4/src/rcs_fw/out/rx/hw/rx_adc_cfg.o
 .note.GNU-stack
                0x00000000        0x0 /nfs/site/disks/zsc14.xne_abc_fe_001/users/chandrbi/emulval_0p8_17Jun/abc_emul-srvrgen4/src/rcs_fw/out/rx/hw/rx_main.o
 .note.GNU-stack
                0x00000000        0x0 /nfs/site/disks/zsc14.xne_abc_fe_001/users/chandrbi/emulval_0p8_17Jun/abc_emul-srvrgen4/src/rcs_fw/out/rx/hw/rx_lineup.o
 .note.GNU-stack
                0x00000000        0x0 /nfs/site/disks/zsc14.xne_abc_fe_001/users/chandrbi/emulval_0p8_17Jun/abc_emul-srvrgen4/src/rcs_fw/out/rx/hw/rx_gain.o
 .note.GNU-stack
                0x00000000        0x0 /nfs/site/disks/zsc14.xne_abc_fe_001/users/chandrbi/emulval_0p8_17Jun/abc_emul-srvrgen4/src/rcs_fw/out/rx/hw/rx_daco.o
 .note.GNU-stack
                0x00000000        0x0 /nfs/site/disks/zsc14.xne_abc_fe_001/users/chandrbi/emulval_0p8_17Jun/abc_emul-srvrgen4/src/rcs_fw/out/rx/hw/rx_v2d.o
 .note.GNU-stack
                0x00000000        0x0 /nfs/site/disks/xne_abc_fe_002/fw_tools/RJ-2023.2-linux/HWC_RCS_LX7_0p5_RJ2/xtensa-elf/lib/xcc//libgcc.a(_muldi3.o)
 .note.GNU-stack
                0x00000000        0x0 /nfs/site/disks/xne_abc_fe_002/fw_tools/RJ-2023.2-linux/HWC_RCS_LX7_0p5_RJ2/xtensa-elf/lib/xcc//libgcc.a(_udivdi3.o)
 .note.GNU-stack
                0x00000000        0x0 /nfs/site/disks/xne_abc_fe_002/fw_tools/RJ-2023.2-linux/HWC_RCS_LX7_0p5_RJ2/xtensa-elf/lib/xcc//libgcc.a(softfloat_div_df.o)
 .note.GNU-stack
                0x00000000        0x0 /nfs/site/disks/xne_abc_fe_002/fw_tools/RJ-2023.2-linux/HWC_RCS_LX7_0p5_RJ2/xtensa-elf/lib/xcc//libgcc.a(softfloat_cmn.o)
 .note.GNU-stack
                0x00000000        0x0 /nfs/site/disks/xne_abc_fe_002/fw_tools/RJ-2023.2-linux/HWC_RCS_LX7_0p5_RJ2/xtensa-elf/lib/xcc//libgcc.a(softfloat_cmn_df.o)
 .note.GNU-stack
                0x00000000        0x0 /nfs/site/disks/xne_abc_fe_002/fw_tools/RJ-2023.2-linux/HWC_RCS_LX7_0p5_RJ2/xtensa-elf/lib/xcc//libgcc.a(softfloat_cmn_div.o)
 .note.GNU-stack
                0x00000000        0x0 /nfs/site/disks/xne_abc_fe_002/fw_tools/RJ-2023.2-linux/HWC_RCS_LX7_0p5_RJ2/xtensa-elf/arch/lib//libhandlers-board.a(xtos-interrupt-enable.o)
 .note.GNU-stack
                0x00000000        0x0 /nfs/site/disks/xne_abc_fe_002/fw_tools/RJ-2023.2-linux/HWC_RCS_LX7_0p5_RJ2/xtensa-elf/arch/lib//libhandlers-board.a(xtos-interrupt-disable.o)
 .note.GNU-stack
                0x00000000        0x0 /nfs/site/disks/xne_abc_fe_002/fw_tools/RJ-2023.2-linux/HWC_RCS_LX7_0p5_RJ2/xtensa-elf/arch/lib//libhandlers-board.a(xtos-set-inthandler.o)
 .note.GNU-stack
                0x00000000        0x0 /nfs/site/disks/xne_abc_fe_002/fw_tools/RJ-2023.2-linux/HWC_RCS_LX7_0p5_RJ2/xtensa-elf/arch/lib//libhal.a(const--intlevel.o)
OUTPUT(/nfs/site/disks/zsc14.xne_abc_fe_001/users/chandrbi/emulval_0p8_17Jun/abc_emul-srvrgen4/src/rcs_fw/out/bin/rx_hw.elf elf32-xtensa-le)

/DISCARD/

Memory Configuration

Name             Origin          Length          Used            Unused          Attributes
srom0_seg        0x00000000      0x00020000      0x00000008      0x0001fff8      
sram0_0_seg      0x00200000      0x00004000      0x00000000      0x00004000      
sram0_1_seg      0x00204000      0x0000c000      0x00000000      0x0000c000      
sram0_2_seg      0x00210000      0x00008000      0x00000000      0x00008000      
sram0_3_seg      0x00218000      0x00008000      0x00000000      0x00008000      
sram0_4_seg      0x00220000      0x00008000      0x00000000      0x00008000      
sram0_5_seg      0x00228000      0x00008000      0x00000000      0x00008000      
sram0_6_seg      0x00230000      0x0000ffeb      0x00000000      0x0000ffeb      
sram0_7_seg      0x0023ffec      0x00000004      0x00000000      0x00000004      
sram0_8_seg      0x0023fff0      0x00000004      0x00000000      0x00000004      
sram0_9_seg      0x0023fff4      0x00000004      0x00000000      0x00000004      
sram0_10_seg     0x0023fff8      0x00000004      0x00000000      0x00000004      
sram0_11_seg     0x0023fffc      0x00000004      0x00000000      0x00000004      
iram0_0_seg      0x10000000      0x00000300      0x000001b4      0x0000014c      
iram0_1_seg      0x10000300      0x00000030      0x00000000      0x00000030      
iram0_2_seg      0x10000330      0x00000180      0x00000028      0x00000158      
iram0_4_seg      0x10000800      0x00000178      0x0000016c      0x0000000c      
iram0_5_seg      0x10000978      0x00000008      0x00000000      0x00000008      
iram0_6_seg      0x10000980      0x00000038      0x00000008      0x00000030      
iram0_7_seg      0x100009b8      0x00000008      0x00000000      0x00000008      
iram0_8_seg      0x100009c0      0x00000038      0x00000008      0x00000030      
iram0_9_seg      0x100009f8      0x00000008      0x00000000      0x00000008      
iram0_10_seg     0x10000a00      0x00000038      0x00000008      0x00000030      
iram0_11_seg     0x10000a38      0x00000008      0x00000008      0x00000000      
iram0_12_seg     0x10000a40      0x00000038      0x00000034      0x00000004      
iram0_13_seg     0x10000a78      0x00000008      0x00000000      0x00000008      
iram0_14_seg     0x10000a80      0x00000038      0x00000004      0x00000034      
iram0_15_seg     0x10000ab8      0x00000008      0x00000008      0x00000000      
iram0_16_seg     0x10000ac0      0x00000038      0x00000028      0x00000010      
iram0_17_seg     0x10000af8      0x00000008      0x00000004      0x00000004      
iram0_18_seg     0x10000b00      0x00000038      0x0000001c      0x0000001c      
iram0_19_seg     0x10000b38      0x00000048      0x00000008      0x00000040      
iram0_20_seg     0x10000b80      0x00000040      0x00000028      0x00000018      
iram0_21_seg     0x10000bc0      0x0001f440      0x00004df4      0x0001a64c      
dram0_0_seg      0x10020000      0x00004000      0x00000424      0x00003bdc      
dram0_1_seg      0x10024000      0x00019000      0x00002250      0x00016db0      
*default*        0x00000000      0xffffffff      
